; Listing generated by Microsoft (R) Optimizing Compiler Version 18.00.31101.0 

	TITLE	C:\Users\Maxime\Videos\TP IA\VS2010\Buckland_Chapter7 to 10_Raven\goals\AttackTargetGoal_Evaluator.cpp
	.686P
	.XMM
	include listing.inc
	.model	flat

INCLUDELIB LIBCMTD
INCLUDELIB OLDNAMES

CONST	SEGMENT
_Pi	DQ	0400921f9f01b866er		; 3.14159
_pi	DQ	0400921f9f01b866er		; 3.14159
$SG146097 DB	'AT: ', 00H
	ORG $+3
$SG146195 DB	', ', 00H
	ORG $+1
_colors	DD	0ffH
	DD	0ff0000H
	DD	0ff00H
	DD	00H
	DD	0c8c8ffH
	DD	0c8c8c8H
	DD	0ffffH
	DD	0aaffH
	DD	0aa00ffH
	DD	05a85H
	DD	0ffffffH
	DD	06400H
	DD	0ffff00H
	DD	0c8c8c8H
	DD	0e6e6ffH
CONST	ENDS
PUBLIC	_hypot
PUBLIC	?max@?$numeric_limits@H@std@@SAHXZ		; std::numeric_limits<int>::max
PUBLIC	?min@?$numeric_limits@M@std@@SAMXZ		; std::numeric_limits<float>::min
PUBLIC	?max@?$numeric_limits@M@std@@SAMXZ		; std::numeric_limits<float>::max
PUBLIC	?min@?$numeric_limits@N@std@@SANXZ		; std::numeric_limits<double>::min
PUBLIC	?max@?$numeric_limits@N@std@@SANXZ		; std::numeric_limits<double>::max
PUBLIC	??2@YAPAXIPAX@Z					; operator new
PUBLIC	??3@YAXPAX0@Z					; operator delete
PUBLIC	?length@?$char_traits@D@std@@SAIPBD@Z		; std::char_traits<char>::length
PUBLIC	?copy@?$char_traits@D@std@@SAPADPADPBDI@Z	; std::char_traits<char>::copy
PUBLIC	?move@?$char_traits@D@std@@SAPADPADPBDI@Z	; std::char_traits<char>::move
PUBLIC	?assign@?$char_traits@D@std@@SAPADPADID@Z	; std::char_traits<char>::assign
PUBLIC	?assign@?$char_traits@D@std@@SAXAADABD@Z	; std::char_traits<char>::assign
PUBLIC	?eq@?$char_traits@D@std@@SA_NABD0@Z		; std::char_traits<char>::eq
PUBLIC	?to_char_type@?$char_traits@D@std@@SADABH@Z	; std::char_traits<char>::to_char_type
PUBLIC	?to_int_type@?$char_traits@D@std@@SAHABD@Z	; std::char_traits<char>::to_int_type
PUBLIC	?eq_int_type@?$char_traits@D@std@@SA_NABH0@Z	; std::char_traits<char>::eq_int_type
PUBLIC	?not_eof@?$char_traits@D@std@@SAHABH@Z		; std::char_traits<char>::not_eof
PUBLIC	?eof@?$char_traits@D@std@@SAHXZ			; std::char_traits<char>::eof
PUBLIC	??0_Container_proxy@std@@QAE@XZ			; std::_Container_proxy::_Container_proxy
PUBLIC	??0_Container_base12@std@@QAE@XZ		; std::_Container_base12::_Container_base12
PUBLIC	??1_Container_base12@std@@QAE@XZ		; std::_Container_base12::~_Container_base12
PUBLIC	?_Orphan_all@_Container_base12@std@@QAEXXZ	; std::_Container_base12::_Orphan_all
PUBLIC	?_Init_atomic_counter@std@@YAXAAKK@Z		; std::_Init_atomic_counter
PUBLIC	?select_on_container_copy_construction@?$allocator@D@std@@QBE?AV12@XZ ; std::allocator<char>::select_on_container_copy_construction
PUBLIC	??0?$allocator@D@std@@QAE@XZ			; std::allocator<char>::allocator<char>
PUBLIC	??0?$allocator@D@std@@QAE@ABV01@@Z		; std::allocator<char>::allocator<char>
PUBLIC	?deallocate@?$allocator@D@std@@QAEXPADI@Z	; std::allocator<char>::deallocate
PUBLIC	?allocate@?$allocator@D@std@@QAEPADI@Z		; std::allocator<char>::allocate
PUBLIC	?max_size@?$allocator@D@std@@QBEIXZ		; std::allocator<char>::max_size
PUBLIC	?max_size@?$allocator_traits@V?$allocator@D@std@@@std@@SAIABV?$allocator@D@2@@Z ; std::allocator_traits<std::allocator<char> >::max_size
PUBLIC	?select_on_container_copy_construction@?$allocator_traits@V?$allocator@D@std@@@std@@SA?AV?$allocator@D@2@ABV32@@Z ; std::allocator_traits<std::allocator<char> >::select_on_container_copy_construction
PUBLIC	?select_on_container_copy_construction@?$_Wrap_alloc@V?$allocator@D@std@@@std@@QBE?AU12@XZ ; std::_Wrap_alloc<std::allocator<char> >::select_on_container_copy_construction
PUBLIC	??0?$_Wrap_alloc@V?$allocator@D@std@@@std@@QAE@XZ ; std::_Wrap_alloc<std::allocator<char> >::_Wrap_alloc<std::allocator<char> >
PUBLIC	??0?$_Wrap_alloc@V?$allocator@D@std@@@std@@QAE@ABV?$allocator@D@1@@Z ; std::_Wrap_alloc<std::allocator<char> >::_Wrap_alloc<std::allocator<char> >
PUBLIC	?allocate@?$_Wrap_alloc@V?$allocator@D@std@@@std@@QAEPADI@Z ; std::_Wrap_alloc<std::allocator<char> >::allocate
PUBLIC	?deallocate@?$_Wrap_alloc@V?$allocator@D@std@@@std@@QAEXPADI@Z ; std::_Wrap_alloc<std::allocator<char> >::deallocate
PUBLIC	?max_size@?$_Wrap_alloc@V?$allocator@D@std@@@std@@QBEIXZ ; std::_Wrap_alloc<std::allocator<char> >::max_size
PUBLIC	??0?$_String_val@U?$_Simple_types@D@std@@@std@@QAE@XZ ; std::_String_val<std::_Simple_types<char> >::_String_val<std::_Simple_types<char> >
PUBLIC	?_Myptr@?$_String_val@U?$_Simple_types@D@std@@@std@@QAEPADXZ ; std::_String_val<std::_Simple_types<char> >::_Myptr
PUBLIC	?_Myptr@?$_String_val@U?$_Simple_types@D@std@@@std@@QBEPBDXZ ; std::_String_val<std::_Simple_types<char> >::_Myptr
PUBLIC	??1?$_String_val@U?$_Simple_types@D@std@@@std@@QAE@XZ ; std::_String_val<std::_Simple_types<char> >::~_String_val<std::_Simple_types<char> >
PUBLIC	??0?$_String_alloc@$0A@U?$_String_base_types@DV?$allocator@D@std@@@std@@@std@@QAE@ABV?$allocator@D@1@@Z ; std::_String_alloc<0,std::_String_base_types<char,std::allocator<char> > >::_String_alloc<0,std::_String_base_types<char,std::allocator<char> > >
PUBLIC	??1?$_String_alloc@$0A@U?$_String_base_types@DV?$allocator@D@std@@@std@@@std@@QAE@XZ ; std::_String_alloc<0,std::_String_base_types<char,std::allocator<char> > >::~_String_alloc<0,std::_String_base_types<char,std::allocator<char> > >
PUBLIC	?_Change_alloc@?$_String_alloc@$0A@U?$_String_base_types@DV?$allocator@D@std@@@std@@@std@@QAEXABU?$_Wrap_alloc@V?$allocator@D@std@@@2@@Z ; std::_String_alloc<0,std::_String_base_types<char,std::allocator<char> > >::_Change_alloc
PUBLIC	?_Alloc_proxy@?$_String_alloc@$0A@U?$_String_base_types@DV?$allocator@D@std@@@std@@@std@@QAEXXZ ; std::_String_alloc<0,std::_String_base_types<char,std::allocator<char> > >::_Alloc_proxy
PUBLIC	?_Free_proxy@?$_String_alloc@$0A@U?$_String_base_types@DV?$allocator@D@std@@@std@@@std@@QAEXXZ ; std::_String_alloc<0,std::_String_base_types<char,std::allocator<char> > >::_Free_proxy
PUBLIC	?_Getal@?$_String_alloc@$0A@U?$_String_base_types@DV?$allocator@D@std@@@std@@@std@@QBE?AU?$_Wrap_alloc@V?$allocator@D@std@@@2@XZ ; std::_String_alloc<0,std::_String_base_types<char,std::allocator<char> > >::_Getal
PUBLIC	??0?$basic_string@DU?$char_traits@D@std@@V?$allocator@D@2@@std@@QAE@ABV01@@Z ; std::basic_string<char,std::char_traits<char>,std::allocator<char> >::basic_string<char,std::char_traits<char>,std::allocator<char> >
PUBLIC	??0?$basic_string@DU?$char_traits@D@std@@V?$allocator@D@2@@std@@QAE@XZ ; std::basic_string<char,std::char_traits<char>,std::allocator<char> >::basic_string<char,std::char_traits<char>,std::allocator<char> >
PUBLIC	??0?$basic_string@DU?$char_traits@D@std@@V?$allocator@D@2@@std@@QAE@PBDI@Z ; std::basic_string<char,std::char_traits<char>,std::allocator<char> >::basic_string<char,std::char_traits<char>,std::allocator<char> >
PUBLIC	??0?$basic_string@DU?$char_traits@D@std@@V?$allocator@D@2@@std@@QAE@PBD@Z ; std::basic_string<char,std::char_traits<char>,std::allocator<char> >::basic_string<char,std::char_traits<char>,std::allocator<char> >
PUBLIC	??0?$basic_string@DU?$char_traits@D@std@@V?$allocator@D@2@@std@@QAE@ID@Z ; std::basic_string<char,std::char_traits<char>,std::allocator<char> >::basic_string<char,std::char_traits<char>,std::allocator<char> >
PUBLIC	??0?$basic_string@DU?$char_traits@D@std@@V?$allocator@D@2@@std@@QAE@$$QAV01@@Z ; std::basic_string<char,std::char_traits<char>,std::allocator<char> >::basic_string<char,std::char_traits<char>,std::allocator<char> >
PUBLIC	?assign@?$basic_string@DU?$char_traits@D@std@@V?$allocator@D@2@@std@@QAEAAV12@$$QAV12@@Z ; std::basic_string<char,std::char_traits<char>,std::allocator<char> >::assign
PUBLIC	?_Assign_rv@?$basic_string@DU?$char_traits@D@std@@V?$allocator@D@2@@std@@QAEX$$QAV12@@Z ; std::basic_string<char,std::char_traits<char>,std::allocator<char> >::_Assign_rv
PUBLIC	??1?$basic_string@DU?$char_traits@D@std@@V?$allocator@D@2@@std@@QAE@XZ ; std::basic_string<char,std::char_traits<char>,std::allocator<char> >::~basic_string<char,std::char_traits<char>,std::allocator<char> >
PUBLIC	??4?$basic_string@DU?$char_traits@D@std@@V?$allocator@D@2@@std@@QAEAAV01@ABV01@@Z ; std::basic_string<char,std::char_traits<char>,std::allocator<char> >::operator=
PUBLIC	?append@?$basic_string@DU?$char_traits@D@std@@V?$allocator@D@2@@std@@QAEAAV12@ABV12@@Z ; std::basic_string<char,std::char_traits<char>,std::allocator<char> >::append
PUBLIC	?append@?$basic_string@DU?$char_traits@D@std@@V?$allocator@D@2@@std@@QAEAAV12@ABV12@II@Z ; std::basic_string<char,std::char_traits<char>,std::allocator<char> >::append
PUBLIC	?append@?$basic_string@DU?$char_traits@D@std@@V?$allocator@D@2@@std@@QAEAAV12@PBDI@Z ; std::basic_string<char,std::char_traits<char>,std::allocator<char> >::append
PUBLIC	?append@?$basic_string@DU?$char_traits@D@std@@V?$allocator@D@2@@std@@QAEAAV12@PBD@Z ; std::basic_string<char,std::char_traits<char>,std::allocator<char> >::append
PUBLIC	?assign@?$basic_string@DU?$char_traits@D@std@@V?$allocator@D@2@@std@@QAEAAV12@ABV12@@Z ; std::basic_string<char,std::char_traits<char>,std::allocator<char> >::assign
PUBLIC	?assign@?$basic_string@DU?$char_traits@D@std@@V?$allocator@D@2@@std@@QAEAAV12@ABV12@II@Z ; std::basic_string<char,std::char_traits<char>,std::allocator<char> >::assign
PUBLIC	?assign@?$basic_string@DU?$char_traits@D@std@@V?$allocator@D@2@@std@@QAEAAV12@PBDI@Z ; std::basic_string<char,std::char_traits<char>,std::allocator<char> >::assign
PUBLIC	?assign@?$basic_string@DU?$char_traits@D@std@@V?$allocator@D@2@@std@@QAEAAV12@PBD@Z ; std::basic_string<char,std::char_traits<char>,std::allocator<char> >::assign
PUBLIC	?assign@?$basic_string@DU?$char_traits@D@std@@V?$allocator@D@2@@std@@QAEAAV12@ID@Z ; std::basic_string<char,std::char_traits<char>,std::allocator<char> >::assign
PUBLIC	?insert@?$basic_string@DU?$char_traits@D@std@@V?$allocator@D@2@@std@@QAEAAV12@IABV12@@Z ; std::basic_string<char,std::char_traits<char>,std::allocator<char> >::insert
PUBLIC	?insert@?$basic_string@DU?$char_traits@D@std@@V?$allocator@D@2@@std@@QAEAAV12@IABV12@II@Z ; std::basic_string<char,std::char_traits<char>,std::allocator<char> >::insert
PUBLIC	?insert@?$basic_string@DU?$char_traits@D@std@@V?$allocator@D@2@@std@@QAEAAV12@IPBDI@Z ; std::basic_string<char,std::char_traits<char>,std::allocator<char> >::insert
PUBLIC	?insert@?$basic_string@DU?$char_traits@D@std@@V?$allocator@D@2@@std@@QAEAAV12@IPBD@Z ; std::basic_string<char,std::char_traits<char>,std::allocator<char> >::insert
PUBLIC	?insert@?$basic_string@DU?$char_traits@D@std@@V?$allocator@D@2@@std@@QAEAAV12@IID@Z ; std::basic_string<char,std::char_traits<char>,std::allocator<char> >::insert
PUBLIC	?erase@?$basic_string@DU?$char_traits@D@std@@V?$allocator@D@2@@std@@QAEAAV12@I@Z ; std::basic_string<char,std::char_traits<char>,std::allocator<char> >::erase
PUBLIC	?erase@?$basic_string@DU?$char_traits@D@std@@V?$allocator@D@2@@std@@QAEAAV12@II@Z ; std::basic_string<char,std::char_traits<char>,std::allocator<char> >::erase
PUBLIC	??A?$basic_string@DU?$char_traits@D@std@@V?$allocator@D@2@@std@@QAEAADI@Z ; std::basic_string<char,std::char_traits<char>,std::allocator<char> >::operator[]
PUBLIC	??A?$basic_string@DU?$char_traits@D@std@@V?$allocator@D@2@@std@@QBEABDI@Z ; std::basic_string<char,std::char_traits<char>,std::allocator<char> >::operator[]
PUBLIC	?c_str@?$basic_string@DU?$char_traits@D@std@@V?$allocator@D@2@@std@@QBEPBDXZ ; std::basic_string<char,std::char_traits<char>,std::allocator<char> >::c_str
PUBLIC	?size@?$basic_string@DU?$char_traits@D@std@@V?$allocator@D@2@@std@@QBEIXZ ; std::basic_string<char,std::char_traits<char>,std::allocator<char> >::size
PUBLIC	?max_size@?$basic_string@DU?$char_traits@D@std@@V?$allocator@D@2@@std@@QBEIXZ ; std::basic_string<char,std::char_traits<char>,std::allocator<char> >::max_size
PUBLIC	?capacity@?$basic_string@DU?$char_traits@D@std@@V?$allocator@D@2@@std@@QBEIXZ ; std::basic_string<char,std::char_traits<char>,std::allocator<char> >::capacity
PUBLIC	?empty@?$basic_string@DU?$char_traits@D@std@@V?$allocator@D@2@@std@@QBE_NXZ ; std::basic_string<char,std::char_traits<char>,std::allocator<char> >::empty
PUBLIC	?get_allocator@?$basic_string@DU?$char_traits@D@std@@V?$allocator@D@2@@std@@QBE?AV?$allocator@D@2@XZ ; std::basic_string<char,std::char_traits<char>,std::allocator<char> >::get_allocator
PUBLIC	?_Chassign@?$basic_string@DU?$char_traits@D@std@@V?$allocator@D@2@@std@@QAEXIID@Z ; std::basic_string<char,std::char_traits<char>,std::allocator<char> >::_Chassign
PUBLIC	?_Copy@?$basic_string@DU?$char_traits@D@std@@V?$allocator@D@2@@std@@QAEXII@Z ; std::basic_string<char,std::char_traits<char>,std::allocator<char> >::_Copy
PUBLIC	?_Eos@?$basic_string@DU?$char_traits@D@std@@V?$allocator@D@2@@std@@QAEXI@Z ; std::basic_string<char,std::char_traits<char>,std::allocator<char> >::_Eos
PUBLIC	?_Grow@?$basic_string@DU?$char_traits@D@std@@V?$allocator@D@2@@std@@QAE_NI_N@Z ; std::basic_string<char,std::char_traits<char>,std::allocator<char> >::_Grow
PUBLIC	?_Inside@?$basic_string@DU?$char_traits@D@std@@V?$allocator@D@2@@std@@QAE_NPBD@Z ; std::basic_string<char,std::char_traits<char>,std::allocator<char> >::_Inside
PUBLIC	?_Tidy@?$basic_string@DU?$char_traits@D@std@@V?$allocator@D@2@@std@@QAEX_NI@Z ; std::basic_string<char,std::char_traits<char>,std::allocator<char> >::_Tidy
PUBLIC	?_Xlen@?$basic_string@DU?$char_traits@D@std@@V?$allocator@D@2@@std@@QBEXXZ ; std::basic_string<char,std::char_traits<char>,std::allocator<char> >::_Xlen
PUBLIC	?_Xran@?$basic_string@DU?$char_traits@D@std@@V?$allocator@D@2@@std@@QBEXXZ ; std::basic_string<char,std::char_traits<char>,std::allocator<char> >::_Xran
PUBLIC	??0runtime_error@std@@QAE@ABV?$basic_string@DU?$char_traits@D@std@@V?$allocator@D@2@@1@@Z ; std::runtime_error::runtime_error
PUBLIC	??0runtime_error@std@@QAE@PBD@Z			; std::runtime_error::runtime_error
PUBLIC	??1runtime_error@std@@UAE@XZ			; std::runtime_error::~runtime_error
PUBLIC	??0runtime_error@std@@QAE@ABV01@@Z		; std::runtime_error::runtime_error
PUBLIC	??_Gruntime_error@std@@UAEPAXI@Z		; std::runtime_error::`scalar deleting destructor'
PUBLIC	??0_Ignore@std@@QAE@XZ				; std::_Ignore::_Ignore
PUBLIC	??0_Locinfo@std@@QAE@PBD@Z			; std::_Locinfo::_Locinfo
PUBLIC	??1_Locinfo@std@@QAE@XZ				; std::_Locinfo::~_Locinfo
PUBLIC	?_Getctype@_Locinfo@std@@QBE?AU_Ctypevec@@XZ	; std::_Locinfo::_Getctype
PUBLIC	?_Getcvt@_Locinfo@std@@QBE?AU_Cvtvec@@XZ	; std::_Locinfo::_Getcvt
PUBLIC	?_Getlconv@_Locinfo@std@@QBEPBUlconv@@XZ	; std::_Locinfo::_Getlconv
PUBLIC	?_Getfalse@_Locinfo@std@@QBEPBDXZ		; std::_Locinfo::_Getfalse
PUBLIC	?_Gettrue@_Locinfo@std@@QBEPBDXZ		; std::_Locinfo::_Gettrue
PUBLIC	??0?$_Yarn@D@std@@QAE@XZ			; std::_Yarn<char>::_Yarn<char>
PUBLIC	??1?$_Yarn@D@std@@QAE@XZ			; std::_Yarn<char>::~_Yarn<char>
PUBLIC	?c_str@?$_Yarn@D@std@@QBEPBDXZ			; std::_Yarn<char>::c_str
PUBLIC	?_Tidy@?$_Yarn@D@std@@AAEXXZ			; std::_Yarn<char>::_Tidy
PUBLIC	??0?$_Yarn@_W@std@@QAE@XZ			; std::_Yarn<wchar_t>::_Yarn<wchar_t>
PUBLIC	??1?$_Yarn@_W@std@@QAE@XZ			; std::_Yarn<wchar_t>::~_Yarn<wchar_t>
PUBLIC	?_Tidy@?$_Yarn@_W@std@@AAEXXZ			; std::_Yarn<wchar_t>::_Tidy
PUBLIC	??1_Facet_base@std@@UAE@XZ			; std::_Facet_base::~_Facet_base
PUBLIC	??0_Facet_base@std@@QAE@XZ			; std::_Facet_base::_Facet_base
PUBLIC	??_G_Facet_base@std@@UAEPAXI@Z			; std::_Facet_base::`scalar deleting destructor'
PUBLIC	??0id@locale@std@@QAE@I@Z			; std::locale::id::id
PUBLIC	??Bid@locale@std@@QAEIXZ			; std::locale::id::operator unsigned int
PUBLIC	??2facet@locale@std@@SAPAXIABU_DebugHeapTag_t@2@PADH@Z ; std::locale::facet::operator new
PUBLIC	??3facet@locale@std@@SAXPAXABU_DebugHeapTag_t@2@PADH@Z ; std::locale::facet::operator delete
PUBLIC	??3facet@locale@std@@SAXPAX@Z			; std::locale::facet::operator delete
PUBLIC	?_Incref@facet@locale@std@@UAEXXZ		; std::locale::facet::_Incref
PUBLIC	?_Decref@facet@locale@std@@UAEPAV_Facet_base@3@XZ ; std::locale::facet::_Decref
PUBLIC	??0facet@locale@std@@IAE@I@Z			; std::locale::facet::facet
PUBLIC	??1facet@locale@std@@MAE@XZ			; std::locale::facet::~facet
PUBLIC	??_Gfacet@locale@std@@MAEPAXI@Z			; std::locale::facet::`scalar deleting destructor'
PUBLIC	??0locale@std@@QAE@ABV01@@Z			; std::locale::locale
PUBLIC	??0locale@std@@QAE@XZ				; std::locale::locale
PUBLIC	??1locale@std@@QAE@XZ				; std::locale::~locale
PUBLIC	?c_str@locale@std@@QBEPBDXZ			; std::locale::c_str
PUBLIC	?_Getfacet@locale@std@@QBEPBVfacet@12@I@Z	; std::locale::_Getfacet
PUBLIC	??_Glocale@std@@QAEPAXI@Z			; std::locale::`scalar deleting destructor'
PUBLIC	??$_DebugHeapDelete@Vfacet@locale@std@@@std@@YAXPAVfacet@locale@0@@Z ; std::_DebugHeapDelete<std::locale::facet>
PUBLIC	??$_DebugHeapDelete@V_Facet_base@std@@@std@@YAXPAV_Facet_base@0@@Z ; std::_DebugHeapDelete<std::_Facet_base>
PUBLIC	??$_Debug_range@PBD@std@@YAXPBD0PB_WI@Z		; std::_Debug_range<char const *>
PUBLIC	??0ctype_base@std@@QAE@I@Z			; std::ctype_base::ctype_base
PUBLIC	??1ctype_base@std@@UAE@XZ			; std::ctype_base::~ctype_base
PUBLIC	??_Gctype_base@std@@UAEPAXI@Z			; std::ctype_base::`scalar deleting destructor'
PUBLIC	?widen@?$ctype@D@std@@QBEDD@Z			; std::ctype<char>::widen
PUBLIC	?widen@?$ctype@D@std@@QBEPBDPBD0PAD@Z		; std::ctype<char>::widen
PUBLIC	??0?$ctype@D@std@@QAE@ABV_Locinfo@1@I@Z		; std::ctype<char>::ctype<char>
PUBLIC	?_Getcat@?$ctype@D@std@@SAIPAPBVfacet@locale@2@PBV42@@Z ; std::ctype<char>::_Getcat
PUBLIC	??1?$ctype@D@std@@MAE@XZ			; std::ctype<char>::~ctype<char>
PUBLIC	?_Init@?$ctype@D@std@@IAEXABV_Locinfo@2@@Z	; std::ctype<char>::_Init
PUBLIC	?_Tidy@?$ctype@D@std@@IAEXXZ			; std::ctype<char>::_Tidy
PUBLIC	?do_tolower@?$ctype@D@std@@MBEDD@Z		; std::ctype<char>::do_tolower
PUBLIC	?do_tolower@?$ctype@D@std@@MBEPBDPADPBD@Z	; std::ctype<char>::do_tolower
PUBLIC	?do_toupper@?$ctype@D@std@@MBEDD@Z		; std::ctype<char>::do_toupper
PUBLIC	?do_toupper@?$ctype@D@std@@MBEPBDPADPBD@Z	; std::ctype<char>::do_toupper
PUBLIC	?do_widen@?$ctype@D@std@@MBEDD@Z		; std::ctype<char>::do_widen
PUBLIC	?do_widen@?$ctype@D@std@@MBEPBDPBD0PAD@Z	; std::ctype<char>::do_widen
PUBLIC	?do_narrow@?$ctype@D@std@@MBEDDD@Z		; std::ctype<char>::do_narrow
PUBLIC	?do_narrow@?$ctype@D@std@@MBEPBDPBD0DPAD@Z	; std::ctype<char>::do_narrow
PUBLIC	??_G?$ctype@D@std@@MAEPAXI@Z			; std::ctype<char>::`scalar deleting destructor'
PUBLIC	??$use_facet@V?$ctype@D@std@@@std@@YAABV?$ctype@D@0@ABVlocale@0@@Z ; std::use_facet<std::ctype<char> >
PUBLIC	??$_Debug_pointer@D@std@@YAXPADPB_WI@Z		; std::_Debug_pointer<char>
PUBLIC	??$_Debug_pointer@D@std@@YAXPBDPB_WI@Z		; std::_Debug_pointer<char>
PUBLIC	?make_error_code@std@@YA?AVerror_code@1@W4io_errc@1@@Z ; std::make_error_code
PUBLIC	?generic_category@std@@YAABVerror_category@1@XZ	; std::generic_category
PUBLIC	?iostream_category@std@@YAABVerror_category@1@XZ ; std::iostream_category
PUBLIC	?system_category@std@@YAABVerror_category@1@XZ	; std::system_category
PUBLIC	??0error_category@std@@QAE@XZ			; std::error_category::error_category
PUBLIC	??1error_category@std@@UAE@XZ			; std::error_category::~error_category
PUBLIC	?default_error_condition@error_category@std@@UBE?AVerror_condition@2@H@Z ; std::error_category::default_error_condition
PUBLIC	?equivalent@error_category@std@@UBE_NHABVerror_condition@2@@Z ; std::error_category::equivalent
PUBLIC	?equivalent@error_category@std@@UBE_NABVerror_code@2@H@Z ; std::error_category::equivalent
PUBLIC	??8error_category@std@@QBE_NABV01@@Z		; std::error_category::operator==
PUBLIC	??_Gerror_category@std@@UAEPAXI@Z		; std::error_category::`scalar deleting destructor'
PUBLIC	??0error_code@std@@QAE@HABVerror_category@1@@Z	; std::error_code::error_code
PUBLIC	?value@error_code@std@@QBEHXZ			; std::error_code::value
PUBLIC	?category@error_code@std@@QBEABVerror_category@2@XZ ; std::error_code::category
PUBLIC	?message@error_code@std@@QBE?AV?$basic_string@DU?$char_traits@D@std@@V?$allocator@D@2@@2@XZ ; std::error_code::message
PUBLIC	??0error_condition@std@@QAE@HABVerror_category@1@@Z ; std::error_condition::error_condition
PUBLIC	?value@error_condition@std@@QBEHXZ		; std::error_condition::value
PUBLIC	?category@error_condition@std@@QBEABVerror_category@2@XZ ; std::error_condition::category
PUBLIC	??8error_condition@std@@QBE_NABV01@@Z		; std::error_condition::operator==
PUBLIC	?_Makestr@_System_error@std@@CA?AV?$basic_string@DU?$char_traits@D@std@@V?$allocator@D@2@@2@Verror_code@2@V32@@Z ; std::_System_error::_Makestr
PUBLIC	??0_System_error@std@@IAE@Verror_code@1@ABV?$basic_string@DU?$char_traits@D@std@@V?$allocator@D@2@@1@@Z ; std::_System_error::_System_error
PUBLIC	??1_System_error@std@@UAE@XZ			; std::_System_error::~_System_error
PUBLIC	??0_System_error@std@@QAE@ABV01@@Z		; std::_System_error::_System_error
PUBLIC	??_G_System_error@std@@UAEPAXI@Z		; std::_System_error::`scalar deleting destructor'
PUBLIC	??0system_error@std@@QAE@Verror_code@1@PBD@Z	; std::system_error::system_error
PUBLIC	??1system_error@std@@UAE@XZ			; std::system_error::~system_error
PUBLIC	??0system_error@std@@QAE@ABV01@@Z		; std::system_error::system_error
PUBLIC	??_Gsystem_error@std@@UAEPAXI@Z			; std::system_error::`scalar deleting destructor'
PUBLIC	??0_Generic_error_category@std@@QAE@XZ		; std::_Generic_error_category::_Generic_error_category
PUBLIC	?name@_Generic_error_category@std@@UBEPBDXZ	; std::_Generic_error_category::name
PUBLIC	?message@_Generic_error_category@std@@UBE?AV?$basic_string@DU?$char_traits@D@std@@V?$allocator@D@2@@2@H@Z ; std::_Generic_error_category::message
PUBLIC	??1_Generic_error_category@std@@UAE@XZ		; std::_Generic_error_category::~_Generic_error_category
PUBLIC	??_G_Generic_error_category@std@@UAEPAXI@Z	; std::_Generic_error_category::`scalar deleting destructor'
PUBLIC	??0_Iostream_error_category@std@@QAE@XZ		; std::_Iostream_error_category::_Iostream_error_category
PUBLIC	?name@_Iostream_error_category@std@@UBEPBDXZ	; std::_Iostream_error_category::name
PUBLIC	?message@_Iostream_error_category@std@@UBE?AV?$basic_string@DU?$char_traits@D@std@@V?$allocator@D@2@@2@H@Z ; std::_Iostream_error_category::message
PUBLIC	??1_Iostream_error_category@std@@UAE@XZ		; std::_Iostream_error_category::~_Iostream_error_category
PUBLIC	??_G_Iostream_error_category@std@@UAEPAXI@Z	; std::_Iostream_error_category::`scalar deleting destructor'
PUBLIC	??0_System_error_category@std@@QAE@XZ		; std::_System_error_category::_System_error_category
PUBLIC	?name@_System_error_category@std@@UBEPBDXZ	; std::_System_error_category::name
PUBLIC	?message@_System_error_category@std@@UBE?AV?$basic_string@DU?$char_traits@D@std@@V?$allocator@D@2@@2@H@Z ; std::_System_error_category::message
PUBLIC	?default_error_condition@_System_error_category@std@@UBE?AVerror_condition@2@H@Z ; std::_System_error_category::default_error_condition
PUBLIC	??1_System_error_category@std@@UAE@XZ		; std::_System_error_category::~_System_error_category
PUBLIC	??_G_System_error_category@std@@UAEPAXI@Z	; std::_System_error_category::`scalar deleting destructor'
PUBLIC	??0failure@ios_base@std@@QAE@PBDABVerror_code@2@@Z ; std::ios_base::failure::failure
PUBLIC	??1failure@ios_base@std@@UAE@XZ			; std::ios_base::failure::~failure
PUBLIC	??0failure@ios_base@std@@QAE@ABV012@@Z		; std::ios_base::failure::failure
PUBLIC	??_Gfailure@ios_base@std@@UAEPAXI@Z		; std::ios_base::failure::`scalar deleting destructor'
PUBLIC	?clear@ios_base@std@@QAEXH_N@Z			; std::ios_base::clear
PUBLIC	?clear@ios_base@std@@QAEXH@Z			; std::ios_base::clear
PUBLIC	?rdstate@ios_base@std@@QBEHXZ			; std::ios_base::rdstate
PUBLIC	?good@ios_base@std@@QBE_NXZ			; std::ios_base::good
PUBLIC	?flags@ios_base@std@@QBEHXZ			; std::ios_base::flags
PUBLIC	?setf@ios_base@std@@QAEHHH@Z			; std::ios_base::setf
PUBLIC	?precision@ios_base@std@@QBE_JXZ		; std::ios_base::precision
PUBLIC	?width@ios_base@std@@QBE_JXZ			; std::ios_base::width
PUBLIC	?width@ios_base@std@@QAE_J_J@Z			; std::ios_base::width
PUBLIC	?getloc@ios_base@std@@QBE?AVlocale@2@XZ		; std::ios_base::getloc
PUBLIC	??1ios_base@std@@UAE@XZ				; std::ios_base::~ios_base
PUBLIC	??0ios_base@std@@IAE@XZ				; std::ios_base::ios_base
PUBLIC	?_Init@ios_base@std@@IAEXXZ			; std::ios_base::_Init
PUBLIC	??_Gios_base@std@@UAEPAXI@Z			; std::ios_base::`scalar deleting destructor'
PUBLIC	?fixed@std@@YAAAVios_base@1@AAV21@@Z		; std::fixed
PUBLIC	??1?$basic_ios@DU?$char_traits@D@std@@@std@@UAE@XZ ; std::basic_ios<char,std::char_traits<char> >::~basic_ios<char,std::char_traits<char> >
PUBLIC	?clear@?$basic_ios@DU?$char_traits@D@std@@@std@@QAEXH_N@Z ; std::basic_ios<char,std::char_traits<char> >::clear
PUBLIC	?setstate@?$basic_ios@DU?$char_traits@D@std@@@std@@QAEXH_N@Z ; std::basic_ios<char,std::char_traits<char> >::setstate
PUBLIC	?tie@?$basic_ios@DU?$char_traits@D@std@@@std@@QBEPAV?$basic_ostream@DU?$char_traits@D@std@@@2@XZ ; std::basic_ios<char,std::char_traits<char> >::tie
PUBLIC	?rdbuf@?$basic_ios@DU?$char_traits@D@std@@@std@@QBEPAV?$basic_streambuf@DU?$char_traits@D@std@@@2@XZ ; std::basic_ios<char,std::char_traits<char> >::rdbuf
PUBLIC	?fill@?$basic_ios@DU?$char_traits@D@std@@@std@@QBEDXZ ; std::basic_ios<char,std::char_traits<char> >::fill
PUBLIC	?widen@?$basic_ios@DU?$char_traits@D@std@@@std@@QBEDD@Z ; std::basic_ios<char,std::char_traits<char> >::widen
PUBLIC	?init@?$basic_ios@DU?$char_traits@D@std@@@std@@IAEXPAV?$basic_streambuf@DU?$char_traits@D@std@@@2@_N@Z ; std::basic_ios<char,std::char_traits<char> >::init
PUBLIC	??0?$basic_ios@DU?$char_traits@D@std@@@std@@IAE@XZ ; std::basic_ios<char,std::char_traits<char> >::basic_ios<char,std::char_traits<char> >
PUBLIC	??_G?$basic_ios@DU?$char_traits@D@std@@@std@@UAEPAXI@Z ; std::basic_ios<char,std::char_traits<char> >::`scalar deleting destructor'
PUBLIC	??0?$basic_streambuf@DU?$char_traits@D@std@@@std@@IAE@XZ ; std::basic_streambuf<char,std::char_traits<char> >::basic_streambuf<char,std::char_traits<char> >
PUBLIC	??1?$basic_streambuf@DU?$char_traits@D@std@@@std@@UAE@XZ ; std::basic_streambuf<char,std::char_traits<char> >::~basic_streambuf<char,std::char_traits<char> >
PUBLIC	?pubsync@?$basic_streambuf@DU?$char_traits@D@std@@@std@@QAEHXZ ; std::basic_streambuf<char,std::char_traits<char> >::pubsync
PUBLIC	?sputc@?$basic_streambuf@DU?$char_traits@D@std@@@std@@QAEHD@Z ; std::basic_streambuf<char,std::char_traits<char> >::sputc
PUBLIC	?_Lock@?$basic_streambuf@DU?$char_traits@D@std@@@std@@UAEXXZ ; std::basic_streambuf<char,std::char_traits<char> >::_Lock
PUBLIC	?_Unlock@?$basic_streambuf@DU?$char_traits@D@std@@@std@@UAEXXZ ; std::basic_streambuf<char,std::char_traits<char> >::_Unlock
PUBLIC	?eback@?$basic_streambuf@DU?$char_traits@D@std@@@std@@IBEPADXZ ; std::basic_streambuf<char,std::char_traits<char> >::eback
PUBLIC	?gptr@?$basic_streambuf@DU?$char_traits@D@std@@@std@@IBEPADXZ ; std::basic_streambuf<char,std::char_traits<char> >::gptr
PUBLIC	?pbase@?$basic_streambuf@DU?$char_traits@D@std@@@std@@IBEPADXZ ; std::basic_streambuf<char,std::char_traits<char> >::pbase
PUBLIC	?pptr@?$basic_streambuf@DU?$char_traits@D@std@@@std@@IBEPADXZ ; std::basic_streambuf<char,std::char_traits<char> >::pptr
PUBLIC	?egptr@?$basic_streambuf@DU?$char_traits@D@std@@@std@@IBEPADXZ ; std::basic_streambuf<char,std::char_traits<char> >::egptr
PUBLIC	?gbump@?$basic_streambuf@DU?$char_traits@D@std@@@std@@IAEXH@Z ; std::basic_streambuf<char,std::char_traits<char> >::gbump
PUBLIC	?setg@?$basic_streambuf@DU?$char_traits@D@std@@@std@@IAEXPAD00@Z ; std::basic_streambuf<char,std::char_traits<char> >::setg
PUBLIC	?epptr@?$basic_streambuf@DU?$char_traits@D@std@@@std@@IBEPADXZ ; std::basic_streambuf<char,std::char_traits<char> >::epptr
PUBLIC	?_Gninc@?$basic_streambuf@DU?$char_traits@D@std@@@std@@IAEPADXZ ; std::basic_streambuf<char,std::char_traits<char> >::_Gninc
PUBLIC	?_Gnavail@?$basic_streambuf@DU?$char_traits@D@std@@@std@@IBE_JXZ ; std::basic_streambuf<char,std::char_traits<char> >::_Gnavail
PUBLIC	?pbump@?$basic_streambuf@DU?$char_traits@D@std@@@std@@IAEXH@Z ; std::basic_streambuf<char,std::char_traits<char> >::pbump
PUBLIC	?setp@?$basic_streambuf@DU?$char_traits@D@std@@@std@@IAEXPAD0@Z ; std::basic_streambuf<char,std::char_traits<char> >::setp
PUBLIC	?setp@?$basic_streambuf@DU?$char_traits@D@std@@@std@@IAEXPAD00@Z ; std::basic_streambuf<char,std::char_traits<char> >::setp
PUBLIC	?_Pninc@?$basic_streambuf@DU?$char_traits@D@std@@@std@@IAEPADXZ ; std::basic_streambuf<char,std::char_traits<char> >::_Pninc
PUBLIC	?_Pnavail@?$basic_streambuf@DU?$char_traits@D@std@@@std@@IBE_JXZ ; std::basic_streambuf<char,std::char_traits<char> >::_Pnavail
PUBLIC	?_Init@?$basic_streambuf@DU?$char_traits@D@std@@@std@@IAEXXZ ; std::basic_streambuf<char,std::char_traits<char> >::_Init
PUBLIC	?overflow@?$basic_streambuf@DU?$char_traits@D@std@@@std@@MAEHH@Z ; std::basic_streambuf<char,std::char_traits<char> >::overflow
PUBLIC	?pbackfail@?$basic_streambuf@DU?$char_traits@D@std@@@std@@MAEHH@Z ; std::basic_streambuf<char,std::char_traits<char> >::pbackfail
PUBLIC	?showmanyc@?$basic_streambuf@DU?$char_traits@D@std@@@std@@MAE_JXZ ; std::basic_streambuf<char,std::char_traits<char> >::showmanyc
PUBLIC	?underflow@?$basic_streambuf@DU?$char_traits@D@std@@@std@@MAEHXZ ; std::basic_streambuf<char,std::char_traits<char> >::underflow
PUBLIC	?uflow@?$basic_streambuf@DU?$char_traits@D@std@@@std@@MAEHXZ ; std::basic_streambuf<char,std::char_traits<char> >::uflow
PUBLIC	?xsgetn@?$basic_streambuf@DU?$char_traits@D@std@@@std@@MAE_JPAD_J@Z ; std::basic_streambuf<char,std::char_traits<char> >::xsgetn
PUBLIC	?xsputn@?$basic_streambuf@DU?$char_traits@D@std@@@std@@MAE_JPBD_J@Z ; std::basic_streambuf<char,std::char_traits<char> >::xsputn
PUBLIC	?seekoff@?$basic_streambuf@DU?$char_traits@D@std@@@std@@MAE?AV?$fpos@H@2@_JHH@Z ; std::basic_streambuf<char,std::char_traits<char> >::seekoff
PUBLIC	?seekpos@?$basic_streambuf@DU?$char_traits@D@std@@@std@@MAE?AV?$fpos@H@2@V32@H@Z ; std::basic_streambuf<char,std::char_traits<char> >::seekpos
PUBLIC	?setbuf@?$basic_streambuf@DU?$char_traits@D@std@@@std@@MAEPAV12@PAD_J@Z ; std::basic_streambuf<char,std::char_traits<char> >::setbuf
PUBLIC	?sync@?$basic_streambuf@DU?$char_traits@D@std@@@std@@MAEHXZ ; std::basic_streambuf<char,std::char_traits<char> >::sync
PUBLIC	?imbue@?$basic_streambuf@DU?$char_traits@D@std@@@std@@MAEXABVlocale@2@@Z ; std::basic_streambuf<char,std::char_traits<char> >::imbue
PUBLIC	??_G?$basic_streambuf@DU?$char_traits@D@std@@@std@@UAEPAXI@Z ; std::basic_streambuf<char,std::char_traits<char> >::`scalar deleting destructor'
PUBLIC	??0?$basic_ostream@DU?$char_traits@D@std@@@std@@QAE@PAV?$basic_streambuf@DU?$char_traits@D@std@@@1@_N@Z ; std::basic_ostream<char,std::char_traits<char> >::basic_ostream<char,std::char_traits<char> >
PUBLIC	??1?$basic_ostream@DU?$char_traits@D@std@@@std@@UAE@XZ ; std::basic_ostream<char,std::char_traits<char> >::~basic_ostream<char,std::char_traits<char> >
PUBLIC	?_Osfx@?$basic_ostream@DU?$char_traits@D@std@@@std@@QAEXXZ ; std::basic_ostream<char,std::char_traits<char> >::_Osfx
PUBLIC	??6?$basic_ostream@DU?$char_traits@D@std@@@std@@QAEAAV01@P6AAAVios_base@1@AAV21@@Z@Z ; std::basic_ostream<char,std::char_traits<char> >::operator<<
PUBLIC	??6?$basic_ostream@DU?$char_traits@D@std@@@std@@QAEAAV01@N@Z ; std::basic_ostream<char,std::char_traits<char> >::operator<<
PUBLIC	?flush@?$basic_ostream@DU?$char_traits@D@std@@@std@@QAEAAV12@XZ ; std::basic_ostream<char,std::char_traits<char> >::flush
PUBLIC	??_G?$basic_ostream@DU?$char_traits@D@std@@@std@@UAEPAXI@Z ; std::basic_ostream<char,std::char_traits<char> >::`scalar deleting destructor'
PUBLIC	??_D?$basic_ostream@DU?$char_traits@D@std@@@std@@QAEXXZ ; std::basic_ostream<char,std::char_traits<char> >::`vbase destructor'
PUBLIC	??0Vector2D@@QAE@NN@Z				; Vector2D::Vector2D
PUBLIC	??H@YA?AUVector2D@@ABU0@0@Z			; operator+
PUBLIC	?isTargetPresent@Raven_TargetingSystem@@QBE_NXZ	; Raven_TargetingSystem::isTargetPresent
PUBLIC	?GetBrain@Raven_Bot@@QAEQAVGoal_Think@@XZ	; Raven_Bot::GetBrain
PUBLIC	?GetTargetSys@Raven_Bot@@QAEQAVRaven_TargetingSystem@@XZ ; Raven_Bot::GetTargetSys
PUBLIC	?CalculateDesirability@AttackTargetGoal_Evaluator@@UAENPAVRaven_Bot@@@Z ; AttackTargetGoal_Evaluator::CalculateDesirability
PUBLIC	?SetGoal@AttackTargetGoal_Evaluator@@UAEXPAVRaven_Bot@@@Z ; AttackTargetGoal_Evaluator::SetGoal
PUBLIC	?RenderInfo@AttackTargetGoal_Evaluator@@UAEXUVector2D@@PAVRaven_Bot@@@Z ; AttackTargetGoal_Evaluator::RenderInfo
PUBLIC	?TextAtPos@Cgdi@@QAEXUVector2D@@ABV?$basic_string@DU?$char_traits@D@std@@V?$allocator@D@2@@std@@@Z ; Cgdi::TextAtPos
PUBLIC	??$ttos@N@@YA?AV?$basic_string@DU?$char_traits@D@std@@V?$allocator@D@2@@std@@ABNH@Z ; ttos<double>
PUBLIC	??$?HDU?$char_traits@D@std@@V?$allocator@D@1@@std@@YA?AV?$basic_string@DU?$char_traits@D@std@@V?$allocator@D@2@@0@PBD$$QAV10@@Z ; std::operator+<char,std::char_traits<char>,std::allocator<char> >
PUBLIC	??$?HDU?$char_traits@D@std@@V?$allocator@D@1@@std@@YA?AV?$basic_string@DU?$char_traits@D@std@@V?$allocator@D@2@@0@$$QAV10@PBD@Z ; std::operator+<char,std::char_traits<char>,std::allocator<char> >
PUBLIC	??$?HDU?$char_traits@D@std@@V?$allocator@D@1@@std@@YA?AV?$basic_string@DU?$char_traits@D@std@@V?$allocator@D@2@@0@$$QAV10@0@Z ; std::operator+<char,std::char_traits<char>,std::allocator<char> >
PUBLIC	??$forward@V?$basic_string@DU?$char_traits@D@std@@V?$allocator@D@2@@std@@@std@@YA$$QAV?$basic_string@DU?$char_traits@D@std@@V?$allocator@D@2@@0@AAV10@@Z ; std::forward<std::basic_string<char,std::char_traits<char>,std::allocator<char> > >
PUBLIC	??$_DebugHeapDelete@Vlocale@std@@@std@@YAXPAVlocale@0@@Z ; std::_DebugHeapDelete<std::locale>
PUBLIC	??0?$fpos@H@std@@QAE@_J@Z			; std::fpos<int>::fpos<int>
PUBLIC	??B?$fpos@H@std@@QBE_JXZ			; std::fpos<int>::operator __int64
PUBLIC	??$use_facet@V?$numpunct@D@std@@@std@@YAABV?$numpunct@D@0@ABVlocale@0@@Z ; std::use_facet<std::numpunct<char> >
PUBLIC	?decimal_point@?$numpunct@D@std@@QBEDXZ		; std::numpunct<char>::decimal_point
PUBLIC	?thousands_sep@?$numpunct@D@std@@QBEDXZ		; std::numpunct<char>::thousands_sep
PUBLIC	?grouping@?$numpunct@D@std@@QBE?AV?$basic_string@DU?$char_traits@D@std@@V?$allocator@D@2@@2@XZ ; std::numpunct<char>::grouping
PUBLIC	?falsename@?$numpunct@D@std@@QBE?AV?$basic_string@DU?$char_traits@D@std@@V?$allocator@D@2@@2@XZ ; std::numpunct<char>::falsename
PUBLIC	?truename@?$numpunct@D@std@@QBE?AV?$basic_string@DU?$char_traits@D@std@@V?$allocator@D@2@@2@XZ ; std::numpunct<char>::truename
PUBLIC	??0?$numpunct@D@std@@QAE@ABV_Locinfo@1@I_N@Z	; std::numpunct<char>::numpunct<char>
PUBLIC	?_Getcat@?$numpunct@D@std@@SAIPAPBVfacet@locale@2@PBV42@@Z ; std::numpunct<char>::_Getcat
PUBLIC	??1?$numpunct@D@std@@MAE@XZ			; std::numpunct<char>::~numpunct<char>
PUBLIC	?_Init@?$numpunct@D@std@@IAEXABV_Locinfo@2@_N@Z	; std::numpunct<char>::_Init
PUBLIC	?do_decimal_point@?$numpunct@D@std@@MBEDXZ	; std::numpunct<char>::do_decimal_point
PUBLIC	?do_thousands_sep@?$numpunct@D@std@@MBEDXZ	; std::numpunct<char>::do_thousands_sep
PUBLIC	?do_grouping@?$numpunct@D@std@@MBE?AV?$basic_string@DU?$char_traits@D@std@@V?$allocator@D@2@@2@XZ ; std::numpunct<char>::do_grouping
PUBLIC	?do_falsename@?$numpunct@D@std@@MBE?AV?$basic_string@DU?$char_traits@D@std@@V?$allocator@D@2@@2@XZ ; std::numpunct<char>::do_falsename
PUBLIC	?do_truename@?$numpunct@D@std@@MBE?AV?$basic_string@DU?$char_traits@D@std@@V?$allocator@D@2@@2@XZ ; std::numpunct<char>::do_truename
PUBLIC	?_Tidy@?$numpunct@D@std@@AAEXXZ			; std::numpunct<char>::_Tidy
PUBLIC	??_G?$numpunct@D@std@@MAEPAXI@Z			; std::numpunct<char>::`scalar deleting destructor'
PUBLIC	??$?9DD@std@@YA_NABV?$allocator@D@0@0@Z		; std::operator!=<char,char>
PUBLIC	??$construct@PADAAPAD@?$_Wrap_alloc@V?$allocator@D@std@@@std@@QAEXPAPADAAPAD@Z ; std::_Wrap_alloc<std::allocator<char> >::construct<char *,char * &>
PUBLIC	??$destroy@PAD@?$_Wrap_alloc@V?$allocator@D@std@@@std@@QAEXPAPAD@Z ; std::_Wrap_alloc<std::allocator<char> >::destroy<char *>
PUBLIC	??$addressof@D@std@@YAPADAAD@Z			; std::addressof<char>
PUBLIC	??$?9V?$allocator@D@std@@V01@@std@@YA_NABU?$_Wrap_alloc@V?$allocator@D@std@@@0@0@Z ; std::operator!=<std::allocator<char>,std::allocator<char> >
PUBLIC	??0?$allocator@U_Container_proxy@std@@@std@@QAE@XZ ; std::allocator<std::_Container_proxy>::allocator<std::_Container_proxy>
PUBLIC	?deallocate@?$allocator@U_Container_proxy@std@@@std@@QAEXPAU_Container_proxy@2@I@Z ; std::allocator<std::_Container_proxy>::deallocate
PUBLIC	?allocate@?$allocator@U_Container_proxy@std@@@std@@QAEPAU_Container_proxy@2@I@Z ; std::allocator<std::_Container_proxy>::allocate
PUBLIC	??$construct@U_Container_proxy@std@@U12@@?$allocator@U_Container_proxy@std@@@std@@QAEXPAU_Container_proxy@1@$$QAU21@@Z ; std::allocator<std::_Container_proxy>::construct<std::_Container_proxy,std::_Container_proxy>
PUBLIC	??$destroy@U_Container_proxy@std@@@?$allocator@U_Container_proxy@std@@@std@@QAEXPAU_Container_proxy@1@@Z ; std::allocator<std::_Container_proxy>::destroy<std::_Container_proxy>
PUBLIC	??0_Sentry_base@?$basic_ostream@DU?$char_traits@D@std@@@std@@QAE@AAV12@@Z ; std::basic_ostream<char,std::char_traits<char> >::_Sentry_base::_Sentry_base
PUBLIC	??1_Sentry_base@?$basic_ostream@DU?$char_traits@D@std@@@std@@QAE@XZ ; std::basic_ostream<char,std::char_traits<char> >::_Sentry_base::~_Sentry_base
PUBLIC	??0sentry@?$basic_ostream@DU?$char_traits@D@std@@@std@@QAE@AAV12@@Z ; std::basic_ostream<char,std::char_traits<char> >::sentry::sentry
PUBLIC	??1sentry@?$basic_ostream@DU?$char_traits@D@std@@@std@@QAE@XZ ; std::basic_ostream<char,std::char_traits<char> >::sentry::~sentry
PUBLIC	??Bsentry@?$basic_ostream@DU?$char_traits@D@std@@@std@@QBE_NXZ ; std::basic_ostream<char,std::char_traits<char> >::sentry::operator bool
PUBLIC	??$_DebugHeapDelete@X@std@@YAXPAX@Z		; std::_DebugHeapDelete<void>
PUBLIC	??$_Allocate@U_Container_proxy@std@@@std@@YAPAU_Container_proxy@0@IPAU10@@Z ; std::_Allocate<std::_Container_proxy>
PUBLIC	??$_Allocate@D@std@@YAPADIPAD@Z			; std::_Allocate<char>
PUBLIC	??$_Iter_cat@PBD@std@@YA?AUrandom_access_iterator_tag@0@ABQBD@Z ; std::_Iter_cat<char const *>
PUBLIC	??$_Debug_range2@PBD@std@@YAXPBD0PB_WIUrandom_access_iterator_tag@0@@Z ; std::_Debug_range2<char const *>
PUBLIC	??0?$basic_ostringstream@DU?$char_traits@D@std@@V?$allocator@D@2@@std@@QAE@H@Z ; std::basic_ostringstream<char,std::char_traits<char>,std::allocator<char> >::basic_ostringstream<char,std::char_traits<char>,std::allocator<char> >
PUBLIC	??1?$basic_ostringstream@DU?$char_traits@D@std@@V?$allocator@D@2@@std@@UAE@XZ ; std::basic_ostringstream<char,std::char_traits<char>,std::allocator<char> >::~basic_ostringstream<char,std::char_traits<char>,std::allocator<char> >
PUBLIC	?str@?$basic_ostringstream@DU?$char_traits@D@std@@V?$allocator@D@2@@std@@QBE?AV?$basic_string@DU?$char_traits@D@std@@V?$allocator@D@2@@2@XZ ; std::basic_ostringstream<char,std::char_traits<char>,std::allocator<char> >::str
PUBLIC	??0?$basic_stringbuf@DU?$char_traits@D@std@@V?$allocator@D@2@@std@@QAE@H@Z ; std::basic_stringbuf<char,std::char_traits<char>,std::allocator<char> >::basic_stringbuf<char,std::char_traits<char>,std::allocator<char> >
PUBLIC	??1?$basic_stringbuf@DU?$char_traits@D@std@@V?$allocator@D@2@@std@@UAE@XZ ; std::basic_stringbuf<char,std::char_traits<char>,std::allocator<char> >::~basic_stringbuf<char,std::char_traits<char>,std::allocator<char> >
PUBLIC	?str@?$basic_stringbuf@DU?$char_traits@D@std@@V?$allocator@D@2@@std@@QBE?AV?$basic_string@DU?$char_traits@D@std@@V?$allocator@D@2@@2@XZ ; std::basic_stringbuf<char,std::char_traits<char>,std::allocator<char> >::str
PUBLIC	?overflow@?$basic_stringbuf@DU?$char_traits@D@std@@V?$allocator@D@2@@std@@MAEHH@Z ; std::basic_stringbuf<char,std::char_traits<char>,std::allocator<char> >::overflow
PUBLIC	?pbackfail@?$basic_stringbuf@DU?$char_traits@D@std@@V?$allocator@D@2@@std@@MAEHH@Z ; std::basic_stringbuf<char,std::char_traits<char>,std::allocator<char> >::pbackfail
PUBLIC	?underflow@?$basic_stringbuf@DU?$char_traits@D@std@@V?$allocator@D@2@@std@@MAEHXZ ; std::basic_stringbuf<char,std::char_traits<char>,std::allocator<char> >::underflow
PUBLIC	?seekoff@?$basic_stringbuf@DU?$char_traits@D@std@@V?$allocator@D@2@@std@@MAE?AV?$fpos@H@2@_JHH@Z ; std::basic_stringbuf<char,std::char_traits<char>,std::allocator<char> >::seekoff
PUBLIC	?seekpos@?$basic_stringbuf@DU?$char_traits@D@std@@V?$allocator@D@2@@std@@MAE?AV?$fpos@H@2@V32@H@Z ; std::basic_stringbuf<char,std::char_traits<char>,std::allocator<char> >::seekpos
PUBLIC	?_Init@?$basic_stringbuf@DU?$char_traits@D@std@@V?$allocator@D@2@@std@@IAEXPBDIH@Z ; std::basic_stringbuf<char,std::char_traits<char>,std::allocator<char> >::_Init
PUBLIC	?_Tidy@?$basic_stringbuf@DU?$char_traits@D@std@@V?$allocator@D@2@@std@@IAEXXZ ; std::basic_stringbuf<char,std::char_traits<char>,std::allocator<char> >::_Tidy
PUBLIC	?_Getstate@?$basic_stringbuf@DU?$char_traits@D@std@@V?$allocator@D@2@@std@@AAEHH@Z ; std::basic_stringbuf<char,std::char_traits<char>,std::allocator<char> >::_Getstate
PUBLIC	??_G?$basic_stringbuf@DU?$char_traits@D@std@@V?$allocator@D@2@@std@@UAEPAXI@Z ; std::basic_stringbuf<char,std::char_traits<char>,std::allocator<char> >::`scalar deleting destructor'
PUBLIC	??_G?$basic_ostringstream@DU?$char_traits@D@std@@V?$allocator@D@2@@std@@UAEPAXI@Z ; std::basic_ostringstream<char,std::char_traits<char>,std::allocator<char> >::`scalar deleting destructor'
PUBLIC	??_D?$basic_ostringstream@DU?$char_traits@D@std@@V?$allocator@D@2@@std@@QAEXXZ ; std::basic_ostringstream<char,std::char_traits<char>,std::allocator<char> >::`vbase destructor'
PUBLIC	??$?6DU?$char_traits@D@std@@_J@std@@YAAAV?$basic_ostream@DU?$char_traits@D@std@@@0@AAV10@ABU?$_Smanip@_J@0@@Z ; std::operator<<<char,std::char_traits<char>,__int64>
PUBLIC	??$move@AAV?$basic_string@DU?$char_traits@D@std@@V?$allocator@D@2@@std@@@std@@YA$$QAV?$basic_string@DU?$char_traits@D@std@@V?$allocator@D@2@@0@AAV10@@Z ; std::move<std::basic_string<char,std::char_traits<char>,std::allocator<char> > &>
PUBLIC	??$?8DD@std@@YA_NABV?$allocator@D@0@0@Z		; std::operator==<char,char>
PUBLIC	??$forward@AAPAD@std@@YAAAPADAAPAD@Z		; std::forward<char * &>
PUBLIC	??$construct@PADAAPAD@?$allocator_traits@V?$allocator@D@std@@@std@@SAXAAV?$allocator@D@1@PAPADAAPAD@Z ; std::allocator_traits<std::allocator<char> >::construct<char *,char * &>
PUBLIC	??$destroy@PAD@?$allocator_traits@V?$allocator@D@std@@@std@@SAXAAV?$allocator@D@1@PAPAD@Z ; std::allocator_traits<std::allocator<char> >::destroy<char *>
PUBLIC	??$?8V?$allocator@D@std@@V01@@std@@YA_NABU?$_Wrap_alloc@V?$allocator@D@std@@@0@0@Z ; std::operator==<std::allocator<char>,std::allocator<char> >
PUBLIC	??$forward@U_Container_proxy@std@@@std@@YA$$QAU_Container_proxy@0@AAU10@@Z ; std::forward<std::_Container_proxy>
PUBLIC	??$_Debug_pointer@$$A6AAAVios_base@std@@AAV12@@Z@std@@YAXP6AAAVios_base@0@AAV10@@ZPB_WI@Z ; std::_Debug_pointer<std::ios_base & __cdecl(std::ios_base &)>
PUBLIC	??$use_facet@V?$num_put@DV?$ostreambuf_iterator@DU?$char_traits@D@std@@@std@@@std@@@std@@YAABV?$num_put@DV?$ostreambuf_iterator@DU?$char_traits@D@std@@@std@@@0@ABVlocale@0@@Z ; std::use_facet<std::num_put<char,std::ostreambuf_iterator<char,std::char_traits<char> > > >
PUBLIC	?_Getcat@?$num_put@DV?$ostreambuf_iterator@DU?$char_traits@D@std@@@std@@@std@@SAIPAPBVfacet@locale@2@PBV42@@Z ; std::num_put<char,std::ostreambuf_iterator<char,std::char_traits<char> > >::_Getcat
PUBLIC	??1?$num_put@DV?$ostreambuf_iterator@DU?$char_traits@D@std@@@std@@@std@@MAE@XZ ; std::num_put<char,std::ostreambuf_iterator<char,std::char_traits<char> > >::~num_put<char,std::ostreambuf_iterator<char,std::char_traits<char> > >
PUBLIC	?_Init@?$num_put@DV?$ostreambuf_iterator@DU?$char_traits@D@std@@@std@@@std@@IAEXABV_Locinfo@2@@Z ; std::num_put<char,std::ostreambuf_iterator<char,std::char_traits<char> > >::_Init
PUBLIC	??0?$num_put@DV?$ostreambuf_iterator@DU?$char_traits@D@std@@@std@@@std@@QAE@ABV_Locinfo@1@I@Z ; std::num_put<char,std::ostreambuf_iterator<char,std::char_traits<char> > >::num_put<char,std::ostreambuf_iterator<char,std::char_traits<char> > >
PUBLIC	?put@?$num_put@DV?$ostreambuf_iterator@DU?$char_traits@D@std@@@std@@@std@@QBE?AV?$ostreambuf_iterator@DU?$char_traits@D@std@@@2@V32@AAVios_base@2@DN@Z ; std::num_put<char,std::ostreambuf_iterator<char,std::char_traits<char> > >::put
PUBLIC	?do_put@?$num_put@DV?$ostreambuf_iterator@DU?$char_traits@D@std@@@std@@@std@@MBE?AV?$ostreambuf_iterator@DU?$char_traits@D@std@@@2@V32@AAVios_base@2@D_N@Z ; std::num_put<char,std::ostreambuf_iterator<char,std::char_traits<char> > >::do_put
PUBLIC	?do_put@?$num_put@DV?$ostreambuf_iterator@DU?$char_traits@D@std@@@std@@@std@@MBE?AV?$ostreambuf_iterator@DU?$char_traits@D@std@@@2@V32@AAVios_base@2@DJ@Z ; std::num_put<char,std::ostreambuf_iterator<char,std::char_traits<char> > >::do_put
PUBLIC	?do_put@?$num_put@DV?$ostreambuf_iterator@DU?$char_traits@D@std@@@std@@@std@@MBE?AV?$ostreambuf_iterator@DU?$char_traits@D@std@@@2@V32@AAVios_base@2@DK@Z ; std::num_put<char,std::ostreambuf_iterator<char,std::char_traits<char> > >::do_put
PUBLIC	?do_put@?$num_put@DV?$ostreambuf_iterator@DU?$char_traits@D@std@@@std@@@std@@MBE?AV?$ostreambuf_iterator@DU?$char_traits@D@std@@@2@V32@AAVios_base@2@D_J@Z ; std::num_put<char,std::ostreambuf_iterator<char,std::char_traits<char> > >::do_put
PUBLIC	?do_put@?$num_put@DV?$ostreambuf_iterator@DU?$char_traits@D@std@@@std@@@std@@MBE?AV?$ostreambuf_iterator@DU?$char_traits@D@std@@@2@V32@AAVios_base@2@D_K@Z ; std::num_put<char,std::ostreambuf_iterator<char,std::char_traits<char> > >::do_put
PUBLIC	?do_put@?$num_put@DV?$ostreambuf_iterator@DU?$char_traits@D@std@@@std@@@std@@MBE?AV?$ostreambuf_iterator@DU?$char_traits@D@std@@@2@V32@AAVios_base@2@DN@Z ; std::num_put<char,std::ostreambuf_iterator<char,std::char_traits<char> > >::do_put
PUBLIC	?do_put@?$num_put@DV?$ostreambuf_iterator@DU?$char_traits@D@std@@@std@@@std@@MBE?AV?$ostreambuf_iterator@DU?$char_traits@D@std@@@2@V32@AAVios_base@2@DO@Z ; std::num_put<char,std::ostreambuf_iterator<char,std::char_traits<char> > >::do_put
PUBLIC	?do_put@?$num_put@DV?$ostreambuf_iterator@DU?$char_traits@D@std@@@std@@@std@@MBE?AV?$ostreambuf_iterator@DU?$char_traits@D@std@@@2@V32@AAVios_base@2@DPBX@Z ; std::num_put<char,std::ostreambuf_iterator<char,std::char_traits<char> > >::do_put
PUBLIC	?_Ffmt@?$num_put@DV?$ostreambuf_iterator@DU?$char_traits@D@std@@@std@@@std@@ABAPADPADDH@Z ; std::num_put<char,std::ostreambuf_iterator<char,std::char_traits<char> > >::_Ffmt
PUBLIC	?_Fput@?$num_put@DV?$ostreambuf_iterator@DU?$char_traits@D@std@@@std@@@std@@ABA?AV?$ostreambuf_iterator@DU?$char_traits@D@std@@@2@V32@AAVios_base@2@DPBDIIII@Z ; std::num_put<char,std::ostreambuf_iterator<char,std::char_traits<char> > >::_Fput
PUBLIC	?_Ifmt@?$num_put@DV?$ostreambuf_iterator@DU?$char_traits@D@std@@@std@@@std@@ABAPADPADPBDH@Z ; std::num_put<char,std::ostreambuf_iterator<char,std::char_traits<char> > >::_Ifmt
PUBLIC	?_Iput@?$num_put@DV?$ostreambuf_iterator@DU?$char_traits@D@std@@@std@@@std@@ABA?AV?$ostreambuf_iterator@DU?$char_traits@D@std@@@2@V32@AAVios_base@2@DPADI@Z ; std::num_put<char,std::ostreambuf_iterator<char,std::char_traits<char> > >::_Iput
PUBLIC	?_Put@?$num_put@DV?$ostreambuf_iterator@DU?$char_traits@D@std@@@std@@@std@@ABA?AV?$ostreambuf_iterator@DU?$char_traits@D@std@@@2@V32@PBDI@Z ; std::num_put<char,std::ostreambuf_iterator<char,std::char_traits<char> > >::_Put
PUBLIC	?_Rep@?$num_put@DV?$ostreambuf_iterator@DU?$char_traits@D@std@@@std@@@std@@ABA?AV?$ostreambuf_iterator@DU?$char_traits@D@std@@@2@V32@DI@Z ; std::num_put<char,std::ostreambuf_iterator<char,std::char_traits<char> > >::_Rep
PUBLIC	??_G?$num_put@DV?$ostreambuf_iterator@DU?$char_traits@D@std@@@std@@@std@@MAEPAXI@Z ; std::num_put<char,std::ostreambuf_iterator<char,std::char_traits<char> > >::`scalar deleting destructor'
PUBLIC	??0?$ostreambuf_iterator@DU?$char_traits@D@std@@@std@@QAE@PAV?$basic_streambuf@DU?$char_traits@D@std@@@1@@Z ; std::ostreambuf_iterator<char,std::char_traits<char> >::ostreambuf_iterator<char,std::char_traits<char> >
PUBLIC	??4?$ostreambuf_iterator@DU?$char_traits@D@std@@@std@@QAEAAV01@D@Z ; std::ostreambuf_iterator<char,std::char_traits<char> >::operator=
PUBLIC	??D?$ostreambuf_iterator@DU?$char_traits@D@std@@@std@@QAEAAV01@XZ ; std::ostreambuf_iterator<char,std::char_traits<char> >::operator*
PUBLIC	??E?$ostreambuf_iterator@DU?$char_traits@D@std@@@std@@QAEAAV01@XZ ; std::ostreambuf_iterator<char,std::char_traits<char> >::operator++
PUBLIC	?failed@?$ostreambuf_iterator@DU?$char_traits@D@std@@@std@@QBE_NXZ ; std::ostreambuf_iterator<char,std::char_traits<char> >::failed
PUBLIC	??$_Debug_pointer@V?$ostreambuf_iterator@DU?$char_traits@D@std@@@std@@@std@@YAXAAV?$ostreambuf_iterator@DU?$char_traits@D@std@@@0@PB_WI@Z ; std::_Debug_pointer<std::ostreambuf_iterator<char,std::char_traits<char> > >
PUBLIC	??$_Maklocstr@D@std@@YAPADPBDPADABU_Cvtvec@@@Z	; std::_Maklocstr<char>
PUBLIC	??$_Maklocchr@D@std@@YADDPADABU_Cvtvec@@@Z	; std::_Maklocchr<char>
PUBLIC	??$_Getvals@D@?$numpunct@D@std@@IAEXDPBUlconv@@U_Cvtvec@@@Z ; std::numpunct<char>::_Getvals<char>
PUBLIC	??$construct@PADAAPAD@?$allocator@D@std@@QAEXPAPADAAPAD@Z ; std::allocator<char>::construct<char *,char * &>
PUBLIC	??$destroy@PAD@?$allocator@D@std@@QAEXPAPAD@Z	; std::allocator<char>::destroy<char *>
PUBLIC	??_E?$basic_ostream@DU?$char_traits@D@std@@@std@@$4PPPPPPPM@A@AEPAXI@Z ; std::basic_ostream<char,std::char_traits<char> >::`vector deleting destructor'
PUBLIC	??_E?$basic_ostringstream@DU?$char_traits@D@std@@V?$allocator@D@2@@std@@$4PPPPPPPM@A@AEPAXI@Z ; std::basic_ostringstream<char,std::char_traits<char>,std::allocator<char> >::`vector deleting destructor'
PUBLIC	?npos@?$basic_string@DU?$char_traits@D@std@@V?$allocator@D@2@@std@@2IB ; std::basic_string<char,std::char_traits<char>,std::allocator<char> >::npos
PUBLIC	??_7runtime_error@std@@6B@			; std::runtime_error::`vftable'
PUBLIC	__TI2?AVruntime_error@std@@
PUBLIC	__CTA2?AVruntime_error@std@@
PUBLIC	??_R0?AVruntime_error@std@@@8			; std::runtime_error `RTTI Type Descriptor'
PUBLIC	__CT??_R0?AVruntime_error@std@@@8??0runtime_error@std@@QAE@ABV01@@Z12
PUBLIC	??_R0?AVexception@std@@@8			; std::exception `RTTI Type Descriptor'
PUBLIC	__CT??_R0?AVexception@std@@@8??0exception@std@@QAE@ABV01@@Z12
PUBLIC	??_C@_0BA@ELKIONDK@bad?5locale?5name?$AA@	; `string'
PUBLIC	??_C@_05LAPONLG@false?$AA@			; `string'
PUBLIC	??_C@_04LOAJBDKD@true?$AA@			; `string'
PUBLIC	??_7_Facet_base@std@@6B@			; std::_Facet_base::`vftable'
PUBLIC	??_7facet@locale@std@@6B@			; std::locale::facet::`vftable'
PUBLIC	??_C@_0EH@EPAENFJM@C?3?2Program?5Files?5?$CIx86?$CJ?2Microsoft@ ; `string'
PUBLIC	??_C@_00CNPNBAHC@?$AA@				; `string'
PUBLIC	??_C@_1IO@OFOLDAJI@?$AAC?$AA?3?$AA?2?$AAP?$AAr?$AAo?$AAg?$AAr?$AAa?$AAm?$AA?5?$AAF?$AAi?$AAl?$AAe?$AAs?$AA?5?$AA?$CI?$AAx?$AA8?$AA6?$AA?$CJ?$AA?2?$AAM?$AAi?$AAc?$AAr?$AAo?$AAs?$AAo?$AAf?$AAt@ ; `string'
PUBLIC	??_7ctype_base@std@@6B@				; std::ctype_base::`vftable'
PUBLIC	??_7?$ctype@D@std@@6B@				; std::ctype<char>::`vftable'
PUBLIC	??_7error_category@std@@6B@			; std::error_category::`vftable'
PUBLIC	??_7_System_error@std@@6B@			; std::_System_error::`vftable'
PUBLIC	??_C@_02LMMGGCAJ@?3?5?$AA@			; `string'
PUBLIC	??_7system_error@std@@6B@			; std::system_error::`vftable'
PUBLIC	??_7_Generic_error_category@std@@6B@		; std::_Generic_error_category::`vftable'
PUBLIC	??_C@_07DCLBNMLN@generic?$AA@			; `string'
PUBLIC	??_C@_0O@BFJCFAAK@unknown?5error?$AA@		; `string'
PUBLIC	??_7_Iostream_error_category@std@@6B@		; std::_Iostream_error_category::`vftable'
PUBLIC	??_C@_08LLGCOLLL@iostream?$AA@			; `string'
PUBLIC	??_C@_0BG@PADBLCHM@iostream?5stream?5error?$AA@	; `string'
PUBLIC	??_7_System_error_category@std@@6B@		; std::_System_error_category::`vftable'
PUBLIC	??_C@_06FHFOAHML@system?$AA@			; `string'
PUBLIC	?_Generic_object@?$_Error_objects@H@std@@2V_Generic_error_category@2@A ; std::_Error_objects<int>::_Generic_object
PUBLIC	?_Iostream_object@?$_Error_objects@H@std@@2V_Iostream_error_category@2@A ; std::_Error_objects<int>::_Iostream_object
PUBLIC	?_System_object@?$_Error_objects@H@std@@2V_System_error_category@2@A ; std::_Error_objects<int>::_System_object
PUBLIC	??_7failure@ios_base@std@@6B@			; std::ios_base::failure::`vftable'
PUBLIC	??_7ios_base@std@@6B@				; std::ios_base::`vftable'
PUBLIC	__TI5?AVfailure@ios_base@std@@
PUBLIC	__CTA5?AVfailure@ios_base@std@@
PUBLIC	??_R0?AVfailure@ios_base@std@@@8		; std::ios_base::failure `RTTI Type Descriptor'
PUBLIC	__CT??_R0?AVfailure@ios_base@std@@@8??0failure@ios_base@std@@QAE@ABV012@@Z20
PUBLIC	??_R0?AVsystem_error@std@@@8			; std::system_error `RTTI Type Descriptor'
PUBLIC	__CT??_R0?AVsystem_error@std@@@8??0system_error@std@@QAE@ABV01@@Z20
PUBLIC	??_R0?AV_System_error@std@@@8			; std::_System_error `RTTI Type Descriptor'
PUBLIC	__CT??_R0?AV_System_error@std@@@8??0_System_error@std@@QAE@ABV01@@Z20
PUBLIC	??_C@_0BF@PHHKMMFD@ios_base?3?3badbit?5set?$AA@	; `string'
PUBLIC	??_C@_0BG@FMKFHCIL@ios_base?3?3failbit?5set?$AA@ ; `string'
PUBLIC	??_C@_0BF@OOHOMBOF@ios_base?3?3eofbit?5set?$AA@	; `string'
PUBLIC	??_C@_0EI@HCLDFGI@C?3?2Program?5Files?5?$CIx86?$CJ?2Microsoft@ ; `string'
PUBLIC	??_C@_0EH@MMEJNHDN@C?3?2Program?5Files?5?$CIx86?$CJ?2Microsoft@ ; `string'
PUBLIC	??_7?$basic_ios@DU?$char_traits@D@std@@@std@@6B@ ; std::basic_ios<char,std::char_traits<char> >::`vftable'
PUBLIC	??_7?$basic_streambuf@DU?$char_traits@D@std@@@std@@6B@ ; std::basic_streambuf<char,std::char_traits<char> >::`vftable'
PUBLIC	??_7?$basic_ostream@DU?$char_traits@D@std@@@std@@6B@ ; std::basic_ostream<char,std::char_traits<char> >::`vftable'
PUBLIC	??_8?$basic_ostream@DU?$char_traits@D@std@@@std@@7B@ ; std::basic_ostream<char,std::char_traits<char> >::`vbtable'
PUBLIC	?id@?$num_put@DV?$back_insert_iterator@V?$basic_string@DU?$char_traits@D@std@@V?$allocator@D@2@@std@@@std@@@std@@2V0locale@2@A ; std::num_put<char,std::back_insert_iterator<std::basic_string<char,std::char_traits<char>,std::allocator<char> > > >::id
PUBLIC	?id@?$num_put@_WV?$back_insert_iterator@V?$basic_string@_WU?$char_traits@_W@std@@V?$allocator@_W@2@@std@@@std@@@std@@2V0locale@2@A ; std::num_put<wchar_t,std::back_insert_iterator<std::basic_string<wchar_t,std::char_traits<wchar_t>,std::allocator<wchar_t> > > >::id
PUBLIC	??_C@_1IO@FEAPGJBD@?$AAC?$AA?3?$AA?2?$AAP?$AAr?$AAo?$AAg?$AAr?$AAa?$AAm?$AA?5?$AAF?$AAi?$AAl?$AAe?$AAs?$AA?5?$AA?$CI?$AAx?$AA8?$AA6?$AA?$CJ?$AA?2?$AAM?$AAi?$AAc?$AAr?$AAo?$AAs?$AAo?$AAf?$AAt@ ; `string'
PUBLIC	??_C@_1IO@NNKGFJII@?$AAC?$AA?3?$AA?2?$AAP?$AAr?$AAo?$AAg?$AAr?$AAa?$AAm?$AA?5?$AAF?$AAi?$AAl?$AAe?$AAs?$AA?5?$AA?$CI?$AAx?$AA8?$AA6?$AA?$CJ?$AA?2?$AAM?$AAi?$AAc?$AAr?$AAo?$AAs?$AAo?$AAf?$AAt@ ; `string'
PUBLIC	?id@?$numpunct@D@std@@2V0locale@2@A		; std::numpunct<char>::id
PUBLIC	??_7?$numpunct@D@std@@6B@			; std::numpunct<char>::`vftable'
PUBLIC	??_C@_02EAOCLKAK@ld?$AA@			; `string'
PUBLIC	??_C@_02BDDLJJBK@lu?$AA@			; `string'
PUBLIC	??_C@_02HIKPPMOK@Ld?$AA@			; `string'
PUBLIC	??_C@_02CLHGNPPK@Lu?$AA@			; `string'
PUBLIC	??_C@_02BBAHNLBA@?$CFp?$AA@			; `string'
PUBLIC	?id@?$numpunct@_W@std@@2V0locale@2@A		; std::numpunct<wchar_t>::id
PUBLIC	?id@?$codecvt@DDH@std@@2V0locale@2@A		; std::codecvt<char,char,int>::id
PUBLIC	??_C@_02MDKMJEGG@eE?$AA@			; `string'
PUBLIC	??_C@_02OOPEBDOJ@pP?$AA@			; `string'
PUBLIC	??_C@_01LFCBOECM@?4?$AA@			; `string'
PUBLIC	??_C@_1DM@GMPLOCPK@?$AAs?$AAt?$AAr?$AAi?$AAn?$AAg?$AA?5?$AAs?$AAu?$AAb?$AAs?$AAc?$AAr?$AAi?$AAp?$AAt?$AA?5?$AAo?$AAu?$AAt?$AA?5?$AAo?$AAf?$AA?5?$AAr?$AAa?$AAn?$AAg?$AAe?$AA?$AA@ ; `string'
PUBLIC	??_C@_0BA@JFNIOLAK@string?5too?5long?$AA@	; `string'
PUBLIC	??_C@_0BI@CFPLBAOH@invalid?5string?5position?$AA@ ; `string'
PUBLIC	??_C@_1CK@EOPGIILJ@?$AAi?$AAn?$AAv?$AAa?$AAl?$AAi?$AAd?$AA?5?$AAn?$AAu?$AAl?$AAl?$AA?5?$AAp?$AAo?$AAi?$AAn?$AAt?$AAe?$AAr?$AA?$AA@ ; `string'
PUBLIC	?_Psave@?$_Facetptr@V?$ctype@D@std@@@std@@2PBVfacet@locale@2@B ; std::_Facetptr<std::ctype<char> >::_Psave
PUBLIC	__TI2?AVbad_cast@std@@
PUBLIC	__CTA2?AVbad_cast@std@@
PUBLIC	??_R0?AVbad_cast@std@@@8			; std::bad_cast `RTTI Type Descriptor'
PUBLIC	__CT??_R0?AVbad_cast@std@@@8??0bad_cast@std@@QAE@ABV01@@Z12
PUBLIC	??_C@_08EPJLHIJG@bad?5cast?$AA@			; `string'
PUBLIC	??_7?$basic_stringbuf@DU?$char_traits@D@std@@V?$allocator@D@2@@std@@6B@ ; std::basic_stringbuf<char,std::char_traits<char>,std::allocator<char> >::`vftable'
PUBLIC	??_7?$basic_ostringstream@DU?$char_traits@D@std@@V?$allocator@D@2@@std@@6B@ ; std::basic_ostringstream<char,std::char_traits<char>,std::allocator<char> >::`vftable'
PUBLIC	??_8?$basic_ostringstream@DU?$char_traits@D@std@@V?$allocator@D@2@@std@@7B@ ; std::basic_ostringstream<char,std::char_traits<char>,std::allocator<char> >::`vbtable'
PUBLIC	?_Psave@?$_Facetptr@V?$numpunct@D@std@@@std@@2PBVfacet@locale@2@B ; std::_Facetptr<std::numpunct<char> >::_Psave
PUBLIC	??_C@_1IO@IGJFOIAG@?$AAC?$AA?3?$AA?2?$AAP?$AAr?$AAo?$AAg?$AAr?$AAa?$AAm?$AA?5?$AAF?$AAi?$AAl?$AAe?$AAs?$AA?5?$AA?$CI?$AAx?$AA8?$AA6?$AA?$CJ?$AA?2?$AAM?$AAi?$AAc?$AAr?$AAo?$AAs?$AAo?$AAf?$AAt@ ; `string'
PUBLIC	?id@?$num_put@DV?$ostreambuf_iterator@DU?$char_traits@D@std@@@std@@@std@@2V0locale@2@A ; std::num_put<char,std::ostreambuf_iterator<char,std::char_traits<char> > >::id
PUBLIC	??_7?$num_put@DV?$ostreambuf_iterator@DU?$char_traits@D@std@@@std@@@std@@6B@ ; std::num_put<char,std::ostreambuf_iterator<char,std::char_traits<char> > >::`vftable'
PUBLIC	??_C@_0EJ@IBPBNBIE@C?3?2Program?5Files?5?$CIx86?$CJ?2Microsoft@ ; `string'
PUBLIC	??_C@_1CO@DGLIKNHI@?$AAi?$AAn?$AAv?$AAa?$AAl?$AAi?$AAd?$AA?5?$AAi?$AAt?$AAe?$AAr?$AAa?$AAt?$AAo?$AAr?$AA?5?$AAr?$AAa?$AAn?$AAg?$AAe?$AA?$AA@ ; `string'
PUBLIC	?_Psave@?$_Facetptr@V?$num_put@DV?$ostreambuf_iterator@DU?$char_traits@D@std@@@std@@@std@@@std@@2PBVfacet@locale@2@B ; std::_Facetptr<std::num_put<char,std::ostreambuf_iterator<char,std::char_traits<char> > > >::_Psave
PUBLIC	??_R1A@?0A@EA@exception@std@@8			; std::exception::`RTTI Base Class Descriptor at (0,-1,0,64)'
PUBLIC	??_R3exception@std@@8				; std::exception::`RTTI Class Hierarchy Descriptor'
PUBLIC	??_R2exception@std@@8				; std::exception::`RTTI Base Class Array'
PUBLIC	??_R4ios_base@std@@6B@				; std::ios_base::`RTTI Complete Object Locator'
PUBLIC	??_R0?AVios_base@std@@@8			; std::ios_base `RTTI Type Descriptor'
PUBLIC	??_R3ios_base@std@@8				; std::ios_base::`RTTI Class Hierarchy Descriptor'
PUBLIC	??_R2ios_base@std@@8				; std::ios_base::`RTTI Base Class Array'
PUBLIC	??_R1A@?0A@EA@ios_base@std@@8			; std::ios_base::`RTTI Base Class Descriptor at (0,-1,0,64)'
PUBLIC	??_R17?0A@EA@?$_Iosb@H@std@@8			; std::_Iosb<int>::`RTTI Base Class Descriptor at (8,-1,0,64)'
PUBLIC	??_R0?AV?$_Iosb@H@std@@@8			; std::_Iosb<int> `RTTI Type Descriptor'
PUBLIC	??_R3?$_Iosb@H@std@@8				; std::_Iosb<int>::`RTTI Class Hierarchy Descriptor'
PUBLIC	??_R2?$_Iosb@H@std@@8				; std::_Iosb<int>::`RTTI Base Class Array'
PUBLIC	??_R1A@?0A@EA@?$_Iosb@H@std@@8			; std::_Iosb<int>::`RTTI Base Class Descriptor at (0,-1,0,64)'
PUBLIC	??_R4?$basic_ios@DU?$char_traits@D@std@@@std@@6B@ ; std::basic_ios<char,std::char_traits<char> >::`RTTI Complete Object Locator'
PUBLIC	??_R0?AV?$basic_ios@DU?$char_traits@D@std@@@std@@@8 ; std::basic_ios<char,std::char_traits<char> > `RTTI Type Descriptor'
PUBLIC	??_R3?$basic_ios@DU?$char_traits@D@std@@@std@@8	; std::basic_ios<char,std::char_traits<char> >::`RTTI Class Hierarchy Descriptor'
PUBLIC	??_R2?$basic_ios@DU?$char_traits@D@std@@@std@@8	; std::basic_ios<char,std::char_traits<char> >::`RTTI Base Class Array'
PUBLIC	??_R1A@?0A@EA@?$basic_ios@DU?$char_traits@D@std@@@std@@8 ; std::basic_ios<char,std::char_traits<char> >::`RTTI Base Class Descriptor at (0,-1,0,64)'
PUBLIC	??_R4?$basic_streambuf@DU?$char_traits@D@std@@@std@@6B@ ; std::basic_streambuf<char,std::char_traits<char> >::`RTTI Complete Object Locator'
PUBLIC	??_R0?AV?$basic_streambuf@DU?$char_traits@D@std@@@std@@@8 ; std::basic_streambuf<char,std::char_traits<char> > `RTTI Type Descriptor'
PUBLIC	??_R3?$basic_streambuf@DU?$char_traits@D@std@@@std@@8 ; std::basic_streambuf<char,std::char_traits<char> >::`RTTI Class Hierarchy Descriptor'
PUBLIC	??_R2?$basic_streambuf@DU?$char_traits@D@std@@@std@@8 ; std::basic_streambuf<char,std::char_traits<char> >::`RTTI Base Class Array'
PUBLIC	??_R1A@?0A@EA@?$basic_streambuf@DU?$char_traits@D@std@@@std@@8 ; std::basic_streambuf<char,std::char_traits<char> >::`RTTI Base Class Descriptor at (0,-1,0,64)'
PUBLIC	??_R1A@A@3FA@?$basic_ios@DU?$char_traits@D@std@@@std@@8 ; std::basic_ios<char,std::char_traits<char> >::`RTTI Base Class Descriptor at (0,0,4,80)'
PUBLIC	??_R1A@A@3EA@ios_base@std@@8			; std::ios_base::`RTTI Base Class Descriptor at (0,0,4,64)'
PUBLIC	??_R17A@3EA@?$_Iosb@H@std@@8			; std::_Iosb<int>::`RTTI Base Class Descriptor at (8,0,4,64)'
PUBLIC	??_R4?$basic_ostream@DU?$char_traits@D@std@@@std@@6B@ ; std::basic_ostream<char,std::char_traits<char> >::`RTTI Complete Object Locator'
PUBLIC	??_R0?AV?$basic_ostream@DU?$char_traits@D@std@@@std@@@8 ; std::basic_ostream<char,std::char_traits<char> > `RTTI Type Descriptor'
PUBLIC	??_R3?$basic_ostream@DU?$char_traits@D@std@@@std@@8 ; std::basic_ostream<char,std::char_traits<char> >::`RTTI Class Hierarchy Descriptor'
PUBLIC	??_R2?$basic_ostream@DU?$char_traits@D@std@@@std@@8 ; std::basic_ostream<char,std::char_traits<char> >::`RTTI Base Class Array'
PUBLIC	??_R1A@?0A@EA@?$basic_ostream@DU?$char_traits@D@std@@@std@@8 ; std::basic_ostream<char,std::char_traits<char> >::`RTTI Base Class Descriptor at (0,-1,0,64)'
PUBLIC	??_R4?$basic_stringbuf@DU?$char_traits@D@std@@V?$allocator@D@2@@std@@6B@ ; std::basic_stringbuf<char,std::char_traits<char>,std::allocator<char> >::`RTTI Complete Object Locator'
PUBLIC	??_R0?AV?$basic_stringbuf@DU?$char_traits@D@std@@V?$allocator@D@2@@std@@@8 ; std::basic_stringbuf<char,std::char_traits<char>,std::allocator<char> > `RTTI Type Descriptor'
PUBLIC	??_R3?$basic_stringbuf@DU?$char_traits@D@std@@V?$allocator@D@2@@std@@8 ; std::basic_stringbuf<char,std::char_traits<char>,std::allocator<char> >::`RTTI Class Hierarchy Descriptor'
PUBLIC	??_R2?$basic_stringbuf@DU?$char_traits@D@std@@V?$allocator@D@2@@std@@8 ; std::basic_stringbuf<char,std::char_traits<char>,std::allocator<char> >::`RTTI Base Class Array'
PUBLIC	??_R1A@?0A@EA@?$basic_stringbuf@DU?$char_traits@D@std@@V?$allocator@D@2@@std@@8 ; std::basic_stringbuf<char,std::char_traits<char>,std::allocator<char> >::`RTTI Base Class Descriptor at (0,-1,0,64)'
PUBLIC	??_R4?$basic_ostringstream@DU?$char_traits@D@std@@V?$allocator@D@2@@std@@6B@ ; std::basic_ostringstream<char,std::char_traits<char>,std::allocator<char> >::`RTTI Complete Object Locator'
PUBLIC	??_R0?AV?$basic_ostringstream@DU?$char_traits@D@std@@V?$allocator@D@2@@std@@@8 ; std::basic_ostringstream<char,std::char_traits<char>,std::allocator<char> > `RTTI Type Descriptor'
PUBLIC	??_R3?$basic_ostringstream@DU?$char_traits@D@std@@V?$allocator@D@2@@std@@8 ; std::basic_ostringstream<char,std::char_traits<char>,std::allocator<char> >::`RTTI Class Hierarchy Descriptor'
PUBLIC	??_R2?$basic_ostringstream@DU?$char_traits@D@std@@V?$allocator@D@2@@std@@8 ; std::basic_ostringstream<char,std::char_traits<char>,std::allocator<char> >::`RTTI Base Class Array'
PUBLIC	??_R1A@?0A@EA@?$basic_ostringstream@DU?$char_traits@D@std@@V?$allocator@D@2@@std@@8 ; std::basic_ostringstream<char,std::char_traits<char>,std::allocator<char> >::`RTTI Base Class Descriptor at (0,-1,0,64)'
PUBLIC	??_R4runtime_error@std@@6B@			; std::runtime_error::`RTTI Complete Object Locator'
PUBLIC	??_R3runtime_error@std@@8			; std::runtime_error::`RTTI Class Hierarchy Descriptor'
PUBLIC	??_R2runtime_error@std@@8			; std::runtime_error::`RTTI Base Class Array'
PUBLIC	??_R1A@?0A@EA@runtime_error@std@@8		; std::runtime_error::`RTTI Base Class Descriptor at (0,-1,0,64)'
PUBLIC	??_R4_Facet_base@std@@6B@			; std::_Facet_base::`RTTI Complete Object Locator'
PUBLIC	??_R0?AV_Facet_base@std@@@8			; std::_Facet_base `RTTI Type Descriptor'
PUBLIC	??_R3_Facet_base@std@@8				; std::_Facet_base::`RTTI Class Hierarchy Descriptor'
PUBLIC	??_R2_Facet_base@std@@8				; std::_Facet_base::`RTTI Base Class Array'
PUBLIC	??_R1A@?0A@EA@_Facet_base@std@@8		; std::_Facet_base::`RTTI Base Class Descriptor at (0,-1,0,64)'
PUBLIC	??_R1A@?0A@EA@facet@locale@std@@8		; std::locale::facet::`RTTI Base Class Descriptor at (0,-1,0,64)'
PUBLIC	??_R0?AVfacet@locale@std@@@8			; std::locale::facet `RTTI Type Descriptor'
PUBLIC	??_R3facet@locale@std@@8			; std::locale::facet::`RTTI Class Hierarchy Descriptor'
PUBLIC	??_R2facet@locale@std@@8			; std::locale::facet::`RTTI Base Class Array'
PUBLIC	??_R4facet@locale@std@@6B@			; std::locale::facet::`RTTI Complete Object Locator'
PUBLIC	??_R4ctype_base@std@@6B@			; std::ctype_base::`RTTI Complete Object Locator'
PUBLIC	??_R0?AUctype_base@std@@@8			; std::ctype_base `RTTI Type Descriptor'
PUBLIC	??_R3ctype_base@std@@8				; std::ctype_base::`RTTI Class Hierarchy Descriptor'
PUBLIC	??_R2ctype_base@std@@8				; std::ctype_base::`RTTI Base Class Array'
PUBLIC	??_R1A@?0A@EA@ctype_base@std@@8			; std::ctype_base::`RTTI Base Class Descriptor at (0,-1,0,64)'
PUBLIC	??_R4?$ctype@D@std@@6B@				; std::ctype<char>::`RTTI Complete Object Locator'
PUBLIC	??_R0?AV?$ctype@D@std@@@8			; std::ctype<char> `RTTI Type Descriptor'
PUBLIC	??_R3?$ctype@D@std@@8				; std::ctype<char>::`RTTI Class Hierarchy Descriptor'
PUBLIC	??_R2?$ctype@D@std@@8				; std::ctype<char>::`RTTI Base Class Array'
PUBLIC	??_R1A@?0A@EA@?$ctype@D@std@@8			; std::ctype<char>::`RTTI Base Class Descriptor at (0,-1,0,64)'
PUBLIC	??_R4error_category@std@@6B@			; std::error_category::`RTTI Complete Object Locator'
PUBLIC	??_R0?AVerror_category@std@@@8			; std::error_category `RTTI Type Descriptor'
PUBLIC	??_R3error_category@std@@8			; std::error_category::`RTTI Class Hierarchy Descriptor'
PUBLIC	??_R2error_category@std@@8			; std::error_category::`RTTI Base Class Array'
PUBLIC	??_R1A@?0A@EA@error_category@std@@8		; std::error_category::`RTTI Base Class Descriptor at (0,-1,0,64)'
PUBLIC	??_R4_System_error@std@@6B@			; std::_System_error::`RTTI Complete Object Locator'
PUBLIC	??_R3_System_error@std@@8			; std::_System_error::`RTTI Class Hierarchy Descriptor'
PUBLIC	??_R2_System_error@std@@8			; std::_System_error::`RTTI Base Class Array'
PUBLIC	??_R1A@?0A@EA@_System_error@std@@8		; std::_System_error::`RTTI Base Class Descriptor at (0,-1,0,64)'
PUBLIC	??_R4system_error@std@@6B@			; std::system_error::`RTTI Complete Object Locator'
PUBLIC	??_R3system_error@std@@8			; std::system_error::`RTTI Class Hierarchy Descriptor'
PUBLIC	??_R2system_error@std@@8			; std::system_error::`RTTI Base Class Array'
PUBLIC	??_R1A@?0A@EA@system_error@std@@8		; std::system_error::`RTTI Base Class Descriptor at (0,-1,0,64)'
PUBLIC	??_R4_Generic_error_category@std@@6B@		; std::_Generic_error_category::`RTTI Complete Object Locator'
PUBLIC	??_R0?AV_Generic_error_category@std@@@8		; std::_Generic_error_category `RTTI Type Descriptor'
PUBLIC	??_R3_Generic_error_category@std@@8		; std::_Generic_error_category::`RTTI Class Hierarchy Descriptor'
PUBLIC	??_R2_Generic_error_category@std@@8		; std::_Generic_error_category::`RTTI Base Class Array'
PUBLIC	??_R1A@?0A@EA@_Generic_error_category@std@@8	; std::_Generic_error_category::`RTTI Base Class Descriptor at (0,-1,0,64)'
PUBLIC	??_R4_Iostream_error_category@std@@6B@		; std::_Iostream_error_category::`RTTI Complete Object Locator'
PUBLIC	??_R0?AV_Iostream_error_category@std@@@8	; std::_Iostream_error_category `RTTI Type Descriptor'
PUBLIC	??_R3_Iostream_error_category@std@@8		; std::_Iostream_error_category::`RTTI Class Hierarchy Descriptor'
PUBLIC	??_R2_Iostream_error_category@std@@8		; std::_Iostream_error_category::`RTTI Base Class Array'
PUBLIC	??_R1A@?0A@EA@_Iostream_error_category@std@@8	; std::_Iostream_error_category::`RTTI Base Class Descriptor at (0,-1,0,64)'
PUBLIC	??_R4_System_error_category@std@@6B@		; std::_System_error_category::`RTTI Complete Object Locator'
PUBLIC	??_R0?AV_System_error_category@std@@@8		; std::_System_error_category `RTTI Type Descriptor'
PUBLIC	??_R3_System_error_category@std@@8		; std::_System_error_category::`RTTI Class Hierarchy Descriptor'
PUBLIC	??_R2_System_error_category@std@@8		; std::_System_error_category::`RTTI Base Class Array'
PUBLIC	??_R1A@?0A@EA@_System_error_category@std@@8	; std::_System_error_category::`RTTI Base Class Descriptor at (0,-1,0,64)'
PUBLIC	??_R4failure@ios_base@std@@6B@			; std::ios_base::failure::`RTTI Complete Object Locator'
PUBLIC	??_R3failure@ios_base@std@@8			; std::ios_base::failure::`RTTI Class Hierarchy Descriptor'
PUBLIC	??_R2failure@ios_base@std@@8			; std::ios_base::failure::`RTTI Base Class Array'
PUBLIC	??_R1A@?0A@EA@failure@ios_base@std@@8		; std::ios_base::failure::`RTTI Base Class Descriptor at (0,-1,0,64)'
PUBLIC	??_R4?$num_put@DV?$ostreambuf_iterator@DU?$char_traits@D@std@@@std@@@std@@6B@ ; std::num_put<char,std::ostreambuf_iterator<char,std::char_traits<char> > >::`RTTI Complete Object Locator'
PUBLIC	??_R0?AV?$num_put@DV?$ostreambuf_iterator@DU?$char_traits@D@std@@@std@@@std@@@8 ; std::num_put<char,std::ostreambuf_iterator<char,std::char_traits<char> > > `RTTI Type Descriptor'
PUBLIC	??_R3?$num_put@DV?$ostreambuf_iterator@DU?$char_traits@D@std@@@std@@@std@@8 ; std::num_put<char,std::ostreambuf_iterator<char,std::char_traits<char> > >::`RTTI Class Hierarchy Descriptor'
PUBLIC	??_R2?$num_put@DV?$ostreambuf_iterator@DU?$char_traits@D@std@@@std@@@std@@8 ; std::num_put<char,std::ostreambuf_iterator<char,std::char_traits<char> > >::`RTTI Base Class Array'
PUBLIC	??_R1A@?0A@EA@?$num_put@DV?$ostreambuf_iterator@DU?$char_traits@D@std@@@std@@@std@@8 ; std::num_put<char,std::ostreambuf_iterator<char,std::char_traits<char> > >::`RTTI Base Class Descriptor at (0,-1,0,64)'
PUBLIC	??_R4?$numpunct@D@std@@6B@			; std::numpunct<char>::`RTTI Complete Object Locator'
PUBLIC	??_R0?AV?$numpunct@D@std@@@8			; std::numpunct<char> `RTTI Type Descriptor'
PUBLIC	??_R3?$numpunct@D@std@@8			; std::numpunct<char>::`RTTI Class Hierarchy Descriptor'
PUBLIC	??_R2?$numpunct@D@std@@8			; std::numpunct<char>::`RTTI Base Class Array'
PUBLIC	??_R1A@?0A@EA@?$numpunct@D@std@@8		; std::numpunct<char>::`RTTI Base Class Descriptor at (0,-1,0,64)'
PUBLIC	__real@0000000000000000
PUBLIC	__real@0010000000000000
PUBLIC	__real@00800000
PUBLIC	__real@38aa95a5b7f87a0f
PUBLIC	__real@3fe0000000000000
PUBLIC	__real@3ff0000000000000
PUBLIC	__real@4000000000000000
PUBLIC	__real@4010000000000000
PUBLIC	__real@4028000000000000
PUBLIC	__real@4202a05f20000000
PUBLIC	__real@4733426172c74d82
PUBLIC	__real@7f7fffff
PUBLIC	__real@7fefffffffffffff
PUBLIC	__xmm@80000000000000008000000000000000
EXTRN	__purecall:PROC
EXTRN	??2@YAPAXI@Z:PROC				; operator new
EXTRN	??3@YAXPAX@Z:PROC				; operator delete
EXTRN	_atexit:PROC
EXTRN	??0_Lockit@std@@QAE@H@Z:PROC			; std::_Lockit::_Lockit
EXTRN	??1_Lockit@std@@QAE@XZ:PROC			; std::_Lockit::~_Lockit
EXTRN	_free:PROC
EXTRN	__hypot:PROC
EXTRN	_memmove:PROC
EXTRN	_memcpy:PROC
EXTRN	_memset:PROC
EXTRN	_strlen:PROC
EXTRN	_strcspn:PROC
EXTRN	??0exception@std@@QAE@ABQBD@Z:PROC		; std::exception::exception
EXTRN	??0exception@std@@QAE@ABV01@@Z:PROC		; std::exception::exception
EXTRN	??1exception@std@@UAE@XZ:PROC			; std::exception::~exception
EXTRN	?what@exception@std@@UBEPBDXZ:PROC		; std::exception::what
EXTRN	?uncaught_exception@std@@YA_NXZ:PROC		; std::uncaught_exception
EXTRN	??_V@YAXPAX@Z:PROC				; operator delete[]
EXTRN	_sprintf_s:PROC
EXTRN	__free_dbg:PROC
EXTRN	?_Debug_message@std@@YAXPB_W0I@Z:PROC		; std::_Debug_message
EXTRN	?_Xbad_alloc@std@@YAXXZ:PROC			; std::_Xbad_alloc
EXTRN	?_Xlength_error@std@@YAXPBD@Z:PROC		; std::_Xlength_error
EXTRN	?_Xout_of_range@std@@YAXPBD@Z:PROC		; std::_Xout_of_range
EXTRN	??_Eruntime_error@std@@UAEPAXI@Z:PROC		; std::runtime_error::`vector deleting destructor'
EXTRN	__imp__TextOutA@20:PROC
EXTRN	??0bad_cast@std@@QAE@PBD@Z:PROC			; std::bad_cast::bad_cast
EXTRN	??0bad_cast@std@@QAE@ABV01@@Z:PROC		; std::bad_cast::bad_cast
EXTRN	??1bad_cast@std@@UAE@XZ:PROC			; std::bad_cast::~bad_cast
EXTRN	_localeconv:PROC
EXTRN	__Getctype:PROC
EXTRN	__Getcvt:PROC
EXTRN	__Tolower:PROC
EXTRN	__Toupper:PROC
EXTRN	?_Locinfo_ctor@_Locinfo@std@@SAXPAV12@PBD@Z:PROC ; std::_Locinfo::_Locinfo_ctor
EXTRN	?_Locinfo_dtor@_Locinfo@std@@SAXPAV12@@Z:PROC	; std::_Locinfo::_Locinfo_dtor
EXTRN	??2@YAPAXIABU_DebugHeapTag_t@std@@PADH@Z:PROC	; operator new
EXTRN	??_U@YAPAXIABU_DebugHeapTag_t@std@@PADH@Z:PROC	; operator new[]
EXTRN	?_DebugHeapTag_func@std@@YAABU_DebugHeapTag_t@1@XZ:PROC ; std::_DebugHeapTag_func
EXTRN	??_E_Facet_base@std@@UAEPAXI@Z:PROC		; std::_Facet_base::`vector deleting destructor'
EXTRN	?_Facet_Register@std@@YAXPAV_Facet_base@1@@Z:PROC ; std::_Facet_Register
EXTRN	??_Efacet@locale@std@@MAEPAXI@Z:PROC		; std::locale::facet::`vector deleting destructor'
EXTRN	?_Init@locale@std@@CAPAV_Locimp@12@_N@Z:PROC	; std::locale::_Init
EXTRN	?_Getgloballocale@locale@std@@CAPAV_Locimp@12@XZ:PROC ; std::locale::_Getgloballocale
EXTRN	??_Ectype_base@std@@UAEPAXI@Z:PROC		; std::ctype_base::`vector deleting destructor'
EXTRN	??_E?$ctype@D@std@@MAEPAXI@Z:PROC		; std::ctype<char>::`vector deleting destructor'
EXTRN	??_Eerror_category@std@@UAEPAXI@Z:PROC		; std::error_category::`vector deleting destructor'
EXTRN	??_E_System_error@std@@UAEPAXI@Z:PROC		; std::_System_error::`vector deleting destructor'
EXTRN	??_Esystem_error@std@@UAEPAXI@Z:PROC		; std::system_error::`vector deleting destructor'
EXTRN	?_Syserror_map@std@@YAPBDH@Z:PROC		; std::_Syserror_map
EXTRN	?_Winerror_map@std@@YAPBDH@Z:PROC		; std::_Winerror_map
EXTRN	??_E_Generic_error_category@std@@UAEPAXI@Z:PROC	; std::_Generic_error_category::`vector deleting destructor'
EXTRN	??_E_Iostream_error_category@std@@UAEPAXI@Z:PROC ; std::_Iostream_error_category::`vector deleting destructor'
EXTRN	??_E_System_error_category@std@@UAEPAXI@Z:PROC	; std::_System_error_category::`vector deleting destructor'
EXTRN	??_Efailure@ios_base@std@@UAEPAXI@Z:PROC	; std::ios_base::failure::`vector deleting destructor'
EXTRN	?_Addstd@ios_base@std@@SAXPAV12@@Z:PROC		; std::ios_base::_Addstd
EXTRN	?_Ios_base_dtor@ios_base@std@@CAXPAV12@@Z:PROC	; std::ios_base::_Ios_base_dtor
EXTRN	??_Eios_base@std@@UAEPAXI@Z:PROC		; std::ios_base::`vector deleting destructor'
EXTRN	??_E?$basic_ios@DU?$char_traits@D@std@@@std@@UAEPAXI@Z:PROC ; std::basic_ios<char,std::char_traits<char> >::`vector deleting destructor'
EXTRN	??_E?$basic_streambuf@DU?$char_traits@D@std@@@std@@UAEPAXI@Z:PROC ; std::basic_streambuf<char,std::char_traits<char> >::`vector deleting destructor'
EXTRN	??_E?$basic_ostream@DU?$char_traits@D@std@@@std@@UAEPAXI@Z:PROC ; std::basic_ostream<char,std::char_traits<char> >::`vector deleting destructor'
EXTRN	?setprecision@std@@YA?AU?$_Smanip@_J@1@_J@Z:PROC ; std::setprecision
EXTRN	?Instance@Cgdi@@SAPAV1@XZ:PROC			; Cgdi::Instance
EXTRN	?AddGoal_AttackTarget@Goal_Think@@QAEXXZ:PROC	; Goal_Think::AddGoal_AttackTarget
EXTRN	?Health@Raven_Feature@@SANPAVRaven_Bot@@@Z:PROC	; Raven_Feature::Health
EXTRN	?TotalWeaponStrength@Raven_Feature@@SANPAVRaven_Bot@@@Z:PROC ; Raven_Feature::TotalWeaponStrength
EXTRN	??_E?$numpunct@D@std@@MAEPAXI@Z:PROC		; std::numpunct<char>::`vector deleting destructor'
EXTRN	??_E?$basic_stringbuf@DU?$char_traits@D@std@@V?$allocator@D@2@@std@@UAEPAXI@Z:PROC ; std::basic_stringbuf<char,std::char_traits<char>,std::allocator<char> >::`vector deleting destructor'
EXTRN	??_E?$basic_ostringstream@DU?$char_traits@D@std@@V?$allocator@D@2@@std@@UAEPAXI@Z:PROC ; std::basic_ostringstream<char,std::char_traits<char>,std::allocator<char> >::`vector deleting destructor'
EXTRN	??_E?$num_put@DV?$ostreambuf_iterator@DU?$char_traits@D@std@@@std@@@std@@MAEPAXI@Z:PROC ; std::num_put<char,std::ostreambuf_iterator<char,std::char_traits<char> > >::`vector deleting destructor'
EXTRN	@_RTC_CheckStackVars@8:PROC
EXTRN	@__security_check_cookie@4:PROC
EXTRN	__CxxThrowException@8:PROC
EXTRN	__RTC_CheckEsp:PROC
EXTRN	__RTC_InitBase:PROC
EXTRN	__RTC_Shutdown:PROC
EXTRN	___CxxFrameHandler3:PROC
EXTRN	?_BADOFF@std@@3_JB:QWORD			; std::_BADOFF
EXTRN	??_7type_info@@6B@:QWORD			; type_info::`vftable'
EXTRN	?_Id_cnt@id@locale@std@@0HA:DWORD		; std::locale::id::_Id_cnt
EXTRN	?id@?$ctype@D@std@@2V0locale@2@A:DWORD		; std::ctype<char>::id
EXTRN	___security_cookie:DWORD
EXTRN	__fltused:DWORD
_BSS	SEGMENT
_piecewise_construct DB 01H DUP (?)
	ALIGN	4

_allocator_arg DB 01H DUP (?)
	ALIGN	4

_ignore	DB	01H DUP (?)
	ALIGN	4

__Tuple_alloc DB 01H DUP (?)
_BSS	ENDS
;	COMDAT ?_Generic_object@?$_Error_objects@H@std@@2V_Generic_error_category@2@A
_BSS	SEGMENT
?_Generic_object@?$_Error_objects@H@std@@2V_Generic_error_category@2@A DD 01H DUP (?) ; std::_Error_objects<int>::_Generic_object
_BSS	ENDS
;	COMDAT ?_Iostream_object@?$_Error_objects@H@std@@2V_Iostream_error_category@2@A
_BSS	SEGMENT
?_Iostream_object@?$_Error_objects@H@std@@2V_Iostream_error_category@2@A DD 01H DUP (?) ; std::_Error_objects<int>::_Iostream_object
_BSS	ENDS
;	COMDAT ?_System_object@?$_Error_objects@H@std@@2V_System_error_category@2@A
_BSS	SEGMENT
?_System_object@?$_Error_objects@H@std@@2V_System_error_category@2@A DD 01H DUP (?) ; std::_Error_objects<int>::_System_object
_BSS	ENDS
;	COMDAT ?id@?$num_put@DV?$back_insert_iterator@V?$basic_string@DU?$char_traits@D@std@@V?$allocator@D@2@@std@@@std@@@std@@2V0locale@2@A
_BSS	SEGMENT
?id@?$num_put@DV?$back_insert_iterator@V?$basic_string@DU?$char_traits@D@std@@V?$allocator@D@2@@std@@@std@@@std@@2V0locale@2@A DD 01H DUP (?) ; std::num_put<char,std::back_insert_iterator<std::basic_string<char,std::char_traits<char>,std::allocator<char> > > >::id
_BSS	ENDS
;	COMDAT ?id@?$num_put@_WV?$back_insert_iterator@V?$basic_string@_WU?$char_traits@_W@std@@V?$allocator@_W@2@@std@@@std@@@std@@2V0locale@2@A
_BSS	SEGMENT
?id@?$num_put@_WV?$back_insert_iterator@V?$basic_string@_WU?$char_traits@_W@std@@V?$allocator@_W@2@@std@@@std@@@std@@2V0locale@2@A DD 01H DUP (?) ; std::num_put<wchar_t,std::back_insert_iterator<std::basic_string<wchar_t,std::char_traits<wchar_t>,std::allocator<wchar_t> > > >::id
_BSS	ENDS
_BSS	SEGMENT
	ALIGN	4

_MaxInt	DD	01H DUP (?)
	ALIGN	8

_MaxDouble DQ	01H DUP (?)
_MinDouble DQ	01H DUP (?)
_MaxFloat DD	01H DUP (?)
_MinFloat DD	01H DUP (?)
_TwoPi	DQ	01H DUP (?)
_HalfPi	DQ	01H DUP (?)
_QuarterPi DQ	01H DUP (?)
_BSS	ENDS
;	COMDAT ?id@?$numpunct@D@std@@2V0locale@2@A
_BSS	SEGMENT
?id@?$numpunct@D@std@@2V0locale@2@A DD 01H DUP (?)	; std::numpunct<char>::id
_BSS	ENDS
;	COMDAT ?id@?$numpunct@_W@std@@2V0locale@2@A
_BSS	SEGMENT
?id@?$numpunct@_W@std@@2V0locale@2@A DD 01H DUP (?)	; std::numpunct<wchar_t>::id
_BSS	ENDS
;	COMDAT ?id@?$codecvt@DDH@std@@2V0locale@2@A
_BSS	SEGMENT
?id@?$codecvt@DDH@std@@2V0locale@2@A DD 01H DUP (?)	; std::codecvt<char,char,int>::id
_BSS	ENDS
;	COMDAT ?_Psave@?$_Facetptr@V?$ctype@D@std@@@std@@2PBVfacet@locale@2@B
_BSS	SEGMENT
?_Psave@?$_Facetptr@V?$ctype@D@std@@@std@@2PBVfacet@locale@2@B DD 01H DUP (?) ; std::_Facetptr<std::ctype<char> >::_Psave
_BSS	ENDS
;	COMDAT ?_Psave@?$_Facetptr@V?$numpunct@D@std@@@std@@2PBVfacet@locale@2@B
_BSS	SEGMENT
?_Psave@?$_Facetptr@V?$numpunct@D@std@@@std@@2PBVfacet@locale@2@B DD 01H DUP (?) ; std::_Facetptr<std::numpunct<char> >::_Psave
_BSS	ENDS
;	COMDAT ?id@?$num_put@DV?$ostreambuf_iterator@DU?$char_traits@D@std@@@std@@@std@@2V0locale@2@A
_BSS	SEGMENT
?id@?$num_put@DV?$ostreambuf_iterator@DU?$char_traits@D@std@@@std@@@std@@2V0locale@2@A DD 01H DUP (?) ; std::num_put<char,std::ostreambuf_iterator<char,std::char_traits<char> > >::id
_BSS	ENDS
;	COMDAT ?_Psave@?$_Facetptr@V?$num_put@DV?$ostreambuf_iterator@DU?$char_traits@D@std@@@std@@@std@@@std@@2PBVfacet@locale@2@B
_BSS	SEGMENT
?_Psave@?$_Facetptr@V?$num_put@DV?$ostreambuf_iterator@DU?$char_traits@D@std@@@std@@@std@@@std@@2PBVfacet@locale@2@B DD 01H DUP (?) ; std::_Facetptr<std::num_put<char,std::ostreambuf_iterator<char,std::char_traits<char> > > >::_Psave
_BSS	ENDS
CRT$XCU	SEGMENT
_piecewise_construct$initializer$ DD FLAT:??__Epiecewise_construct@std@@YAXXZ
CRT$XCU	ENDS
;	COMDAT __xmm@80000000000000008000000000000000
CONST	SEGMENT
__xmm@80000000000000008000000000000000 DB 00H, 00H, 00H, 00H, 00H, 00H, 00H
	DB	080H, 00H, 00H, 00H, 00H, 00H, 00H, 00H, 080H
CONST	ENDS
;	COMDAT __real@7fefffffffffffff
CONST	SEGMENT
__real@7fefffffffffffff DQ 07fefffffffffffffr	; 1.79769e+308
CONST	ENDS
;	COMDAT __real@7f7fffff
CONST	SEGMENT
__real@7f7fffff DD 07f7fffffr			; 3.40282e+038
CONST	ENDS
;	COMDAT __real@4733426172c74d82
CONST	SEGMENT
__real@4733426172c74d82 DQ 04733426172c74d82r	; 1e+035
CONST	ENDS
;	COMDAT __real@4202a05f20000000
CONST	SEGMENT
__real@4202a05f20000000 DQ 04202a05f20000000r	; 1e+010
CONST	ENDS
;	COMDAT __real@4028000000000000
CONST	SEGMENT
__real@4028000000000000 DQ 04028000000000000r	; 12
CONST	ENDS
;	COMDAT __real@4010000000000000
CONST	SEGMENT
__real@4010000000000000 DQ 04010000000000000r	; 4
CONST	ENDS
;	COMDAT __real@4000000000000000
CONST	SEGMENT
__real@4000000000000000 DQ 04000000000000000r	; 2
CONST	ENDS
;	COMDAT __real@3ff0000000000000
CONST	SEGMENT
__real@3ff0000000000000 DQ 03ff0000000000000r	; 1
CONST	ENDS
;	COMDAT __real@3fe0000000000000
CONST	SEGMENT
__real@3fe0000000000000 DQ 03fe0000000000000r	; 0.5
CONST	ENDS
;	COMDAT __real@38aa95a5b7f87a0f
CONST	SEGMENT
__real@38aa95a5b7f87a0f DQ 038aa95a5b7f87a0fr	; 1e-035
CONST	ENDS
;	COMDAT __real@00800000
CONST	SEGMENT
__real@00800000 DD 000800000r			; 1.17549e-038
CONST	ENDS
;	COMDAT __real@0010000000000000
CONST	SEGMENT
__real@0010000000000000 DQ 00010000000000000r	; 2.22507e-308
CONST	ENDS
;	COMDAT __real@0000000000000000
CONST	SEGMENT
__real@0000000000000000 DQ 00000000000000000r	; 0
CONST	ENDS
;	COMDAT rtc$TMZ
rtc$TMZ	SEGMENT
__RTC_Shutdown.rtc$TMZ DD FLAT:__RTC_Shutdown
rtc$TMZ	ENDS
;	COMDAT rtc$IMZ
rtc$IMZ	SEGMENT
__RTC_InitBase.rtc$IMZ DD FLAT:__RTC_InitBase
rtc$IMZ	ENDS
;	COMDAT ??_R1A@?0A@EA@?$numpunct@D@std@@8
rdata$r	SEGMENT
??_R1A@?0A@EA@?$numpunct@D@std@@8 DD FLAT:??_R0?AV?$numpunct@D@std@@@8 ; std::numpunct<char>::`RTTI Base Class Descriptor at (0,-1,0,64)'
	DD	02H
	DD	00H
	DD	0ffffffffH
	DD	00H
	DD	040H
	DD	FLAT:??_R3?$numpunct@D@std@@8
rdata$r	ENDS
;	COMDAT ??_R2?$numpunct@D@std@@8
rdata$r	SEGMENT
??_R2?$numpunct@D@std@@8 DD FLAT:??_R1A@?0A@EA@?$numpunct@D@std@@8 ; std::numpunct<char>::`RTTI Base Class Array'
	DD	FLAT:??_R1A@?0A@EA@facet@locale@std@@8
	DD	FLAT:??_R1A@?0A@EA@_Facet_base@std@@8
rdata$r	ENDS
;	COMDAT ??_R3?$numpunct@D@std@@8
rdata$r	SEGMENT
??_R3?$numpunct@D@std@@8 DD 00H				; std::numpunct<char>::`RTTI Class Hierarchy Descriptor'
	DD	00H
	DD	03H
	DD	FLAT:??_R2?$numpunct@D@std@@8
rdata$r	ENDS
;	COMDAT ??_R0?AV?$numpunct@D@std@@@8
data$r	SEGMENT
??_R0?AV?$numpunct@D@std@@@8 DD FLAT:??_7type_info@@6B@	; std::numpunct<char> `RTTI Type Descriptor'
	DD	00H
	DB	'.?AV?$numpunct@D@std@@', 00H
data$r	ENDS
;	COMDAT ??_R4?$numpunct@D@std@@6B@
rdata$r	SEGMENT
??_R4?$numpunct@D@std@@6B@ DD 00H			; std::numpunct<char>::`RTTI Complete Object Locator'
	DD	00H
	DD	00H
	DD	FLAT:??_R0?AV?$numpunct@D@std@@@8
	DD	FLAT:??_R3?$numpunct@D@std@@8
rdata$r	ENDS
;	COMDAT ??_R1A@?0A@EA@?$num_put@DV?$ostreambuf_iterator@DU?$char_traits@D@std@@@std@@@std@@8
rdata$r	SEGMENT
??_R1A@?0A@EA@?$num_put@DV?$ostreambuf_iterator@DU?$char_traits@D@std@@@std@@@std@@8 DD FLAT:??_R0?AV?$num_put@DV?$ostreambuf_iterator@DU?$char_traits@D@std@@@std@@@std@@@8 ; std::num_put<char,std::ostreambuf_iterator<char,std::char_traits<char> > >::`RTTI Base Class Descriptor at (0,-1,0,64)'
	DD	02H
	DD	00H
	DD	0ffffffffH
	DD	00H
	DD	040H
	DD	FLAT:??_R3?$num_put@DV?$ostreambuf_iterator@DU?$char_traits@D@std@@@std@@@std@@8
rdata$r	ENDS
;	COMDAT ??_R2?$num_put@DV?$ostreambuf_iterator@DU?$char_traits@D@std@@@std@@@std@@8
rdata$r	SEGMENT
??_R2?$num_put@DV?$ostreambuf_iterator@DU?$char_traits@D@std@@@std@@@std@@8 DD FLAT:??_R1A@?0A@EA@?$num_put@DV?$ostreambuf_iterator@DU?$char_traits@D@std@@@std@@@std@@8 ; std::num_put<char,std::ostreambuf_iterator<char,std::char_traits<char> > >::`RTTI Base Class Array'
	DD	FLAT:??_R1A@?0A@EA@facet@locale@std@@8
	DD	FLAT:??_R1A@?0A@EA@_Facet_base@std@@8
rdata$r	ENDS
;	COMDAT ??_R3?$num_put@DV?$ostreambuf_iterator@DU?$char_traits@D@std@@@std@@@std@@8
rdata$r	SEGMENT
??_R3?$num_put@DV?$ostreambuf_iterator@DU?$char_traits@D@std@@@std@@@std@@8 DD 00H ; std::num_put<char,std::ostreambuf_iterator<char,std::char_traits<char> > >::`RTTI Class Hierarchy Descriptor'
	DD	00H
	DD	03H
	DD	FLAT:??_R2?$num_put@DV?$ostreambuf_iterator@DU?$char_traits@D@std@@@std@@@std@@8
rdata$r	ENDS
;	COMDAT ??_R0?AV?$num_put@DV?$ostreambuf_iterator@DU?$char_traits@D@std@@@std@@@std@@@8
data$r	SEGMENT
??_R0?AV?$num_put@DV?$ostreambuf_iterator@DU?$char_traits@D@std@@@std@@@std@@@8 DD FLAT:??_7type_info@@6B@ ; std::num_put<char,std::ostreambuf_iterator<char,std::char_traits<char> > > `RTTI Type Descriptor'
	DD	00H
	DB	'.?AV?$num_put@DV?$ostreambuf_iterator@DU?$char_traits@D@'
	DB	'std@@@std@@@std@@', 00H
data$r	ENDS
;	COMDAT ??_R4?$num_put@DV?$ostreambuf_iterator@DU?$char_traits@D@std@@@std@@@std@@6B@
rdata$r	SEGMENT
??_R4?$num_put@DV?$ostreambuf_iterator@DU?$char_traits@D@std@@@std@@@std@@6B@ DD 00H ; std::num_put<char,std::ostreambuf_iterator<char,std::char_traits<char> > >::`RTTI Complete Object Locator'
	DD	00H
	DD	00H
	DD	FLAT:??_R0?AV?$num_put@DV?$ostreambuf_iterator@DU?$char_traits@D@std@@@std@@@std@@@8
	DD	FLAT:??_R3?$num_put@DV?$ostreambuf_iterator@DU?$char_traits@D@std@@@std@@@std@@8
rdata$r	ENDS
;	COMDAT ??_R1A@?0A@EA@failure@ios_base@std@@8
rdata$r	SEGMENT
??_R1A@?0A@EA@failure@ios_base@std@@8 DD FLAT:??_R0?AVfailure@ios_base@std@@@8 ; std::ios_base::failure::`RTTI Base Class Descriptor at (0,-1,0,64)'
	DD	04H
	DD	00H
	DD	0ffffffffH
	DD	00H
	DD	040H
	DD	FLAT:??_R3failure@ios_base@std@@8
rdata$r	ENDS
;	COMDAT ??_R2failure@ios_base@std@@8
rdata$r	SEGMENT
??_R2failure@ios_base@std@@8 DD FLAT:??_R1A@?0A@EA@failure@ios_base@std@@8 ; std::ios_base::failure::`RTTI Base Class Array'
	DD	FLAT:??_R1A@?0A@EA@system_error@std@@8
	DD	FLAT:??_R1A@?0A@EA@_System_error@std@@8
	DD	FLAT:??_R1A@?0A@EA@runtime_error@std@@8
	DD	FLAT:??_R1A@?0A@EA@exception@std@@8
rdata$r	ENDS
;	COMDAT ??_R3failure@ios_base@std@@8
rdata$r	SEGMENT
??_R3failure@ios_base@std@@8 DD 00H			; std::ios_base::failure::`RTTI Class Hierarchy Descriptor'
	DD	00H
	DD	05H
	DD	FLAT:??_R2failure@ios_base@std@@8
rdata$r	ENDS
;	COMDAT ??_R4failure@ios_base@std@@6B@
rdata$r	SEGMENT
??_R4failure@ios_base@std@@6B@ DD 00H			; std::ios_base::failure::`RTTI Complete Object Locator'
	DD	00H
	DD	00H
	DD	FLAT:??_R0?AVfailure@ios_base@std@@@8
	DD	FLAT:??_R3failure@ios_base@std@@8
rdata$r	ENDS
;	COMDAT ??_R1A@?0A@EA@_System_error_category@std@@8
rdata$r	SEGMENT
??_R1A@?0A@EA@_System_error_category@std@@8 DD FLAT:??_R0?AV_System_error_category@std@@@8 ; std::_System_error_category::`RTTI Base Class Descriptor at (0,-1,0,64)'
	DD	02H
	DD	00H
	DD	0ffffffffH
	DD	00H
	DD	040H
	DD	FLAT:??_R3_System_error_category@std@@8
rdata$r	ENDS
;	COMDAT ??_R2_System_error_category@std@@8
rdata$r	SEGMENT
??_R2_System_error_category@std@@8 DD FLAT:??_R1A@?0A@EA@_System_error_category@std@@8 ; std::_System_error_category::`RTTI Base Class Array'
	DD	FLAT:??_R1A@?0A@EA@_Generic_error_category@std@@8
	DD	FLAT:??_R1A@?0A@EA@error_category@std@@8
rdata$r	ENDS
;	COMDAT ??_R3_System_error_category@std@@8
rdata$r	SEGMENT
??_R3_System_error_category@std@@8 DD 00H		; std::_System_error_category::`RTTI Class Hierarchy Descriptor'
	DD	00H
	DD	03H
	DD	FLAT:??_R2_System_error_category@std@@8
rdata$r	ENDS
;	COMDAT ??_R0?AV_System_error_category@std@@@8
data$r	SEGMENT
??_R0?AV_System_error_category@std@@@8 DD FLAT:??_7type_info@@6B@ ; std::_System_error_category `RTTI Type Descriptor'
	DD	00H
	DB	'.?AV_System_error_category@std@@', 00H
data$r	ENDS
;	COMDAT ??_R4_System_error_category@std@@6B@
rdata$r	SEGMENT
??_R4_System_error_category@std@@6B@ DD 00H		; std::_System_error_category::`RTTI Complete Object Locator'
	DD	00H
	DD	00H
	DD	FLAT:??_R0?AV_System_error_category@std@@@8
	DD	FLAT:??_R3_System_error_category@std@@8
rdata$r	ENDS
;	COMDAT ??_R1A@?0A@EA@_Iostream_error_category@std@@8
rdata$r	SEGMENT
??_R1A@?0A@EA@_Iostream_error_category@std@@8 DD FLAT:??_R0?AV_Iostream_error_category@std@@@8 ; std::_Iostream_error_category::`RTTI Base Class Descriptor at (0,-1,0,64)'
	DD	02H
	DD	00H
	DD	0ffffffffH
	DD	00H
	DD	040H
	DD	FLAT:??_R3_Iostream_error_category@std@@8
rdata$r	ENDS
;	COMDAT ??_R2_Iostream_error_category@std@@8
rdata$r	SEGMENT
??_R2_Iostream_error_category@std@@8 DD FLAT:??_R1A@?0A@EA@_Iostream_error_category@std@@8 ; std::_Iostream_error_category::`RTTI Base Class Array'
	DD	FLAT:??_R1A@?0A@EA@_Generic_error_category@std@@8
	DD	FLAT:??_R1A@?0A@EA@error_category@std@@8
rdata$r	ENDS
;	COMDAT ??_R3_Iostream_error_category@std@@8
rdata$r	SEGMENT
??_R3_Iostream_error_category@std@@8 DD 00H		; std::_Iostream_error_category::`RTTI Class Hierarchy Descriptor'
	DD	00H
	DD	03H
	DD	FLAT:??_R2_Iostream_error_category@std@@8
rdata$r	ENDS
;	COMDAT ??_R0?AV_Iostream_error_category@std@@@8
data$r	SEGMENT
??_R0?AV_Iostream_error_category@std@@@8 DD FLAT:??_7type_info@@6B@ ; std::_Iostream_error_category `RTTI Type Descriptor'
	DD	00H
	DB	'.?AV_Iostream_error_category@std@@', 00H
data$r	ENDS
;	COMDAT ??_R4_Iostream_error_category@std@@6B@
rdata$r	SEGMENT
??_R4_Iostream_error_category@std@@6B@ DD 00H		; std::_Iostream_error_category::`RTTI Complete Object Locator'
	DD	00H
	DD	00H
	DD	FLAT:??_R0?AV_Iostream_error_category@std@@@8
	DD	FLAT:??_R3_Iostream_error_category@std@@8
rdata$r	ENDS
;	COMDAT ??_R1A@?0A@EA@_Generic_error_category@std@@8
rdata$r	SEGMENT
??_R1A@?0A@EA@_Generic_error_category@std@@8 DD FLAT:??_R0?AV_Generic_error_category@std@@@8 ; std::_Generic_error_category::`RTTI Base Class Descriptor at (0,-1,0,64)'
	DD	01H
	DD	00H
	DD	0ffffffffH
	DD	00H
	DD	040H
	DD	FLAT:??_R3_Generic_error_category@std@@8
rdata$r	ENDS
;	COMDAT ??_R2_Generic_error_category@std@@8
rdata$r	SEGMENT
??_R2_Generic_error_category@std@@8 DD FLAT:??_R1A@?0A@EA@_Generic_error_category@std@@8 ; std::_Generic_error_category::`RTTI Base Class Array'
	DD	FLAT:??_R1A@?0A@EA@error_category@std@@8
rdata$r	ENDS
;	COMDAT ??_R3_Generic_error_category@std@@8
rdata$r	SEGMENT
??_R3_Generic_error_category@std@@8 DD 00H		; std::_Generic_error_category::`RTTI Class Hierarchy Descriptor'
	DD	00H
	DD	02H
	DD	FLAT:??_R2_Generic_error_category@std@@8
rdata$r	ENDS
;	COMDAT ??_R0?AV_Generic_error_category@std@@@8
data$r	SEGMENT
??_R0?AV_Generic_error_category@std@@@8 DD FLAT:??_7type_info@@6B@ ; std::_Generic_error_category `RTTI Type Descriptor'
	DD	00H
	DB	'.?AV_Generic_error_category@std@@', 00H
data$r	ENDS
;	COMDAT ??_R4_Generic_error_category@std@@6B@
rdata$r	SEGMENT
??_R4_Generic_error_category@std@@6B@ DD 00H		; std::_Generic_error_category::`RTTI Complete Object Locator'
	DD	00H
	DD	00H
	DD	FLAT:??_R0?AV_Generic_error_category@std@@@8
	DD	FLAT:??_R3_Generic_error_category@std@@8
rdata$r	ENDS
;	COMDAT ??_R1A@?0A@EA@system_error@std@@8
rdata$r	SEGMENT
??_R1A@?0A@EA@system_error@std@@8 DD FLAT:??_R0?AVsystem_error@std@@@8 ; std::system_error::`RTTI Base Class Descriptor at (0,-1,0,64)'
	DD	03H
	DD	00H
	DD	0ffffffffH
	DD	00H
	DD	040H
	DD	FLAT:??_R3system_error@std@@8
rdata$r	ENDS
;	COMDAT ??_R2system_error@std@@8
rdata$r	SEGMENT
??_R2system_error@std@@8 DD FLAT:??_R1A@?0A@EA@system_error@std@@8 ; std::system_error::`RTTI Base Class Array'
	DD	FLAT:??_R1A@?0A@EA@_System_error@std@@8
	DD	FLAT:??_R1A@?0A@EA@runtime_error@std@@8
	DD	FLAT:??_R1A@?0A@EA@exception@std@@8
rdata$r	ENDS
;	COMDAT ??_R3system_error@std@@8
rdata$r	SEGMENT
??_R3system_error@std@@8 DD 00H				; std::system_error::`RTTI Class Hierarchy Descriptor'
	DD	00H
	DD	04H
	DD	FLAT:??_R2system_error@std@@8
rdata$r	ENDS
;	COMDAT ??_R4system_error@std@@6B@
rdata$r	SEGMENT
??_R4system_error@std@@6B@ DD 00H			; std::system_error::`RTTI Complete Object Locator'
	DD	00H
	DD	00H
	DD	FLAT:??_R0?AVsystem_error@std@@@8
	DD	FLAT:??_R3system_error@std@@8
rdata$r	ENDS
;	COMDAT ??_R1A@?0A@EA@_System_error@std@@8
rdata$r	SEGMENT
??_R1A@?0A@EA@_System_error@std@@8 DD FLAT:??_R0?AV_System_error@std@@@8 ; std::_System_error::`RTTI Base Class Descriptor at (0,-1,0,64)'
	DD	02H
	DD	00H
	DD	0ffffffffH
	DD	00H
	DD	040H
	DD	FLAT:??_R3_System_error@std@@8
rdata$r	ENDS
;	COMDAT ??_R2_System_error@std@@8
rdata$r	SEGMENT
??_R2_System_error@std@@8 DD FLAT:??_R1A@?0A@EA@_System_error@std@@8 ; std::_System_error::`RTTI Base Class Array'
	DD	FLAT:??_R1A@?0A@EA@runtime_error@std@@8
	DD	FLAT:??_R1A@?0A@EA@exception@std@@8
rdata$r	ENDS
;	COMDAT ??_R3_System_error@std@@8
rdata$r	SEGMENT
??_R3_System_error@std@@8 DD 00H			; std::_System_error::`RTTI Class Hierarchy Descriptor'
	DD	00H
	DD	03H
	DD	FLAT:??_R2_System_error@std@@8
rdata$r	ENDS
;	COMDAT ??_R4_System_error@std@@6B@
rdata$r	SEGMENT
??_R4_System_error@std@@6B@ DD 00H			; std::_System_error::`RTTI Complete Object Locator'
	DD	00H
	DD	00H
	DD	FLAT:??_R0?AV_System_error@std@@@8
	DD	FLAT:??_R3_System_error@std@@8
rdata$r	ENDS
;	COMDAT ??_R1A@?0A@EA@error_category@std@@8
rdata$r	SEGMENT
??_R1A@?0A@EA@error_category@std@@8 DD FLAT:??_R0?AVerror_category@std@@@8 ; std::error_category::`RTTI Base Class Descriptor at (0,-1,0,64)'
	DD	00H
	DD	00H
	DD	0ffffffffH
	DD	00H
	DD	040H
	DD	FLAT:??_R3error_category@std@@8
rdata$r	ENDS
;	COMDAT ??_R2error_category@std@@8
rdata$r	SEGMENT
??_R2error_category@std@@8 DD FLAT:??_R1A@?0A@EA@error_category@std@@8 ; std::error_category::`RTTI Base Class Array'
rdata$r	ENDS
;	COMDAT ??_R3error_category@std@@8
rdata$r	SEGMENT
??_R3error_category@std@@8 DD 00H			; std::error_category::`RTTI Class Hierarchy Descriptor'
	DD	00H
	DD	01H
	DD	FLAT:??_R2error_category@std@@8
rdata$r	ENDS
;	COMDAT ??_R0?AVerror_category@std@@@8
data$r	SEGMENT
??_R0?AVerror_category@std@@@8 DD FLAT:??_7type_info@@6B@ ; std::error_category `RTTI Type Descriptor'
	DD	00H
	DB	'.?AVerror_category@std@@', 00H
data$r	ENDS
;	COMDAT ??_R4error_category@std@@6B@
rdata$r	SEGMENT
??_R4error_category@std@@6B@ DD 00H			; std::error_category::`RTTI Complete Object Locator'
	DD	00H
	DD	00H
	DD	FLAT:??_R0?AVerror_category@std@@@8
	DD	FLAT:??_R3error_category@std@@8
rdata$r	ENDS
;	COMDAT ??_R1A@?0A@EA@?$ctype@D@std@@8
rdata$r	SEGMENT
??_R1A@?0A@EA@?$ctype@D@std@@8 DD FLAT:??_R0?AV?$ctype@D@std@@@8 ; std::ctype<char>::`RTTI Base Class Descriptor at (0,-1,0,64)'
	DD	03H
	DD	00H
	DD	0ffffffffH
	DD	00H
	DD	040H
	DD	FLAT:??_R3?$ctype@D@std@@8
rdata$r	ENDS
;	COMDAT ??_R2?$ctype@D@std@@8
rdata$r	SEGMENT
??_R2?$ctype@D@std@@8 DD FLAT:??_R1A@?0A@EA@?$ctype@D@std@@8 ; std::ctype<char>::`RTTI Base Class Array'
	DD	FLAT:??_R1A@?0A@EA@ctype_base@std@@8
	DD	FLAT:??_R1A@?0A@EA@facet@locale@std@@8
	DD	FLAT:??_R1A@?0A@EA@_Facet_base@std@@8
rdata$r	ENDS
;	COMDAT ??_R3?$ctype@D@std@@8
rdata$r	SEGMENT
??_R3?$ctype@D@std@@8 DD 00H				; std::ctype<char>::`RTTI Class Hierarchy Descriptor'
	DD	00H
	DD	04H
	DD	FLAT:??_R2?$ctype@D@std@@8
rdata$r	ENDS
;	COMDAT ??_R0?AV?$ctype@D@std@@@8
data$r	SEGMENT
??_R0?AV?$ctype@D@std@@@8 DD FLAT:??_7type_info@@6B@	; std::ctype<char> `RTTI Type Descriptor'
	DD	00H
	DB	'.?AV?$ctype@D@std@@', 00H
data$r	ENDS
;	COMDAT ??_R4?$ctype@D@std@@6B@
rdata$r	SEGMENT
??_R4?$ctype@D@std@@6B@ DD 00H				; std::ctype<char>::`RTTI Complete Object Locator'
	DD	00H
	DD	00H
	DD	FLAT:??_R0?AV?$ctype@D@std@@@8
	DD	FLAT:??_R3?$ctype@D@std@@8
rdata$r	ENDS
;	COMDAT ??_R1A@?0A@EA@ctype_base@std@@8
rdata$r	SEGMENT
??_R1A@?0A@EA@ctype_base@std@@8 DD FLAT:??_R0?AUctype_base@std@@@8 ; std::ctype_base::`RTTI Base Class Descriptor at (0,-1,0,64)'
	DD	02H
	DD	00H
	DD	0ffffffffH
	DD	00H
	DD	040H
	DD	FLAT:??_R3ctype_base@std@@8
rdata$r	ENDS
;	COMDAT ??_R2ctype_base@std@@8
rdata$r	SEGMENT
??_R2ctype_base@std@@8 DD FLAT:??_R1A@?0A@EA@ctype_base@std@@8 ; std::ctype_base::`RTTI Base Class Array'
	DD	FLAT:??_R1A@?0A@EA@facet@locale@std@@8
	DD	FLAT:??_R1A@?0A@EA@_Facet_base@std@@8
rdata$r	ENDS
;	COMDAT ??_R3ctype_base@std@@8
rdata$r	SEGMENT
??_R3ctype_base@std@@8 DD 00H				; std::ctype_base::`RTTI Class Hierarchy Descriptor'
	DD	00H
	DD	03H
	DD	FLAT:??_R2ctype_base@std@@8
rdata$r	ENDS
;	COMDAT ??_R0?AUctype_base@std@@@8
data$r	SEGMENT
??_R0?AUctype_base@std@@@8 DD FLAT:??_7type_info@@6B@	; std::ctype_base `RTTI Type Descriptor'
	DD	00H
	DB	'.?AUctype_base@std@@', 00H
data$r	ENDS
;	COMDAT ??_R4ctype_base@std@@6B@
rdata$r	SEGMENT
??_R4ctype_base@std@@6B@ DD 00H				; std::ctype_base::`RTTI Complete Object Locator'
	DD	00H
	DD	00H
	DD	FLAT:??_R0?AUctype_base@std@@@8
	DD	FLAT:??_R3ctype_base@std@@8
rdata$r	ENDS
;	COMDAT ??_R4facet@locale@std@@6B@
rdata$r	SEGMENT
??_R4facet@locale@std@@6B@ DD 00H			; std::locale::facet::`RTTI Complete Object Locator'
	DD	00H
	DD	00H
	DD	FLAT:??_R0?AVfacet@locale@std@@@8
	DD	FLAT:??_R3facet@locale@std@@8
rdata$r	ENDS
;	COMDAT ??_R2facet@locale@std@@8
rdata$r	SEGMENT
??_R2facet@locale@std@@8 DD FLAT:??_R1A@?0A@EA@facet@locale@std@@8 ; std::locale::facet::`RTTI Base Class Array'
	DD	FLAT:??_R1A@?0A@EA@_Facet_base@std@@8
rdata$r	ENDS
;	COMDAT ??_R3facet@locale@std@@8
rdata$r	SEGMENT
??_R3facet@locale@std@@8 DD 00H				; std::locale::facet::`RTTI Class Hierarchy Descriptor'
	DD	00H
	DD	02H
	DD	FLAT:??_R2facet@locale@std@@8
rdata$r	ENDS
;	COMDAT ??_R0?AVfacet@locale@std@@@8
data$r	SEGMENT
??_R0?AVfacet@locale@std@@@8 DD FLAT:??_7type_info@@6B@	; std::locale::facet `RTTI Type Descriptor'
	DD	00H
	DB	'.?AVfacet@locale@std@@', 00H
data$r	ENDS
;	COMDAT ??_R1A@?0A@EA@facet@locale@std@@8
rdata$r	SEGMENT
??_R1A@?0A@EA@facet@locale@std@@8 DD FLAT:??_R0?AVfacet@locale@std@@@8 ; std::locale::facet::`RTTI Base Class Descriptor at (0,-1,0,64)'
	DD	01H
	DD	00H
	DD	0ffffffffH
	DD	00H
	DD	040H
	DD	FLAT:??_R3facet@locale@std@@8
rdata$r	ENDS
;	COMDAT ??_R1A@?0A@EA@_Facet_base@std@@8
rdata$r	SEGMENT
??_R1A@?0A@EA@_Facet_base@std@@8 DD FLAT:??_R0?AV_Facet_base@std@@@8 ; std::_Facet_base::`RTTI Base Class Descriptor at (0,-1,0,64)'
	DD	00H
	DD	00H
	DD	0ffffffffH
	DD	00H
	DD	040H
	DD	FLAT:??_R3_Facet_base@std@@8
rdata$r	ENDS
;	COMDAT ??_R2_Facet_base@std@@8
rdata$r	SEGMENT
??_R2_Facet_base@std@@8 DD FLAT:??_R1A@?0A@EA@_Facet_base@std@@8 ; std::_Facet_base::`RTTI Base Class Array'
rdata$r	ENDS
;	COMDAT ??_R3_Facet_base@std@@8
rdata$r	SEGMENT
??_R3_Facet_base@std@@8 DD 00H				; std::_Facet_base::`RTTI Class Hierarchy Descriptor'
	DD	00H
	DD	01H
	DD	FLAT:??_R2_Facet_base@std@@8
rdata$r	ENDS
;	COMDAT ??_R0?AV_Facet_base@std@@@8
data$r	SEGMENT
??_R0?AV_Facet_base@std@@@8 DD FLAT:??_7type_info@@6B@	; std::_Facet_base `RTTI Type Descriptor'
	DD	00H
	DB	'.?AV_Facet_base@std@@', 00H
data$r	ENDS
;	COMDAT ??_R4_Facet_base@std@@6B@
rdata$r	SEGMENT
??_R4_Facet_base@std@@6B@ DD 00H			; std::_Facet_base::`RTTI Complete Object Locator'
	DD	00H
	DD	00H
	DD	FLAT:??_R0?AV_Facet_base@std@@@8
	DD	FLAT:??_R3_Facet_base@std@@8
rdata$r	ENDS
;	COMDAT ??_R1A@?0A@EA@runtime_error@std@@8
rdata$r	SEGMENT
??_R1A@?0A@EA@runtime_error@std@@8 DD FLAT:??_R0?AVruntime_error@std@@@8 ; std::runtime_error::`RTTI Base Class Descriptor at (0,-1,0,64)'
	DD	01H
	DD	00H
	DD	0ffffffffH
	DD	00H
	DD	040H
	DD	FLAT:??_R3runtime_error@std@@8
rdata$r	ENDS
;	COMDAT ??_R2runtime_error@std@@8
rdata$r	SEGMENT
??_R2runtime_error@std@@8 DD FLAT:??_R1A@?0A@EA@runtime_error@std@@8 ; std::runtime_error::`RTTI Base Class Array'
	DD	FLAT:??_R1A@?0A@EA@exception@std@@8
rdata$r	ENDS
;	COMDAT ??_R3runtime_error@std@@8
rdata$r	SEGMENT
??_R3runtime_error@std@@8 DD 00H			; std::runtime_error::`RTTI Class Hierarchy Descriptor'
	DD	00H
	DD	02H
	DD	FLAT:??_R2runtime_error@std@@8
rdata$r	ENDS
;	COMDAT ??_R4runtime_error@std@@6B@
rdata$r	SEGMENT
??_R4runtime_error@std@@6B@ DD 00H			; std::runtime_error::`RTTI Complete Object Locator'
	DD	00H
	DD	00H
	DD	FLAT:??_R0?AVruntime_error@std@@@8
	DD	FLAT:??_R3runtime_error@std@@8
rdata$r	ENDS
;	COMDAT ??_R1A@?0A@EA@?$basic_ostringstream@DU?$char_traits@D@std@@V?$allocator@D@2@@std@@8
rdata$r	SEGMENT
??_R1A@?0A@EA@?$basic_ostringstream@DU?$char_traits@D@std@@V?$allocator@D@2@@std@@8 DD FLAT:??_R0?AV?$basic_ostringstream@DU?$char_traits@D@std@@V?$allocator@D@2@@std@@@8 ; std::basic_ostringstream<char,std::char_traits<char>,std::allocator<char> >::`RTTI Base Class Descriptor at (0,-1,0,64)'
	DD	04H
	DD	00H
	DD	0ffffffffH
	DD	00H
	DD	040H
	DD	FLAT:??_R3?$basic_ostringstream@DU?$char_traits@D@std@@V?$allocator@D@2@@std@@8
rdata$r	ENDS
;	COMDAT ??_R2?$basic_ostringstream@DU?$char_traits@D@std@@V?$allocator@D@2@@std@@8
rdata$r	SEGMENT
??_R2?$basic_ostringstream@DU?$char_traits@D@std@@V?$allocator@D@2@@std@@8 DD FLAT:??_R1A@?0A@EA@?$basic_ostringstream@DU?$char_traits@D@std@@V?$allocator@D@2@@std@@8 ; std::basic_ostringstream<char,std::char_traits<char>,std::allocator<char> >::`RTTI Base Class Array'
	DD	FLAT:??_R1A@?0A@EA@?$basic_ostream@DU?$char_traits@D@std@@@std@@8
	DD	FLAT:??_R1A@A@3FA@?$basic_ios@DU?$char_traits@D@std@@@std@@8
	DD	FLAT:??_R1A@A@3EA@ios_base@std@@8
	DD	FLAT:??_R17A@3EA@?$_Iosb@H@std@@8
rdata$r	ENDS
;	COMDAT ??_R3?$basic_ostringstream@DU?$char_traits@D@std@@V?$allocator@D@2@@std@@8
rdata$r	SEGMENT
??_R3?$basic_ostringstream@DU?$char_traits@D@std@@V?$allocator@D@2@@std@@8 DD 00H ; std::basic_ostringstream<char,std::char_traits<char>,std::allocator<char> >::`RTTI Class Hierarchy Descriptor'
	DD	00H
	DD	05H
	DD	FLAT:??_R2?$basic_ostringstream@DU?$char_traits@D@std@@V?$allocator@D@2@@std@@8
rdata$r	ENDS
;	COMDAT ??_R0?AV?$basic_ostringstream@DU?$char_traits@D@std@@V?$allocator@D@2@@std@@@8
data$r	SEGMENT
??_R0?AV?$basic_ostringstream@DU?$char_traits@D@std@@V?$allocator@D@2@@std@@@8 DD FLAT:??_7type_info@@6B@ ; std::basic_ostringstream<char,std::char_traits<char>,std::allocator<char> > `RTTI Type Descriptor'
	DD	00H
	DB	'.?AV?$basic_ostringstream@DU?$char_traits@D@std@@V?$allo'
	DB	'cator@D@2@@std@@', 00H
data$r	ENDS
;	COMDAT ??_R4?$basic_ostringstream@DU?$char_traits@D@std@@V?$allocator@D@2@@std@@6B@
rdata$r	SEGMENT
??_R4?$basic_ostringstream@DU?$char_traits@D@std@@V?$allocator@D@2@@std@@6B@ DD 00H ; std::basic_ostringstream<char,std::char_traits<char>,std::allocator<char> >::`RTTI Complete Object Locator'
	DD	050H
	DD	04H
	DD	FLAT:??_R0?AV?$basic_ostringstream@DU?$char_traits@D@std@@V?$allocator@D@2@@std@@@8
	DD	FLAT:??_R3?$basic_ostringstream@DU?$char_traits@D@std@@V?$allocator@D@2@@std@@8
rdata$r	ENDS
;	COMDAT ??_R1A@?0A@EA@?$basic_stringbuf@DU?$char_traits@D@std@@V?$allocator@D@2@@std@@8
rdata$r	SEGMENT
??_R1A@?0A@EA@?$basic_stringbuf@DU?$char_traits@D@std@@V?$allocator@D@2@@std@@8 DD FLAT:??_R0?AV?$basic_stringbuf@DU?$char_traits@D@std@@V?$allocator@D@2@@std@@@8 ; std::basic_stringbuf<char,std::char_traits<char>,std::allocator<char> >::`RTTI Base Class Descriptor at (0,-1,0,64)'
	DD	01H
	DD	00H
	DD	0ffffffffH
	DD	00H
	DD	040H
	DD	FLAT:??_R3?$basic_stringbuf@DU?$char_traits@D@std@@V?$allocator@D@2@@std@@8
rdata$r	ENDS
;	COMDAT ??_R2?$basic_stringbuf@DU?$char_traits@D@std@@V?$allocator@D@2@@std@@8
rdata$r	SEGMENT
??_R2?$basic_stringbuf@DU?$char_traits@D@std@@V?$allocator@D@2@@std@@8 DD FLAT:??_R1A@?0A@EA@?$basic_stringbuf@DU?$char_traits@D@std@@V?$allocator@D@2@@std@@8 ; std::basic_stringbuf<char,std::char_traits<char>,std::allocator<char> >::`RTTI Base Class Array'
	DD	FLAT:??_R1A@?0A@EA@?$basic_streambuf@DU?$char_traits@D@std@@@std@@8
rdata$r	ENDS
;	COMDAT ??_R3?$basic_stringbuf@DU?$char_traits@D@std@@V?$allocator@D@2@@std@@8
rdata$r	SEGMENT
??_R3?$basic_stringbuf@DU?$char_traits@D@std@@V?$allocator@D@2@@std@@8 DD 00H ; std::basic_stringbuf<char,std::char_traits<char>,std::allocator<char> >::`RTTI Class Hierarchy Descriptor'
	DD	00H
	DD	02H
	DD	FLAT:??_R2?$basic_stringbuf@DU?$char_traits@D@std@@V?$allocator@D@2@@std@@8
rdata$r	ENDS
;	COMDAT ??_R0?AV?$basic_stringbuf@DU?$char_traits@D@std@@V?$allocator@D@2@@std@@@8
data$r	SEGMENT
??_R0?AV?$basic_stringbuf@DU?$char_traits@D@std@@V?$allocator@D@2@@std@@@8 DD FLAT:??_7type_info@@6B@ ; std::basic_stringbuf<char,std::char_traits<char>,std::allocator<char> > `RTTI Type Descriptor'
	DD	00H
	DB	'.?AV?$basic_stringbuf@DU?$char_traits@D@std@@V?$allocato'
	DB	'r@D@2@@std@@', 00H
data$r	ENDS
;	COMDAT ??_R4?$basic_stringbuf@DU?$char_traits@D@std@@V?$allocator@D@2@@std@@6B@
rdata$r	SEGMENT
??_R4?$basic_stringbuf@DU?$char_traits@D@std@@V?$allocator@D@2@@std@@6B@ DD 00H ; std::basic_stringbuf<char,std::char_traits<char>,std::allocator<char> >::`RTTI Complete Object Locator'
	DD	00H
	DD	00H
	DD	FLAT:??_R0?AV?$basic_stringbuf@DU?$char_traits@D@std@@V?$allocator@D@2@@std@@@8
	DD	FLAT:??_R3?$basic_stringbuf@DU?$char_traits@D@std@@V?$allocator@D@2@@std@@8
rdata$r	ENDS
;	COMDAT ??_R1A@?0A@EA@?$basic_ostream@DU?$char_traits@D@std@@@std@@8
rdata$r	SEGMENT
??_R1A@?0A@EA@?$basic_ostream@DU?$char_traits@D@std@@@std@@8 DD FLAT:??_R0?AV?$basic_ostream@DU?$char_traits@D@std@@@std@@@8 ; std::basic_ostream<char,std::char_traits<char> >::`RTTI Base Class Descriptor at (0,-1,0,64)'
	DD	03H
	DD	00H
	DD	0ffffffffH
	DD	00H
	DD	040H
	DD	FLAT:??_R3?$basic_ostream@DU?$char_traits@D@std@@@std@@8
rdata$r	ENDS
;	COMDAT ??_R2?$basic_ostream@DU?$char_traits@D@std@@@std@@8
rdata$r	SEGMENT
??_R2?$basic_ostream@DU?$char_traits@D@std@@@std@@8 DD FLAT:??_R1A@?0A@EA@?$basic_ostream@DU?$char_traits@D@std@@@std@@8 ; std::basic_ostream<char,std::char_traits<char> >::`RTTI Base Class Array'
	DD	FLAT:??_R1A@A@3FA@?$basic_ios@DU?$char_traits@D@std@@@std@@8
	DD	FLAT:??_R1A@A@3EA@ios_base@std@@8
	DD	FLAT:??_R17A@3EA@?$_Iosb@H@std@@8
rdata$r	ENDS
;	COMDAT ??_R3?$basic_ostream@DU?$char_traits@D@std@@@std@@8
rdata$r	SEGMENT
??_R3?$basic_ostream@DU?$char_traits@D@std@@@std@@8 DD 00H ; std::basic_ostream<char,std::char_traits<char> >::`RTTI Class Hierarchy Descriptor'
	DD	00H
	DD	04H
	DD	FLAT:??_R2?$basic_ostream@DU?$char_traits@D@std@@@std@@8
rdata$r	ENDS
;	COMDAT ??_R0?AV?$basic_ostream@DU?$char_traits@D@std@@@std@@@8
data$r	SEGMENT
??_R0?AV?$basic_ostream@DU?$char_traits@D@std@@@std@@@8 DD FLAT:??_7type_info@@6B@ ; std::basic_ostream<char,std::char_traits<char> > `RTTI Type Descriptor'
	DD	00H
	DB	'.?AV?$basic_ostream@DU?$char_traits@D@std@@@std@@', 00H
data$r	ENDS
;	COMDAT ??_R4?$basic_ostream@DU?$char_traits@D@std@@@std@@6B@
rdata$r	SEGMENT
??_R4?$basic_ostream@DU?$char_traits@D@std@@@std@@6B@ DD 00H ; std::basic_ostream<char,std::char_traits<char> >::`RTTI Complete Object Locator'
	DD	08H
	DD	04H
	DD	FLAT:??_R0?AV?$basic_ostream@DU?$char_traits@D@std@@@std@@@8
	DD	FLAT:??_R3?$basic_ostream@DU?$char_traits@D@std@@@std@@8
rdata$r	ENDS
;	COMDAT ??_R17A@3EA@?$_Iosb@H@std@@8
rdata$r	SEGMENT
??_R17A@3EA@?$_Iosb@H@std@@8 DD FLAT:??_R0?AV?$_Iosb@H@std@@@8 ; std::_Iosb<int>::`RTTI Base Class Descriptor at (8,0,4,64)'
	DD	00H
	DD	08H
	DD	00H
	DD	04H
	DD	040H
	DD	FLAT:??_R3?$_Iosb@H@std@@8
rdata$r	ENDS
;	COMDAT ??_R1A@A@3EA@ios_base@std@@8
rdata$r	SEGMENT
??_R1A@A@3EA@ios_base@std@@8 DD FLAT:??_R0?AVios_base@std@@@8 ; std::ios_base::`RTTI Base Class Descriptor at (0,0,4,64)'
	DD	01H
	DD	00H
	DD	00H
	DD	04H
	DD	040H
	DD	FLAT:??_R3ios_base@std@@8
rdata$r	ENDS
;	COMDAT ??_R1A@A@3FA@?$basic_ios@DU?$char_traits@D@std@@@std@@8
rdata$r	SEGMENT
??_R1A@A@3FA@?$basic_ios@DU?$char_traits@D@std@@@std@@8 DD FLAT:??_R0?AV?$basic_ios@DU?$char_traits@D@std@@@std@@@8 ; std::basic_ios<char,std::char_traits<char> >::`RTTI Base Class Descriptor at (0,0,4,80)'
	DD	02H
	DD	00H
	DD	00H
	DD	04H
	DD	050H
	DD	FLAT:??_R3?$basic_ios@DU?$char_traits@D@std@@@std@@8
rdata$r	ENDS
;	COMDAT ??_R1A@?0A@EA@?$basic_streambuf@DU?$char_traits@D@std@@@std@@8
rdata$r	SEGMENT
??_R1A@?0A@EA@?$basic_streambuf@DU?$char_traits@D@std@@@std@@8 DD FLAT:??_R0?AV?$basic_streambuf@DU?$char_traits@D@std@@@std@@@8 ; std::basic_streambuf<char,std::char_traits<char> >::`RTTI Base Class Descriptor at (0,-1,0,64)'
	DD	00H
	DD	00H
	DD	0ffffffffH
	DD	00H
	DD	040H
	DD	FLAT:??_R3?$basic_streambuf@DU?$char_traits@D@std@@@std@@8
rdata$r	ENDS
;	COMDAT ??_R2?$basic_streambuf@DU?$char_traits@D@std@@@std@@8
rdata$r	SEGMENT
??_R2?$basic_streambuf@DU?$char_traits@D@std@@@std@@8 DD FLAT:??_R1A@?0A@EA@?$basic_streambuf@DU?$char_traits@D@std@@@std@@8 ; std::basic_streambuf<char,std::char_traits<char> >::`RTTI Base Class Array'
rdata$r	ENDS
;	COMDAT ??_R3?$basic_streambuf@DU?$char_traits@D@std@@@std@@8
rdata$r	SEGMENT
??_R3?$basic_streambuf@DU?$char_traits@D@std@@@std@@8 DD 00H ; std::basic_streambuf<char,std::char_traits<char> >::`RTTI Class Hierarchy Descriptor'
	DD	00H
	DD	01H
	DD	FLAT:??_R2?$basic_streambuf@DU?$char_traits@D@std@@@std@@8
rdata$r	ENDS
;	COMDAT ??_R0?AV?$basic_streambuf@DU?$char_traits@D@std@@@std@@@8
data$r	SEGMENT
??_R0?AV?$basic_streambuf@DU?$char_traits@D@std@@@std@@@8 DD FLAT:??_7type_info@@6B@ ; std::basic_streambuf<char,std::char_traits<char> > `RTTI Type Descriptor'
	DD	00H
	DB	'.?AV?$basic_streambuf@DU?$char_traits@D@std@@@std@@', 00H
data$r	ENDS
;	COMDAT ??_R4?$basic_streambuf@DU?$char_traits@D@std@@@std@@6B@
rdata$r	SEGMENT
??_R4?$basic_streambuf@DU?$char_traits@D@std@@@std@@6B@ DD 00H ; std::basic_streambuf<char,std::char_traits<char> >::`RTTI Complete Object Locator'
	DD	00H
	DD	00H
	DD	FLAT:??_R0?AV?$basic_streambuf@DU?$char_traits@D@std@@@std@@@8
	DD	FLAT:??_R3?$basic_streambuf@DU?$char_traits@D@std@@@std@@8
rdata$r	ENDS
;	COMDAT ??_R1A@?0A@EA@?$basic_ios@DU?$char_traits@D@std@@@std@@8
rdata$r	SEGMENT
??_R1A@?0A@EA@?$basic_ios@DU?$char_traits@D@std@@@std@@8 DD FLAT:??_R0?AV?$basic_ios@DU?$char_traits@D@std@@@std@@@8 ; std::basic_ios<char,std::char_traits<char> >::`RTTI Base Class Descriptor at (0,-1,0,64)'
	DD	02H
	DD	00H
	DD	0ffffffffH
	DD	00H
	DD	040H
	DD	FLAT:??_R3?$basic_ios@DU?$char_traits@D@std@@@std@@8
rdata$r	ENDS
;	COMDAT ??_R2?$basic_ios@DU?$char_traits@D@std@@@std@@8
rdata$r	SEGMENT
??_R2?$basic_ios@DU?$char_traits@D@std@@@std@@8 DD FLAT:??_R1A@?0A@EA@?$basic_ios@DU?$char_traits@D@std@@@std@@8 ; std::basic_ios<char,std::char_traits<char> >::`RTTI Base Class Array'
	DD	FLAT:??_R1A@?0A@EA@ios_base@std@@8
	DD	FLAT:??_R17?0A@EA@?$_Iosb@H@std@@8
rdata$r	ENDS
;	COMDAT ??_R3?$basic_ios@DU?$char_traits@D@std@@@std@@8
rdata$r	SEGMENT
??_R3?$basic_ios@DU?$char_traits@D@std@@@std@@8 DD 00H	; std::basic_ios<char,std::char_traits<char> >::`RTTI Class Hierarchy Descriptor'
	DD	00H
	DD	03H
	DD	FLAT:??_R2?$basic_ios@DU?$char_traits@D@std@@@std@@8
rdata$r	ENDS
;	COMDAT ??_R0?AV?$basic_ios@DU?$char_traits@D@std@@@std@@@8
data$r	SEGMENT
??_R0?AV?$basic_ios@DU?$char_traits@D@std@@@std@@@8 DD FLAT:??_7type_info@@6B@ ; std::basic_ios<char,std::char_traits<char> > `RTTI Type Descriptor'
	DD	00H
	DB	'.?AV?$basic_ios@DU?$char_traits@D@std@@@std@@', 00H
data$r	ENDS
;	COMDAT ??_R4?$basic_ios@DU?$char_traits@D@std@@@std@@6B@
rdata$r	SEGMENT
??_R4?$basic_ios@DU?$char_traits@D@std@@@std@@6B@ DD 00H ; std::basic_ios<char,std::char_traits<char> >::`RTTI Complete Object Locator'
	DD	00H
	DD	00H
	DD	FLAT:??_R0?AV?$basic_ios@DU?$char_traits@D@std@@@std@@@8
	DD	FLAT:??_R3?$basic_ios@DU?$char_traits@D@std@@@std@@8
rdata$r	ENDS
;	COMDAT ??_R1A@?0A@EA@?$_Iosb@H@std@@8
rdata$r	SEGMENT
??_R1A@?0A@EA@?$_Iosb@H@std@@8 DD FLAT:??_R0?AV?$_Iosb@H@std@@@8 ; std::_Iosb<int>::`RTTI Base Class Descriptor at (0,-1,0,64)'
	DD	00H
	DD	00H
	DD	0ffffffffH
	DD	00H
	DD	040H
	DD	FLAT:??_R3?$_Iosb@H@std@@8
rdata$r	ENDS
;	COMDAT ??_R2?$_Iosb@H@std@@8
rdata$r	SEGMENT
??_R2?$_Iosb@H@std@@8 DD FLAT:??_R1A@?0A@EA@?$_Iosb@H@std@@8 ; std::_Iosb<int>::`RTTI Base Class Array'
rdata$r	ENDS
;	COMDAT ??_R3?$_Iosb@H@std@@8
rdata$r	SEGMENT
??_R3?$_Iosb@H@std@@8 DD 00H				; std::_Iosb<int>::`RTTI Class Hierarchy Descriptor'
	DD	00H
	DD	01H
	DD	FLAT:??_R2?$_Iosb@H@std@@8
rdata$r	ENDS
;	COMDAT ??_R0?AV?$_Iosb@H@std@@@8
data$r	SEGMENT
??_R0?AV?$_Iosb@H@std@@@8 DD FLAT:??_7type_info@@6B@	; std::_Iosb<int> `RTTI Type Descriptor'
	DD	00H
	DB	'.?AV?$_Iosb@H@std@@', 00H
data$r	ENDS
;	COMDAT ??_R17?0A@EA@?$_Iosb@H@std@@8
rdata$r	SEGMENT
??_R17?0A@EA@?$_Iosb@H@std@@8 DD FLAT:??_R0?AV?$_Iosb@H@std@@@8 ; std::_Iosb<int>::`RTTI Base Class Descriptor at (8,-1,0,64)'
	DD	00H
	DD	08H
	DD	0ffffffffH
	DD	00H
	DD	040H
	DD	FLAT:??_R3?$_Iosb@H@std@@8
rdata$r	ENDS
;	COMDAT ??_R1A@?0A@EA@ios_base@std@@8
rdata$r	SEGMENT
??_R1A@?0A@EA@ios_base@std@@8 DD FLAT:??_R0?AVios_base@std@@@8 ; std::ios_base::`RTTI Base Class Descriptor at (0,-1,0,64)'
	DD	01H
	DD	00H
	DD	0ffffffffH
	DD	00H
	DD	040H
	DD	FLAT:??_R3ios_base@std@@8
rdata$r	ENDS
;	COMDAT ??_R2ios_base@std@@8
rdata$r	SEGMENT
??_R2ios_base@std@@8 DD FLAT:??_R1A@?0A@EA@ios_base@std@@8 ; std::ios_base::`RTTI Base Class Array'
	DD	FLAT:??_R17?0A@EA@?$_Iosb@H@std@@8
rdata$r	ENDS
;	COMDAT ??_R3ios_base@std@@8
rdata$r	SEGMENT
??_R3ios_base@std@@8 DD 00H				; std::ios_base::`RTTI Class Hierarchy Descriptor'
	DD	00H
	DD	02H
	DD	FLAT:??_R2ios_base@std@@8
rdata$r	ENDS
;	COMDAT ??_R0?AVios_base@std@@@8
data$r	SEGMENT
??_R0?AVios_base@std@@@8 DD FLAT:??_7type_info@@6B@	; std::ios_base `RTTI Type Descriptor'
	DD	00H
	DB	'.?AVios_base@std@@', 00H
data$r	ENDS
;	COMDAT ??_R4ios_base@std@@6B@
rdata$r	SEGMENT
??_R4ios_base@std@@6B@ DD 00H				; std::ios_base::`RTTI Complete Object Locator'
	DD	00H
	DD	00H
	DD	FLAT:??_R0?AVios_base@std@@@8
	DD	FLAT:??_R3ios_base@std@@8
rdata$r	ENDS
;	COMDAT ??_R2exception@std@@8
rdata$r	SEGMENT
??_R2exception@std@@8 DD FLAT:??_R1A@?0A@EA@exception@std@@8 ; std::exception::`RTTI Base Class Array'
rdata$r	ENDS
;	COMDAT ??_R3exception@std@@8
rdata$r	SEGMENT
??_R3exception@std@@8 DD 00H				; std::exception::`RTTI Class Hierarchy Descriptor'
	DD	00H
	DD	01H
	DD	FLAT:??_R2exception@std@@8
rdata$r	ENDS
;	COMDAT ??_R1A@?0A@EA@exception@std@@8
rdata$r	SEGMENT
??_R1A@?0A@EA@exception@std@@8 DD FLAT:??_R0?AVexception@std@@@8 ; std::exception::`RTTI Base Class Descriptor at (0,-1,0,64)'
	DD	00H
	DD	00H
	DD	0ffffffffH
	DD	00H
	DD	040H
	DD	FLAT:??_R3exception@std@@8
rdata$r	ENDS
;	COMDAT ??_C@_1CO@DGLIKNHI@?$AAi?$AAn?$AAv?$AAa?$AAl?$AAi?$AAd?$AA?5?$AAi?$AAt?$AAe?$AAr?$AAa?$AAt?$AAo?$AAr?$AA?5?$AAr?$AAa?$AAn?$AAg?$AAe?$AA?$AA@
CONST	SEGMENT
??_C@_1CO@DGLIKNHI@?$AAi?$AAn?$AAv?$AAa?$AAl?$AAi?$AAd?$AA?5?$AAi?$AAt?$AAe?$AAr?$AAa?$AAt?$AAo?$AAr?$AA?5?$AAr?$AAa?$AAn?$AAg?$AAe?$AA?$AA@ DB 'i'
	DB	00H, 'n', 00H, 'v', 00H, 'a', 00H, 'l', 00H, 'i', 00H, 'd', 00H
	DB	' ', 00H, 'i', 00H, 't', 00H, 'e', 00H, 'r', 00H, 'a', 00H, 't'
	DB	00H, 'o', 00H, 'r', 00H, ' ', 00H, 'r', 00H, 'a', 00H, 'n', 00H
	DB	'g', 00H, 'e', 00H, 00H, 00H			; `string'
CONST	ENDS
;	COMDAT ??_C@_0EJ@IBPBNBIE@C?3?2Program?5Files?5?$CIx86?$CJ?2Microsoft@
CONST	SEGMENT
??_C@_0EJ@IBPBNBIE@C?3?2Program?5Files?5?$CIx86?$CJ?2Microsoft@ DB 'C:\Pr'
	DB	'ogram Files (x86)\Microsoft Visual Studio 12.0\VC\include\str'
	DB	'eambuf', 00H				; `string'
CONST	ENDS
;	COMDAT ??_7?$num_put@DV?$ostreambuf_iterator@DU?$char_traits@D@std@@@std@@@std@@6B@
CONST	SEGMENT
??_7?$num_put@DV?$ostreambuf_iterator@DU?$char_traits@D@std@@@std@@@std@@6B@ DD FLAT:??_R4?$num_put@DV?$ostreambuf_iterator@DU?$char_traits@D@std@@@std@@@std@@6B@ ; std::num_put<char,std::ostreambuf_iterator<char,std::char_traits<char> > >::`vftable'
	DD	FLAT:??_E?$num_put@DV?$ostreambuf_iterator@DU?$char_traits@D@std@@@std@@@std@@MAEPAXI@Z
	DD	FLAT:?_Incref@facet@locale@std@@UAEXXZ
	DD	FLAT:?_Decref@facet@locale@std@@UAEPAV_Facet_base@3@XZ
	DD	FLAT:?do_put@?$num_put@DV?$ostreambuf_iterator@DU?$char_traits@D@std@@@std@@@std@@MBE?AV?$ostreambuf_iterator@DU?$char_traits@D@std@@@2@V32@AAVios_base@2@DPBX@Z
	DD	FLAT:?do_put@?$num_put@DV?$ostreambuf_iterator@DU?$char_traits@D@std@@@std@@@std@@MBE?AV?$ostreambuf_iterator@DU?$char_traits@D@std@@@2@V32@AAVios_base@2@DO@Z
	DD	FLAT:?do_put@?$num_put@DV?$ostreambuf_iterator@DU?$char_traits@D@std@@@std@@@std@@MBE?AV?$ostreambuf_iterator@DU?$char_traits@D@std@@@2@V32@AAVios_base@2@DN@Z
	DD	FLAT:?do_put@?$num_put@DV?$ostreambuf_iterator@DU?$char_traits@D@std@@@std@@@std@@MBE?AV?$ostreambuf_iterator@DU?$char_traits@D@std@@@2@V32@AAVios_base@2@D_K@Z
	DD	FLAT:?do_put@?$num_put@DV?$ostreambuf_iterator@DU?$char_traits@D@std@@@std@@@std@@MBE?AV?$ostreambuf_iterator@DU?$char_traits@D@std@@@2@V32@AAVios_base@2@D_J@Z
	DD	FLAT:?do_put@?$num_put@DV?$ostreambuf_iterator@DU?$char_traits@D@std@@@std@@@std@@MBE?AV?$ostreambuf_iterator@DU?$char_traits@D@std@@@2@V32@AAVios_base@2@DK@Z
	DD	FLAT:?do_put@?$num_put@DV?$ostreambuf_iterator@DU?$char_traits@D@std@@@std@@@std@@MBE?AV?$ostreambuf_iterator@DU?$char_traits@D@std@@@2@V32@AAVios_base@2@DJ@Z
	DD	FLAT:?do_put@?$num_put@DV?$ostreambuf_iterator@DU?$char_traits@D@std@@@std@@@std@@MBE?AV?$ostreambuf_iterator@DU?$char_traits@D@std@@@2@V32@AAVios_base@2@D_N@Z
CONST	ENDS
;	COMDAT ??_C@_1IO@IGJFOIAG@?$AAC?$AA?3?$AA?2?$AAP?$AAr?$AAo?$AAg?$AAr?$AAa?$AAm?$AA?5?$AAF?$AAi?$AAl?$AAe?$AAs?$AA?5?$AA?$CI?$AAx?$AA8?$AA6?$AA?$CJ?$AA?2?$AAM?$AAi?$AAc?$AAr?$AAo?$AAs?$AAo?$AAf?$AAt@
CONST	SEGMENT
??_C@_1IO@IGJFOIAG@?$AAC?$AA?3?$AA?2?$AAP?$AAr?$AAo?$AAg?$AAr?$AAa?$AAm?$AA?5?$AAF?$AAi?$AAl?$AAe?$AAs?$AA?5?$AA?$CI?$AAx?$AA8?$AA6?$AA?$CJ?$AA?2?$AAM?$AAi?$AAc?$AAr?$AAo?$AAs?$AAo?$AAf?$AAt@ DB 'C'
	DB	00H, ':', 00H, '\', 00H, 'P', 00H, 'r', 00H, 'o', 00H, 'g', 00H
	DB	'r', 00H, 'a', 00H, 'm', 00H, ' ', 00H, 'F', 00H, 'i', 00H, 'l'
	DB	00H, 'e', 00H, 's', 00H, ' ', 00H, '(', 00H, 'x', 00H, '8', 00H
	DB	'6', 00H, ')', 00H, '\', 00H, 'M', 00H, 'i', 00H, 'c', 00H, 'r'
	DB	00H, 'o', 00H, 's', 00H, 'o', 00H, 'f', 00H, 't', 00H, ' ', 00H
	DB	'V', 00H, 'i', 00H, 's', 00H, 'u', 00H, 'a', 00H, 'l', 00H, ' '
	DB	00H, 'S', 00H, 't', 00H, 'u', 00H, 'd', 00H, 'i', 00H, 'o', 00H
	DB	' ', 00H, '1', 00H, '2', 00H, '.', 00H, '0', 00H, '\', 00H, 'V'
	DB	00H, 'C', 00H, '\', 00H, 'i', 00H, 'n', 00H, 'c', 00H, 'l', 00H
	DB	'u', 00H, 'd', 00H, 'e', 00H, '\', 00H, 'o', 00H, 's', 00H, 't'
	DB	00H, 'r', 00H, 'e', 00H, 'a', 00H, 'm', 00H, 00H, 00H ; `string'
CONST	ENDS
;	COMDAT ??_8?$basic_ostringstream@DU?$char_traits@D@std@@V?$allocator@D@2@@std@@7B@
CONST	SEGMENT
??_8?$basic_ostringstream@DU?$char_traits@D@std@@V?$allocator@D@2@@std@@7B@ DD 00H ; std::basic_ostringstream<char,std::char_traits<char>,std::allocator<char> >::`vbtable'
	DD	050H
CONST	ENDS
;	COMDAT ??_7?$basic_ostringstream@DU?$char_traits@D@std@@V?$allocator@D@2@@std@@6B@
CONST	SEGMENT
??_7?$basic_ostringstream@DU?$char_traits@D@std@@V?$allocator@D@2@@std@@6B@ DD FLAT:??_R4?$basic_ostringstream@DU?$char_traits@D@std@@V?$allocator@D@2@@std@@6B@ ; std::basic_ostringstream<char,std::char_traits<char>,std::allocator<char> >::`vftable'
	DD	FLAT:??_E?$basic_ostringstream@DU?$char_traits@D@std@@V?$allocator@D@2@@std@@$4PPPPPPPM@A@AEPAXI@Z
CONST	ENDS
;	COMDAT ??_7?$basic_stringbuf@DU?$char_traits@D@std@@V?$allocator@D@2@@std@@6B@
CONST	SEGMENT
??_7?$basic_stringbuf@DU?$char_traits@D@std@@V?$allocator@D@2@@std@@6B@ DD FLAT:??_R4?$basic_stringbuf@DU?$char_traits@D@std@@V?$allocator@D@2@@std@@6B@ ; std::basic_stringbuf<char,std::char_traits<char>,std::allocator<char> >::`vftable'
	DD	FLAT:??_E?$basic_stringbuf@DU?$char_traits@D@std@@V?$allocator@D@2@@std@@UAEPAXI@Z
	DD	FLAT:?_Lock@?$basic_streambuf@DU?$char_traits@D@std@@@std@@UAEXXZ
	DD	FLAT:?_Unlock@?$basic_streambuf@DU?$char_traits@D@std@@@std@@UAEXXZ
	DD	FLAT:?overflow@?$basic_stringbuf@DU?$char_traits@D@std@@V?$allocator@D@2@@std@@MAEHH@Z
	DD	FLAT:?pbackfail@?$basic_stringbuf@DU?$char_traits@D@std@@V?$allocator@D@2@@std@@MAEHH@Z
	DD	FLAT:?showmanyc@?$basic_streambuf@DU?$char_traits@D@std@@@std@@MAE_JXZ
	DD	FLAT:?underflow@?$basic_stringbuf@DU?$char_traits@D@std@@V?$allocator@D@2@@std@@MAEHXZ
	DD	FLAT:?uflow@?$basic_streambuf@DU?$char_traits@D@std@@@std@@MAEHXZ
	DD	FLAT:?xsgetn@?$basic_streambuf@DU?$char_traits@D@std@@@std@@MAE_JPAD_J@Z
	DD	FLAT:?xsputn@?$basic_streambuf@DU?$char_traits@D@std@@@std@@MAE_JPBD_J@Z
	DD	FLAT:?seekoff@?$basic_stringbuf@DU?$char_traits@D@std@@V?$allocator@D@2@@std@@MAE?AV?$fpos@H@2@_JHH@Z
	DD	FLAT:?seekpos@?$basic_stringbuf@DU?$char_traits@D@std@@V?$allocator@D@2@@std@@MAE?AV?$fpos@H@2@V32@H@Z
	DD	FLAT:?setbuf@?$basic_streambuf@DU?$char_traits@D@std@@@std@@MAEPAV12@PAD_J@Z
	DD	FLAT:?sync@?$basic_streambuf@DU?$char_traits@D@std@@@std@@MAEHXZ
	DD	FLAT:?imbue@?$basic_streambuf@DU?$char_traits@D@std@@@std@@MAEXABVlocale@2@@Z
CONST	ENDS
;	COMDAT ??_C@_08EPJLHIJG@bad?5cast?$AA@
CONST	SEGMENT
??_C@_08EPJLHIJG@bad?5cast?$AA@ DB 'bad cast', 00H	; `string'
CONST	ENDS
;	COMDAT __CT??_R0?AVbad_cast@std@@@8??0bad_cast@std@@QAE@ABV01@@Z12
xdata$x	SEGMENT
__CT??_R0?AVbad_cast@std@@@8??0bad_cast@std@@QAE@ABV01@@Z12 DD 00H
	DD	FLAT:??_R0?AVbad_cast@std@@@8
	DD	00H
	DD	0ffffffffH
	ORG $+4
	DD	0cH
	DD	FLAT:??0bad_cast@std@@QAE@ABV01@@Z
xdata$x	ENDS
;	COMDAT ??_R0?AVbad_cast@std@@@8
data$r	SEGMENT
??_R0?AVbad_cast@std@@@8 DD FLAT:??_7type_info@@6B@	; std::bad_cast `RTTI Type Descriptor'
	DD	00H
	DB	'.?AVbad_cast@std@@', 00H
data$r	ENDS
;	COMDAT __CTA2?AVbad_cast@std@@
xdata$x	SEGMENT
__CTA2?AVbad_cast@std@@ DD 02H
	DD	FLAT:__CT??_R0?AVbad_cast@std@@@8??0bad_cast@std@@QAE@ABV01@@Z12
	DD	FLAT:__CT??_R0?AVexception@std@@@8??0exception@std@@QAE@ABV01@@Z12
xdata$x	ENDS
;	COMDAT __TI2?AVbad_cast@std@@
xdata$x	SEGMENT
__TI2?AVbad_cast@std@@ DD 00H
	DD	FLAT:??1bad_cast@std@@UAE@XZ
	DD	00H
	DD	FLAT:__CTA2?AVbad_cast@std@@
xdata$x	ENDS
;	COMDAT ??_C@_1CK@EOPGIILJ@?$AAi?$AAn?$AAv?$AAa?$AAl?$AAi?$AAd?$AA?5?$AAn?$AAu?$AAl?$AAl?$AA?5?$AAp?$AAo?$AAi?$AAn?$AAt?$AAe?$AAr?$AA?$AA@
CONST	SEGMENT
??_C@_1CK@EOPGIILJ@?$AAi?$AAn?$AAv?$AAa?$AAl?$AAi?$AAd?$AA?5?$AAn?$AAu?$AAl?$AAl?$AA?5?$AAp?$AAo?$AAi?$AAn?$AAt?$AAe?$AAr?$AA?$AA@ DB 'i'
	DB	00H, 'n', 00H, 'v', 00H, 'a', 00H, 'l', 00H, 'i', 00H, 'd', 00H
	DB	' ', 00H, 'n', 00H, 'u', 00H, 'l', 00H, 'l', 00H, ' ', 00H, 'p'
	DB	00H, 'o', 00H, 'i', 00H, 'n', 00H, 't', 00H, 'e', 00H, 'r', 00H
	DB	00H, 00H					; `string'
CONST	ENDS
;	COMDAT ??_C@_0BI@CFPLBAOH@invalid?5string?5position?$AA@
CONST	SEGMENT
??_C@_0BI@CFPLBAOH@invalid?5string?5position?$AA@ DB 'invalid string posi'
	DB	'tion', 00H					; `string'
CONST	ENDS
;	COMDAT ??_C@_0BA@JFNIOLAK@string?5too?5long?$AA@
CONST	SEGMENT
??_C@_0BA@JFNIOLAK@string?5too?5long?$AA@ DB 'string too long', 00H ; `string'
CONST	ENDS
;	COMDAT ??_C@_1DM@GMPLOCPK@?$AAs?$AAt?$AAr?$AAi?$AAn?$AAg?$AA?5?$AAs?$AAu?$AAb?$AAs?$AAc?$AAr?$AAi?$AAp?$AAt?$AA?5?$AAo?$AAu?$AAt?$AA?5?$AAo?$AAf?$AA?5?$AAr?$AAa?$AAn?$AAg?$AAe?$AA?$AA@
CONST	SEGMENT
??_C@_1DM@GMPLOCPK@?$AAs?$AAt?$AAr?$AAi?$AAn?$AAg?$AA?5?$AAs?$AAu?$AAb?$AAs?$AAc?$AAr?$AAi?$AAp?$AAt?$AA?5?$AAo?$AAu?$AAt?$AA?5?$AAo?$AAf?$AA?5?$AAr?$AAa?$AAn?$AAg?$AAe?$AA?$AA@ DB 's'
	DB	00H, 't', 00H, 'r', 00H, 'i', 00H, 'n', 00H, 'g', 00H, ' ', 00H
	DB	's', 00H, 'u', 00H, 'b', 00H, 's', 00H, 'c', 00H, 'r', 00H, 'i'
	DB	00H, 'p', 00H, 't', 00H, ' ', 00H, 'o', 00H, 'u', 00H, 't', 00H
	DB	' ', 00H, 'o', 00H, 'f', 00H, ' ', 00H, 'r', 00H, 'a', 00H, 'n'
	DB	00H, 'g', 00H, 'e', 00H, 00H, 00H		; `string'
CONST	ENDS
;	COMDAT ??_C@_01LFCBOECM@?4?$AA@
CONST	SEGMENT
??_C@_01LFCBOECM@?4?$AA@ DB '.', 00H			; `string'
CONST	ENDS
;	COMDAT ??_C@_02OOPEBDOJ@pP?$AA@
CONST	SEGMENT
??_C@_02OOPEBDOJ@pP?$AA@ DB 'pP', 00H			; `string'
CONST	ENDS
;	COMDAT ??_C@_02MDKMJEGG@eE?$AA@
CONST	SEGMENT
??_C@_02MDKMJEGG@eE?$AA@ DB 'eE', 00H			; `string'
CONST	ENDS
;	COMDAT ??_C@_02BBAHNLBA@?$CFp?$AA@
CONST	SEGMENT
??_C@_02BBAHNLBA@?$CFp?$AA@ DB '%p', 00H		; `string'
CONST	ENDS
;	COMDAT ??_C@_02CLHGNPPK@Lu?$AA@
CONST	SEGMENT
??_C@_02CLHGNPPK@Lu?$AA@ DB 'Lu', 00H			; `string'
CONST	ENDS
;	COMDAT ??_C@_02HIKPPMOK@Ld?$AA@
CONST	SEGMENT
??_C@_02HIKPPMOK@Ld?$AA@ DB 'Ld', 00H			; `string'
CONST	ENDS
;	COMDAT ??_C@_02BDDLJJBK@lu?$AA@
CONST	SEGMENT
??_C@_02BDDLJJBK@lu?$AA@ DB 'lu', 00H			; `string'
CONST	ENDS
;	COMDAT ??_C@_02EAOCLKAK@ld?$AA@
CONST	SEGMENT
??_C@_02EAOCLKAK@ld?$AA@ DB 'ld', 00H			; `string'
CONST	ENDS
;	COMDAT ??_7?$numpunct@D@std@@6B@
CONST	SEGMENT
??_7?$numpunct@D@std@@6B@ DD FLAT:??_R4?$numpunct@D@std@@6B@ ; std::numpunct<char>::`vftable'
	DD	FLAT:??_E?$numpunct@D@std@@MAEPAXI@Z
	DD	FLAT:?_Incref@facet@locale@std@@UAEXXZ
	DD	FLAT:?_Decref@facet@locale@std@@UAEPAV_Facet_base@3@XZ
	DD	FLAT:?do_decimal_point@?$numpunct@D@std@@MBEDXZ
	DD	FLAT:?do_thousands_sep@?$numpunct@D@std@@MBEDXZ
	DD	FLAT:?do_grouping@?$numpunct@D@std@@MBE?AV?$basic_string@DU?$char_traits@D@std@@V?$allocator@D@2@@2@XZ
	DD	FLAT:?do_falsename@?$numpunct@D@std@@MBE?AV?$basic_string@DU?$char_traits@D@std@@V?$allocator@D@2@@2@XZ
	DD	FLAT:?do_truename@?$numpunct@D@std@@MBE?AV?$basic_string@DU?$char_traits@D@std@@V?$allocator@D@2@@2@XZ
CONST	ENDS
;	COMDAT ??_C@_1IO@NNKGFJII@?$AAC?$AA?3?$AA?2?$AAP?$AAr?$AAo?$AAg?$AAr?$AAa?$AAm?$AA?5?$AAF?$AAi?$AAl?$AAe?$AAs?$AA?5?$AA?$CI?$AAx?$AA8?$AA6?$AA?$CJ?$AA?2?$AAM?$AAi?$AAc?$AAr?$AAo?$AAs?$AAo?$AAf?$AAt@
CONST	SEGMENT
??_C@_1IO@NNKGFJII@?$AAC?$AA?3?$AA?2?$AAP?$AAr?$AAo?$AAg?$AAr?$AAa?$AAm?$AA?5?$AAF?$AAi?$AAl?$AAe?$AAs?$AA?5?$AA?$CI?$AAx?$AA8?$AA6?$AA?$CJ?$AA?2?$AAM?$AAi?$AAc?$AAr?$AAo?$AAs?$AAo?$AAf?$AAt@ DB 'C'
	DB	00H, ':', 00H, '\', 00H, 'P', 00H, 'r', 00H, 'o', 00H, 'g', 00H
	DB	'r', 00H, 'a', 00H, 'm', 00H, ' ', 00H, 'F', 00H, 'i', 00H, 'l'
	DB	00H, 'e', 00H, 's', 00H, ' ', 00H, '(', 00H, 'x', 00H, '8', 00H
	DB	'6', 00H, ')', 00H, '\', 00H, 'M', 00H, 'i', 00H, 'c', 00H, 'r'
	DB	00H, 'o', 00H, 's', 00H, 'o', 00H, 'f', 00H, 't', 00H, ' ', 00H
	DB	'V', 00H, 'i', 00H, 's', 00H, 'u', 00H, 'a', 00H, 'l', 00H, ' '
	DB	00H, 'S', 00H, 't', 00H, 'u', 00H, 'd', 00H, 'i', 00H, 'o', 00H
	DB	' ', 00H, '1', 00H, '2', 00H, '.', 00H, '0', 00H, '\', 00H, 'V'
	DB	00H, 'C', 00H, '\', 00H, 'i', 00H, 'n', 00H, 'c', 00H, 'l', 00H
	DB	'u', 00H, 'd', 00H, 'e', 00H, '\', 00H, 'x', 00H, 'l', 00H, 'o'
	DB	00H, 'c', 00H, 'n', 00H, 'u', 00H, 'm', 00H, 00H, 00H ; `string'
CONST	ENDS
;	COMDAT ??_C@_1IO@FEAPGJBD@?$AAC?$AA?3?$AA?2?$AAP?$AAr?$AAo?$AAg?$AAr?$AAa?$AAm?$AA?5?$AAF?$AAi?$AAl?$AAe?$AAs?$AA?5?$AA?$CI?$AAx?$AA8?$AA6?$AA?$CJ?$AA?2?$AAM?$AAi?$AAc?$AAr?$AAo?$AAs?$AAo?$AAf?$AAt@
CONST	SEGMENT
??_C@_1IO@FEAPGJBD@?$AAC?$AA?3?$AA?2?$AAP?$AAr?$AAo?$AAg?$AAr?$AAa?$AAm?$AA?5?$AAF?$AAi?$AAl?$AAe?$AAs?$AA?5?$AA?$CI?$AAx?$AA8?$AA6?$AA?$CJ?$AA?2?$AAM?$AAi?$AAc?$AAr?$AAo?$AAs?$AAo?$AAf?$AAt@ DB 'C'
	DB	00H, ':', 00H, '\', 00H, 'P', 00H, 'r', 00H, 'o', 00H, 'g', 00H
	DB	'r', 00H, 'a', 00H, 'm', 00H, ' ', 00H, 'F', 00H, 'i', 00H, 'l'
	DB	00H, 'e', 00H, 's', 00H, ' ', 00H, '(', 00H, 'x', 00H, '8', 00H
	DB	'6', 00H, ')', 00H, '\', 00H, 'M', 00H, 'i', 00H, 'c', 00H, 'r'
	DB	00H, 'o', 00H, 's', 00H, 'o', 00H, 'f', 00H, 't', 00H, ' ', 00H
	DB	'V', 00H, 'i', 00H, 's', 00H, 'u', 00H, 'a', 00H, 'l', 00H, ' '
	DB	00H, 'S', 00H, 't', 00H, 'u', 00H, 'd', 00H, 'i', 00H, 'o', 00H
	DB	' ', 00H, '1', 00H, '2', 00H, '.', 00H, '0', 00H, '\', 00H, 'V'
	DB	00H, 'C', 00H, '\', 00H, 'i', 00H, 'n', 00H, 'c', 00H, 'l', 00H
	DB	'u', 00H, 'd', 00H, 'e', 00H, '\', 00H, 'x', 00H, 's', 00H, 't'
	DB	00H, 'r', 00H, 'i', 00H, 'n', 00H, 'g', 00H, 00H, 00H ; `string'
CONST	ENDS
;	COMDAT ??_8?$basic_ostream@DU?$char_traits@D@std@@@std@@7B@
CONST	SEGMENT
??_8?$basic_ostream@DU?$char_traits@D@std@@@std@@7B@ DD 00H ; std::basic_ostream<char,std::char_traits<char> >::`vbtable'
	DD	08H
CONST	ENDS
;	COMDAT ??_7?$basic_ostream@DU?$char_traits@D@std@@@std@@6B@
CONST	SEGMENT
??_7?$basic_ostream@DU?$char_traits@D@std@@@std@@6B@ DD FLAT:??_R4?$basic_ostream@DU?$char_traits@D@std@@@std@@6B@ ; std::basic_ostream<char,std::char_traits<char> >::`vftable'
	DD	FLAT:??_E?$basic_ostream@DU?$char_traits@D@std@@@std@@$4PPPPPPPM@A@AEPAXI@Z
CONST	ENDS
;	COMDAT ??_7?$basic_streambuf@DU?$char_traits@D@std@@@std@@6B@
CONST	SEGMENT
??_7?$basic_streambuf@DU?$char_traits@D@std@@@std@@6B@ DD FLAT:??_R4?$basic_streambuf@DU?$char_traits@D@std@@@std@@6B@ ; std::basic_streambuf<char,std::char_traits<char> >::`vftable'
	DD	FLAT:??_E?$basic_streambuf@DU?$char_traits@D@std@@@std@@UAEPAXI@Z
	DD	FLAT:?_Lock@?$basic_streambuf@DU?$char_traits@D@std@@@std@@UAEXXZ
	DD	FLAT:?_Unlock@?$basic_streambuf@DU?$char_traits@D@std@@@std@@UAEXXZ
	DD	FLAT:?overflow@?$basic_streambuf@DU?$char_traits@D@std@@@std@@MAEHH@Z
	DD	FLAT:?pbackfail@?$basic_streambuf@DU?$char_traits@D@std@@@std@@MAEHH@Z
	DD	FLAT:?showmanyc@?$basic_streambuf@DU?$char_traits@D@std@@@std@@MAE_JXZ
	DD	FLAT:?underflow@?$basic_streambuf@DU?$char_traits@D@std@@@std@@MAEHXZ
	DD	FLAT:?uflow@?$basic_streambuf@DU?$char_traits@D@std@@@std@@MAEHXZ
	DD	FLAT:?xsgetn@?$basic_streambuf@DU?$char_traits@D@std@@@std@@MAE_JPAD_J@Z
	DD	FLAT:?xsputn@?$basic_streambuf@DU?$char_traits@D@std@@@std@@MAE_JPBD_J@Z
	DD	FLAT:?seekoff@?$basic_streambuf@DU?$char_traits@D@std@@@std@@MAE?AV?$fpos@H@2@_JHH@Z
	DD	FLAT:?seekpos@?$basic_streambuf@DU?$char_traits@D@std@@@std@@MAE?AV?$fpos@H@2@V32@H@Z
	DD	FLAT:?setbuf@?$basic_streambuf@DU?$char_traits@D@std@@@std@@MAEPAV12@PAD_J@Z
	DD	FLAT:?sync@?$basic_streambuf@DU?$char_traits@D@std@@@std@@MAEHXZ
	DD	FLAT:?imbue@?$basic_streambuf@DU?$char_traits@D@std@@@std@@MAEXABVlocale@2@@Z
CONST	ENDS
;	COMDAT ??_7?$basic_ios@DU?$char_traits@D@std@@@std@@6B@
CONST	SEGMENT
??_7?$basic_ios@DU?$char_traits@D@std@@@std@@6B@ DD FLAT:??_R4?$basic_ios@DU?$char_traits@D@std@@@std@@6B@ ; std::basic_ios<char,std::char_traits<char> >::`vftable'
	DD	FLAT:??_E?$basic_ios@DU?$char_traits@D@std@@@std@@UAEPAXI@Z
CONST	ENDS
;	COMDAT ??_C@_0EH@MMEJNHDN@C?3?2Program?5Files?5?$CIx86?$CJ?2Microsoft@
CONST	SEGMENT
??_C@_0EH@MMEJNHDN@C?3?2Program?5Files?5?$CIx86?$CJ?2Microsoft@ DB 'C:\Pr'
	DB	'ogram Files (x86)\Microsoft Visual Studio 12.0\VC\include\xlo'
	DB	'cnum', 00H					; `string'
CONST	ENDS
;	COMDAT ??_C@_0EI@HCLDFGI@C?3?2Program?5Files?5?$CIx86?$CJ?2Microsoft@
CONST	SEGMENT
??_C@_0EI@HCLDFGI@C?3?2Program?5Files?5?$CIx86?$CJ?2Microsoft@ DB 'C:\Pro'
	DB	'gram Files (x86)\Microsoft Visual Studio 12.0\VC\include\xios'
	DB	'base', 00H					; `string'
CONST	ENDS
;	COMDAT ??_C@_0BF@OOHOMBOF@ios_base?3?3eofbit?5set?$AA@
CONST	SEGMENT
??_C@_0BF@OOHOMBOF@ios_base?3?3eofbit?5set?$AA@ DB 'ios_base::eofbit set', 00H ; `string'
CONST	ENDS
;	COMDAT ??_C@_0BG@FMKFHCIL@ios_base?3?3failbit?5set?$AA@
CONST	SEGMENT
??_C@_0BG@FMKFHCIL@ios_base?3?3failbit?5set?$AA@ DB 'ios_base::failbit se'
	DB	't', 00H					; `string'
CONST	ENDS
;	COMDAT ??_C@_0BF@PHHKMMFD@ios_base?3?3badbit?5set?$AA@
CONST	SEGMENT
??_C@_0BF@PHHKMMFD@ios_base?3?3badbit?5set?$AA@ DB 'ios_base::badbit set', 00H ; `string'
CONST	ENDS
;	COMDAT __CT??_R0?AV_System_error@std@@@8??0_System_error@std@@QAE@ABV01@@Z20
xdata$x	SEGMENT
__CT??_R0?AV_System_error@std@@@8??0_System_error@std@@QAE@ABV01@@Z20 DD 00H
	DD	FLAT:??_R0?AV_System_error@std@@@8
	DD	00H
	DD	0ffffffffH
	ORG $+4
	DD	014H
	DD	FLAT:??0_System_error@std@@QAE@ABV01@@Z
xdata$x	ENDS
;	COMDAT ??_R0?AV_System_error@std@@@8
data$r	SEGMENT
??_R0?AV_System_error@std@@@8 DD FLAT:??_7type_info@@6B@ ; std::_System_error `RTTI Type Descriptor'
	DD	00H
	DB	'.?AV_System_error@std@@', 00H
data$r	ENDS
;	COMDAT __CT??_R0?AVsystem_error@std@@@8??0system_error@std@@QAE@ABV01@@Z20
xdata$x	SEGMENT
__CT??_R0?AVsystem_error@std@@@8??0system_error@std@@QAE@ABV01@@Z20 DD 00H
	DD	FLAT:??_R0?AVsystem_error@std@@@8
	DD	00H
	DD	0ffffffffH
	ORG $+4
	DD	014H
	DD	FLAT:??0system_error@std@@QAE@ABV01@@Z
xdata$x	ENDS
;	COMDAT ??_R0?AVsystem_error@std@@@8
data$r	SEGMENT
??_R0?AVsystem_error@std@@@8 DD FLAT:??_7type_info@@6B@	; std::system_error `RTTI Type Descriptor'
	DD	00H
	DB	'.?AVsystem_error@std@@', 00H
data$r	ENDS
;	COMDAT __CT??_R0?AVfailure@ios_base@std@@@8??0failure@ios_base@std@@QAE@ABV012@@Z20
xdata$x	SEGMENT
__CT??_R0?AVfailure@ios_base@std@@@8??0failure@ios_base@std@@QAE@ABV012@@Z20 DD 00H
	DD	FLAT:??_R0?AVfailure@ios_base@std@@@8
	DD	00H
	DD	0ffffffffH
	ORG $+4
	DD	014H
	DD	FLAT:??0failure@ios_base@std@@QAE@ABV012@@Z
xdata$x	ENDS
;	COMDAT ??_R0?AVfailure@ios_base@std@@@8
data$r	SEGMENT
??_R0?AVfailure@ios_base@std@@@8 DD FLAT:??_7type_info@@6B@ ; std::ios_base::failure `RTTI Type Descriptor'
	DD	00H
	DB	'.?AVfailure@ios_base@std@@', 00H
data$r	ENDS
;	COMDAT __CTA5?AVfailure@ios_base@std@@
xdata$x	SEGMENT
__CTA5?AVfailure@ios_base@std@@ DD 05H
	DD	FLAT:__CT??_R0?AVfailure@ios_base@std@@@8??0failure@ios_base@std@@QAE@ABV012@@Z20
	DD	FLAT:__CT??_R0?AVsystem_error@std@@@8??0system_error@std@@QAE@ABV01@@Z20
	DD	FLAT:__CT??_R0?AV_System_error@std@@@8??0_System_error@std@@QAE@ABV01@@Z20
	DD	FLAT:__CT??_R0?AVruntime_error@std@@@8??0runtime_error@std@@QAE@ABV01@@Z12
	DD	FLAT:__CT??_R0?AVexception@std@@@8??0exception@std@@QAE@ABV01@@Z12
xdata$x	ENDS
;	COMDAT __TI5?AVfailure@ios_base@std@@
xdata$x	SEGMENT
__TI5?AVfailure@ios_base@std@@ DD 00H
	DD	FLAT:??1failure@ios_base@std@@UAE@XZ
	DD	00H
	DD	FLAT:__CTA5?AVfailure@ios_base@std@@
xdata$x	ENDS
;	COMDAT ??_7ios_base@std@@6B@
CONST	SEGMENT
??_7ios_base@std@@6B@ DD FLAT:??_R4ios_base@std@@6B@	; std::ios_base::`vftable'
	DD	FLAT:??_Eios_base@std@@UAEPAXI@Z
CONST	ENDS
;	COMDAT ??_7failure@ios_base@std@@6B@
CONST	SEGMENT
??_7failure@ios_base@std@@6B@ DD FLAT:??_R4failure@ios_base@std@@6B@ ; std::ios_base::failure::`vftable'
	DD	FLAT:??_Efailure@ios_base@std@@UAEPAXI@Z
	DD	FLAT:?what@exception@std@@UBEPBDXZ
CONST	ENDS
;	COMDAT ??_C@_06FHFOAHML@system?$AA@
CONST	SEGMENT
??_C@_06FHFOAHML@system?$AA@ DB 'system', 00H		; `string'
CONST	ENDS
;	COMDAT ??_7_System_error_category@std@@6B@
CONST	SEGMENT
??_7_System_error_category@std@@6B@ DD FLAT:??_R4_System_error_category@std@@6B@ ; std::_System_error_category::`vftable'
	DD	FLAT:??_E_System_error_category@std@@UAEPAXI@Z
	DD	FLAT:?name@_System_error_category@std@@UBEPBDXZ
	DD	FLAT:?message@_System_error_category@std@@UBE?AV?$basic_string@DU?$char_traits@D@std@@V?$allocator@D@2@@2@H@Z
	DD	FLAT:?default_error_condition@_System_error_category@std@@UBE?AVerror_condition@2@H@Z
	DD	FLAT:?equivalent@error_category@std@@UBE_NABVerror_code@2@H@Z
	DD	FLAT:?equivalent@error_category@std@@UBE_NHABVerror_condition@2@@Z
CONST	ENDS
;	COMDAT ??_C@_0BG@PADBLCHM@iostream?5stream?5error?$AA@
CONST	SEGMENT
??_C@_0BG@PADBLCHM@iostream?5stream?5error?$AA@ DB 'iostream stream error'
	DB	00H						; `string'
CONST	ENDS
;	COMDAT ??_C@_08LLGCOLLL@iostream?$AA@
CONST	SEGMENT
??_C@_08LLGCOLLL@iostream?$AA@ DB 'iostream', 00H	; `string'
CONST	ENDS
;	COMDAT ??_7_Iostream_error_category@std@@6B@
CONST	SEGMENT
??_7_Iostream_error_category@std@@6B@ DD FLAT:??_R4_Iostream_error_category@std@@6B@ ; std::_Iostream_error_category::`vftable'
	DD	FLAT:??_E_Iostream_error_category@std@@UAEPAXI@Z
	DD	FLAT:?name@_Iostream_error_category@std@@UBEPBDXZ
	DD	FLAT:?message@_Iostream_error_category@std@@UBE?AV?$basic_string@DU?$char_traits@D@std@@V?$allocator@D@2@@2@H@Z
	DD	FLAT:?default_error_condition@error_category@std@@UBE?AVerror_condition@2@H@Z
	DD	FLAT:?equivalent@error_category@std@@UBE_NABVerror_code@2@H@Z
	DD	FLAT:?equivalent@error_category@std@@UBE_NHABVerror_condition@2@@Z
CONST	ENDS
;	COMDAT ??_C@_0O@BFJCFAAK@unknown?5error?$AA@
CONST	SEGMENT
??_C@_0O@BFJCFAAK@unknown?5error?$AA@ DB 'unknown error', 00H ; `string'
CONST	ENDS
;	COMDAT ??_C@_07DCLBNMLN@generic?$AA@
CONST	SEGMENT
??_C@_07DCLBNMLN@generic?$AA@ DB 'generic', 00H		; `string'
CONST	ENDS
;	COMDAT ??_7_Generic_error_category@std@@6B@
CONST	SEGMENT
??_7_Generic_error_category@std@@6B@ DD FLAT:??_R4_Generic_error_category@std@@6B@ ; std::_Generic_error_category::`vftable'
	DD	FLAT:??_E_Generic_error_category@std@@UAEPAXI@Z
	DD	FLAT:?name@_Generic_error_category@std@@UBEPBDXZ
	DD	FLAT:?message@_Generic_error_category@std@@UBE?AV?$basic_string@DU?$char_traits@D@std@@V?$allocator@D@2@@2@H@Z
	DD	FLAT:?default_error_condition@error_category@std@@UBE?AVerror_condition@2@H@Z
	DD	FLAT:?equivalent@error_category@std@@UBE_NABVerror_code@2@H@Z
	DD	FLAT:?equivalent@error_category@std@@UBE_NHABVerror_condition@2@@Z
CONST	ENDS
;	COMDAT ??_7system_error@std@@6B@
CONST	SEGMENT
??_7system_error@std@@6B@ DD FLAT:??_R4system_error@std@@6B@ ; std::system_error::`vftable'
	DD	FLAT:??_Esystem_error@std@@UAEPAXI@Z
	DD	FLAT:?what@exception@std@@UBEPBDXZ
CONST	ENDS
;	COMDAT ??_C@_02LMMGGCAJ@?3?5?$AA@
CONST	SEGMENT
??_C@_02LMMGGCAJ@?3?5?$AA@ DB ': ', 00H			; `string'
CONST	ENDS
;	COMDAT ??_7_System_error@std@@6B@
CONST	SEGMENT
??_7_System_error@std@@6B@ DD FLAT:??_R4_System_error@std@@6B@ ; std::_System_error::`vftable'
	DD	FLAT:??_E_System_error@std@@UAEPAXI@Z
	DD	FLAT:?what@exception@std@@UBEPBDXZ
CONST	ENDS
;	COMDAT ??_7error_category@std@@6B@
CONST	SEGMENT
??_7error_category@std@@6B@ DD FLAT:??_R4error_category@std@@6B@ ; std::error_category::`vftable'
	DD	FLAT:??_Eerror_category@std@@UAEPAXI@Z
	DD	FLAT:__purecall
	DD	FLAT:__purecall
	DD	FLAT:?default_error_condition@error_category@std@@UBE?AVerror_condition@2@H@Z
	DD	FLAT:?equivalent@error_category@std@@UBE_NABVerror_code@2@H@Z
	DD	FLAT:?equivalent@error_category@std@@UBE_NHABVerror_condition@2@@Z
CONST	ENDS
;	COMDAT ??_7?$ctype@D@std@@6B@
CONST	SEGMENT
??_7?$ctype@D@std@@6B@ DD FLAT:??_R4?$ctype@D@std@@6B@	; std::ctype<char>::`vftable'
	DD	FLAT:??_E?$ctype@D@std@@MAEPAXI@Z
	DD	FLAT:?_Incref@facet@locale@std@@UAEXXZ
	DD	FLAT:?_Decref@facet@locale@std@@UAEPAV_Facet_base@3@XZ
	DD	FLAT:?do_tolower@?$ctype@D@std@@MBEPBDPADPBD@Z
	DD	FLAT:?do_tolower@?$ctype@D@std@@MBEDD@Z
	DD	FLAT:?do_toupper@?$ctype@D@std@@MBEPBDPADPBD@Z
	DD	FLAT:?do_toupper@?$ctype@D@std@@MBEDD@Z
	DD	FLAT:?do_widen@?$ctype@D@std@@MBEPBDPBD0PAD@Z
	DD	FLAT:?do_widen@?$ctype@D@std@@MBEDD@Z
	DD	FLAT:?do_narrow@?$ctype@D@std@@MBEPBDPBD0DPAD@Z
	DD	FLAT:?do_narrow@?$ctype@D@std@@MBEDDD@Z
CONST	ENDS
;	COMDAT ??_7ctype_base@std@@6B@
CONST	SEGMENT
??_7ctype_base@std@@6B@ DD FLAT:??_R4ctype_base@std@@6B@ ; std::ctype_base::`vftable'
	DD	FLAT:??_Ectype_base@std@@UAEPAXI@Z
	DD	FLAT:?_Incref@facet@locale@std@@UAEXXZ
	DD	FLAT:?_Decref@facet@locale@std@@UAEPAV_Facet_base@3@XZ
CONST	ENDS
;	COMDAT ??_C@_1IO@OFOLDAJI@?$AAC?$AA?3?$AA?2?$AAP?$AAr?$AAo?$AAg?$AAr?$AAa?$AAm?$AA?5?$AAF?$AAi?$AAl?$AAe?$AAs?$AA?5?$AA?$CI?$AAx?$AA8?$AA6?$AA?$CJ?$AA?2?$AAM?$AAi?$AAc?$AAr?$AAo?$AAs?$AAo?$AAf?$AAt@
CONST	SEGMENT
??_C@_1IO@OFOLDAJI@?$AAC?$AA?3?$AA?2?$AAP?$AAr?$AAo?$AAg?$AAr?$AAa?$AAm?$AA?5?$AAF?$AAi?$AAl?$AAe?$AAs?$AA?5?$AA?$CI?$AAx?$AA8?$AA6?$AA?$CJ?$AA?2?$AAM?$AAi?$AAc?$AAr?$AAo?$AAs?$AAo?$AAf?$AAt@ DB 'C'
	DB	00H, ':', 00H, '\', 00H, 'P', 00H, 'r', 00H, 'o', 00H, 'g', 00H
	DB	'r', 00H, 'a', 00H, 'm', 00H, ' ', 00H, 'F', 00H, 'i', 00H, 'l'
	DB	00H, 'e', 00H, 's', 00H, ' ', 00H, '(', 00H, 'x', 00H, '8', 00H
	DB	'6', 00H, ')', 00H, '\', 00H, 'M', 00H, 'i', 00H, 'c', 00H, 'r'
	DB	00H, 'o', 00H, 's', 00H, 'o', 00H, 'f', 00H, 't', 00H, ' ', 00H
	DB	'V', 00H, 'i', 00H, 's', 00H, 'u', 00H, 'a', 00H, 'l', 00H, ' '
	DB	00H, 'S', 00H, 't', 00H, 'u', 00H, 'd', 00H, 'i', 00H, 'o', 00H
	DB	' ', 00H, '1', 00H, '2', 00H, '.', 00H, '0', 00H, '\', 00H, 'V'
	DB	00H, 'C', 00H, '\', 00H, 'i', 00H, 'n', 00H, 'c', 00H, 'l', 00H
	DB	'u', 00H, 'd', 00H, 'e', 00H, '\', 00H, 'x', 00H, 'l', 00H, 'o'
	DB	00H, 'c', 00H, 'a', 00H, 'l', 00H, 'e', 00H, 00H, 00H ; `string'
CONST	ENDS
;	COMDAT ??_C@_00CNPNBAHC@?$AA@
CONST	SEGMENT
??_C@_00CNPNBAHC@?$AA@ DB 00H				; `string'
CONST	ENDS
;	COMDAT ??_C@_0EH@EPAENFJM@C?3?2Program?5Files?5?$CIx86?$CJ?2Microsoft@
CONST	SEGMENT
??_C@_0EH@EPAENFJM@C?3?2Program?5Files?5?$CIx86?$CJ?2Microsoft@ DB 'C:\Pr'
	DB	'ogram Files (x86)\Microsoft Visual Studio 12.0\VC\include\xlo'
	DB	'cale', 00H					; `string'
CONST	ENDS
;	COMDAT ??_7facet@locale@std@@6B@
CONST	SEGMENT
??_7facet@locale@std@@6B@ DD FLAT:??_R4facet@locale@std@@6B@ ; std::locale::facet::`vftable'
	DD	FLAT:??_Efacet@locale@std@@MAEPAXI@Z
	DD	FLAT:?_Incref@facet@locale@std@@UAEXXZ
	DD	FLAT:?_Decref@facet@locale@std@@UAEPAV_Facet_base@3@XZ
CONST	ENDS
;	COMDAT ??_7_Facet_base@std@@6B@
CONST	SEGMENT
??_7_Facet_base@std@@6B@ DD FLAT:??_R4_Facet_base@std@@6B@ ; std::_Facet_base::`vftable'
	DD	FLAT:??_E_Facet_base@std@@UAEPAXI@Z
	DD	FLAT:__purecall
	DD	FLAT:__purecall
CONST	ENDS
;	COMDAT ??_C@_04LOAJBDKD@true?$AA@
CONST	SEGMENT
??_C@_04LOAJBDKD@true?$AA@ DB 'true', 00H		; `string'
CONST	ENDS
;	COMDAT ??_C@_05LAPONLG@false?$AA@
CONST	SEGMENT
??_C@_05LAPONLG@false?$AA@ DB 'false', 00H		; `string'
CONST	ENDS
;	COMDAT ??_C@_0BA@ELKIONDK@bad?5locale?5name?$AA@
CONST	SEGMENT
??_C@_0BA@ELKIONDK@bad?5locale?5name?$AA@ DB 'bad locale name', 00H ; `string'
CONST	ENDS
;	COMDAT __CT??_R0?AVexception@std@@@8??0exception@std@@QAE@ABV01@@Z12
xdata$x	SEGMENT
__CT??_R0?AVexception@std@@@8??0exception@std@@QAE@ABV01@@Z12 DD 00H
	DD	FLAT:??_R0?AVexception@std@@@8
	DD	00H
	DD	0ffffffffH
	ORG $+4
	DD	0cH
	DD	FLAT:??0exception@std@@QAE@ABV01@@Z
xdata$x	ENDS
;	COMDAT ??_R0?AVexception@std@@@8
data$r	SEGMENT
??_R0?AVexception@std@@@8 DD FLAT:??_7type_info@@6B@	; std::exception `RTTI Type Descriptor'
	DD	00H
	DB	'.?AVexception@std@@', 00H
data$r	ENDS
;	COMDAT __CT??_R0?AVruntime_error@std@@@8??0runtime_error@std@@QAE@ABV01@@Z12
xdata$x	SEGMENT
__CT??_R0?AVruntime_error@std@@@8??0runtime_error@std@@QAE@ABV01@@Z12 DD 00H
	DD	FLAT:??_R0?AVruntime_error@std@@@8
	DD	00H
	DD	0ffffffffH
	ORG $+4
	DD	0cH
	DD	FLAT:??0runtime_error@std@@QAE@ABV01@@Z
xdata$x	ENDS
;	COMDAT ??_R0?AVruntime_error@std@@@8
data$r	SEGMENT
??_R0?AVruntime_error@std@@@8 DD FLAT:??_7type_info@@6B@ ; std::runtime_error `RTTI Type Descriptor'
	DD	00H
	DB	'.?AVruntime_error@std@@', 00H
data$r	ENDS
;	COMDAT __CTA2?AVruntime_error@std@@
xdata$x	SEGMENT
__CTA2?AVruntime_error@std@@ DD 02H
	DD	FLAT:__CT??_R0?AVruntime_error@std@@@8??0runtime_error@std@@QAE@ABV01@@Z12
	DD	FLAT:__CT??_R0?AVexception@std@@@8??0exception@std@@QAE@ABV01@@Z12
xdata$x	ENDS
;	COMDAT __TI2?AVruntime_error@std@@
xdata$x	SEGMENT
__TI2?AVruntime_error@std@@ DD 00H
	DD	FLAT:??1runtime_error@std@@UAE@XZ
	DD	00H
	DD	FLAT:__CTA2?AVruntime_error@std@@
xdata$x	ENDS
;	COMDAT ??_7runtime_error@std@@6B@
CONST	SEGMENT
??_7runtime_error@std@@6B@ DD FLAT:??_R4runtime_error@std@@6B@ ; std::runtime_error::`vftable'
	DD	FLAT:??_Eruntime_error@std@@UAEPAXI@Z
	DD	FLAT:?what@exception@std@@UBEPBDXZ
CONST	ENDS
;	COMDAT ?npos@?$basic_string@DU?$char_traits@D@std@@V?$allocator@D@2@@std@@2IB
CONST	SEGMENT
?npos@?$basic_string@DU?$char_traits@D@std@@V?$allocator@D@2@@std@@2IB DD 0ffffffffH ; std::basic_string<char,std::char_traits<char>,std::allocator<char> >::npos
CONST	ENDS
;	COMDAT xdata$x
xdata$x	SEGMENT
__unwindtable$??$construct@PADAAPAD@?$allocator@D@std@@QAEXPAPADAAPAD@Z DD 0ffffffffH
	DD	FLAT:__unwindfunclet$??$construct@PADAAPAD@?$allocator@D@std@@QAEXPAPADAAPAD@Z$0
__ehfuncinfo$??$construct@PADAAPAD@?$allocator@D@std@@QAEXPAPADAAPAD@Z DD 019930522H
	DD	01H
	DD	FLAT:__unwindtable$??$construct@PADAAPAD@?$allocator@D@std@@QAEXPAPADAAPAD@Z
	DD	2 DUP(00H)
	DD	2 DUP(00H)
	DD	00H
	DD	01H
xdata$x	ENDS
;	COMDAT xdata$x
xdata$x	SEGMENT
__unwindtable$?_Iput@?$num_put@DV?$ostreambuf_iterator@DU?$char_traits@D@std@@@std@@@std@@ABA?AV?$ostreambuf_iterator@DU?$char_traits@D@std@@@2@V32@AAVios_base@2@DPADI@Z DD 0ffffffffH
	DD	FLAT:__unwindfunclet$?_Iput@?$num_put@DV?$ostreambuf_iterator@DU?$char_traits@D@std@@@std@@@std@@ABA?AV?$ostreambuf_iterator@DU?$char_traits@D@std@@@2@V32@AAVios_base@2@DPADI@Z$0
	DD	0ffffffffH
	DD	FLAT:__unwindfunclet$?_Iput@?$num_put@DV?$ostreambuf_iterator@DU?$char_traits@D@std@@@std@@@std@@ABA?AV?$ostreambuf_iterator@DU?$char_traits@D@std@@@2@V32@AAVios_base@2@DPADI@Z$1
	DD	01H
	DD	FLAT:__unwindfunclet$?_Iput@?$num_put@DV?$ostreambuf_iterator@DU?$char_traits@D@std@@@std@@@std@@ABA?AV?$ostreambuf_iterator@DU?$char_traits@D@std@@@2@V32@AAVios_base@2@DPADI@Z$2
	DD	01H
	DD	FLAT:__unwindfunclet$?_Iput@?$num_put@DV?$ostreambuf_iterator@DU?$char_traits@D@std@@@std@@@std@@ABA?AV?$ostreambuf_iterator@DU?$char_traits@D@std@@@2@V32@AAVios_base@2@DPADI@Z$3
__ehfuncinfo$?_Iput@?$num_put@DV?$ostreambuf_iterator@DU?$char_traits@D@std@@@std@@@std@@ABA?AV?$ostreambuf_iterator@DU?$char_traits@D@std@@@2@V32@AAVios_base@2@DPADI@Z DD 019930522H
	DD	04H
	DD	FLAT:__unwindtable$?_Iput@?$num_put@DV?$ostreambuf_iterator@DU?$char_traits@D@std@@@std@@@std@@ABA?AV?$ostreambuf_iterator@DU?$char_traits@D@std@@@2@V32@AAVios_base@2@DPADI@Z
	DD	2 DUP(00H)
	DD	2 DUP(00H)
	DD	00H
	DD	01H
xdata$x	ENDS
;	COMDAT xdata$x
xdata$x	SEGMENT
__unwindtable$?_Fput@?$num_put@DV?$ostreambuf_iterator@DU?$char_traits@D@std@@@std@@@std@@ABA?AV?$ostreambuf_iterator@DU?$char_traits@D@std@@@2@V32@AAVios_base@2@DPBDIIII@Z DD 0ffffffffH
	DD	FLAT:__unwindfunclet$?_Fput@?$num_put@DV?$ostreambuf_iterator@DU?$char_traits@D@std@@@std@@@std@@ABA?AV?$ostreambuf_iterator@DU?$char_traits@D@std@@@2@V32@AAVios_base@2@DPBDIIII@Z$0
	DD	0ffffffffH
	DD	FLAT:__unwindfunclet$?_Fput@?$num_put@DV?$ostreambuf_iterator@DU?$char_traits@D@std@@@std@@@std@@ABA?AV?$ostreambuf_iterator@DU?$char_traits@D@std@@@2@V32@AAVios_base@2@DPBDIIII@Z$1
	DD	01H
	DD	FLAT:__unwindfunclet$?_Fput@?$num_put@DV?$ostreambuf_iterator@DU?$char_traits@D@std@@@std@@@std@@ABA?AV?$ostreambuf_iterator@DU?$char_traits@D@std@@@2@V32@AAVios_base@2@DPBDIIII@Z$2
	DD	01H
	DD	FLAT:__unwindfunclet$?_Fput@?$num_put@DV?$ostreambuf_iterator@DU?$char_traits@D@std@@@std@@@std@@ABA?AV?$ostreambuf_iterator@DU?$char_traits@D@std@@@2@V32@AAVios_base@2@DPBDIIII@Z$3
__ehfuncinfo$?_Fput@?$num_put@DV?$ostreambuf_iterator@DU?$char_traits@D@std@@@std@@@std@@ABA?AV?$ostreambuf_iterator@DU?$char_traits@D@std@@@2@V32@AAVios_base@2@DPBDIIII@Z DD 019930522H
	DD	04H
	DD	FLAT:__unwindtable$?_Fput@?$num_put@DV?$ostreambuf_iterator@DU?$char_traits@D@std@@@std@@@std@@ABA?AV?$ostreambuf_iterator@DU?$char_traits@D@std@@@2@V32@AAVios_base@2@DPBDIIII@Z
	DD	2 DUP(00H)
	DD	2 DUP(00H)
	DD	00H
	DD	01H
xdata$x	ENDS
;	COMDAT xdata$x
xdata$x	SEGMENT
__unwindtable$?do_put@?$num_put@DV?$ostreambuf_iterator@DU?$char_traits@D@std@@@std@@@std@@MBE?AV?$ostreambuf_iterator@DU?$char_traits@D@std@@@2@V32@AAVios_base@2@D_N@Z DD 0ffffffffH
	DD	FLAT:__unwindfunclet$?do_put@?$num_put@DV?$ostreambuf_iterator@DU?$char_traits@D@std@@@std@@@std@@MBE?AV?$ostreambuf_iterator@DU?$char_traits@D@std@@@2@V32@AAVios_base@2@D_N@Z$0
	DD	0ffffffffH
	DD	FLAT:__unwindfunclet$?do_put@?$num_put@DV?$ostreambuf_iterator@DU?$char_traits@D@std@@@std@@@std@@MBE?AV?$ostreambuf_iterator@DU?$char_traits@D@std@@@2@V32@AAVios_base@2@D_N@Z$1
__ehfuncinfo$?do_put@?$num_put@DV?$ostreambuf_iterator@DU?$char_traits@D@std@@@std@@@std@@MBE?AV?$ostreambuf_iterator@DU?$char_traits@D@std@@@2@V32@AAVios_base@2@D_N@Z DD 019930522H
	DD	02H
	DD	FLAT:__unwindtable$?do_put@?$num_put@DV?$ostreambuf_iterator@DU?$char_traits@D@std@@@std@@@std@@MBE?AV?$ostreambuf_iterator@DU?$char_traits@D@std@@@2@V32@AAVios_base@2@D_N@Z
	DD	2 DUP(00H)
	DD	2 DUP(00H)
	DD	00H
	DD	01H
xdata$x	ENDS
;	COMDAT xdata$x
xdata$x	SEGMENT
__unwindtable$??0?$num_put@DV?$ostreambuf_iterator@DU?$char_traits@D@std@@@std@@@std@@QAE@ABV_Locinfo@1@I@Z DD 0ffffffffH
	DD	FLAT:__unwindfunclet$??0?$num_put@DV?$ostreambuf_iterator@DU?$char_traits@D@std@@@std@@@std@@QAE@ABV_Locinfo@1@I@Z$0
__ehfuncinfo$??0?$num_put@DV?$ostreambuf_iterator@DU?$char_traits@D@std@@@std@@@std@@QAE@ABV_Locinfo@1@I@Z DD 019930522H
	DD	01H
	DD	FLAT:__unwindtable$??0?$num_put@DV?$ostreambuf_iterator@DU?$char_traits@D@std@@@std@@@std@@QAE@ABV_Locinfo@1@I@Z
	DD	2 DUP(00H)
	DD	2 DUP(00H)
	DD	00H
	DD	01H
xdata$x	ENDS
;	COMDAT xdata$x
xdata$x	SEGMENT
__unwindtable$?_Getcat@?$num_put@DV?$ostreambuf_iterator@DU?$char_traits@D@std@@@std@@@std@@SAIPAPBVfacet@locale@2@PBV42@@Z DD 0ffffffffH
	DD	FLAT:__unwindfunclet$?_Getcat@?$num_put@DV?$ostreambuf_iterator@DU?$char_traits@D@std@@@std@@@std@@SAIPAPBVfacet@locale@2@PBV42@@Z$0
	DD	00H
	DD	FLAT:__unwindfunclet$?_Getcat@?$num_put@DV?$ostreambuf_iterator@DU?$char_traits@D@std@@@std@@@std@@SAIPAPBVfacet@locale@2@PBV42@@Z$1
	DD	0ffffffffH
	DD	FLAT:__unwindfunclet$?_Getcat@?$num_put@DV?$ostreambuf_iterator@DU?$char_traits@D@std@@@std@@@std@@SAIPAPBVfacet@locale@2@PBV42@@Z$1
__ehfuncinfo$?_Getcat@?$num_put@DV?$ostreambuf_iterator@DU?$char_traits@D@std@@@std@@@std@@SAIPAPBVfacet@locale@2@PBV42@@Z DD 019930522H
	DD	03H
	DD	FLAT:__unwindtable$?_Getcat@?$num_put@DV?$ostreambuf_iterator@DU?$char_traits@D@std@@@std@@@std@@SAIPAPBVfacet@locale@2@PBV42@@Z
	DD	2 DUP(00H)
	DD	2 DUP(00H)
	DD	00H
	DD	01H
xdata$x	ENDS
;	COMDAT xdata$x
xdata$x	SEGMENT
__unwindtable$??$use_facet@V?$num_put@DV?$ostreambuf_iterator@DU?$char_traits@D@std@@@std@@@std@@@std@@YAABV?$num_put@DV?$ostreambuf_iterator@DU?$char_traits@D@std@@@std@@@0@ABVlocale@0@@Z DD 0ffffffffH
	DD	FLAT:__unwindfunclet$??$use_facet@V?$num_put@DV?$ostreambuf_iterator@DU?$char_traits@D@std@@@std@@@std@@@std@@YAABV?$num_put@DV?$ostreambuf_iterator@DU?$char_traits@D@std@@@std@@@0@ABVlocale@0@@Z$0
__ehfuncinfo$??$use_facet@V?$num_put@DV?$ostreambuf_iterator@DU?$char_traits@D@std@@@std@@@std@@@std@@YAABV?$num_put@DV?$ostreambuf_iterator@DU?$char_traits@D@std@@@std@@@0@ABVlocale@0@@Z DD 019930522H
	DD	01H
	DD	FLAT:__unwindtable$??$use_facet@V?$num_put@DV?$ostreambuf_iterator@DU?$char_traits@D@std@@@std@@@std@@@std@@YAABV?$num_put@DV?$ostreambuf_iterator@DU?$char_traits@D@std@@@std@@@0@ABVlocale@0@@Z
	DD	2 DUP(00H)
	DD	2 DUP(00H)
	DD	00H
	DD	01H
xdata$x	ENDS
;	COMDAT xdata$x
xdata$x	SEGMENT
__unwindtable$??0?$basic_stringbuf@DU?$char_traits@D@std@@V?$allocator@D@2@@std@@QAE@H@Z DD 0ffffffffH
	DD	FLAT:__unwindfunclet$??0?$basic_stringbuf@DU?$char_traits@D@std@@V?$allocator@D@2@@std@@QAE@H@Z$0
__ehfuncinfo$??0?$basic_stringbuf@DU?$char_traits@D@std@@V?$allocator@D@2@@std@@QAE@H@Z DD 019930522H
	DD	01H
	DD	FLAT:__unwindtable$??0?$basic_stringbuf@DU?$char_traits@D@std@@V?$allocator@D@2@@std@@QAE@H@Z
	DD	2 DUP(00H)
	DD	2 DUP(00H)
	DD	00H
	DD	01H
xdata$x	ENDS
;	COMDAT xdata$x
xdata$x	SEGMENT
__unwindtable$??0?$basic_ostringstream@DU?$char_traits@D@std@@V?$allocator@D@2@@std@@QAE@H@Z DD 0ffffffffH
	DD	FLAT:__unwindfunclet$??0?$basic_ostringstream@DU?$char_traits@D@std@@V?$allocator@D@2@@std@@QAE@H@Z$0
	DD	00H
	DD	FLAT:__unwindfunclet$??0?$basic_ostringstream@DU?$char_traits@D@std@@V?$allocator@D@2@@std@@QAE@H@Z$1
__ehfuncinfo$??0?$basic_ostringstream@DU?$char_traits@D@std@@V?$allocator@D@2@@std@@QAE@H@Z DD 019930522H
	DD	02H
	DD	FLAT:__unwindtable$??0?$basic_ostringstream@DU?$char_traits@D@std@@V?$allocator@D@2@@std@@QAE@H@Z
	DD	2 DUP(00H)
	DD	2 DUP(00H)
	DD	00H
	DD	01H
xdata$x	ENDS
;	COMDAT xdata$x
xdata$x	SEGMENT
__unwindtable$??0sentry@?$basic_ostream@DU?$char_traits@D@std@@@std@@QAE@AAV12@@Z DD 0ffffffffH
	DD	FLAT:__unwindfunclet$??0sentry@?$basic_ostream@DU?$char_traits@D@std@@@std@@QAE@AAV12@@Z$0
__ehfuncinfo$??0sentry@?$basic_ostream@DU?$char_traits@D@std@@@std@@QAE@AAV12@@Z DD 019930522H
	DD	01H
	DD	FLAT:__unwindtable$??0sentry@?$basic_ostream@DU?$char_traits@D@std@@@std@@QAE@AAV12@@Z
	DD	2 DUP(00H)
	DD	2 DUP(00H)
	DD	00H
	DD	01H
xdata$x	ENDS
;	COMDAT xdata$x
xdata$x	SEGMENT
__unwindtable$??$construct@U_Container_proxy@std@@U12@@?$allocator@U_Container_proxy@std@@@std@@QAEXPAU_Container_proxy@1@$$QAU21@@Z DD 0ffffffffH
	DD	FLAT:__unwindfunclet$??$construct@U_Container_proxy@std@@U12@@?$allocator@U_Container_proxy@std@@@std@@QAEXPAU_Container_proxy@1@$$QAU21@@Z$0
__ehfuncinfo$??$construct@U_Container_proxy@std@@U12@@?$allocator@U_Container_proxy@std@@@std@@QAEXPAU_Container_proxy@1@$$QAU21@@Z DD 019930522H
	DD	01H
	DD	FLAT:__unwindtable$??$construct@U_Container_proxy@std@@U12@@?$allocator@U_Container_proxy@std@@@std@@QAEXPAU_Container_proxy@1@$$QAU21@@Z
	DD	2 DUP(00H)
	DD	2 DUP(00H)
	DD	00H
	DD	01H
xdata$x	ENDS
;	COMDAT xdata$x
xdata$x	SEGMENT
__catchsym$?_Init@?$numpunct@D@std@@IAEXABV_Locinfo@2@_N@Z$2 DD 040H
	DD	00H
	DD	00H
	DD	FLAT:__catch$?_Init@?$numpunct@D@std@@IAEXABV_Locinfo@2@_N@Z$0
__unwindtable$?_Init@?$numpunct@D@std@@IAEXABV_Locinfo@2@_N@Z DD 0ffffffffH
	DD	00H
	DD	0ffffffffH
	DD	00H
__tryblocktable$?_Init@?$numpunct@D@std@@IAEXABV_Locinfo@2@_N@Z DD 00H
	DD	00H
	DD	01H
	DD	01H
	DD	FLAT:__catchsym$?_Init@?$numpunct@D@std@@IAEXABV_Locinfo@2@_N@Z$2
__ehfuncinfo$?_Init@?$numpunct@D@std@@IAEXABV_Locinfo@2@_N@Z DD 019930522H
	DD	02H
	DD	FLAT:__unwindtable$?_Init@?$numpunct@D@std@@IAEXABV_Locinfo@2@_N@Z
	DD	01H
	DD	FLAT:__tryblocktable$?_Init@?$numpunct@D@std@@IAEXABV_Locinfo@2@_N@Z
	DD	2 DUP(00H)
	DD	00H
	DD	01H
xdata$x	ENDS
;	COMDAT xdata$x
xdata$x	SEGMENT
__unwindtable$?_Getcat@?$numpunct@D@std@@SAIPAPBVfacet@locale@2@PBV42@@Z DD 0ffffffffH
	DD	FLAT:__unwindfunclet$?_Getcat@?$numpunct@D@std@@SAIPAPBVfacet@locale@2@PBV42@@Z$0
	DD	00H
	DD	FLAT:__unwindfunclet$?_Getcat@?$numpunct@D@std@@SAIPAPBVfacet@locale@2@PBV42@@Z$1
	DD	0ffffffffH
	DD	FLAT:__unwindfunclet$?_Getcat@?$numpunct@D@std@@SAIPAPBVfacet@locale@2@PBV42@@Z$1
__ehfuncinfo$?_Getcat@?$numpunct@D@std@@SAIPAPBVfacet@locale@2@PBV42@@Z DD 019930522H
	DD	03H
	DD	FLAT:__unwindtable$?_Getcat@?$numpunct@D@std@@SAIPAPBVfacet@locale@2@PBV42@@Z
	DD	2 DUP(00H)
	DD	2 DUP(00H)
	DD	00H
	DD	01H
xdata$x	ENDS
;	COMDAT xdata$x
xdata$x	SEGMENT
__unwindtable$??0?$numpunct@D@std@@QAE@ABV_Locinfo@1@I_N@Z DD 0ffffffffH
	DD	FLAT:__unwindfunclet$??0?$numpunct@D@std@@QAE@ABV_Locinfo@1@I_N@Z$0
__ehfuncinfo$??0?$numpunct@D@std@@QAE@ABV_Locinfo@1@I_N@Z DD 019930522H
	DD	01H
	DD	FLAT:__unwindtable$??0?$numpunct@D@std@@QAE@ABV_Locinfo@1@I_N@Z
	DD	2 DUP(00H)
	DD	2 DUP(00H)
	DD	00H
	DD	01H
xdata$x	ENDS
;	COMDAT xdata$x
xdata$x	SEGMENT
__unwindtable$??$use_facet@V?$numpunct@D@std@@@std@@YAABV?$numpunct@D@0@ABVlocale@0@@Z DD 0ffffffffH
	DD	FLAT:__unwindfunclet$??$use_facet@V?$numpunct@D@std@@@std@@YAABV?$numpunct@D@0@ABVlocale@0@@Z$0
__ehfuncinfo$??$use_facet@V?$numpunct@D@std@@@std@@YAABV?$numpunct@D@0@ABVlocale@0@@Z DD 019930522H
	DD	01H
	DD	FLAT:__unwindtable$??$use_facet@V?$numpunct@D@std@@@std@@YAABV?$numpunct@D@0@ABVlocale@0@@Z
	DD	2 DUP(00H)
	DD	2 DUP(00H)
	DD	00H
	DD	01H
xdata$x	ENDS
;	COMDAT xdata$x
xdata$x	SEGMENT
__unwindtable$??$ttos@N@@YA?AV?$basic_string@DU?$char_traits@D@std@@V?$allocator@D@2@@std@@ABNH@Z DD 0ffffffffH
	DD	FLAT:__unwindfunclet$??$ttos@N@@YA?AV?$basic_string@DU?$char_traits@D@std@@V?$allocator@D@2@@std@@ABNH@Z$0
__ehfuncinfo$??$ttos@N@@YA?AV?$basic_string@DU?$char_traits@D@std@@V?$allocator@D@2@@std@@ABNH@Z DD 019930522H
	DD	01H
	DD	FLAT:__unwindtable$??$ttos@N@@YA?AV?$basic_string@DU?$char_traits@D@std@@V?$allocator@D@2@@std@@ABNH@Z
	DD	2 DUP(00H)
	DD	2 DUP(00H)
	DD	00H
	DD	01H
xdata$x	ENDS
xdata$x	SEGMENT
__ehfuncinfo$?RenderInfo@AttackTargetGoal_Evaluator@@UAEXUVector2D@@PAVRaven_Bot@@@Z DD 019930522H
	DD	09H
	DD	FLAT:__unwindtable$?RenderInfo@AttackTargetGoal_Evaluator@@UAEXUVector2D@@PAVRaven_Bot@@@Z
	DD	2 DUP(00H)
	DD	2 DUP(00H)
	DD	00H
	DD	01H
__unwindtable$?RenderInfo@AttackTargetGoal_Evaluator@@UAEXUVector2D@@PAVRaven_Bot@@@Z DD 0ffffffffH
	DD	FLAT:__unwindfunclet$?RenderInfo@AttackTargetGoal_Evaluator@@UAEXUVector2D@@PAVRaven_Bot@@@Z$0
	DD	00H
	DD	FLAT:__unwindfunclet$?RenderInfo@AttackTargetGoal_Evaluator@@UAEXUVector2D@@PAVRaven_Bot@@@Z$1
	DD	0ffffffffH
	DD	FLAT:__unwindfunclet$?RenderInfo@AttackTargetGoal_Evaluator@@UAEXUVector2D@@PAVRaven_Bot@@@Z$2
	DD	02H
	DD	FLAT:__unwindfunclet$?RenderInfo@AttackTargetGoal_Evaluator@@UAEXUVector2D@@PAVRaven_Bot@@@Z$3
	DD	03H
	DD	FLAT:__unwindfunclet$?RenderInfo@AttackTargetGoal_Evaluator@@UAEXUVector2D@@PAVRaven_Bot@@@Z$4
	DD	04H
	DD	FLAT:__unwindfunclet$?RenderInfo@AttackTargetGoal_Evaluator@@UAEXUVector2D@@PAVRaven_Bot@@@Z$5
	DD	03H
	DD	FLAT:__unwindfunclet$?RenderInfo@AttackTargetGoal_Evaluator@@UAEXUVector2D@@PAVRaven_Bot@@@Z$5
	DD	02H
	DD	FLAT:__unwindfunclet$?RenderInfo@AttackTargetGoal_Evaluator@@UAEXUVector2D@@PAVRaven_Bot@@@Z$5
	DD	0ffffffffH
	DD	FLAT:__unwindfunclet$?RenderInfo@AttackTargetGoal_Evaluator@@UAEXUVector2D@@PAVRaven_Bot@@@Z$5
xdata$x	ENDS
;	COMDAT xdata$x
xdata$x	SEGMENT
__unwindtable$?flush@?$basic_ostream@DU?$char_traits@D@std@@@std@@QAEAAV12@XZ DD 0ffffffffH
	DD	FLAT:__unwindfunclet$?flush@?$basic_ostream@DU?$char_traits@D@std@@@std@@QAEAAV12@XZ$0
__ehfuncinfo$?flush@?$basic_ostream@DU?$char_traits@D@std@@@std@@QAEAAV12@XZ DD 019930522H
	DD	01H
	DD	FLAT:__unwindtable$?flush@?$basic_ostream@DU?$char_traits@D@std@@@std@@QAEAAV12@XZ
	DD	2 DUP(00H)
	DD	2 DUP(00H)
	DD	00H
	DD	01H
xdata$x	ENDS
;	COMDAT xdata$x
xdata$x	SEGMENT
__catchsym$??6?$basic_ostream@DU?$char_traits@D@std@@@std@@QAEAAV01@N@Z$4 DD 040H
	DD	00H
	DD	00H
	DD	FLAT:__catch$??6?$basic_ostream@DU?$char_traits@D@std@@@std@@QAEAAV01@N@Z$0
__tryblocktable$??6?$basic_ostream@DU?$char_traits@D@std@@@std@@QAEAAV01@N@Z DD 02H
	DD	02H
	DD	03H
	DD	01H
	DD	FLAT:__catchsym$??6?$basic_ostream@DU?$char_traits@D@std@@@std@@QAEAAV01@N@Z$4
__unwindtable$??6?$basic_ostream@DU?$char_traits@D@std@@@std@@QAEAAV01@N@Z DD 0ffffffffH
	DD	FLAT:__unwindfunclet$??6?$basic_ostream@DU?$char_traits@D@std@@@std@@QAEAAV01@N@Z$2
	DD	00H
	DD	FLAT:__unwindfunclet$??6?$basic_ostream@DU?$char_traits@D@std@@@std@@QAEAAV01@N@Z$3
	DD	00H
	DD	00H
	DD	00H
	DD	00H
__ehfuncinfo$??6?$basic_ostream@DU?$char_traits@D@std@@@std@@QAEAAV01@N@Z DD 019930522H
	DD	04H
	DD	FLAT:__unwindtable$??6?$basic_ostream@DU?$char_traits@D@std@@@std@@QAEAAV01@N@Z
	DD	01H
	DD	FLAT:__tryblocktable$??6?$basic_ostream@DU?$char_traits@D@std@@@std@@QAEAAV01@N@Z
	DD	2 DUP(00H)
	DD	00H
	DD	01H
xdata$x	ENDS
;	COMDAT xdata$x
xdata$x	SEGMENT
__catchsym$?_Osfx@?$basic_ostream@DU?$char_traits@D@std@@@std@@QAEXXZ$2 DD 040H
	DD	00H
	DD	00H
	DD	FLAT:__catch$?_Osfx@?$basic_ostream@DU?$char_traits@D@std@@@std@@QAEXXZ$0
__unwindtable$?_Osfx@?$basic_ostream@DU?$char_traits@D@std@@@std@@QAEXXZ DD 0ffffffffH
	DD	00H
	DD	0ffffffffH
	DD	00H
__tryblocktable$?_Osfx@?$basic_ostream@DU?$char_traits@D@std@@@std@@QAEXXZ DD 00H
	DD	00H
	DD	01H
	DD	01H
	DD	FLAT:__catchsym$?_Osfx@?$basic_ostream@DU?$char_traits@D@std@@@std@@QAEXXZ$2
__ehfuncinfo$?_Osfx@?$basic_ostream@DU?$char_traits@D@std@@@std@@QAEXXZ DD 019930522H
	DD	02H
	DD	FLAT:__unwindtable$?_Osfx@?$basic_ostream@DU?$char_traits@D@std@@@std@@QAEXXZ
	DD	01H
	DD	FLAT:__tryblocktable$?_Osfx@?$basic_ostream@DU?$char_traits@D@std@@@std@@QAEXXZ
	DD	2 DUP(00H)
	DD	00H
	DD	01H
xdata$x	ENDS
;	COMDAT xdata$x
xdata$x	SEGMENT
__unwindtable$??0?$basic_ostream@DU?$char_traits@D@std@@@std@@QAE@PAV?$basic_streambuf@DU?$char_traits@D@std@@@1@_N@Z DD 0ffffffffH
	DD	FLAT:__unwindfunclet$??0?$basic_ostream@DU?$char_traits@D@std@@@std@@QAE@PAV?$basic_streambuf@DU?$char_traits@D@std@@@1@_N@Z$0
__ehfuncinfo$??0?$basic_ostream@DU?$char_traits@D@std@@@std@@QAE@PAV?$basic_streambuf@DU?$char_traits@D@std@@@1@_N@Z DD 019930522H
	DD	01H
	DD	FLAT:__unwindtable$??0?$basic_ostream@DU?$char_traits@D@std@@@std@@QAE@PAV?$basic_streambuf@DU?$char_traits@D@std@@@1@_N@Z
	DD	2 DUP(00H)
	DD	2 DUP(00H)
	DD	00H
	DD	01H
xdata$x	ENDS
;	COMDAT xdata$x
xdata$x	SEGMENT
__unwindtable$?widen@?$basic_ios@DU?$char_traits@D@std@@@std@@QBEDD@Z DD 0ffffffffH
	DD	FLAT:__unwindfunclet$?widen@?$basic_ios@DU?$char_traits@D@std@@@std@@QBEDD@Z$0
__ehfuncinfo$?widen@?$basic_ios@DU?$char_traits@D@std@@@std@@QBEDD@Z DD 019930522H
	DD	01H
	DD	FLAT:__unwindtable$?widen@?$basic_ios@DU?$char_traits@D@std@@@std@@QBEDD@Z
	DD	2 DUP(00H)
	DD	2 DUP(00H)
	DD	00H
	DD	01H
xdata$x	ENDS
;	COMDAT xdata$x
xdata$x	SEGMENT
__unwindtable$??0system_error@std@@QAE@Verror_code@1@PBD@Z DD 0ffffffffH
	DD	FLAT:__unwindfunclet$??0system_error@std@@QAE@Verror_code@1@PBD@Z$0
__ehfuncinfo$??0system_error@std@@QAE@Verror_code@1@PBD@Z DD 019930522H
	DD	01H
	DD	FLAT:__unwindtable$??0system_error@std@@QAE@Verror_code@1@PBD@Z
	DD	2 DUP(00H)
	DD	2 DUP(00H)
	DD	00H
	DD	01H
xdata$x	ENDS
;	COMDAT xdata$x
xdata$x	SEGMENT
__unwindtable$??0_System_error@std@@IAE@Verror_code@1@ABV?$basic_string@DU?$char_traits@D@std@@V?$allocator@D@2@@1@@Z DD 0ffffffffH
	DD	FLAT:__unwindfunclet$??0_System_error@std@@IAE@Verror_code@1@ABV?$basic_string@DU?$char_traits@D@std@@V?$allocator@D@2@@1@@Z$1
__ehfuncinfo$??0_System_error@std@@IAE@Verror_code@1@ABV?$basic_string@DU?$char_traits@D@std@@V?$allocator@D@2@@1@@Z DD 019930522H
	DD	01H
	DD	FLAT:__unwindtable$??0_System_error@std@@IAE@Verror_code@1@ABV?$basic_string@DU?$char_traits@D@std@@V?$allocator@D@2@@1@@Z
	DD	2 DUP(00H)
	DD	2 DUP(00H)
	DD	00H
	DD	01H
xdata$x	ENDS
;	COMDAT xdata$x
xdata$x	SEGMENT
__unwindtable$?_Makestr@_System_error@std@@CA?AV?$basic_string@DU?$char_traits@D@std@@V?$allocator@D@2@@2@Verror_code@2@V32@@Z DD 0ffffffffH
	DD	FLAT:__unwindfunclet$?_Makestr@_System_error@std@@CA?AV?$basic_string@DU?$char_traits@D@std@@V?$allocator@D@2@@2@Verror_code@2@V32@@Z$0
	DD	00H
	DD	FLAT:__unwindfunclet$?_Makestr@_System_error@std@@CA?AV?$basic_string@DU?$char_traits@D@std@@V?$allocator@D@2@@2@Verror_code@2@V32@@Z$1
__ehfuncinfo$?_Makestr@_System_error@std@@CA?AV?$basic_string@DU?$char_traits@D@std@@V?$allocator@D@2@@2@Verror_code@2@V32@@Z DD 019930522H
	DD	02H
	DD	FLAT:__unwindtable$?_Makestr@_System_error@std@@CA?AV?$basic_string@DU?$char_traits@D@std@@V?$allocator@D@2@@2@Verror_code@2@V32@@Z
	DD	2 DUP(00H)
	DD	2 DUP(00H)
	DD	00H
	DD	01H
xdata$x	ENDS
;	COMDAT xdata$x
xdata$x	SEGMENT
__unwindtable$??$use_facet@V?$ctype@D@std@@@std@@YAABV?$ctype@D@0@ABVlocale@0@@Z DD 0ffffffffH
	DD	FLAT:__unwindfunclet$??$use_facet@V?$ctype@D@std@@@std@@YAABV?$ctype@D@0@ABVlocale@0@@Z$0
__ehfuncinfo$??$use_facet@V?$ctype@D@std@@@std@@YAABV?$ctype@D@0@ABVlocale@0@@Z DD 019930522H
	DD	01H
	DD	FLAT:__unwindtable$??$use_facet@V?$ctype@D@std@@@std@@YAABV?$ctype@D@0@ABVlocale@0@@Z
	DD	2 DUP(00H)
	DD	2 DUP(00H)
	DD	00H
	DD	01H
xdata$x	ENDS
;	COMDAT xdata$x
xdata$x	SEGMENT
__unwindtable$?_Getcat@?$ctype@D@std@@SAIPAPBVfacet@locale@2@PBV42@@Z DD 0ffffffffH
	DD	FLAT:__unwindfunclet$?_Getcat@?$ctype@D@std@@SAIPAPBVfacet@locale@2@PBV42@@Z$0
	DD	00H
	DD	FLAT:__unwindfunclet$?_Getcat@?$ctype@D@std@@SAIPAPBVfacet@locale@2@PBV42@@Z$1
	DD	0ffffffffH
	DD	FLAT:__unwindfunclet$?_Getcat@?$ctype@D@std@@SAIPAPBVfacet@locale@2@PBV42@@Z$1
__ehfuncinfo$?_Getcat@?$ctype@D@std@@SAIPAPBVfacet@locale@2@PBV42@@Z DD 019930522H
	DD	03H
	DD	FLAT:__unwindtable$?_Getcat@?$ctype@D@std@@SAIPAPBVfacet@locale@2@PBV42@@Z
	DD	2 DUP(00H)
	DD	2 DUP(00H)
	DD	00H
	DD	01H
xdata$x	ENDS
;	COMDAT xdata$x
xdata$x	SEGMENT
__unwindtable$??0?$ctype@D@std@@QAE@ABV_Locinfo@1@I@Z DD 0ffffffffH
	DD	FLAT:__unwindfunclet$??0?$ctype@D@std@@QAE@ABV_Locinfo@1@I@Z$0
__ehfuncinfo$??0?$ctype@D@std@@QAE@ABV_Locinfo@1@I@Z DD 019930522H
	DD	01H
	DD	FLAT:__unwindtable$??0?$ctype@D@std@@QAE@ABV_Locinfo@1@I@Z
	DD	2 DUP(00H)
	DD	2 DUP(00H)
	DD	00H
	DD	01H
xdata$x	ENDS
;	COMDAT xdata$x
xdata$x	SEGMENT
__unwindtable$??0facet@locale@std@@IAE@I@Z DD 0ffffffffH
	DD	FLAT:__unwindfunclet$??0facet@locale@std@@IAE@I@Z$0
__ehfuncinfo$??0facet@locale@std@@IAE@I@Z DD 019930522H
	DD	01H
	DD	FLAT:__unwindtable$??0facet@locale@std@@IAE@I@Z
	DD	2 DUP(00H)
	DD	2 DUP(00H)
	DD	00H
	DD	01H
xdata$x	ENDS
;	COMDAT xdata$x
xdata$x	SEGMENT
__ehfuncinfo$??0_Locinfo@std@@QAE@PBD@Z DD 019930522H
	DD	07H
	DD	FLAT:__unwindtable$??0_Locinfo@std@@QAE@PBD@Z
	DD	2 DUP(00H)
	DD	2 DUP(00H)
	DD	00H
	DD	01H
__unwindtable$??0_Locinfo@std@@QAE@PBD@Z DD 0ffffffffH
	DD	FLAT:__unwindfunclet$??0_Locinfo@std@@QAE@PBD@Z$0
	DD	00H
	DD	FLAT:__unwindfunclet$??0_Locinfo@std@@QAE@PBD@Z$1
	DD	01H
	DD	FLAT:__unwindfunclet$??0_Locinfo@std@@QAE@PBD@Z$2
	DD	02H
	DD	FLAT:__unwindfunclet$??0_Locinfo@std@@QAE@PBD@Z$3
	DD	03H
	DD	FLAT:__unwindfunclet$??0_Locinfo@std@@QAE@PBD@Z$4
	DD	04H
	DD	FLAT:__unwindfunclet$??0_Locinfo@std@@QAE@PBD@Z$5
	DD	05H
	DD	FLAT:__unwindfunclet$??0_Locinfo@std@@QAE@PBD@Z$6
xdata$x	ENDS
;	COMDAT xdata$x
xdata$x	SEGMENT
__catchsym$?_Copy@?$basic_string@DU?$char_traits@D@std@@V?$allocator@D@2@@std@@QAEXII@Z$5 DD 040H
	DD	00H
	DD	00H
	DD	FLAT:__catch$?_Copy@?$basic_string@DU?$char_traits@D@std@@V?$allocator@D@2@@std@@QAEXII@Z$0
__catchsym$?_Copy@?$basic_string@DU?$char_traits@D@std@@V?$allocator@D@2@@std@@QAEXII@Z$4 DD 040H
	DD	00H
	DD	00H
	DD	FLAT:__catch$?_Copy@?$basic_string@DU?$char_traits@D@std@@V?$allocator@D@2@@std@@QAEXII@Z$1
__unwindtable$?_Copy@?$basic_string@DU?$char_traits@D@std@@V?$allocator@D@2@@std@@QAEXII@Z DD 0ffffffffH
	DD	00H
	DD	0ffffffffH
	DD	00H
	DD	01H
	DD	00H
	DD	01H
	DD	00H
__ehfuncinfo$?_Copy@?$basic_string@DU?$char_traits@D@std@@V?$allocator@D@2@@std@@QAEXII@Z DD 019930522H
	DD	04H
	DD	FLAT:__unwindtable$?_Copy@?$basic_string@DU?$char_traits@D@std@@V?$allocator@D@2@@std@@QAEXII@Z
	DD	02H
	DD	FLAT:__tryblocktable$?_Copy@?$basic_string@DU?$char_traits@D@std@@V?$allocator@D@2@@std@@QAEXII@Z
	DD	2 DUP(00H)
	DD	00H
	DD	01H
__tryblocktable$?_Copy@?$basic_string@DU?$char_traits@D@std@@V?$allocator@D@2@@std@@QAEXII@Z DD 02H
	DD	02H
	DD	03H
	DD	01H
	DD	FLAT:__catchsym$?_Copy@?$basic_string@DU?$char_traits@D@std@@V?$allocator@D@2@@std@@QAEXII@Z$4
	DD	00H
	DD	00H
	DD	03H
	DD	01H
	DD	FLAT:__catchsym$?_Copy@?$basic_string@DU?$char_traits@D@std@@V?$allocator@D@2@@std@@QAEXII@Z$5
xdata$x	ENDS
;	COMDAT xdata$x
xdata$x	SEGMENT
__unwindtable$??0?$basic_string@DU?$char_traits@D@std@@V?$allocator@D@2@@std@@QAE@ID@Z DD 0ffffffffH
	DD	FLAT:__unwindfunclet$??0?$basic_string@DU?$char_traits@D@std@@V?$allocator@D@2@@std@@QAE@ID@Z$0
__ehfuncinfo$??0?$basic_string@DU?$char_traits@D@std@@V?$allocator@D@2@@std@@QAE@ID@Z DD 019930522H
	DD	01H
	DD	FLAT:__unwindtable$??0?$basic_string@DU?$char_traits@D@std@@V?$allocator@D@2@@std@@QAE@ID@Z
	DD	2 DUP(00H)
	DD	2 DUP(00H)
	DD	00H
	DD	01H
xdata$x	ENDS
;	COMDAT xdata$x
xdata$x	SEGMENT
__unwindtable$??0?$basic_string@DU?$char_traits@D@std@@V?$allocator@D@2@@std@@QAE@PBD@Z DD 0ffffffffH
	DD	FLAT:__unwindfunclet$??0?$basic_string@DU?$char_traits@D@std@@V?$allocator@D@2@@std@@QAE@PBD@Z$0
__ehfuncinfo$??0?$basic_string@DU?$char_traits@D@std@@V?$allocator@D@2@@std@@QAE@PBD@Z DD 019930522H
	DD	01H
	DD	FLAT:__unwindtable$??0?$basic_string@DU?$char_traits@D@std@@V?$allocator@D@2@@std@@QAE@PBD@Z
	DD	2 DUP(00H)
	DD	2 DUP(00H)
	DD	00H
	DD	01H
xdata$x	ENDS
;	COMDAT xdata$x
xdata$x	SEGMENT
__unwindtable$??0?$basic_string@DU?$char_traits@D@std@@V?$allocator@D@2@@std@@QAE@PBDI@Z DD 0ffffffffH
	DD	FLAT:__unwindfunclet$??0?$basic_string@DU?$char_traits@D@std@@V?$allocator@D@2@@std@@QAE@PBDI@Z$0
__ehfuncinfo$??0?$basic_string@DU?$char_traits@D@std@@V?$allocator@D@2@@std@@QAE@PBDI@Z DD 019930522H
	DD	01H
	DD	FLAT:__unwindtable$??0?$basic_string@DU?$char_traits@D@std@@V?$allocator@D@2@@std@@QAE@PBDI@Z
	DD	2 DUP(00H)
	DD	2 DUP(00H)
	DD	00H
	DD	01H
xdata$x	ENDS
;	COMDAT xdata$x
xdata$x	SEGMENT
__unwindtable$??0?$basic_string@DU?$char_traits@D@std@@V?$allocator@D@2@@std@@QAE@XZ DD 0ffffffffH
	DD	FLAT:__unwindfunclet$??0?$basic_string@DU?$char_traits@D@std@@V?$allocator@D@2@@std@@QAE@XZ$0
__ehfuncinfo$??0?$basic_string@DU?$char_traits@D@std@@V?$allocator@D@2@@std@@QAE@XZ DD 019930522H
	DD	01H
	DD	FLAT:__unwindtable$??0?$basic_string@DU?$char_traits@D@std@@V?$allocator@D@2@@std@@QAE@XZ
	DD	2 DUP(00H)
	DD	2 DUP(00H)
	DD	00H
	DD	01H
xdata$x	ENDS
;	COMDAT xdata$x
xdata$x	SEGMENT
__unwindtable$??0?$basic_string@DU?$char_traits@D@std@@V?$allocator@D@2@@std@@QAE@ABV01@@Z DD 0ffffffffH
	DD	FLAT:__unwindfunclet$??0?$basic_string@DU?$char_traits@D@std@@V?$allocator@D@2@@std@@QAE@ABV01@@Z$0
__ehfuncinfo$??0?$basic_string@DU?$char_traits@D@std@@V?$allocator@D@2@@std@@QAE@ABV01@@Z DD 019930522H
	DD	01H
	DD	FLAT:__unwindtable$??0?$basic_string@DU?$char_traits@D@std@@V?$allocator@D@2@@std@@QAE@ABV01@@Z
	DD	2 DUP(00H)
	DD	2 DUP(00H)
	DD	00H
	DD	01H
xdata$x	ENDS
;	COMDAT xdata$x
xdata$x	SEGMENT
__unwindtable$??0?$_String_alloc@$0A@U?$_String_base_types@DV?$allocator@D@std@@@std@@@std@@QAE@ABV?$allocator@D@1@@Z DD 0ffffffffH
	DD	FLAT:__unwindfunclet$??0?$_String_alloc@$0A@U?$_String_base_types@DV?$allocator@D@std@@@std@@@std@@QAE@ABV?$allocator@D@1@@Z$0
__ehfuncinfo$??0?$_String_alloc@$0A@U?$_String_base_types@DV?$allocator@D@std@@@std@@@std@@QAE@ABV?$allocator@D@1@@Z DD 019930522H
	DD	01H
	DD	FLAT:__unwindtable$??0?$_String_alloc@$0A@U?$_String_base_types@DV?$allocator@D@std@@@std@@@std@@QAE@ABV?$allocator@D@1@@Z
	DD	2 DUP(00H)
	DD	2 DUP(00H)
	DD	00H
	DD	01H
xdata$x	ENDS
CRT$XCU	SEGMENT
_allocator_arg$initializer$ DD FLAT:??__Eallocator_arg@std@@YAXXZ
CRT$XCU	ENDS
CRT$XCU	SEGMENT
_ignore$initializer$ DD FLAT:??__Eignore@std@@YAXXZ
CRT$XCU	ENDS
CRT$XCU	SEGMENT
__Tuple_alloc$initializer$ DD FLAT:??__E_Tuple_alloc@std@@YAXXZ
CRT$XCU	ENDS
CRT$XCU	SEGMENT
_MaxInt$initializer$ DD FLAT:??__EMaxInt@@YAXXZ
CRT$XCU	ENDS
CRT$XCU	SEGMENT
_MaxDouble$initializer$ DD FLAT:??__EMaxDouble@@YAXXZ
CRT$XCU	ENDS
CRT$XCU	SEGMENT
_MinDouble$initializer$ DD FLAT:??__EMinDouble@@YAXXZ
CRT$XCU	ENDS
CRT$XCU	SEGMENT
_MaxFloat$initializer$ DD FLAT:??__EMaxFloat@@YAXXZ
CRT$XCU	ENDS
CRT$XCU	SEGMENT
_MinFloat$initializer$ DD FLAT:??__EMinFloat@@YAXXZ
CRT$XCU	ENDS
CRT$XCU	SEGMENT
_TwoPi$initializer$ DD FLAT:??__ETwoPi@@YAXXZ
CRT$XCU	ENDS
CRT$XCU	SEGMENT
_HalfPi$initializer$ DD FLAT:??__EHalfPi@@YAXXZ
CRT$XCU	ENDS
CRT$XCU	SEGMENT
_QuarterPi$initializer$ DD FLAT:??__EQuarterPi@@YAXXZ
CRT$XCU	ENDS
;	COMDAT CRT$XCU
CRT$XCU	SEGMENT
?_Generic_object$initializer$@?$_Error_objects@H@std@@2P6AXXZA DD FLAT:??__E?_Generic_object@?$_Error_objects@H@std@@2V_Generic_error_category@2@A@@YAXXZ ; std::_Error_objects<int>::_Generic_object$initializer$
CRT$XCU	ENDS
;	COMDAT CRT$XCU
CRT$XCU	SEGMENT
?_Iostream_object$initializer$@?$_Error_objects@H@std@@2P6AXXZA DD FLAT:??__E?_Iostream_object@?$_Error_objects@H@std@@2V_Iostream_error_category@2@A@@YAXXZ ; std::_Error_objects<int>::_Iostream_object$initializer$
CRT$XCU	ENDS
;	COMDAT CRT$XCU
CRT$XCU	SEGMENT
?_System_object$initializer$@?$_Error_objects@H@std@@2P6AXXZA DD FLAT:??__E?_System_object@?$_Error_objects@H@std@@2V_System_error_category@2@A@@YAXXZ ; std::_Error_objects<int>::_System_object$initializer$
CRT$XCU	ENDS
;	COMDAT CRT$XCU
CRT$XCU	SEGMENT
?id$initializer$@?$num_put@DV?$back_insert_iterator@V?$basic_string@DU?$char_traits@D@std@@V?$allocator@D@2@@std@@@std@@@std@@2P6AXXZA DD FLAT:??__E?id@?$num_put@DV?$back_insert_iterator@V?$basic_string@DU?$char_traits@D@std@@V?$allocator@D@2@@std@@@std@@@std@@2V0locale@2@A@@YAXXZ ; std::num_put<char,std::back_insert_iterator<std::basic_string<char,std::char_traits<char>,std::allocator<char> > > >::id$initializer$
CRT$XCU	ENDS
;	COMDAT CRT$XCU
CRT$XCU	SEGMENT
?id$initializer$@?$num_put@_WV?$back_insert_iterator@V?$basic_string@_WU?$char_traits@_W@std@@V?$allocator@_W@2@@std@@@std@@@std@@2P6AXXZA DD FLAT:??__E?id@?$num_put@_WV?$back_insert_iterator@V?$basic_string@_WU?$char_traits@_W@std@@V?$allocator@_W@2@@std@@@std@@@std@@2V0locale@2@A@@YAXXZ ; std::num_put<wchar_t,std::back_insert_iterator<std::basic_string<wchar_t,std::char_traits<wchar_t>,std::allocator<wchar_t> > > >::id$initializer$
CRT$XCU	ENDS
;	COMDAT CRT$XCU
CRT$XCU	SEGMENT
?id$initializer$@?$numpunct@D@std@@2P6AXXZA DD FLAT:??__E?id@?$numpunct@D@std@@2V0locale@2@A@@YAXXZ ; std::numpunct<char>::id$initializer$
CRT$XCU	ENDS
;	COMDAT CRT$XCU
CRT$XCU	SEGMENT
?id$initializer$@?$numpunct@_W@std@@2P6AXXZA DD FLAT:??__E?id@?$numpunct@_W@std@@2V0locale@2@A@@YAXXZ ; std::numpunct<wchar_t>::id$initializer$
CRT$XCU	ENDS
;	COMDAT CRT$XCU
CRT$XCU	SEGMENT
?id$initializer$@?$codecvt@DDH@std@@2P6AXXZA DD FLAT:??__E?id@?$codecvt@DDH@std@@2V0locale@2@A@@YAXXZ ; std::codecvt<char,char,int>::id$initializer$
CRT$XCU	ENDS
;	COMDAT CRT$XCU
CRT$XCU	SEGMENT
?id$initializer$@?$num_put@DV?$ostreambuf_iterator@DU?$char_traits@D@std@@@std@@@std@@2P6AXXZA DD FLAT:??__E?id@?$num_put@DV?$ostreambuf_iterator@DU?$char_traits@D@std@@@std@@@std@@2V0locale@2@A@@YAXXZ ; std::num_put<char,std::ostreambuf_iterator<char,std::char_traits<char> > >::id$initializer$
CRT$XCU	ENDS
; Function compile flags: /Odsp /RTCsu
;	COMDAT ??_E?$basic_ostringstream@DU?$char_traits@D@std@@V?$allocator@D@2@@std@@$4PPPPPPPM@A@AEPAXI@Z
_TEXT	SEGMENT
??_E?$basic_ostringstream@DU?$char_traits@D@std@@V?$allocator@D@2@@std@@$4PPPPPPPM@A@AEPAXI@Z PROC ; std::basic_ostringstream<char,std::char_traits<char>,std::allocator<char> >::`vector deleting destructor', COMDAT
	sub	ecx, DWORD PTR [ecx-4]
	jmp	??_E?$basic_ostringstream@DU?$char_traits@D@std@@V?$allocator@D@2@@std@@UAEPAXI@Z
??_E?$basic_ostringstream@DU?$char_traits@D@std@@V?$allocator@D@2@@std@@$4PPPPPPPM@A@AEPAXI@Z ENDP ; std::basic_ostringstream<char,std::char_traits<char>,std::allocator<char> >::`vector deleting destructor'
_TEXT	ENDS
; Function compile flags: /Odsp /RTCsu
;	COMDAT ??_E?$basic_ostream@DU?$char_traits@D@std@@@std@@$4PPPPPPPM@A@AEPAXI@Z
_TEXT	SEGMENT
??_E?$basic_ostream@DU?$char_traits@D@std@@@std@@$4PPPPPPPM@A@AEPAXI@Z PROC ; std::basic_ostream<char,std::char_traits<char> >::`vector deleting destructor', COMDAT
	sub	ecx, DWORD PTR [ecx-4]
	jmp	??_E?$basic_ostream@DU?$char_traits@D@std@@@std@@UAEPAXI@Z
??_E?$basic_ostream@DU?$char_traits@D@std@@@std@@$4PPPPPPPM@A@AEPAXI@Z ENDP ; std::basic_ostream<char,std::char_traits<char> >::`vector deleting destructor'
_TEXT	ENDS
; Function compile flags: /Odtp /RTCsu
; File c:\program files (x86)\microsoft visual studio 12.0\vc\include\xlocnum
;	COMDAT ??__E?id@?$num_put@DV?$ostreambuf_iterator@DU?$char_traits@D@std@@@std@@@std@@2V0locale@2@A@@YAXXZ
text$di	SEGMENT
??__E?id@?$num_put@DV?$ostreambuf_iterator@DU?$char_traits@D@std@@@std@@@std@@2V0locale@2@A@@YAXXZ PROC ; `dynamic initializer for 'std::num_put<char,std::ostreambuf_iterator<char,std::char_traits<char> > >::id'', COMDAT

; 1567 : 	__PURE_APPDOMAIN_GLOBAL locale::id num_put<_Elem, _OutIt>::id;

	push	ebp
	mov	ebp, esp
	push	0
	mov	ecx, OFFSET ?id@?$num_put@DV?$ostreambuf_iterator@DU?$char_traits@D@std@@@std@@@std@@2V0locale@2@A ; std::num_put<char,std::ostreambuf_iterator<char,std::char_traits<char> > >::id
	call	??0id@locale@std@@QAE@I@Z		; std::locale::id::id
	cmp	ebp, esp
	call	__RTC_CheckEsp
	pop	ebp
	ret	0
??__E?id@?$num_put@DV?$ostreambuf_iterator@DU?$char_traits@D@std@@@std@@@std@@2V0locale@2@A@@YAXXZ ENDP ; `dynamic initializer for 'std::num_put<char,std::ostreambuf_iterator<char,std::char_traits<char> > >::id''
text$di	ENDS
; Function compile flags: /Odtp /RTCsu
; File c:\program files (x86)\microsoft visual studio 12.0\vc\include\xmemory0
;	COMDAT ??$destroy@PAD@?$allocator@D@std@@QAEXPAPAD@Z
_TEXT	SEGMENT
_this$ = -4						; size = 4
__Ptr$ = 8						; size = 4
??$destroy@PAD@?$allocator@D@std@@QAEXPAPAD@Z PROC	; std::allocator<char>::destroy<char *>, COMDAT
; _this$ = ecx

; 605  : 		void destroy(_Uty *_Ptr)

	push	ebp
	mov	ebp, esp
	push	ecx
	mov	DWORD PTR [ebp-4], -858993460		; ccccccccH
	mov	DWORD PTR _this$[ebp], ecx

; 606  : 		{	// destroy object at _Ptr
; 607  : 		_Ptr->~_Uty();
; 608  : 		}

	mov	esp, ebp
	pop	ebp
	ret	4
??$destroy@PAD@?$allocator@D@std@@QAEXPAPAD@Z ENDP	; std::allocator<char>::destroy<char *>
_TEXT	ENDS
; Function compile flags: /Odtp /RTCsu
; File c:\program files (x86)\microsoft visual studio 12.0\vc\include\xmemory0
;	COMDAT ??$construct@PADAAPAD@?$allocator@D@std@@QAEXPAPADAAPAD@Z
_TEXT	SEGMENT
tv73 = -28						; size = 4
$T2 = -24						; size = 4
$T3 = -20						; size = 4
_this$ = -16						; size = 4
__$EHRec$ = -12						; size = 12
__Ptr$ = 8						; size = 4
_<_Args_0>$ = 12					; size = 4
??$construct@PADAAPAD@?$allocator@D@std@@QAEXPAPADAAPAD@Z PROC ; std::allocator<char>::construct<char *,char * &>, COMDAT
; _this$ = ecx

; 598  : 		void construct(_Objty *_Ptr, _Types&&... _Args)

	push	ebp
	mov	ebp, esp
	push	-1
	push	__ehhandler$??$construct@PADAAPAD@?$allocator@D@std@@QAEXPAPADAAPAD@Z
	mov	eax, DWORD PTR fs:0
	push	eax
	sub	esp, 16					; 00000010H
	mov	eax, -858993460				; ccccccccH
	mov	DWORD PTR [ebp-28], eax
	mov	DWORD PTR [ebp-24], eax
	mov	DWORD PTR [ebp-20], eax
	mov	DWORD PTR [ebp-16], eax
	mov	eax, DWORD PTR ___security_cookie
	xor	eax, ebp
	push	eax
	lea	eax, DWORD PTR __$EHRec$[ebp]
	mov	DWORD PTR fs:0, eax
	mov	DWORD PTR _this$[ebp], ecx

; 599  : 		{	// construct _Objty(_Types...) at _Ptr
; 600  : 		::new ((void *)_Ptr) _Objty(_STD forward<_Types>(_Args)...);

	mov	eax, DWORD PTR __Ptr$[ebp]
	push	eax
	push	4
	call	??2@YAPAXIPAX@Z				; operator new
	add	esp, 8
	mov	DWORD PTR $T2[ebp], eax
	mov	DWORD PTR __$EHRec$[ebp+8], 0
	cmp	DWORD PTR $T2[ebp], 0
	je	SHORT $LN3@construct
	mov	ecx, DWORD PTR _<_Args_0>$[ebp]
	push	ecx
	call	??$forward@AAPAD@std@@YAAAPADAAPAD@Z	; std::forward<char * &>
	add	esp, 4
	mov	edx, DWORD PTR $T2[ebp]
	mov	eax, DWORD PTR [eax]
	mov	DWORD PTR [edx], eax
	mov	ecx, DWORD PTR $T2[ebp]
	mov	DWORD PTR tv73[ebp], ecx
	jmp	SHORT $LN4@construct
$LN3@construct:
	mov	DWORD PTR tv73[ebp], 0
$LN4@construct:
	mov	edx, DWORD PTR tv73[ebp]
	mov	DWORD PTR $T3[ebp], edx
	mov	DWORD PTR __$EHRec$[ebp+8], -1

; 601  : 		}

	mov	ecx, DWORD PTR __$EHRec$[ebp]
	mov	DWORD PTR fs:0, ecx
	pop	ecx
	add	esp, 28					; 0000001cH
	cmp	ebp, esp
	call	__RTC_CheckEsp
	mov	esp, ebp
	pop	ebp
	ret	8
_TEXT	ENDS
;	COMDAT text$x
text$x	SEGMENT
__unwindfunclet$??$construct@PADAAPAD@?$allocator@D@std@@QAEXPAPADAAPAD@Z$0:
	mov	eax, DWORD PTR __Ptr$[ebp]
	push	eax
	mov	eax, DWORD PTR $T2[ebp]
	push	eax
	call	??3@YAXPAX0@Z				; operator delete
	add	esp, 8
	ret	0
__ehhandler$??$construct@PADAAPAD@?$allocator@D@std@@QAEXPAPADAAPAD@Z:
	mov	edx, DWORD PTR [esp+8]
	lea	eax, DWORD PTR [edx+12]
	mov	ecx, DWORD PTR [edx-20]
	xor	ecx, eax
	call	@__security_check_cookie@4
	mov	eax, OFFSET __ehfuncinfo$??$construct@PADAAPAD@?$allocator@D@std@@QAEXPAPADAAPAD@Z
	jmp	___CxxFrameHandler3
text$x	ENDS
??$construct@PADAAPAD@?$allocator@D@std@@QAEXPAPADAAPAD@Z ENDP ; std::allocator<char>::construct<char *,char * &>
; Function compile flags: /Odtp /RTCsu
; File c:\program files (x86)\microsoft visual studio 12.0\vc\include\xlocale
;	COMDAT ??__E?id@?$codecvt@DDH@std@@2V0locale@2@A@@YAXXZ
text$di	SEGMENT
??__E?id@?$codecvt@DDH@std@@2V0locale@2@A@@YAXXZ PROC	; `dynamic initializer for 'std::codecvt<char,char,int>::id'', COMDAT

; 988  : 	__PURE_APPDOMAIN_GLOBAL locale::id codecvt<_Elem, _Byte, _Statype>::id;

	push	ebp
	mov	ebp, esp
	push	0
	mov	ecx, OFFSET ?id@?$codecvt@DDH@std@@2V0locale@2@A ; std::codecvt<char,char,int>::id
	call	??0id@locale@std@@QAE@I@Z		; std::locale::id::id
	cmp	ebp, esp
	call	__RTC_CheckEsp
	pop	ebp
	ret	0
??__E?id@?$codecvt@DDH@std@@2V0locale@2@A@@YAXXZ ENDP	; `dynamic initializer for 'std::codecvt<char,char,int>::id''
text$di	ENDS
; Function compile flags: /Odtp /RTCsu
; File c:\program files (x86)\microsoft visual studio 12.0\vc\include\xlocnum
;	COMDAT ??__E?id@?$numpunct@_W@std@@2V0locale@2@A@@YAXXZ
text$di	SEGMENT
??__E?id@?$numpunct@_W@std@@2V0locale@2@A@@YAXXZ PROC	; `dynamic initializer for 'std::numpunct<wchar_t>::id'', COMDAT

; 254  : 	__PURE_APPDOMAIN_GLOBAL locale::id numpunct<_Elem>::id;

	push	ebp
	mov	ebp, esp
	push	0
	mov	ecx, OFFSET ?id@?$numpunct@_W@std@@2V0locale@2@A ; std::numpunct<wchar_t>::id
	call	??0id@locale@std@@QAE@I@Z		; std::locale::id::id
	cmp	ebp, esp
	call	__RTC_CheckEsp
	pop	ebp
	ret	0
??__E?id@?$numpunct@_W@std@@2V0locale@2@A@@YAXXZ ENDP	; `dynamic initializer for 'std::numpunct<wchar_t>::id''
text$di	ENDS
; Function compile flags: /Odtp /RTCsu
; File c:\program files (x86)\microsoft visual studio 12.0\vc\include\xlocnum
;	COMDAT ??__E?id@?$numpunct@D@std@@2V0locale@2@A@@YAXXZ
text$di	SEGMENT
??__E?id@?$numpunct@D@std@@2V0locale@2@A@@YAXXZ PROC	; `dynamic initializer for 'std::numpunct<char>::id'', COMDAT

; 254  : 	__PURE_APPDOMAIN_GLOBAL locale::id numpunct<_Elem>::id;

	push	ebp
	mov	ebp, esp
	push	0
	mov	ecx, OFFSET ?id@?$numpunct@D@std@@2V0locale@2@A ; std::numpunct<char>::id
	call	??0id@locale@std@@QAE@I@Z		; std::locale::id::id
	cmp	ebp, esp
	call	__RTC_CheckEsp
	pop	ebp
	ret	0
??__E?id@?$numpunct@D@std@@2V0locale@2@A@@YAXXZ ENDP	; `dynamic initializer for 'std::numpunct<char>::id''
text$di	ENDS
; Function compile flags: /Odtp /RTCsu
; File c:\program files (x86)\microsoft visual studio 12.0\vc\include\xlocnum
;	COMDAT ??__E?id@?$num_put@_WV?$back_insert_iterator@V?$basic_string@_WU?$char_traits@_W@std@@V?$allocator@_W@2@@std@@@std@@@std@@2V0locale@2@A@@YAXXZ
text$di	SEGMENT
??__E?id@?$num_put@_WV?$back_insert_iterator@V?$basic_string@_WU?$char_traits@_W@std@@V?$allocator@_W@2@@std@@@std@@@std@@2V0locale@2@A@@YAXXZ PROC ; `dynamic initializer for 'std::num_put<wchar_t,std::back_insert_iterator<std::basic_string<wchar_t,std::char_traits<wchar_t>,std::allocator<wchar_t> > > >::id'', COMDAT

; 1567 : 	__PURE_APPDOMAIN_GLOBAL locale::id num_put<_Elem, _OutIt>::id;

	push	ebp
	mov	ebp, esp
	push	0
	mov	ecx, OFFSET ?id@?$num_put@_WV?$back_insert_iterator@V?$basic_string@_WU?$char_traits@_W@std@@V?$allocator@_W@2@@std@@@std@@@std@@2V0locale@2@A ; std::num_put<wchar_t,std::back_insert_iterator<std::basic_string<wchar_t,std::char_traits<wchar_t>,std::allocator<wchar_t> > > >::id
	call	??0id@locale@std@@QAE@I@Z		; std::locale::id::id
	cmp	ebp, esp
	call	__RTC_CheckEsp
	pop	ebp
	ret	0
??__E?id@?$num_put@_WV?$back_insert_iterator@V?$basic_string@_WU?$char_traits@_W@std@@V?$allocator@_W@2@@std@@@std@@@std@@2V0locale@2@A@@YAXXZ ENDP ; `dynamic initializer for 'std::num_put<wchar_t,std::back_insert_iterator<std::basic_string<wchar_t,std::char_traits<wchar_t>,std::allocator<wchar_t> > > >::id''
text$di	ENDS
; Function compile flags: /Odtp /RTCsu
; File c:\program files (x86)\microsoft visual studio 12.0\vc\include\xlocnum
;	COMDAT ??__E?id@?$num_put@DV?$back_insert_iterator@V?$basic_string@DU?$char_traits@D@std@@V?$allocator@D@2@@std@@@std@@@std@@2V0locale@2@A@@YAXXZ
text$di	SEGMENT
??__E?id@?$num_put@DV?$back_insert_iterator@V?$basic_string@DU?$char_traits@D@std@@V?$allocator@D@2@@std@@@std@@@std@@2V0locale@2@A@@YAXXZ PROC ; `dynamic initializer for 'std::num_put<char,std::back_insert_iterator<std::basic_string<char,std::char_traits<char>,std::allocator<char> > > >::id'', COMDAT

; 1567 : 	__PURE_APPDOMAIN_GLOBAL locale::id num_put<_Elem, _OutIt>::id;

	push	ebp
	mov	ebp, esp
	push	0
	mov	ecx, OFFSET ?id@?$num_put@DV?$back_insert_iterator@V?$basic_string@DU?$char_traits@D@std@@V?$allocator@D@2@@std@@@std@@@std@@2V0locale@2@A ; std::num_put<char,std::back_insert_iterator<std::basic_string<char,std::char_traits<char>,std::allocator<char> > > >::id
	call	??0id@locale@std@@QAE@I@Z		; std::locale::id::id
	cmp	ebp, esp
	call	__RTC_CheckEsp
	pop	ebp
	ret	0
??__E?id@?$num_put@DV?$back_insert_iterator@V?$basic_string@DU?$char_traits@D@std@@V?$allocator@D@2@@std@@@std@@@std@@2V0locale@2@A@@YAXXZ ENDP ; `dynamic initializer for 'std::num_put<char,std::back_insert_iterator<std::basic_string<char,std::char_traits<char>,std::allocator<char> > > >::id''
text$di	ENDS
; Function compile flags: /Odtp /RTCsu
; File c:\program files (x86)\microsoft visual studio 12.0\vc\include\xlocnum
;	COMDAT ??$_Getvals@D@?$numpunct@D@std@@IAEXDPBUlconv@@U_Cvtvec@@@Z
_TEXT	SEGMENT
_this$ = -4						; size = 4
___formal$ = 8						; size = 1
__Ptr$ = 12						; size = 4
__Cvt$ = 16						; size = 44
??$_Getvals@D@?$numpunct@D@std@@IAEXDPBUlconv@@U_Cvtvec@@@Z PROC ; std::numpunct<char>::_Getvals<char>, COMDAT
; _this$ = ecx

; 148  : 		void _Getvals(_Elem2, const lconv *_Ptr, _Locinfo::_Cvtvec _Cvt)

	push	ebp
	mov	ebp, esp
	push	ecx
	mov	DWORD PTR [ebp-4], -858993460		; ccccccccH
	mov	DWORD PTR _this$[ebp], ecx

; 149  : 		{	// get values
; 150  : 		_Dp = _MAKLOCCHR(_Elem2, _Ptr->decimal_point[0], _Cvt);

	lea	eax, DWORD PTR __Cvt$[ebp]
	push	eax
	push	0
	mov	ecx, 1
	imul	edx, ecx, 0
	mov	eax, DWORD PTR __Ptr$[ebp]
	mov	ecx, DWORD PTR [eax]
	movzx	edx, BYTE PTR [ecx+edx]
	push	edx
	call	??$_Maklocchr@D@std@@YADDPADABU_Cvtvec@@@Z ; std::_Maklocchr<char>
	add	esp, 12					; 0000000cH
	mov	ecx, DWORD PTR _this$[ebp]
	mov	BYTE PTR [ecx+12], al

; 151  : 		_Kseparator = _MAKLOCCHR(_Elem2, _Ptr->thousands_sep[0], _Cvt);

	lea	edx, DWORD PTR __Cvt$[ebp]
	push	edx
	push	0
	mov	eax, 1
	imul	ecx, eax, 0
	mov	edx, DWORD PTR __Ptr$[ebp]
	mov	eax, DWORD PTR [edx+4]
	movzx	ecx, BYTE PTR [eax+ecx]
	push	ecx
	call	??$_Maklocchr@D@std@@YADDPADABU_Cvtvec@@@Z ; std::_Maklocchr<char>
	add	esp, 12					; 0000000cH
	mov	edx, DWORD PTR _this$[ebp]
	mov	BYTE PTR [edx+13], al

; 152  : 		}

	add	esp, 4
	cmp	ebp, esp
	call	__RTC_CheckEsp
	mov	esp, ebp
	pop	ebp
	ret	52					; 00000034H
??$_Getvals@D@?$numpunct@D@std@@IAEXDPBUlconv@@U_Cvtvec@@@Z ENDP ; std::numpunct<char>::_Getvals<char>
_TEXT	ENDS
; Function compile flags: /Odtp /RTCsu
; File c:\program files (x86)\microsoft visual studio 12.0\vc\include\xlocale
;	COMDAT ??$_Maklocchr@D@std@@YADDPADABU_Cvtvec@@@Z
_TEXT	SEGMENT
__Byte$ = 8						; size = 1
___formal$ = 12						; size = 4
___formal$ = 16						; size = 4
??$_Maklocchr@D@std@@YADDPADABU_Cvtvec@@@Z PROC		; std::_Maklocchr<char>, COMDAT

; 694  : 	{	// convert char to _Elem using _Cvtvec

	push	ebp
	mov	ebp, esp

; 695  : 	return ((_Elem)(unsigned char)_Byte);

	mov	al, BYTE PTR __Byte$[ebp]

; 696  : 	}

	pop	ebp
	ret	0
??$_Maklocchr@D@std@@YADDPADABU_Cvtvec@@@Z ENDP		; std::_Maklocchr<char>
_TEXT	ENDS
; Function compile flags: /Odtp /RTCsu
; File c:\program files (x86)\microsoft visual studio 12.0\vc\include\xlocale
;	COMDAT ??$_Maklocstr@D@std@@YAPADPBDPADABU_Cvtvec@@@Z
_TEXT	SEGMENT
$T1 = -16						; size = 4
__Ptrnext$2 = -12					; size = 4
__Ptrdest$ = -8						; size = 4
__Count$ = -4						; size = 4
__Ptr$ = 8						; size = 4
___formal$ = 12						; size = 4
___formal$ = 16						; size = 4
??$_Maklocstr@D@std@@YAPADPBDPADABU_Cvtvec@@@Z PROC	; std::_Maklocstr<char>, COMDAT

; 727  : 	{	// convert C string to _Elem sequence using _Cvtvec

	push	ebp
	mov	ebp, esp
	sub	esp, 16					; 00000010H
	mov	eax, -858993460				; ccccccccH
	mov	DWORD PTR [ebp-16], eax
	mov	DWORD PTR [ebp-12], eax
	mov	DWORD PTR [ebp-8], eax
	mov	DWORD PTR [ebp-4], eax

; 728  : 	size_t _Count = _CSTD strlen(_Ptr) + 1;

	mov	eax, DWORD PTR __Ptr$[ebp]
	push	eax
	call	_strlen
	add	esp, 4
	add	eax, 1
	mov	DWORD PTR __Count$[ebp], eax

; 729  : 	_Elem *_Ptrdest = _NEW_CRT _Elem[_Count];

	push	729					; 000002d9H
	push	OFFSET ??_C@_0EH@EPAENFJM@C?3?2Program?5Files?5?$CIx86?$CJ?2Microsoft@
	call	?_DebugHeapTag_func@std@@YAABU_DebugHeapTag_t@1@XZ ; std::_DebugHeapTag_func
	push	eax
	mov	ecx, DWORD PTR __Count$[ebp]
	push	ecx
	call	??_U@YAPAXIABU_DebugHeapTag_t@std@@PADH@Z ; operator new[]
	add	esp, 16					; 00000010H
	mov	DWORD PTR $T1[ebp], eax
	mov	edx, DWORD PTR $T1[ebp]
	mov	DWORD PTR __Ptrdest$[ebp], edx

; 730  : 
; 731  :  #pragma warning(push)
; 732  :  #pragma warning(disable: 6011)	/* quiet prefast noise */
; 733  : 	for (_Elem *_Ptrnext = _Ptrdest; 0 < _Count; --_Count, ++_Ptrnext, ++_Ptr)

	mov	eax, DWORD PTR __Ptrdest$[ebp]
	mov	DWORD PTR __Ptrnext$2[ebp], eax
	jmp	SHORT $LN3@Maklocstr
$LN2@Maklocstr:
	mov	ecx, DWORD PTR __Count$[ebp]
	sub	ecx, 1
	mov	DWORD PTR __Count$[ebp], ecx
	mov	edx, DWORD PTR __Ptrnext$2[ebp]
	add	edx, 1
	mov	DWORD PTR __Ptrnext$2[ebp], edx
	mov	eax, DWORD PTR __Ptr$[ebp]
	add	eax, 1
	mov	DWORD PTR __Ptr$[ebp], eax
$LN3@Maklocstr:
	cmp	DWORD PTR __Count$[ebp], 0
	jbe	SHORT $LN1@Maklocstr

; 734  : 		*_Ptrnext = (_Elem)(unsigned char)*_Ptr;

	mov	ecx, DWORD PTR __Ptrnext$2[ebp]
	mov	edx, DWORD PTR __Ptr$[ebp]
	mov	al, BYTE PTR [edx]
	mov	BYTE PTR [ecx], al
	jmp	SHORT $LN2@Maklocstr
$LN1@Maklocstr:

; 735  :  #pragma warning(pop)
; 736  : 
; 737  : 	return (_Ptrdest);

	mov	eax, DWORD PTR __Ptrdest$[ebp]

; 738  : 	}

	add	esp, 16					; 00000010H
	cmp	ebp, esp
	call	__RTC_CheckEsp
	mov	esp, ebp
	pop	ebp
	ret	0
??$_Maklocstr@D@std@@YAPADPBDPADABU_Cvtvec@@@Z ENDP	; std::_Maklocstr<char>
_TEXT	ENDS
; Function compile flags: /Odtp /RTCsu
; File c:\program files (x86)\microsoft visual studio 12.0\vc\include\xutility
;	COMDAT ??$_Debug_pointer@V?$ostreambuf_iterator@DU?$char_traits@D@std@@@std@@@std@@YAXAAV?$ostreambuf_iterator@DU?$char_traits@D@std@@@0@PB_WI@Z
_TEXT	SEGMENT
___formal$ = 8						; size = 4
___formal$ = 12						; size = 4
___formal$ = 16						; size = 4
??$_Debug_pointer@V?$ostreambuf_iterator@DU?$char_traits@D@std@@@std@@@std@@YAXAAV?$ostreambuf_iterator@DU?$char_traits@D@std@@@0@PB_WI@Z PROC ; std::_Debug_pointer<std::ostreambuf_iterator<char,std::char_traits<char> > >, COMDAT

; 540  : 	{	// test pointer for non-singularity, arbitrary type

	push	ebp
	mov	ebp, esp

; 541  : 	}

	pop	ebp
	ret	0
??$_Debug_pointer@V?$ostreambuf_iterator@DU?$char_traits@D@std@@@std@@@std@@YAXAAV?$ostreambuf_iterator@DU?$char_traits@D@std@@@0@PB_WI@Z ENDP ; std::_Debug_pointer<std::ostreambuf_iterator<char,std::char_traits<char> > >
_TEXT	ENDS
; Function compile flags: /Odtp /RTCsu
; File c:\program files (x86)\microsoft visual studio 12.0\vc\include\streambuf
;	COMDAT ?failed@?$ostreambuf_iterator@DU?$char_traits@D@std@@@std@@QBE_NXZ
_TEXT	SEGMENT
_this$ = -4						; size = 4
?failed@?$ostreambuf_iterator@DU?$char_traits@D@std@@@std@@QBE_NXZ PROC ; std::ostreambuf_iterator<char,std::char_traits<char> >::failed, COMDAT
; _this$ = ecx

; 655  : 		{	// return true if any stores failed

	push	ebp
	mov	ebp, esp
	push	ecx
	mov	DWORD PTR [ebp-4], -858993460		; ccccccccH
	mov	DWORD PTR _this$[ebp], ecx

; 656  : 		return (_Failed);

	mov	eax, DWORD PTR _this$[ebp]
	mov	al, BYTE PTR [eax]

; 657  : 		}

	mov	esp, ebp
	pop	ebp
	ret	0
?failed@?$ostreambuf_iterator@DU?$char_traits@D@std@@@std@@QBE_NXZ ENDP ; std::ostreambuf_iterator<char,std::char_traits<char> >::failed
_TEXT	ENDS
; Function compile flags: /Odtp /RTCsu
; File c:\program files (x86)\microsoft visual studio 12.0\vc\include\streambuf
;	COMDAT ??E?$ostreambuf_iterator@DU?$char_traits@D@std@@@std@@QAEAAV01@XZ
_TEXT	SEGMENT
_this$ = -4						; size = 4
??E?$ostreambuf_iterator@DU?$char_traits@D@std@@@std@@QAEAAV01@XZ PROC ; std::ostreambuf_iterator<char,std::char_traits<char> >::operator++, COMDAT
; _this$ = ecx

; 645  : 		{	// pretend to preincrement

	push	ebp
	mov	ebp, esp
	push	ecx
	mov	DWORD PTR [ebp-4], -858993460		; ccccccccH
	mov	DWORD PTR _this$[ebp], ecx

; 646  : 		return (*this);

	mov	eax, DWORD PTR _this$[ebp]

; 647  : 		}

	mov	esp, ebp
	pop	ebp
	ret	0
??E?$ostreambuf_iterator@DU?$char_traits@D@std@@@std@@QAEAAV01@XZ ENDP ; std::ostreambuf_iterator<char,std::char_traits<char> >::operator++
_TEXT	ENDS
; Function compile flags: /Odtp /RTCsu
; File c:\program files (x86)\microsoft visual studio 12.0\vc\include\streambuf
;	COMDAT ??D?$ostreambuf_iterator@DU?$char_traits@D@std@@@std@@QAEAAV01@XZ
_TEXT	SEGMENT
_this$ = -4						; size = 4
??D?$ostreambuf_iterator@DU?$char_traits@D@std@@@std@@QAEAAV01@XZ PROC ; std::ostreambuf_iterator<char,std::char_traits<char> >::operator*, COMDAT
; _this$ = ecx

; 640  : 		{	// pretend to get designated element

	push	ebp
	mov	ebp, esp
	push	ecx
	mov	DWORD PTR [ebp-4], -858993460		; ccccccccH
	mov	DWORD PTR _this$[ebp], ecx

; 641  : 		return (*this);

	mov	eax, DWORD PTR _this$[ebp]

; 642  : 		}

	mov	esp, ebp
	pop	ebp
	ret	0
??D?$ostreambuf_iterator@DU?$char_traits@D@std@@@std@@QAEAAV01@XZ ENDP ; std::ostreambuf_iterator<char,std::char_traits<char> >::operator*
_TEXT	ENDS
; Function compile flags: /Odtp /RTCsu
; File c:\program files (x86)\microsoft visual studio 12.0\vc\include\streambuf
;	COMDAT ??4?$ostreambuf_iterator@DU?$char_traits@D@std@@@std@@QAEAAV01@D@Z
_TEXT	SEGMENT
$T1 = -12						; size = 4
$T2 = -8						; size = 4
_this$ = -4						; size = 4
__Right$ = 8						; size = 1
??4?$ostreambuf_iterator@DU?$char_traits@D@std@@@std@@QAEAAV01@D@Z PROC ; std::ostreambuf_iterator<char,std::char_traits<char> >::operator=, COMDAT
; _this$ = ecx

; 631  : 		{	// store element and increment

	push	ebp
	mov	ebp, esp
	sub	esp, 12					; 0000000cH
	mov	DWORD PTR [ebp-12], -858993460		; ccccccccH
	mov	DWORD PTR [ebp-8], -858993460		; ccccccccH
	mov	DWORD PTR [ebp-4], -858993460		; ccccccccH
	mov	DWORD PTR _this$[ebp], ecx

; 632  : 		if (_Strbuf == 0
; 633  : 			|| traits_type::eq_int_type(_Traits::eof(),
; 634  : 				_Strbuf->sputc(_Right)))

	mov	eax, DWORD PTR _this$[ebp]
	cmp	DWORD PTR [eax+4], 0
	je	SHORT $LN1@operator
	movzx	ecx, BYTE PTR __Right$[ebp]
	push	ecx
	mov	edx, DWORD PTR _this$[ebp]
	mov	ecx, DWORD PTR [edx+4]
	call	?sputc@?$basic_streambuf@DU?$char_traits@D@std@@@std@@QAEHD@Z ; std::basic_streambuf<char,std::char_traits<char> >::sputc
	mov	DWORD PTR $T2[ebp], eax
	call	?eof@?$char_traits@D@std@@SAHXZ		; std::char_traits<char>::eof
	mov	DWORD PTR $T1[ebp], eax
	lea	eax, DWORD PTR $T2[ebp]
	push	eax
	lea	ecx, DWORD PTR $T1[ebp]
	push	ecx
	call	?eq_int_type@?$char_traits@D@std@@SA_NABH0@Z ; std::char_traits<char>::eq_int_type
	add	esp, 8
	movzx	edx, al
	test	edx, edx
	je	SHORT $LN2@operator
$LN1@operator:

; 635  : 			_Failed = true;

	mov	eax, DWORD PTR _this$[ebp]
	mov	BYTE PTR [eax], 1
$LN2@operator:

; 636  : 		return (*this);

	mov	eax, DWORD PTR _this$[ebp]

; 637  : 		}

	add	esp, 12					; 0000000cH
	cmp	ebp, esp
	call	__RTC_CheckEsp
	mov	esp, ebp
	pop	ebp
	ret	4
??4?$ostreambuf_iterator@DU?$char_traits@D@std@@@std@@QAEAAV01@D@Z ENDP ; std::ostreambuf_iterator<char,std::char_traits<char> >::operator=
_TEXT	ENDS
; Function compile flags: /Odtp /RTCsu
; File c:\program files (x86)\microsoft visual studio 12.0\vc\include\streambuf
;	COMDAT ??0?$ostreambuf_iterator@DU?$char_traits@D@std@@@std@@QAE@PAV?$basic_streambuf@DU?$char_traits@D@std@@@1@@Z
_TEXT	SEGMENT
_this$ = -4						; size = 4
__Sb$ = 8						; size = 4
??0?$ostreambuf_iterator@DU?$char_traits@D@std@@@std@@QAE@PAV?$basic_streambuf@DU?$char_traits@D@std@@@1@@Z PROC ; std::ostreambuf_iterator<char,std::char_traits<char> >::ostreambuf_iterator<char,std::char_traits<char> >, COMDAT
; _this$ = ecx

; 622  : 		{	// construct from stream buffer _Sb

	push	ebp
	mov	ebp, esp
	push	ecx
	mov	DWORD PTR [ebp-4], -858993460		; ccccccccH
	mov	DWORD PTR _this$[ebp], ecx
	mov	eax, DWORD PTR _this$[ebp]
	mov	BYTE PTR [eax], 0
	mov	ecx, DWORD PTR _this$[ebp]
	mov	edx, DWORD PTR __Sb$[ebp]
	mov	DWORD PTR [ecx+4], edx

; 623  : 		}

	mov	eax, DWORD PTR _this$[ebp]
	mov	esp, ebp
	pop	ebp
	ret	4
??0?$ostreambuf_iterator@DU?$char_traits@D@std@@@std@@QAE@PAV?$basic_streambuf@DU?$char_traits@D@std@@@1@@Z ENDP ; std::ostreambuf_iterator<char,std::char_traits<char> >::ostreambuf_iterator<char,std::char_traits<char> >
_TEXT	ENDS
; Function compile flags: /Odtp /RTCsu
;	COMDAT ??_G?$num_put@DV?$ostreambuf_iterator@DU?$char_traits@D@std@@@std@@@std@@MAEPAXI@Z
_TEXT	SEGMENT
_this$ = -4						; size = 4
___flags$ = 8						; size = 4
??_G?$num_put@DV?$ostreambuf_iterator@DU?$char_traits@D@std@@@std@@@std@@MAEPAXI@Z PROC ; std::num_put<char,std::ostreambuf_iterator<char,std::char_traits<char> > >::`scalar deleting destructor', COMDAT
; _this$ = ecx
	push	ebp
	mov	ebp, esp
	push	ecx
	mov	DWORD PTR [ebp-4], -858993460		; ccccccccH
	mov	DWORD PTR _this$[ebp], ecx
	mov	ecx, DWORD PTR _this$[ebp]
	call	??1?$num_put@DV?$ostreambuf_iterator@DU?$char_traits@D@std@@@std@@@std@@MAE@XZ ; std::num_put<char,std::ostreambuf_iterator<char,std::char_traits<char> > >::~num_put<char,std::ostreambuf_iterator<char,std::char_traits<char> > >
	mov	eax, DWORD PTR ___flags$[ebp]
	and	eax, 1
	je	SHORT $LN1@scalar
	mov	ecx, DWORD PTR _this$[ebp]
	push	ecx
	call	??3facet@locale@std@@SAXPAX@Z		; std::locale::facet::operator delete
	add	esp, 4
$LN1@scalar:
	mov	eax, DWORD PTR _this$[ebp]
	add	esp, 4
	cmp	ebp, esp
	call	__RTC_CheckEsp
	mov	esp, ebp
	pop	ebp
	ret	4
??_G?$num_put@DV?$ostreambuf_iterator@DU?$char_traits@D@std@@@std@@@std@@MAEPAXI@Z ENDP ; std::num_put<char,std::ostreambuf_iterator<char,std::char_traits<char> > >::`scalar deleting destructor'
_TEXT	ENDS
; Function compile flags: /Odtp /RTCsu
; File c:\program files (x86)\microsoft visual studio 12.0\vc\include\xlocnum
;	COMDAT ?_Rep@?$num_put@DV?$ostreambuf_iterator@DU?$char_traits@D@std@@@std@@@std@@ABA?AV?$ostreambuf_iterator@DU?$char_traits@D@std@@@2@V32@DI@Z
_TEXT	SEGMENT
_this$ = 8						; size = 4
___$ReturnUdt$ = 12					; size = 4
__Dest$ = 16						; size = 8
__Ch$ = 24						; size = 1
__Count$ = 28						; size = 4
?_Rep@?$num_put@DV?$ostreambuf_iterator@DU?$char_traits@D@std@@@std@@@std@@ABA?AV?$ostreambuf_iterator@DU?$char_traits@D@std@@@2@V32@DI@Z PROC ; std::num_put<char,std::ostreambuf_iterator<char,std::char_traits<char> > >::_Rep, COMDAT

; 1557 : 		{	// put _Count * _Ch to _Dest

	push	ebp
	mov	ebp, esp

; 1558 : 		for (; 0 < _Count; --_Count, ++_Dest)

	jmp	SHORT $LN3@Rep
$LN2@Rep:
	mov	eax, DWORD PTR __Count$[ebp]
	sub	eax, 1
	mov	DWORD PTR __Count$[ebp], eax
	lea	ecx, DWORD PTR __Dest$[ebp]
	call	??E?$ostreambuf_iterator@DU?$char_traits@D@std@@@std@@QAEAAV01@XZ ; std::ostreambuf_iterator<char,std::char_traits<char> >::operator++
$LN3@Rep:
	cmp	DWORD PTR __Count$[ebp], 0
	jbe	SHORT $LN1@Rep

; 1559 : 			*_Dest = _Ch;

	movzx	ecx, BYTE PTR __Ch$[ebp]
	push	ecx
	lea	ecx, DWORD PTR __Dest$[ebp]
	call	??D?$ostreambuf_iterator@DU?$char_traits@D@std@@@std@@QAEAAV01@XZ ; std::ostreambuf_iterator<char,std::char_traits<char> >::operator*
	mov	ecx, eax
	call	??4?$ostreambuf_iterator@DU?$char_traits@D@std@@@std@@QAEAAV01@D@Z ; std::ostreambuf_iterator<char,std::char_traits<char> >::operator=
	jmp	SHORT $LN2@Rep
$LN1@Rep:

; 1560 : 		return (_Dest);

	mov	edx, DWORD PTR ___$ReturnUdt$[ebp]
	mov	eax, DWORD PTR __Dest$[ebp]
	mov	DWORD PTR [edx], eax
	mov	ecx, DWORD PTR __Dest$[ebp+4]
	mov	DWORD PTR [edx+4], ecx
	mov	eax, DWORD PTR ___$ReturnUdt$[ebp]

; 1561 : 		}

	cmp	ebp, esp
	call	__RTC_CheckEsp
	pop	ebp
	ret	0
?_Rep@?$num_put@DV?$ostreambuf_iterator@DU?$char_traits@D@std@@@std@@@std@@ABA?AV?$ostreambuf_iterator@DU?$char_traits@D@std@@@2@V32@DI@Z ENDP ; std::num_put<char,std::ostreambuf_iterator<char,std::char_traits<char> > >::_Rep
_TEXT	ENDS
; Function compile flags: /Odtp /RTCsu
; File c:\program files (x86)\microsoft visual studio 12.0\vc\include\xlocnum
;	COMDAT ?_Put@?$num_put@DV?$ostreambuf_iterator@DU?$char_traits@D@std@@@std@@@std@@ABA?AV?$ostreambuf_iterator@DU?$char_traits@D@std@@@2@V32@PBDI@Z
_TEXT	SEGMENT
_this$ = 8						; size = 4
___$ReturnUdt$ = 12					; size = 4
__Dest$ = 16						; size = 8
__Ptr$ = 24						; size = 4
__Count$ = 28						; size = 4
?_Put@?$num_put@DV?$ostreambuf_iterator@DU?$char_traits@D@std@@@std@@@std@@ABA?AV?$ostreambuf_iterator@DU?$char_traits@D@std@@@2@V32@PBDI@Z PROC ; std::num_put<char,std::ostreambuf_iterator<char,std::char_traits<char> > >::_Put, COMDAT

; 1549 : 		{	// put [_Ptr, _Ptr + _Count) to _Dest

	push	ebp
	mov	ebp, esp

; 1550 : 		for (; 0 < _Count; --_Count, ++_Dest, ++_Ptr)

	jmp	SHORT $LN3@Put
$LN2@Put:
	mov	eax, DWORD PTR __Count$[ebp]
	sub	eax, 1
	mov	DWORD PTR __Count$[ebp], eax
	lea	ecx, DWORD PTR __Dest$[ebp]
	call	??E?$ostreambuf_iterator@DU?$char_traits@D@std@@@std@@QAEAAV01@XZ ; std::ostreambuf_iterator<char,std::char_traits<char> >::operator++
	mov	ecx, DWORD PTR __Ptr$[ebp]
	add	ecx, 1
	mov	DWORD PTR __Ptr$[ebp], ecx
$LN3@Put:
	cmp	DWORD PTR __Count$[ebp], 0
	jbe	SHORT $LN1@Put

; 1551 : 			*_Dest = *_Ptr;

	mov	edx, DWORD PTR __Ptr$[ebp]
	movzx	eax, BYTE PTR [edx]
	push	eax
	lea	ecx, DWORD PTR __Dest$[ebp]
	call	??D?$ostreambuf_iterator@DU?$char_traits@D@std@@@std@@QAEAAV01@XZ ; std::ostreambuf_iterator<char,std::char_traits<char> >::operator*
	mov	ecx, eax
	call	??4?$ostreambuf_iterator@DU?$char_traits@D@std@@@std@@QAEAAV01@D@Z ; std::ostreambuf_iterator<char,std::char_traits<char> >::operator=
	jmp	SHORT $LN2@Put
$LN1@Put:

; 1552 : 		return (_Dest);

	mov	ecx, DWORD PTR ___$ReturnUdt$[ebp]
	mov	edx, DWORD PTR __Dest$[ebp]
	mov	DWORD PTR [ecx], edx
	mov	eax, DWORD PTR __Dest$[ebp+4]
	mov	DWORD PTR [ecx+4], eax
	mov	eax, DWORD PTR ___$ReturnUdt$[ebp]

; 1553 : 		}

	cmp	ebp, esp
	call	__RTC_CheckEsp
	pop	ebp
	ret	0
?_Put@?$num_put@DV?$ostreambuf_iterator@DU?$char_traits@D@std@@@std@@@std@@ABA?AV?$ostreambuf_iterator@DU?$char_traits@D@std@@@2@V32@PBDI@Z ENDP ; std::num_put<char,std::ostreambuf_iterator<char,std::char_traits<char> > >::_Put
_TEXT	ENDS
; Function compile flags: /Odtp /RTCsu
; File c:\program files (x86)\microsoft visual studio 12.0\vc\include\xlocnum
;	COMDAT ?_Iput@?$num_put@DV?$ostreambuf_iterator@DU?$char_traits@D@std@@@std@@@std@@ABA?AV?$ostreambuf_iterator@DU?$char_traits@D@std@@@2@V32@AAVios_base@2@DPADI@Z
_TEXT	SEGMENT
tv200 = -204						; size = 4
tv326 = -200						; size = 8
tv273 = -192						; size = 4
tv134 = -188						; size = 4
tv270 = -184						; size = 4
tv277 = -180						; size = 4
tv72 = -176						; size = 4
$T2 = -172						; size = 8
$T3 = -164						; size = 8
$T4 = -156						; size = 8
$T5 = -148						; size = 8
$T6 = -140						; size = 8
$T7 = -132						; size = 8
$T8 = -124						; size = 4
$T9 = -120						; size = 4
__Adjustfield$ = -116					; size = 4
__Fillcount$ = -112					; size = 4
__Kseparator$10 = -105					; size = 1
__Pg$ = -104						; size = 4
__Grouping$ = -96					; size = 28
__Punct_fac$ = -64					; size = 4
__Groupstring$ = -56					; size = 28
__Ctype_fac$ = -24					; size = 4
__Prefix$ = -20						; size = 4
__$ArrayPad$ = -16					; size = 4
__$EHRec$ = -12						; size = 12
_this$ = 8						; size = 4
___$ReturnUdt$ = 12					; size = 4
__Dest$ = 16						; size = 8
__Iosbase$ = 24						; size = 4
__Fill$ = 28						; size = 1
__Buf$ = 32						; size = 4
__Count$ = 36						; size = 4
?_Iput@?$num_put@DV?$ostreambuf_iterator@DU?$char_traits@D@std@@@std@@@std@@ABA?AV?$ostreambuf_iterator@DU?$char_traits@D@std@@@2@V32@AAVios_base@2@DPADI@Z PROC ; std::num_put<char,std::ostreambuf_iterator<char,std::char_traits<char> > >::_Iput, COMDAT

; 1489 : 		{	// put formatted integer to _Dest

	push	ebp
	mov	ebp, esp
	push	-1
	push	__ehhandler$?_Iput@?$num_put@DV?$ostreambuf_iterator@DU?$char_traits@D@std@@@std@@@std@@ABA?AV?$ostreambuf_iterator@DU?$char_traits@D@std@@@2@V32@AAVios_base@2@DPADI@Z
	mov	eax, DWORD PTR fs:0
	push	eax
	sub	esp, 192				; 000000c0H
	push	edi
	lea	edi, DWORD PTR [ebp-204]
	mov	ecx, 48					; 00000030H
	mov	eax, -858993460				; ccccccccH
	rep stosd
	mov	eax, DWORD PTR ___security_cookie
	xor	eax, ebp
	mov	DWORD PTR __$ArrayPad$[ebp], eax
	push	eax
	lea	eax, DWORD PTR __$EHRec$[ebp]
	mov	DWORD PTR fs:0, eax

; 1490 : 		_DEBUG_POINTER(_Dest);

	push	1490					; 000005d2H
	push	OFFSET ??_C@_1IO@NNKGFJII@?$AAC?$AA?3?$AA?2?$AAP?$AAr?$AAo?$AAg?$AAr?$AAa?$AAm?$AA?5?$AAF?$AAi?$AAl?$AAe?$AAs?$AA?5?$AA?$CI?$AAx?$AA8?$AA6?$AA?$CJ?$AA?2?$AAM?$AAi?$AAc?$AAr?$AAo?$AAs?$AAo?$AAf?$AAt@
	lea	eax, DWORD PTR __Dest$[ebp]
	push	eax
	call	??$_Debug_pointer@V?$ostreambuf_iterator@DU?$char_traits@D@std@@@std@@@std@@YAXAAV?$ostreambuf_iterator@DU?$char_traits@D@std@@@0@PB_WI@Z ; std::_Debug_pointer<std::ostreambuf_iterator<char,std::char_traits<char> > >
	add	esp, 12					; 0000000cH

; 1491 : 		size_t _Prefix = 0 < _Count && (*_Buf == '+' || *_Buf == '-')
; 1492 : 			? 1 : 0;

	cmp	DWORD PTR __Count$[ebp], 0
	jbe	SHORT $LN14@Iput
	mov	ecx, DWORD PTR __Buf$[ebp]
	movsx	edx, BYTE PTR [ecx]
	cmp	edx, 43					; 0000002bH
	je	SHORT $LN13@Iput
	mov	eax, DWORD PTR __Buf$[ebp]
	movsx	ecx, BYTE PTR [eax]
	cmp	ecx, 45					; 0000002dH
	jne	SHORT $LN14@Iput
$LN13@Iput:
	mov	DWORD PTR tv72[ebp], 1
	jmp	SHORT $LN15@Iput
$LN14@Iput:
	mov	DWORD PTR tv72[ebp], 0
$LN15@Iput:
	mov	edx, DWORD PTR tv72[ebp]
	mov	DWORD PTR __Prefix$[ebp], edx

; 1493 : 		if ((_Iosbase.flags() & ios_base::basefield) == ios_base::hex
; 1494 : 			&& _Prefix + 2 <= _Count && _Buf[_Prefix] == '0'
; 1495 : 			&& (_Buf[_Prefix + 1] == 'x' || _Buf[_Prefix + 1] == 'X'))

	mov	ecx, DWORD PTR __Iosbase$[ebp]
	call	?flags@ios_base@std@@QBEHXZ		; std::ios_base::flags
	and	eax, 3584				; 00000e00H
	cmp	eax, 2048				; 00000800H
	jne	SHORT $LN10@Iput
	mov	eax, DWORD PTR __Prefix$[ebp]
	add	eax, 2
	cmp	eax, DWORD PTR __Count$[ebp]
	ja	SHORT $LN10@Iput
	mov	ecx, DWORD PTR __Buf$[ebp]
	add	ecx, DWORD PTR __Prefix$[ebp]
	movsx	edx, BYTE PTR [ecx]
	cmp	edx, 48					; 00000030H
	jne	SHORT $LN10@Iput
	mov	eax, DWORD PTR __Buf$[ebp]
	add	eax, DWORD PTR __Prefix$[ebp]
	movsx	ecx, BYTE PTR [eax+1]
	cmp	ecx, 120				; 00000078H
	je	SHORT $LN9@Iput
	mov	edx, DWORD PTR __Buf$[ebp]
	add	edx, DWORD PTR __Prefix$[ebp]
	movsx	eax, BYTE PTR [edx+1]
	cmp	eax, 88					; 00000058H
	jne	SHORT $LN10@Iput
$LN9@Iput:

; 1496 : 			_Prefix += 2;

	mov	ecx, DWORD PTR __Prefix$[ebp]
	add	ecx, 2
	mov	DWORD PTR __Prefix$[ebp], ecx
$LN10@Iput:

; 1497 : 
; 1498 : 		const ctype<_Elem>& _Ctype_fac =
; 1499 : 			_USE(_Iosbase.getloc(), ctype<_Elem>);

	lea	edx, DWORD PTR $T9[ebp]
	push	edx
	mov	ecx, DWORD PTR __Iosbase$[ebp]
	call	?getloc@ios_base@std@@QBE?AVlocale@2@XZ	; std::ios_base::getloc
	mov	DWORD PTR tv277[ebp], eax
	mov	eax, DWORD PTR tv277[ebp]
	mov	DWORD PTR tv270[ebp], eax
	mov	DWORD PTR __$EHRec$[ebp+8], 0
	mov	ecx, DWORD PTR tv270[ebp]
	push	ecx
	call	??$use_facet@V?$ctype@D@std@@@std@@YAABV?$ctype@D@0@ABVlocale@0@@Z ; std::use_facet<std::ctype<char> >
	add	esp, 4
	mov	DWORD PTR __Ctype_fac$[ebp], eax
	mov	DWORD PTR __$EHRec$[ebp+8], -1
	lea	ecx, DWORD PTR $T9[ebp]
	call	??1locale@std@@QAE@XZ			; std::locale::~locale

; 1500 : 		_Mystr _Groupstring(_Count, _Elem(0));	// reserve space

	push	0
	mov	edx, DWORD PTR __Count$[ebp]
	push	edx
	lea	ecx, DWORD PTR __Groupstring$[ebp]
	call	??0?$basic_string@DU?$char_traits@D@std@@V?$allocator@D@2@@std@@QAE@ID@Z ; std::basic_string<char,std::char_traits<char>,std::allocator<char> >::basic_string<char,std::char_traits<char>,std::allocator<char> >
	mov	DWORD PTR __$EHRec$[ebp+8], 1

; 1501 : 		_Ctype_fac.widen(&_Buf[0], &_Buf[_Count], &_Groupstring[0]);

	push	0
	lea	ecx, DWORD PTR __Groupstring$[ebp]
	call	??A?$basic_string@DU?$char_traits@D@std@@V?$allocator@D@2@@std@@QAEAADI@Z ; std::basic_string<char,std::char_traits<char>,std::allocator<char> >::operator[]
	push	eax
	mov	eax, DWORD PTR __Buf$[ebp]
	add	eax, DWORD PTR __Count$[ebp]
	push	eax
	mov	ecx, 1
	imul	edx, ecx, 0
	add	edx, DWORD PTR __Buf$[ebp]
	push	edx
	mov	ecx, DWORD PTR __Ctype_fac$[ebp]
	call	?widen@?$ctype@D@std@@QBEPBDPBD0PAD@Z	; std::ctype<char>::widen

; 1502 : 
; 1503 : 		const _Mypunct& _Punct_fac = _USE(_Iosbase.getloc(), _Mypunct);

	lea	eax, DWORD PTR $T8[ebp]
	push	eax
	mov	ecx, DWORD PTR __Iosbase$[ebp]
	call	?getloc@ios_base@std@@QBE?AVlocale@2@XZ	; std::ios_base::getloc
	mov	DWORD PTR tv134[ebp], eax
	mov	ecx, DWORD PTR tv134[ebp]
	mov	DWORD PTR tv273[ebp], ecx
	mov	BYTE PTR __$EHRec$[ebp+8], 2
	mov	edx, DWORD PTR tv273[ebp]
	push	edx
	call	??$use_facet@V?$numpunct@D@std@@@std@@YAABV?$numpunct@D@0@ABVlocale@0@@Z ; std::use_facet<std::numpunct<char> >
	add	esp, 4
	mov	DWORD PTR __Punct_fac$[ebp], eax
	mov	BYTE PTR __$EHRec$[ebp+8], 1
	lea	ecx, DWORD PTR $T8[ebp]
	call	??1locale@std@@QAE@XZ			; std::locale::~locale

; 1504 : 		const string _Grouping = _Punct_fac.grouping();

	lea	eax, DWORD PTR __Grouping$[ebp]
	push	eax
	mov	ecx, DWORD PTR __Punct_fac$[ebp]
	call	?grouping@?$numpunct@D@std@@QBE?AV?$basic_string@DU?$char_traits@D@std@@V?$allocator@D@2@@2@XZ ; std::numpunct<char>::grouping
	mov	BYTE PTR __$EHRec$[ebp+8], 3

; 1505 : 		const char *_Pg = &_Grouping[0];

	push	0
	lea	ecx, DWORD PTR __Grouping$[ebp]
	call	??A?$basic_string@DU?$char_traits@D@std@@V?$allocator@D@2@@std@@QBEABDI@Z ; std::basic_string<char,std::char_traits<char>,std::allocator<char> >::operator[]
	mov	DWORD PTR __Pg$[ebp], eax

; 1506 : 		if (*_Pg != CHAR_MAX && '\0' < *_Pg)

	mov	ecx, DWORD PTR __Pg$[ebp]
	movsx	edx, BYTE PTR [ecx]
	cmp	edx, 127				; 0000007fH
	je	SHORT $LN8@Iput
	mov	eax, DWORD PTR __Pg$[ebp]
	movsx	ecx, BYTE PTR [eax]
	test	ecx, ecx
	jle	SHORT $LN8@Iput

; 1507 : 			{	// grouping specified, add thousands separators
; 1508 : 			const _Elem _Kseparator = _Punct_fac.thousands_sep();

	mov	ecx, DWORD PTR __Punct_fac$[ebp]
	call	?thousands_sep@?$numpunct@D@std@@QBEDXZ	; std::numpunct<char>::thousands_sep
	mov	BYTE PTR __Kseparator$10[ebp], al
$LN7@Iput:

; 1509 : 			while (*_Pg != CHAR_MAX && '\0' < *_Pg
; 1510 : 				&& (size_t)*_Pg < _Count - _Prefix)

	mov	edx, DWORD PTR __Pg$[ebp]
	movsx	eax, BYTE PTR [edx]
	cmp	eax, 127				; 0000007fH
	je	SHORT $LN8@Iput
	mov	ecx, DWORD PTR __Pg$[ebp]
	movsx	edx, BYTE PTR [ecx]
	test	edx, edx
	jle	SHORT $LN8@Iput
	mov	eax, DWORD PTR __Pg$[ebp]
	movsx	ecx, BYTE PTR [eax]
	mov	edx, DWORD PTR __Count$[ebp]
	sub	edx, DWORD PTR __Prefix$[ebp]
	cmp	ecx, edx
	jae	SHORT $LN8@Iput

; 1511 : 				{	// insert thousands separator
; 1512 : 				_Count -= *_Pg;

	mov	eax, DWORD PTR __Pg$[ebp]
	movsx	ecx, BYTE PTR [eax]
	mov	edx, DWORD PTR __Count$[ebp]
	sub	edx, ecx
	mov	DWORD PTR __Count$[ebp], edx

; 1513 : 				_Groupstring.insert(_Count, 1, _Kseparator);

	movzx	eax, BYTE PTR __Kseparator$10[ebp]
	push	eax
	push	1
	mov	ecx, DWORD PTR __Count$[ebp]
	push	ecx
	lea	ecx, DWORD PTR __Groupstring$[ebp]
	call	?insert@?$basic_string@DU?$char_traits@D@std@@V?$allocator@D@2@@std@@QAEAAV12@IID@Z ; std::basic_string<char,std::char_traits<char>,std::allocator<char> >::insert

; 1514 : 				if ('\0' < _Pg[1])

	mov	edx, 1
	shl	edx, 0
	mov	eax, DWORD PTR __Pg$[ebp]
	movsx	ecx, BYTE PTR [eax+edx]
	test	ecx, ecx
	jle	SHORT $LN5@Iput

; 1515 : 					++_Pg;	// not last group, advance

	mov	edx, DWORD PTR __Pg$[ebp]
	add	edx, 1
	mov	DWORD PTR __Pg$[ebp], edx
$LN5@Iput:

; 1516 : 				}

	jmp	SHORT $LN7@Iput
$LN8@Iput:

; 1517 : 			}
; 1518 : 
; 1519 : 		_Count = _Groupstring.size();

	lea	ecx, DWORD PTR __Groupstring$[ebp]
	call	?size@?$basic_string@DU?$char_traits@D@std@@V?$allocator@D@2@@std@@QBEIXZ ; std::basic_string<char,std::char_traits<char>,std::allocator<char> >::size
	mov	DWORD PTR __Count$[ebp], eax

; 1520 : 		size_t _Fillcount = _Iosbase.width() <= 0
; 1521 : 			|| (size_t)_Iosbase.width() <= _Count
; 1522 : 				? 0 : (size_t)_Iosbase.width() - _Count;

	mov	ecx, DWORD PTR __Iosbase$[ebp]
	call	?width@ios_base@std@@QBE_JXZ		; std::ios_base::width
	mov	DWORD PTR tv326[ebp], eax
	mov	DWORD PTR tv326[ebp+4], edx
	cmp	DWORD PTR tv326[ebp+4], 0
	jl	SHORT $LN16@Iput
	jg	SHORT $LN22@Iput
	cmp	DWORD PTR tv326[ebp], 0
	jbe	SHORT $LN16@Iput
$LN22@Iput:
	mov	ecx, DWORD PTR __Iosbase$[ebp]
	call	?width@ios_base@std@@QBE_JXZ		; std::ios_base::width
	cmp	eax, DWORD PTR __Count$[ebp]
	jbe	SHORT $LN16@Iput
	mov	ecx, DWORD PTR __Iosbase$[ebp]
	call	?width@ios_base@std@@QBE_JXZ		; std::ios_base::width
	sub	eax, DWORD PTR __Count$[ebp]
	mov	DWORD PTR tv200[ebp], eax
	jmp	SHORT $LN17@Iput
$LN16@Iput:
	mov	DWORD PTR tv200[ebp], 0
$LN17@Iput:
	mov	eax, DWORD PTR tv200[ebp]
	mov	DWORD PTR __Fillcount$[ebp], eax

; 1523 : 
; 1524 : 		ios_base::fmtflags _Adjustfield =
; 1525 : 			_Iosbase.flags() & ios_base::adjustfield;

	mov	ecx, DWORD PTR __Iosbase$[ebp]
	call	?flags@ios_base@std@@QBEHXZ		; std::ios_base::flags
	and	eax, 448				; 000001c0H
	mov	DWORD PTR __Adjustfield$[ebp], eax

; 1526 : 		if (_Adjustfield != ios_base::left
; 1527 : 			&& _Adjustfield != ios_base::internal)

	cmp	DWORD PTR __Adjustfield$[ebp], 64	; 00000040H
	je	SHORT $LN4@Iput
	cmp	DWORD PTR __Adjustfield$[ebp], 256	; 00000100H
	je	SHORT $LN4@Iput

; 1528 : 			{	// put leading fill
; 1529 : 			_Dest = _Rep(_Dest, _Fill, _Fillcount);

	mov	ecx, DWORD PTR __Fillcount$[ebp]
	push	ecx
	movzx	edx, BYTE PTR __Fill$[ebp]
	push	edx
	mov	eax, DWORD PTR __Dest$[ebp+4]
	push	eax
	mov	ecx, DWORD PTR __Dest$[ebp]
	push	ecx
	lea	edx, DWORD PTR $T7[ebp]
	push	edx
	mov	eax, DWORD PTR _this$[ebp]
	push	eax
	call	?_Rep@?$num_put@DV?$ostreambuf_iterator@DU?$char_traits@D@std@@@std@@@std@@ABA?AV?$ostreambuf_iterator@DU?$char_traits@D@std@@@2@V32@DI@Z ; std::num_put<char,std::ostreambuf_iterator<char,std::char_traits<char> > >::_Rep
	add	esp, 24					; 00000018H
	mov	ecx, DWORD PTR [eax]
	mov	edx, DWORD PTR [eax+4]
	mov	DWORD PTR __Dest$[ebp], ecx
	mov	DWORD PTR __Dest$[ebp+4], edx

; 1530 : 			_Fillcount = 0;

	mov	DWORD PTR __Fillcount$[ebp], 0

; 1531 : 			_Dest = _Put(_Dest, &_Groupstring[0], _Prefix);

	mov	eax, DWORD PTR __Prefix$[ebp]
	push	eax
	push	0
	lea	ecx, DWORD PTR __Groupstring$[ebp]
	call	??A?$basic_string@DU?$char_traits@D@std@@V?$allocator@D@2@@std@@QAEAADI@Z ; std::basic_string<char,std::char_traits<char>,std::allocator<char> >::operator[]
	push	eax
	mov	ecx, DWORD PTR __Dest$[ebp+4]
	push	ecx
	mov	edx, DWORD PTR __Dest$[ebp]
	push	edx
	lea	eax, DWORD PTR $T6[ebp]
	push	eax
	mov	ecx, DWORD PTR _this$[ebp]
	push	ecx
	call	?_Put@?$num_put@DV?$ostreambuf_iterator@DU?$char_traits@D@std@@@std@@@std@@ABA?AV?$ostreambuf_iterator@DU?$char_traits@D@std@@@2@V32@PBDI@Z ; std::num_put<char,std::ostreambuf_iterator<char,std::char_traits<char> > >::_Put
	add	esp, 24					; 00000018H
	mov	edx, DWORD PTR [eax]
	mov	eax, DWORD PTR [eax+4]
	mov	DWORD PTR __Dest$[ebp], edx
	mov	DWORD PTR __Dest$[ebp+4], eax

; 1532 : 			}
; 1533 : 		else if (_Adjustfield == ios_base::internal)

	jmp	$LN3@Iput
$LN4@Iput:
	cmp	DWORD PTR __Adjustfield$[ebp], 256	; 00000100H
	jne	SHORT $LN2@Iput

; 1534 : 			{	// put internal fill
; 1535 : 			_Dest = _Put(_Dest, &_Groupstring[0], _Prefix);

	mov	ecx, DWORD PTR __Prefix$[ebp]
	push	ecx
	push	0
	lea	ecx, DWORD PTR __Groupstring$[ebp]
	call	??A?$basic_string@DU?$char_traits@D@std@@V?$allocator@D@2@@std@@QAEAADI@Z ; std::basic_string<char,std::char_traits<char>,std::allocator<char> >::operator[]
	push	eax
	mov	edx, DWORD PTR __Dest$[ebp+4]
	push	edx
	mov	eax, DWORD PTR __Dest$[ebp]
	push	eax
	lea	ecx, DWORD PTR $T5[ebp]
	push	ecx
	mov	edx, DWORD PTR _this$[ebp]
	push	edx
	call	?_Put@?$num_put@DV?$ostreambuf_iterator@DU?$char_traits@D@std@@@std@@@std@@ABA?AV?$ostreambuf_iterator@DU?$char_traits@D@std@@@2@V32@PBDI@Z ; std::num_put<char,std::ostreambuf_iterator<char,std::char_traits<char> > >::_Put
	add	esp, 24					; 00000018H
	mov	ecx, DWORD PTR [eax]
	mov	edx, DWORD PTR [eax+4]
	mov	DWORD PTR __Dest$[ebp], ecx
	mov	DWORD PTR __Dest$[ebp+4], edx

; 1536 : 			_Dest = _Rep(_Dest, _Fill, _Fillcount);

	mov	eax, DWORD PTR __Fillcount$[ebp]
	push	eax
	movzx	ecx, BYTE PTR __Fill$[ebp]
	push	ecx
	mov	edx, DWORD PTR __Dest$[ebp+4]
	push	edx
	mov	eax, DWORD PTR __Dest$[ebp]
	push	eax
	lea	ecx, DWORD PTR $T4[ebp]
	push	ecx
	mov	edx, DWORD PTR _this$[ebp]
	push	edx
	call	?_Rep@?$num_put@DV?$ostreambuf_iterator@DU?$char_traits@D@std@@@std@@@std@@ABA?AV?$ostreambuf_iterator@DU?$char_traits@D@std@@@2@V32@DI@Z ; std::num_put<char,std::ostreambuf_iterator<char,std::char_traits<char> > >::_Rep
	add	esp, 24					; 00000018H
	mov	ecx, DWORD PTR [eax]
	mov	edx, DWORD PTR [eax+4]
	mov	DWORD PTR __Dest$[ebp], ecx
	mov	DWORD PTR __Dest$[ebp+4], edx

; 1537 : 			_Fillcount = 0;

	mov	DWORD PTR __Fillcount$[ebp], 0

; 1538 : 			}
; 1539 : 		else

	jmp	SHORT $LN3@Iput
$LN2@Iput:

; 1540 : 			_Dest = _Put(_Dest, &_Groupstring[0], _Prefix);

	mov	eax, DWORD PTR __Prefix$[ebp]
	push	eax
	push	0
	lea	ecx, DWORD PTR __Groupstring$[ebp]
	call	??A?$basic_string@DU?$char_traits@D@std@@V?$allocator@D@2@@std@@QAEAADI@Z ; std::basic_string<char,std::char_traits<char>,std::allocator<char> >::operator[]
	push	eax
	mov	ecx, DWORD PTR __Dest$[ebp+4]
	push	ecx
	mov	edx, DWORD PTR __Dest$[ebp]
	push	edx
	lea	eax, DWORD PTR $T3[ebp]
	push	eax
	mov	ecx, DWORD PTR _this$[ebp]
	push	ecx
	call	?_Put@?$num_put@DV?$ostreambuf_iterator@DU?$char_traits@D@std@@@std@@@std@@ABA?AV?$ostreambuf_iterator@DU?$char_traits@D@std@@@2@V32@PBDI@Z ; std::num_put<char,std::ostreambuf_iterator<char,std::char_traits<char> > >::_Put
	add	esp, 24					; 00000018H
	mov	edx, DWORD PTR [eax]
	mov	eax, DWORD PTR [eax+4]
	mov	DWORD PTR __Dest$[ebp], edx
	mov	DWORD PTR __Dest$[ebp+4], eax
$LN3@Iput:

; 1541 : 
; 1542 : 		_Dest = _Put(_Dest, &_Groupstring[_Prefix], _Count - _Prefix);

	mov	ecx, DWORD PTR __Count$[ebp]
	sub	ecx, DWORD PTR __Prefix$[ebp]
	push	ecx
	mov	edx, DWORD PTR __Prefix$[ebp]
	push	edx
	lea	ecx, DWORD PTR __Groupstring$[ebp]
	call	??A?$basic_string@DU?$char_traits@D@std@@V?$allocator@D@2@@std@@QAEAADI@Z ; std::basic_string<char,std::char_traits<char>,std::allocator<char> >::operator[]
	push	eax
	mov	eax, DWORD PTR __Dest$[ebp+4]
	push	eax
	mov	ecx, DWORD PTR __Dest$[ebp]
	push	ecx
	lea	edx, DWORD PTR $T2[ebp]
	push	edx
	mov	eax, DWORD PTR _this$[ebp]
	push	eax
	call	?_Put@?$num_put@DV?$ostreambuf_iterator@DU?$char_traits@D@std@@@std@@@std@@ABA?AV?$ostreambuf_iterator@DU?$char_traits@D@std@@@2@V32@PBDI@Z ; std::num_put<char,std::ostreambuf_iterator<char,std::char_traits<char> > >::_Put
	add	esp, 24					; 00000018H
	mov	ecx, DWORD PTR [eax]
	mov	edx, DWORD PTR [eax+4]
	mov	DWORD PTR __Dest$[ebp], ecx
	mov	DWORD PTR __Dest$[ebp+4], edx

; 1543 : 		_Iosbase.width(0);

	push	0
	push	0
	mov	ecx, DWORD PTR __Iosbase$[ebp]
	call	?width@ios_base@std@@QAE_J_J@Z		; std::ios_base::width

; 1544 : 		return (_Rep(_Dest, _Fill, _Fillcount));	// put trailing fill

	mov	eax, DWORD PTR __Fillcount$[ebp]
	push	eax
	movzx	ecx, BYTE PTR __Fill$[ebp]
	push	ecx
	mov	edx, DWORD PTR __Dest$[ebp+4]
	push	edx
	mov	eax, DWORD PTR __Dest$[ebp]
	push	eax
	mov	ecx, DWORD PTR ___$ReturnUdt$[ebp]
	push	ecx
	mov	edx, DWORD PTR _this$[ebp]
	push	edx
	call	?_Rep@?$num_put@DV?$ostreambuf_iterator@DU?$char_traits@D@std@@@std@@@std@@ABA?AV?$ostreambuf_iterator@DU?$char_traits@D@std@@@2@V32@DI@Z ; std::num_put<char,std::ostreambuf_iterator<char,std::char_traits<char> > >::_Rep
	add	esp, 24					; 00000018H
	mov	BYTE PTR __$EHRec$[ebp+8], 1
	lea	ecx, DWORD PTR __Grouping$[ebp]
	call	??1?$basic_string@DU?$char_traits@D@std@@V?$allocator@D@2@@std@@QAE@XZ ; std::basic_string<char,std::char_traits<char>,std::allocator<char> >::~basic_string<char,std::char_traits<char>,std::allocator<char> >
	mov	DWORD PTR __$EHRec$[ebp+8], -1
	lea	ecx, DWORD PTR __Groupstring$[ebp]
	call	??1?$basic_string@DU?$char_traits@D@std@@V?$allocator@D@2@@std@@QAE@XZ ; std::basic_string<char,std::char_traits<char>,std::allocator<char> >::~basic_string<char,std::char_traits<char>,std::allocator<char> >
	mov	eax, DWORD PTR ___$ReturnUdt$[ebp]

; 1545 : 		}

	push	edx
	mov	ecx, ebp
	push	eax
	lea	edx, DWORD PTR $LN27@Iput
	call	@_RTC_CheckStackVars@8
	pop	eax
	pop	edx
	mov	ecx, DWORD PTR __$EHRec$[ebp]
	mov	DWORD PTR fs:0, ecx
	pop	ecx
	pop	edi
	mov	ecx, DWORD PTR __$ArrayPad$[ebp]
	xor	ecx, ebp
	call	@__security_check_cookie@4
	add	esp, 204				; 000000ccH
	cmp	ebp, esp
	call	__RTC_CheckEsp
	mov	esp, ebp
	pop	ebp
	ret	0
	npad	2
$LN27@Iput:
	DD	2
	DD	$LN26@Iput
$LN26@Iput:
	DD	-56					; ffffffc8H
	DD	28					; 0000001cH
	DD	$LN23@Iput
	DD	-96					; ffffffa0H
	DD	28					; 0000001cH
	DD	$LN24@Iput
$LN24@Iput:
	DB	95					; 0000005fH
	DB	71					; 00000047H
	DB	114					; 00000072H
	DB	111					; 0000006fH
	DB	117					; 00000075H
	DB	112					; 00000070H
	DB	105					; 00000069H
	DB	110					; 0000006eH
	DB	103					; 00000067H
	DB	0
$LN23@Iput:
	DB	95					; 0000005fH
	DB	71					; 00000047H
	DB	114					; 00000072H
	DB	111					; 0000006fH
	DB	117					; 00000075H
	DB	112					; 00000070H
	DB	115					; 00000073H
	DB	116					; 00000074H
	DB	114					; 00000072H
	DB	105					; 00000069H
	DB	110					; 0000006eH
	DB	103					; 00000067H
	DB	0
_TEXT	ENDS
;	COMDAT text$x
text$x	SEGMENT
__unwindfunclet$?_Iput@?$num_put@DV?$ostreambuf_iterator@DU?$char_traits@D@std@@@std@@@std@@ABA?AV?$ostreambuf_iterator@DU?$char_traits@D@std@@@2@V32@AAVios_base@2@DPADI@Z$0:
	lea	ecx, DWORD PTR $T9[ebp]
	jmp	??1locale@std@@QAE@XZ			; std::locale::~locale
__unwindfunclet$?_Iput@?$num_put@DV?$ostreambuf_iterator@DU?$char_traits@D@std@@@std@@@std@@ABA?AV?$ostreambuf_iterator@DU?$char_traits@D@std@@@2@V32@AAVios_base@2@DPADI@Z$1:
	lea	ecx, DWORD PTR __Groupstring$[ebp]
	jmp	??1?$basic_string@DU?$char_traits@D@std@@V?$allocator@D@2@@std@@QAE@XZ ; std::basic_string<char,std::char_traits<char>,std::allocator<char> >::~basic_string<char,std::char_traits<char>,std::allocator<char> >
__unwindfunclet$?_Iput@?$num_put@DV?$ostreambuf_iterator@DU?$char_traits@D@std@@@std@@@std@@ABA?AV?$ostreambuf_iterator@DU?$char_traits@D@std@@@2@V32@AAVios_base@2@DPADI@Z$2:
	lea	ecx, DWORD PTR $T8[ebp]
	jmp	??1locale@std@@QAE@XZ			; std::locale::~locale
__unwindfunclet$?_Iput@?$num_put@DV?$ostreambuf_iterator@DU?$char_traits@D@std@@@std@@@std@@ABA?AV?$ostreambuf_iterator@DU?$char_traits@D@std@@@2@V32@AAVios_base@2@DPADI@Z$3:
	lea	ecx, DWORD PTR __Grouping$[ebp]
	jmp	??1?$basic_string@DU?$char_traits@D@std@@V?$allocator@D@2@@std@@QAE@XZ ; std::basic_string<char,std::char_traits<char>,std::allocator<char> >::~basic_string<char,std::char_traits<char>,std::allocator<char> >
__ehhandler$?_Iput@?$num_put@DV?$ostreambuf_iterator@DU?$char_traits@D@std@@@std@@@std@@ABA?AV?$ostreambuf_iterator@DU?$char_traits@D@std@@@2@V32@AAVios_base@2@DPADI@Z:
	mov	edx, DWORD PTR [esp+8]
	lea	eax, DWORD PTR [edx+12]
	mov	ecx, DWORD PTR [edx-200]
	xor	ecx, eax
	call	@__security_check_cookie@4
	mov	ecx, DWORD PTR [edx-4]
	xor	ecx, eax
	call	@__security_check_cookie@4
	mov	eax, OFFSET __ehfuncinfo$?_Iput@?$num_put@DV?$ostreambuf_iterator@DU?$char_traits@D@std@@@std@@@std@@ABA?AV?$ostreambuf_iterator@DU?$char_traits@D@std@@@2@V32@AAVios_base@2@DPADI@Z
	jmp	___CxxFrameHandler3
text$x	ENDS
?_Iput@?$num_put@DV?$ostreambuf_iterator@DU?$char_traits@D@std@@@std@@@std@@ABA?AV?$ostreambuf_iterator@DU?$char_traits@D@std@@@2@V32@AAVios_base@2@DPADI@Z ENDP ; std::num_put<char,std::ostreambuf_iterator<char,std::char_traits<char> > >::_Iput
; Function compile flags: /Odtp /RTCsu
; File c:\program files (x86)\microsoft visual studio 12.0\vc\include\xlocnum
;	COMDAT ?_Ifmt@?$num_put@DV?$ostreambuf_iterator@DU?$char_traits@D@std@@@std@@@std@@ABAPADPADPBDH@Z
_TEXT	SEGMENT
tv89 = -11						; size = 1
tv90 = -10						; size = 1
tv91 = -9						; size = 1
__Basefield$ = -8					; size = 4
__Ptr$ = -4						; size = 4
_this$ = 8						; size = 4
__Fmt$ = 12						; size = 4
__Spec$ = 16						; size = 4
__Flags$ = 20						; size = 4
?_Ifmt@?$num_put@DV?$ostreambuf_iterator@DU?$char_traits@D@std@@@std@@@std@@ABAPADPADPBDH@Z PROC ; std::num_put<char,std::ostreambuf_iterator<char,std::char_traits<char> > >::_Ifmt, COMDAT

; 1461 : 		{	// generate sprintf format for integer

	push	ebp
	mov	ebp, esp
	sub	esp, 12					; 0000000cH
	mov	DWORD PTR [ebp-12], -858993460		; ccccccccH
	mov	DWORD PTR [ebp-8], -858993460		; ccccccccH
	mov	DWORD PTR [ebp-4], -858993460		; ccccccccH

; 1462 : 		char *_Ptr = _Fmt;

	mov	eax, DWORD PTR __Fmt$[ebp]
	mov	DWORD PTR __Ptr$[ebp], eax

; 1463 : 		*_Ptr++ = '%';

	mov	ecx, DWORD PTR __Ptr$[ebp]
	mov	BYTE PTR [ecx], 37			; 00000025H
	mov	edx, DWORD PTR __Ptr$[ebp]
	add	edx, 1
	mov	DWORD PTR __Ptr$[ebp], edx

; 1464 : 
; 1465 : 		if (_Flags & ios_base::showpos)

	mov	eax, DWORD PTR __Flags$[ebp]
	and	eax, 32					; 00000020H
	je	SHORT $LN4@Ifmt

; 1466 : 			*_Ptr++ = '+';

	mov	ecx, DWORD PTR __Ptr$[ebp]
	mov	BYTE PTR [ecx], 43			; 0000002bH
	mov	edx, DWORD PTR __Ptr$[ebp]
	add	edx, 1
	mov	DWORD PTR __Ptr$[ebp], edx
$LN4@Ifmt:

; 1467 : 		if (_Flags & ios_base::showbase)

	mov	eax, DWORD PTR __Flags$[ebp]
	and	eax, 8
	je	SHORT $LN3@Ifmt

; 1468 : 			*_Ptr++ = '#';

	mov	ecx, DWORD PTR __Ptr$[ebp]
	mov	BYTE PTR [ecx], 35			; 00000023H
	mov	edx, DWORD PTR __Ptr$[ebp]
	add	edx, 1
	mov	DWORD PTR __Ptr$[ebp], edx
$LN3@Ifmt:

; 1469 : 		if (_Spec[0] != 'L')

	mov	eax, 1
	imul	ecx, eax, 0
	mov	edx, DWORD PTR __Spec$[ebp]
	movsx	eax, BYTE PTR [edx+ecx]
	cmp	eax, 76					; 0000004cH
	je	SHORT $LN2@Ifmt

; 1470 : 			*_Ptr++ = _Spec[0];	// qualifier

	mov	ecx, 1
	imul	edx, ecx, 0
	mov	eax, DWORD PTR __Ptr$[ebp]
	mov	ecx, DWORD PTR __Spec$[ebp]
	mov	dl, BYTE PTR [ecx+edx]
	mov	BYTE PTR [eax], dl
	mov	eax, DWORD PTR __Ptr$[ebp]
	add	eax, 1
	mov	DWORD PTR __Ptr$[ebp], eax

; 1471 : 		else

	jmp	SHORT $LN1@Ifmt
$LN2@Ifmt:

; 1472 : 
; 1473 : 			{	/* change L to I64 */
; 1474 : 			*_Ptr++ = 'I';

	mov	ecx, DWORD PTR __Ptr$[ebp]
	mov	BYTE PTR [ecx], 73			; 00000049H
	mov	edx, DWORD PTR __Ptr$[ebp]
	add	edx, 1
	mov	DWORD PTR __Ptr$[ebp], edx

; 1475 : 			*_Ptr++ = '6';

	mov	eax, DWORD PTR __Ptr$[ebp]
	mov	BYTE PTR [eax], 54			; 00000036H
	mov	ecx, DWORD PTR __Ptr$[ebp]
	add	ecx, 1
	mov	DWORD PTR __Ptr$[ebp], ecx

; 1476 : 			*_Ptr++ = '4';

	mov	edx, DWORD PTR __Ptr$[ebp]
	mov	BYTE PTR [edx], 52			; 00000034H
	mov	eax, DWORD PTR __Ptr$[ebp]
	add	eax, 1
	mov	DWORD PTR __Ptr$[ebp], eax
$LN1@Ifmt:

; 1477 : 			}
; 1478 : 
; 1479 : 		ios_base::fmtflags _Basefield = _Flags & ios_base::basefield;

	mov	ecx, DWORD PTR __Flags$[ebp]
	and	ecx, 3584				; 00000e00H
	mov	DWORD PTR __Basefield$[ebp], ecx

; 1480 : 		*_Ptr++ = _Basefield == ios_base::oct ? 'o'
; 1481 : 			: _Basefield != ios_base::hex ? _Spec[1]	// 'd' or 'u'
; 1482 : 			: _Flags & ios_base::uppercase ? 'X' : 'x';

	cmp	DWORD PTR __Basefield$[ebp], 1024	; 00000400H
	jne	SHORT $LN11@Ifmt
	mov	BYTE PTR tv91[ebp], 111			; 0000006fH
	jmp	SHORT $LN12@Ifmt
$LN11@Ifmt:
	cmp	DWORD PTR __Basefield$[ebp], 2048	; 00000800H
	je	SHORT $LN9@Ifmt
	mov	edx, 1
	shl	edx, 0
	mov	eax, DWORD PTR __Spec$[ebp]
	mov	cl, BYTE PTR [eax+edx]
	mov	BYTE PTR tv90[ebp], cl
	jmp	SHORT $LN10@Ifmt
$LN9@Ifmt:
	mov	edx, DWORD PTR __Flags$[ebp]
	and	edx, 4
	je	SHORT $LN7@Ifmt
	mov	BYTE PTR tv89[ebp], 88			; 00000058H
	jmp	SHORT $LN8@Ifmt
$LN7@Ifmt:
	mov	BYTE PTR tv89[ebp], 120			; 00000078H
$LN8@Ifmt:
	mov	al, BYTE PTR tv89[ebp]
	mov	BYTE PTR tv90[ebp], al
$LN10@Ifmt:
	mov	cl, BYTE PTR tv90[ebp]
	mov	BYTE PTR tv91[ebp], cl
$LN12@Ifmt:
	mov	edx, DWORD PTR __Ptr$[ebp]
	mov	al, BYTE PTR tv91[ebp]
	mov	BYTE PTR [edx], al
	mov	ecx, DWORD PTR __Ptr$[ebp]
	add	ecx, 1
	mov	DWORD PTR __Ptr$[ebp], ecx

; 1483 : 		*_Ptr = '\0';

	mov	edx, DWORD PTR __Ptr$[ebp]
	mov	BYTE PTR [edx], 0

; 1484 : 		return (_Fmt);

	mov	eax, DWORD PTR __Fmt$[ebp]

; 1485 : 		}

	mov	esp, ebp
	pop	ebp
	ret	0
?_Ifmt@?$num_put@DV?$ostreambuf_iterator@DU?$char_traits@D@std@@@std@@@std@@ABAPADPADPBDH@Z ENDP ; std::num_put<char,std::ostreambuf_iterator<char,std::char_traits<char> > >::_Ifmt
_TEXT	ENDS
; Function compile flags: /Odtp /RTCsu
; File c:\program files (x86)\microsoft visual studio 12.0\vc\include\xlocnum
;	COMDAT ?_Fput@?$num_put@DV?$ostreambuf_iterator@DU?$char_traits@D@std@@@std@@@std@@ABA?AV?$ostreambuf_iterator@DU?$char_traits@D@std@@@2@V32@AAVios_base@2@DPBDIIII@Z
_TEXT	SEGMENT
tv247 = -236						; size = 4
tv439 = -232						; size = 8
tv352 = -224						; size = 4
tv160 = -220						; size = 4
tv349 = -216						; size = 4
tv356 = -212						; size = 4
tv72 = -208						; size = 4
$T2 = -204						; size = 8
$T3 = -196						; size = 8
$T4 = -188						; size = 8
$T5 = -180						; size = 8
$T6 = -172						; size = 8
$T7 = -164						; size = 8
$T8 = -156						; size = 4
$T9 = -152						; size = 4
__Adjustfield$ = -148					; size = 4
__Fillcount$ = -144					; size = 4
__Pg$ = -140						; size = 4
__Off$ = -136						; size = 4
__Kseparator$ = -129					; size = 1
__Grouping$ = -124					; size = 28
__Punct_fac$ = -92					; size = 4
__Groupstring$ = -84					; size = 28
__E0$ = -49						; size = 1
__Ctype_fac$ = -48					; size = 4
__Poff$ = -44						; size = 4
__Dp$ = -36						; size = 2
__Eoff$ = -28						; size = 4
__Exps$ = -24						; size = 4
__Prefix$ = -20						; size = 4
__$ArrayPad$ = -16					; size = 4
__$EHRec$ = -12						; size = 12
_this$ = 8						; size = 4
___$ReturnUdt$ = 12					; size = 4
__Dest$ = 16						; size = 8
__Iosbase$ = 24						; size = 4
__Fill$ = 28						; size = 1
__Buf$ = 32						; size = 4
__Beforepoint$ = 36					; size = 4
__Afterpoint$ = 40					; size = 4
__Trailing$ = 44					; size = 4
__Count$ = 48						; size = 4
?_Fput@?$num_put@DV?$ostreambuf_iterator@DU?$char_traits@D@std@@@std@@@std@@ABA?AV?$ostreambuf_iterator@DU?$char_traits@D@std@@@2@V32@AAVios_base@2@DPBDIIII@Z PROC ; std::num_put<char,std::ostreambuf_iterator<char,std::char_traits<char> > >::_Fput, COMDAT

; 1375 : 		{	// put formatted floating-point to _Dest

	push	ebp
	mov	ebp, esp
	push	-1
	push	__ehhandler$?_Fput@?$num_put@DV?$ostreambuf_iterator@DU?$char_traits@D@std@@@std@@@std@@ABA?AV?$ostreambuf_iterator@DU?$char_traits@D@std@@@2@V32@AAVios_base@2@DPBDIIII@Z
	mov	eax, DWORD PTR fs:0
	push	eax
	sub	esp, 224				; 000000e0H
	push	ebx
	push	edi
	lea	edi, DWORD PTR [ebp-236]
	mov	ecx, 56					; 00000038H
	mov	eax, -858993460				; ccccccccH
	rep stosd
	mov	eax, DWORD PTR ___security_cookie
	xor	eax, ebp
	mov	DWORD PTR __$ArrayPad$[ebp], eax
	push	eax
	lea	eax, DWORD PTR __$EHRec$[ebp]
	mov	DWORD PTR fs:0, eax

; 1376 : 		_DEBUG_POINTER(_Dest);

	push	1376					; 00000560H
	push	OFFSET ??_C@_1IO@NNKGFJII@?$AAC?$AA?3?$AA?2?$AAP?$AAr?$AAo?$AAg?$AAr?$AAa?$AAm?$AA?5?$AAF?$AAi?$AAl?$AAe?$AAs?$AA?5?$AA?$CI?$AAx?$AA8?$AA6?$AA?$CJ?$AA?2?$AAM?$AAi?$AAc?$AAr?$AAo?$AAs?$AAo?$AAf?$AAt@
	lea	eax, DWORD PTR __Dest$[ebp]
	push	eax
	call	??$_Debug_pointer@V?$ostreambuf_iterator@DU?$char_traits@D@std@@@std@@@std@@YAXAAV?$ostreambuf_iterator@DU?$char_traits@D@std@@@0@PB_WI@Z ; std::_Debug_pointer<std::ostreambuf_iterator<char,std::char_traits<char> > >
	add	esp, 12					; 0000000cH

; 1377 : 		size_t _Prefix = 0 < _Count && (*_Buf == '+' || *_Buf == '-')
; 1378 : 			? 1 : 0;

	cmp	DWORD PTR __Count$[ebp], 0
	jbe	SHORT $LN17@Fput
	mov	ecx, DWORD PTR __Buf$[ebp]
	movsx	edx, BYTE PTR [ecx]
	cmp	edx, 43					; 0000002bH
	je	SHORT $LN16@Fput
	mov	eax, DWORD PTR __Buf$[ebp]
	movsx	ecx, BYTE PTR [eax]
	cmp	ecx, 45					; 0000002dH
	jne	SHORT $LN17@Fput
$LN16@Fput:
	mov	DWORD PTR tv72[ebp], 1
	jmp	SHORT $LN18@Fput
$LN17@Fput:
	mov	DWORD PTR tv72[ebp], 0
$LN18@Fput:
	mov	edx, DWORD PTR tv72[ebp]
	mov	DWORD PTR __Prefix$[ebp], edx

; 1379 : 
; 1380 : 		const char *_Exps;
; 1381 : 		if ((_Iosbase.flags() & ios_base::floatfield) != ios_base::hexfloat)

	mov	ecx, DWORD PTR __Iosbase$[ebp]
	call	?flags@ios_base@std@@QBEHXZ		; std::ios_base::flags
	and	eax, 12288				; 00003000H
	cmp	eax, 12288				; 00003000H
	je	SHORT $LN13@Fput

; 1382 : 			_Exps = "eE";

	mov	DWORD PTR __Exps$[ebp], OFFSET ??_C@_02MDKMJEGG@eE?$AA@

; 1383 : 		else

	jmp	SHORT $LN12@Fput
$LN13@Fput:

; 1384 : 			{	// correct for hexadecimal floating-point
; 1385 : 			_Exps = "pP";

	mov	DWORD PTR __Exps$[ebp], OFFSET ??_C@_02OOPEBDOJ@pP?$AA@

; 1386 : 			if (_Prefix + 2 <= _Count && _Buf[_Prefix] == '0'
; 1387 : 				&& (_Buf[_Prefix + 1] == 'x' || _Buf[_Prefix + 1] == 'X'))

	mov	eax, DWORD PTR __Prefix$[ebp]
	add	eax, 2
	cmp	eax, DWORD PTR __Count$[ebp]
	ja	SHORT $LN12@Fput
	mov	ecx, DWORD PTR __Buf$[ebp]
	add	ecx, DWORD PTR __Prefix$[ebp]
	movsx	edx, BYTE PTR [ecx]
	cmp	edx, 48					; 00000030H
	jne	SHORT $LN12@Fput
	mov	eax, DWORD PTR __Buf$[ebp]
	add	eax, DWORD PTR __Prefix$[ebp]
	movsx	ecx, BYTE PTR [eax+1]
	cmp	ecx, 120				; 00000078H
	je	SHORT $LN10@Fput
	mov	edx, DWORD PTR __Buf$[ebp]
	add	edx, DWORD PTR __Prefix$[ebp]
	movsx	eax, BYTE PTR [edx+1]
	cmp	eax, 88					; 00000058H
	jne	SHORT $LN12@Fput
$LN10@Fput:

; 1388 : 				_Prefix += 2;

	mov	ecx, DWORD PTR __Prefix$[ebp]
	add	ecx, 2
	mov	DWORD PTR __Prefix$[ebp], ecx
$LN12@Fput:

; 1389 : 			}
; 1390 : 		const size_t _Eoff =
; 1391 : 			_CSTD strcspn(&_Buf[0], _Exps);	// find exponent

	mov	edx, DWORD PTR __Exps$[ebp]
	push	edx
	mov	eax, 1
	imul	ecx, eax, 0
	add	ecx, DWORD PTR __Buf$[ebp]
	push	ecx
	call	_strcspn
	add	esp, 8
	mov	DWORD PTR __Eoff$[ebp], eax

; 1392 : 		char _Dp[2] = {"."};

	mov	dx, WORD PTR ??_C@_01LFCBOECM@?4?$AA@
	mov	WORD PTR __Dp$[ebp], dx

; 1393 : 		_Dp[0] = _CSTD localeconv()->decimal_point[0];

	call	_localeconv
	mov	ecx, 1
	imul	edx, ecx, 0
	mov	eax, DWORD PTR [eax]
	mov	ecx, 1
	imul	ecx, ecx, 0
	mov	dl, BYTE PTR [edx+eax]
	mov	BYTE PTR __Dp$[ebp+ecx], dl

; 1394 : 		const size_t _Poff =
; 1395 : 			_CSTD strcspn(&_Buf[0], &_Dp[0]);	// find decimal point

	mov	eax, 1
	imul	ecx, eax, 0
	lea	edx, DWORD PTR __Dp$[ebp+ecx]
	push	edx
	mov	eax, 1
	imul	ecx, eax, 0
	add	ecx, DWORD PTR __Buf$[ebp]
	push	ecx
	call	_strcspn
	add	esp, 8
	mov	DWORD PTR __Poff$[ebp], eax

; 1396 : 
; 1397 : 		const ctype<_Elem>& _Ctype_fac =
; 1398 : 			_USE(_Iosbase.getloc(), ctype<_Elem>);

	lea	edx, DWORD PTR $T9[ebp]
	push	edx
	mov	ecx, DWORD PTR __Iosbase$[ebp]
	call	?getloc@ios_base@std@@QBE?AVlocale@2@XZ	; std::ios_base::getloc
	mov	DWORD PTR tv356[ebp], eax
	mov	eax, DWORD PTR tv356[ebp]
	mov	DWORD PTR tv349[ebp], eax
	mov	DWORD PTR __$EHRec$[ebp+8], 0
	mov	ecx, DWORD PTR tv349[ebp]
	push	ecx
	call	??$use_facet@V?$ctype@D@std@@@std@@YAABV?$ctype@D@0@ABVlocale@0@@Z ; std::use_facet<std::ctype<char> >
	add	esp, 4
	mov	DWORD PTR __Ctype_fac$[ebp], eax
	mov	DWORD PTR __$EHRec$[ebp+8], -1
	lea	ecx, DWORD PTR $T9[ebp]
	call	??1locale@std@@QAE@XZ			; std::locale::~locale

; 1399 : 		const _Elem _E0 = _Ctype_fac.widen('0');

	push	48					; 00000030H
	mov	ecx, DWORD PTR __Ctype_fac$[ebp]
	call	?widen@?$ctype@D@std@@QBEDD@Z		; std::ctype<char>::widen
	mov	BYTE PTR __E0$[ebp], al

; 1400 : 		_Mystr _Groupstring(_Count, _Elem(0));	// reserve space

	push	0
	mov	edx, DWORD PTR __Count$[ebp]
	push	edx
	lea	ecx, DWORD PTR __Groupstring$[ebp]
	call	??0?$basic_string@DU?$char_traits@D@std@@V?$allocator@D@2@@std@@QAE@ID@Z ; std::basic_string<char,std::char_traits<char>,std::allocator<char> >::basic_string<char,std::char_traits<char>,std::allocator<char> >
	mov	DWORD PTR __$EHRec$[ebp+8], 1

; 1401 : 		_Ctype_fac.widen(&_Buf[0], &_Buf[_Count], &_Groupstring[0]);

	push	0
	lea	ecx, DWORD PTR __Groupstring$[ebp]
	call	??A?$basic_string@DU?$char_traits@D@std@@V?$allocator@D@2@@std@@QAEAADI@Z ; std::basic_string<char,std::char_traits<char>,std::allocator<char> >::operator[]
	push	eax
	mov	eax, DWORD PTR __Buf$[ebp]
	add	eax, DWORD PTR __Count$[ebp]
	push	eax
	mov	ecx, 1
	imul	edx, ecx, 0
	add	edx, DWORD PTR __Buf$[ebp]
	push	edx
	mov	ecx, DWORD PTR __Ctype_fac$[ebp]
	call	?widen@?$ctype@D@std@@QBEPBDPBD0PAD@Z	; std::ctype<char>::widen

; 1402 : 
; 1403 : 		const _Mypunct& _Punct_fac = _USE(_Iosbase.getloc(), _Mypunct);

	lea	eax, DWORD PTR $T8[ebp]
	push	eax
	mov	ecx, DWORD PTR __Iosbase$[ebp]
	call	?getloc@ios_base@std@@QBE?AVlocale@2@XZ	; std::ios_base::getloc
	mov	DWORD PTR tv160[ebp], eax
	mov	ecx, DWORD PTR tv160[ebp]
	mov	DWORD PTR tv352[ebp], ecx
	mov	BYTE PTR __$EHRec$[ebp+8], 2
	mov	edx, DWORD PTR tv352[ebp]
	push	edx
	call	??$use_facet@V?$numpunct@D@std@@@std@@YAABV?$numpunct@D@0@ABVlocale@0@@Z ; std::use_facet<std::numpunct<char> >
	add	esp, 4
	mov	DWORD PTR __Punct_fac$[ebp], eax
	mov	BYTE PTR __$EHRec$[ebp+8], 1
	lea	ecx, DWORD PTR $T8[ebp]
	call	??1locale@std@@QAE@XZ			; std::locale::~locale

; 1404 : 		const string _Grouping = _Punct_fac.grouping();

	lea	eax, DWORD PTR __Grouping$[ebp]
	push	eax
	mov	ecx, DWORD PTR __Punct_fac$[ebp]
	call	?grouping@?$numpunct@D@std@@QBE?AV?$basic_string@DU?$char_traits@D@std@@V?$allocator@D@2@@2@XZ ; std::numpunct<char>::grouping
	mov	BYTE PTR __$EHRec$[ebp+8], 3

; 1405 : 		const _Elem _Kseparator = _Punct_fac.thousands_sep();

	mov	ecx, DWORD PTR __Punct_fac$[ebp]
	call	?thousands_sep@?$numpunct@D@std@@QBEDXZ	; std::numpunct<char>::thousands_sep
	mov	BYTE PTR __Kseparator$[ebp], al

; 1406 : 
; 1407 : 		size_t _Off = _Beforepoint;	// offset of (effective) decimal point

	mov	ecx, DWORD PTR __Beforepoint$[ebp]
	mov	DWORD PTR __Off$[ebp], ecx

; 1408 : 		if (_Poff == _Count)

	mov	edx, DWORD PTR __Poff$[ebp]
	cmp	edx, DWORD PTR __Count$[ebp]
	jne	SHORT $LN9@Fput

; 1409 : 			{	// no decimal point, ignore _Afterpoint and _Trailing
; 1410 : 			_Off += _Eoff;

	mov	eax, DWORD PTR __Off$[ebp]
	add	eax, DWORD PTR __Eoff$[ebp]
	mov	DWORD PTR __Off$[ebp], eax

; 1411 : 			_Groupstring.insert(_Eoff, _Beforepoint, _E0);

	movzx	ecx, BYTE PTR __E0$[ebp]
	push	ecx
	mov	edx, DWORD PTR __Beforepoint$[ebp]
	push	edx
	mov	eax, DWORD PTR __Eoff$[ebp]
	push	eax
	lea	ecx, DWORD PTR __Groupstring$[ebp]
	call	?insert@?$basic_string@DU?$char_traits@D@std@@V?$allocator@D@2@@std@@QAEAAV12@IID@Z ; std::basic_string<char,std::char_traits<char>,std::allocator<char> >::insert

; 1412 : 			}
; 1413 : 		else

	jmp	SHORT $LN8@Fput
$LN9@Fput:

; 1414 : 			{	// fill in zeros around decimal point
; 1415 : 			_Off += _Poff;

	mov	ecx, DWORD PTR __Off$[ebp]
	add	ecx, DWORD PTR __Poff$[ebp]
	mov	DWORD PTR __Off$[ebp], ecx

; 1416 : 			_Groupstring.insert(_Eoff, _Trailing, _E0);

	movzx	edx, BYTE PTR __E0$[ebp]
	push	edx
	mov	eax, DWORD PTR __Trailing$[ebp]
	push	eax
	mov	ecx, DWORD PTR __Eoff$[ebp]
	push	ecx
	lea	ecx, DWORD PTR __Groupstring$[ebp]
	call	?insert@?$basic_string@DU?$char_traits@D@std@@V?$allocator@D@2@@std@@QAEAAV12@IID@Z ; std::basic_string<char,std::char_traits<char>,std::allocator<char> >::insert

; 1417 : 			_Groupstring.insert(_Poff + 1, _Afterpoint, _E0);

	movzx	edx, BYTE PTR __E0$[ebp]
	push	edx
	mov	eax, DWORD PTR __Afterpoint$[ebp]
	push	eax
	mov	ecx, DWORD PTR __Poff$[ebp]
	add	ecx, 1
	push	ecx
	lea	ecx, DWORD PTR __Groupstring$[ebp]
	call	?insert@?$basic_string@DU?$char_traits@D@std@@V?$allocator@D@2@@std@@QAEAAV12@IID@Z ; std::basic_string<char,std::char_traits<char>,std::allocator<char> >::insert

; 1418 : 			_Groupstring[_Poff] = _Punct_fac.decimal_point();

	mov	ecx, DWORD PTR __Punct_fac$[ebp]
	call	?decimal_point@?$numpunct@D@std@@QBEDXZ	; std::numpunct<char>::decimal_point
	mov	bl, al
	mov	edx, DWORD PTR __Poff$[ebp]
	push	edx
	lea	ecx, DWORD PTR __Groupstring$[ebp]
	call	??A?$basic_string@DU?$char_traits@D@std@@V?$allocator@D@2@@std@@QAEAADI@Z ; std::basic_string<char,std::char_traits<char>,std::allocator<char> >::operator[]
	mov	BYTE PTR [eax], bl

; 1419 : 			_Groupstring.insert(_Poff, _Beforepoint, _E0);

	movzx	eax, BYTE PTR __E0$[ebp]
	push	eax
	mov	ecx, DWORD PTR __Beforepoint$[ebp]
	push	ecx
	mov	edx, DWORD PTR __Poff$[ebp]
	push	edx
	lea	ecx, DWORD PTR __Groupstring$[ebp]
	call	?insert@?$basic_string@DU?$char_traits@D@std@@V?$allocator@D@2@@std@@QAEAAV12@IID@Z ; std::basic_string<char,std::char_traits<char>,std::allocator<char> >::insert
$LN8@Fput:

; 1420 : 			}
; 1421 : 
; 1422 : 		const char *_Pg = &_Grouping[0];

	push	0
	lea	ecx, DWORD PTR __Grouping$[ebp]
	call	??A?$basic_string@DU?$char_traits@D@std@@V?$allocator@D@2@@std@@QBEABDI@Z ; std::basic_string<char,std::char_traits<char>,std::allocator<char> >::operator[]
	mov	DWORD PTR __Pg$[ebp], eax
$LN7@Fput:

; 1423 : 		while (*_Pg != CHAR_MAX && '\0' < *_Pg
; 1424 : 			&& (size_t)*_Pg < _Off - _Prefix)

	mov	eax, DWORD PTR __Pg$[ebp]
	movsx	ecx, BYTE PTR [eax]
	cmp	ecx, 127				; 0000007fH
	je	SHORT $LN6@Fput
	mov	edx, DWORD PTR __Pg$[ebp]
	movsx	eax, BYTE PTR [edx]
	test	eax, eax
	jle	SHORT $LN6@Fput
	mov	ecx, DWORD PTR __Pg$[ebp]
	movsx	edx, BYTE PTR [ecx]
	mov	eax, DWORD PTR __Off$[ebp]
	sub	eax, DWORD PTR __Prefix$[ebp]
	cmp	edx, eax
	jae	SHORT $LN6@Fput

; 1425 : 			{	// add thousands separator
; 1426 : 			_Groupstring.insert(_Off -= *_Pg, (size_t)1, _Kseparator);

	mov	ecx, DWORD PTR __Pg$[ebp]
	movsx	edx, BYTE PTR [ecx]
	mov	eax, DWORD PTR __Off$[ebp]
	sub	eax, edx
	mov	DWORD PTR __Off$[ebp], eax
	movzx	ecx, BYTE PTR __Kseparator$[ebp]
	push	ecx
	push	1
	mov	edx, DWORD PTR __Off$[ebp]
	push	edx
	lea	ecx, DWORD PTR __Groupstring$[ebp]
	call	?insert@?$basic_string@DU?$char_traits@D@std@@V?$allocator@D@2@@std@@QAEAAV12@IID@Z ; std::basic_string<char,std::char_traits<char>,std::allocator<char> >::insert

; 1427 : 			if ('\0' < _Pg[1])

	mov	eax, 1
	shl	eax, 0
	mov	ecx, DWORD PTR __Pg$[ebp]
	movsx	edx, BYTE PTR [ecx+eax]
	test	edx, edx
	jle	SHORT $LN5@Fput

; 1428 : 				++_Pg;	// not last group, advance

	mov	eax, DWORD PTR __Pg$[ebp]
	add	eax, 1
	mov	DWORD PTR __Pg$[ebp], eax
$LN5@Fput:

; 1429 : 			}

	jmp	$LN7@Fput
$LN6@Fput:

; 1430 : 
; 1431 : 		_Count = _Groupstring.size();

	lea	ecx, DWORD PTR __Groupstring$[ebp]
	call	?size@?$basic_string@DU?$char_traits@D@std@@V?$allocator@D@2@@std@@QBEIXZ ; std::basic_string<char,std::char_traits<char>,std::allocator<char> >::size
	mov	DWORD PTR __Count$[ebp], eax

; 1432 : 		size_t _Fillcount = _Iosbase.width() <= 0
; 1433 : 			|| (size_t)_Iosbase.width() <= _Count
; 1434 : 				? 0 : (size_t)_Iosbase.width() - _Count;

	mov	ecx, DWORD PTR __Iosbase$[ebp]
	call	?width@ios_base@std@@QBE_JXZ		; std::ios_base::width
	mov	DWORD PTR tv439[ebp], eax
	mov	DWORD PTR tv439[ebp+4], edx
	cmp	DWORD PTR tv439[ebp+4], 0
	jl	SHORT $LN19@Fput
	jg	SHORT $LN25@Fput
	cmp	DWORD PTR tv439[ebp], 0
	jbe	SHORT $LN19@Fput
$LN25@Fput:
	mov	ecx, DWORD PTR __Iosbase$[ebp]
	call	?width@ios_base@std@@QBE_JXZ		; std::ios_base::width
	cmp	eax, DWORD PTR __Count$[ebp]
	jbe	SHORT $LN19@Fput
	mov	ecx, DWORD PTR __Iosbase$[ebp]
	call	?width@ios_base@std@@QBE_JXZ		; std::ios_base::width
	sub	eax, DWORD PTR __Count$[ebp]
	mov	DWORD PTR tv247[ebp], eax
	jmp	SHORT $LN20@Fput
$LN19@Fput:
	mov	DWORD PTR tv247[ebp], 0
$LN20@Fput:
	mov	ecx, DWORD PTR tv247[ebp]
	mov	DWORD PTR __Fillcount$[ebp], ecx

; 1435 : 
; 1436 : 		ios_base::fmtflags _Adjustfield =
; 1437 : 			_Iosbase.flags() & ios_base::adjustfield;

	mov	ecx, DWORD PTR __Iosbase$[ebp]
	call	?flags@ios_base@std@@QBEHXZ		; std::ios_base::flags
	and	eax, 448				; 000001c0H
	mov	DWORD PTR __Adjustfield$[ebp], eax

; 1438 : 		if (_Adjustfield != ios_base::left
; 1439 : 			&& _Adjustfield != ios_base::internal)

	cmp	DWORD PTR __Adjustfield$[ebp], 64	; 00000040H
	je	$LN4@Fput
	cmp	DWORD PTR __Adjustfield$[ebp], 256	; 00000100H
	je	SHORT $LN4@Fput

; 1440 : 			{	// put leading fill
; 1441 : 			_Dest = _Rep(_Dest, _Fill, _Fillcount);

	mov	edx, DWORD PTR __Fillcount$[ebp]
	push	edx
	movzx	eax, BYTE PTR __Fill$[ebp]
	push	eax
	mov	ecx, DWORD PTR __Dest$[ebp+4]
	push	ecx
	mov	edx, DWORD PTR __Dest$[ebp]
	push	edx
	lea	eax, DWORD PTR $T7[ebp]
	push	eax
	mov	ecx, DWORD PTR _this$[ebp]
	push	ecx
	call	?_Rep@?$num_put@DV?$ostreambuf_iterator@DU?$char_traits@D@std@@@std@@@std@@ABA?AV?$ostreambuf_iterator@DU?$char_traits@D@std@@@2@V32@DI@Z ; std::num_put<char,std::ostreambuf_iterator<char,std::char_traits<char> > >::_Rep
	add	esp, 24					; 00000018H
	mov	edx, DWORD PTR [eax]
	mov	eax, DWORD PTR [eax+4]
	mov	DWORD PTR __Dest$[ebp], edx
	mov	DWORD PTR __Dest$[ebp+4], eax

; 1442 : 			_Fillcount = 0;

	mov	DWORD PTR __Fillcount$[ebp], 0

; 1443 : 			_Dest = _Put(_Dest, &_Groupstring[0], _Prefix);

	mov	ecx, DWORD PTR __Prefix$[ebp]
	push	ecx
	push	0
	lea	ecx, DWORD PTR __Groupstring$[ebp]
	call	??A?$basic_string@DU?$char_traits@D@std@@V?$allocator@D@2@@std@@QAEAADI@Z ; std::basic_string<char,std::char_traits<char>,std::allocator<char> >::operator[]
	push	eax
	mov	edx, DWORD PTR __Dest$[ebp+4]
	push	edx
	mov	eax, DWORD PTR __Dest$[ebp]
	push	eax
	lea	ecx, DWORD PTR $T6[ebp]
	push	ecx
	mov	edx, DWORD PTR _this$[ebp]
	push	edx
	call	?_Put@?$num_put@DV?$ostreambuf_iterator@DU?$char_traits@D@std@@@std@@@std@@ABA?AV?$ostreambuf_iterator@DU?$char_traits@D@std@@@2@V32@PBDI@Z ; std::num_put<char,std::ostreambuf_iterator<char,std::char_traits<char> > >::_Put
	add	esp, 24					; 00000018H
	mov	ecx, DWORD PTR [eax]
	mov	edx, DWORD PTR [eax+4]
	mov	DWORD PTR __Dest$[ebp], ecx
	mov	DWORD PTR __Dest$[ebp+4], edx

; 1444 : 			}
; 1445 : 		else if (_Adjustfield == ios_base::internal)

	jmp	$LN3@Fput
$LN4@Fput:
	cmp	DWORD PTR __Adjustfield$[ebp], 256	; 00000100H
	jne	SHORT $LN2@Fput

; 1446 : 			{	// put internal fill
; 1447 : 			_Dest = _Put(_Dest, &_Groupstring[0], _Prefix);

	mov	eax, DWORD PTR __Prefix$[ebp]
	push	eax
	push	0
	lea	ecx, DWORD PTR __Groupstring$[ebp]
	call	??A?$basic_string@DU?$char_traits@D@std@@V?$allocator@D@2@@std@@QAEAADI@Z ; std::basic_string<char,std::char_traits<char>,std::allocator<char> >::operator[]
	push	eax
	mov	ecx, DWORD PTR __Dest$[ebp+4]
	push	ecx
	mov	edx, DWORD PTR __Dest$[ebp]
	push	edx
	lea	eax, DWORD PTR $T5[ebp]
	push	eax
	mov	ecx, DWORD PTR _this$[ebp]
	push	ecx
	call	?_Put@?$num_put@DV?$ostreambuf_iterator@DU?$char_traits@D@std@@@std@@@std@@ABA?AV?$ostreambuf_iterator@DU?$char_traits@D@std@@@2@V32@PBDI@Z ; std::num_put<char,std::ostreambuf_iterator<char,std::char_traits<char> > >::_Put
	add	esp, 24					; 00000018H
	mov	edx, DWORD PTR [eax]
	mov	eax, DWORD PTR [eax+4]
	mov	DWORD PTR __Dest$[ebp], edx
	mov	DWORD PTR __Dest$[ebp+4], eax

; 1448 : 			_Dest = _Rep(_Dest, _Fill, _Fillcount);

	mov	ecx, DWORD PTR __Fillcount$[ebp]
	push	ecx
	movzx	edx, BYTE PTR __Fill$[ebp]
	push	edx
	mov	eax, DWORD PTR __Dest$[ebp+4]
	push	eax
	mov	ecx, DWORD PTR __Dest$[ebp]
	push	ecx
	lea	edx, DWORD PTR $T4[ebp]
	push	edx
	mov	eax, DWORD PTR _this$[ebp]
	push	eax
	call	?_Rep@?$num_put@DV?$ostreambuf_iterator@DU?$char_traits@D@std@@@std@@@std@@ABA?AV?$ostreambuf_iterator@DU?$char_traits@D@std@@@2@V32@DI@Z ; std::num_put<char,std::ostreambuf_iterator<char,std::char_traits<char> > >::_Rep
	add	esp, 24					; 00000018H
	mov	ecx, DWORD PTR [eax]
	mov	edx, DWORD PTR [eax+4]
	mov	DWORD PTR __Dest$[ebp], ecx
	mov	DWORD PTR __Dest$[ebp+4], edx

; 1449 : 			_Fillcount = 0;

	mov	DWORD PTR __Fillcount$[ebp], 0

; 1450 : 			}
; 1451 : 		else

	jmp	SHORT $LN3@Fput
$LN2@Fput:

; 1452 : 			_Dest = _Put(_Dest, &_Groupstring[0], _Prefix);

	mov	eax, DWORD PTR __Prefix$[ebp]
	push	eax
	push	0
	lea	ecx, DWORD PTR __Groupstring$[ebp]
	call	??A?$basic_string@DU?$char_traits@D@std@@V?$allocator@D@2@@std@@QAEAADI@Z ; std::basic_string<char,std::char_traits<char>,std::allocator<char> >::operator[]
	push	eax
	mov	ecx, DWORD PTR __Dest$[ebp+4]
	push	ecx
	mov	edx, DWORD PTR __Dest$[ebp]
	push	edx
	lea	eax, DWORD PTR $T3[ebp]
	push	eax
	mov	ecx, DWORD PTR _this$[ebp]
	push	ecx
	call	?_Put@?$num_put@DV?$ostreambuf_iterator@DU?$char_traits@D@std@@@std@@@std@@ABA?AV?$ostreambuf_iterator@DU?$char_traits@D@std@@@2@V32@PBDI@Z ; std::num_put<char,std::ostreambuf_iterator<char,std::char_traits<char> > >::_Put
	add	esp, 24					; 00000018H
	mov	edx, DWORD PTR [eax]
	mov	eax, DWORD PTR [eax+4]
	mov	DWORD PTR __Dest$[ebp], edx
	mov	DWORD PTR __Dest$[ebp+4], eax
$LN3@Fput:

; 1453 : 
; 1454 : 		_Dest = _Put(_Dest, &_Groupstring[_Prefix], _Count - _Prefix);

	mov	ecx, DWORD PTR __Count$[ebp]
	sub	ecx, DWORD PTR __Prefix$[ebp]
	push	ecx
	mov	edx, DWORD PTR __Prefix$[ebp]
	push	edx
	lea	ecx, DWORD PTR __Groupstring$[ebp]
	call	??A?$basic_string@DU?$char_traits@D@std@@V?$allocator@D@2@@std@@QAEAADI@Z ; std::basic_string<char,std::char_traits<char>,std::allocator<char> >::operator[]
	push	eax
	mov	eax, DWORD PTR __Dest$[ebp+4]
	push	eax
	mov	ecx, DWORD PTR __Dest$[ebp]
	push	ecx
	lea	edx, DWORD PTR $T2[ebp]
	push	edx
	mov	eax, DWORD PTR _this$[ebp]
	push	eax
	call	?_Put@?$num_put@DV?$ostreambuf_iterator@DU?$char_traits@D@std@@@std@@@std@@ABA?AV?$ostreambuf_iterator@DU?$char_traits@D@std@@@2@V32@PBDI@Z ; std::num_put<char,std::ostreambuf_iterator<char,std::char_traits<char> > >::_Put
	add	esp, 24					; 00000018H
	mov	ecx, DWORD PTR [eax]
	mov	edx, DWORD PTR [eax+4]
	mov	DWORD PTR __Dest$[ebp], ecx
	mov	DWORD PTR __Dest$[ebp+4], edx

; 1455 : 		_Iosbase.width(0);

	push	0
	push	0
	mov	ecx, DWORD PTR __Iosbase$[ebp]
	call	?width@ios_base@std@@QAE_J_J@Z		; std::ios_base::width

; 1456 : 		return (_Rep(_Dest, _Fill, _Fillcount));	// put trailing fill

	mov	eax, DWORD PTR __Fillcount$[ebp]
	push	eax
	movzx	ecx, BYTE PTR __Fill$[ebp]
	push	ecx
	mov	edx, DWORD PTR __Dest$[ebp+4]
	push	edx
	mov	eax, DWORD PTR __Dest$[ebp]
	push	eax
	mov	ecx, DWORD PTR ___$ReturnUdt$[ebp]
	push	ecx
	mov	edx, DWORD PTR _this$[ebp]
	push	edx
	call	?_Rep@?$num_put@DV?$ostreambuf_iterator@DU?$char_traits@D@std@@@std@@@std@@ABA?AV?$ostreambuf_iterator@DU?$char_traits@D@std@@@2@V32@DI@Z ; std::num_put<char,std::ostreambuf_iterator<char,std::char_traits<char> > >::_Rep
	add	esp, 24					; 00000018H
	mov	BYTE PTR __$EHRec$[ebp+8], 1
	lea	ecx, DWORD PTR __Grouping$[ebp]
	call	??1?$basic_string@DU?$char_traits@D@std@@V?$allocator@D@2@@std@@QAE@XZ ; std::basic_string<char,std::char_traits<char>,std::allocator<char> >::~basic_string<char,std::char_traits<char>,std::allocator<char> >
	mov	DWORD PTR __$EHRec$[ebp+8], -1
	lea	ecx, DWORD PTR __Groupstring$[ebp]
	call	??1?$basic_string@DU?$char_traits@D@std@@V?$allocator@D@2@@std@@QAE@XZ ; std::basic_string<char,std::char_traits<char>,std::allocator<char> >::~basic_string<char,std::char_traits<char>,std::allocator<char> >
	mov	eax, DWORD PTR ___$ReturnUdt$[ebp]

; 1457 : 		}

	push	edx
	mov	ecx, ebp
	push	eax
	lea	edx, DWORD PTR $LN31@Fput
	call	@_RTC_CheckStackVars@8
	pop	eax
	pop	edx
	mov	ecx, DWORD PTR __$EHRec$[ebp]
	mov	DWORD PTR fs:0, ecx
	pop	ecx
	pop	edi
	pop	ebx
	mov	ecx, DWORD PTR __$ArrayPad$[ebp]
	xor	ecx, ebp
	call	@__security_check_cookie@4
	add	esp, 236				; 000000ecH
	cmp	ebp, esp
	call	__RTC_CheckEsp
	mov	esp, ebp
	pop	ebp
	ret	0
	npad	1
$LN31@Fput:
	DD	3
	DD	$LN30@Fput
$LN30@Fput:
	DD	-36					; ffffffdcH
	DD	2
	DD	$LN26@Fput
	DD	-84					; ffffffacH
	DD	28					; 0000001cH
	DD	$LN27@Fput
	DD	-124					; ffffff84H
	DD	28					; 0000001cH
	DD	$LN28@Fput
$LN28@Fput:
	DB	95					; 0000005fH
	DB	71					; 00000047H
	DB	114					; 00000072H
	DB	111					; 0000006fH
	DB	117					; 00000075H
	DB	112					; 00000070H
	DB	105					; 00000069H
	DB	110					; 0000006eH
	DB	103					; 00000067H
	DB	0
$LN27@Fput:
	DB	95					; 0000005fH
	DB	71					; 00000047H
	DB	114					; 00000072H
	DB	111					; 0000006fH
	DB	117					; 00000075H
	DB	112					; 00000070H
	DB	115					; 00000073H
	DB	116					; 00000074H
	DB	114					; 00000072H
	DB	105					; 00000069H
	DB	110					; 0000006eH
	DB	103					; 00000067H
	DB	0
$LN26@Fput:
	DB	95					; 0000005fH
	DB	68					; 00000044H
	DB	112					; 00000070H
	DB	0
_TEXT	ENDS
;	COMDAT text$x
text$x	SEGMENT
__unwindfunclet$?_Fput@?$num_put@DV?$ostreambuf_iterator@DU?$char_traits@D@std@@@std@@@std@@ABA?AV?$ostreambuf_iterator@DU?$char_traits@D@std@@@2@V32@AAVios_base@2@DPBDIIII@Z$0:
	lea	ecx, DWORD PTR $T9[ebp]
	jmp	??1locale@std@@QAE@XZ			; std::locale::~locale
__unwindfunclet$?_Fput@?$num_put@DV?$ostreambuf_iterator@DU?$char_traits@D@std@@@std@@@std@@ABA?AV?$ostreambuf_iterator@DU?$char_traits@D@std@@@2@V32@AAVios_base@2@DPBDIIII@Z$1:
	lea	ecx, DWORD PTR __Groupstring$[ebp]
	jmp	??1?$basic_string@DU?$char_traits@D@std@@V?$allocator@D@2@@std@@QAE@XZ ; std::basic_string<char,std::char_traits<char>,std::allocator<char> >::~basic_string<char,std::char_traits<char>,std::allocator<char> >
__unwindfunclet$?_Fput@?$num_put@DV?$ostreambuf_iterator@DU?$char_traits@D@std@@@std@@@std@@ABA?AV?$ostreambuf_iterator@DU?$char_traits@D@std@@@2@V32@AAVios_base@2@DPBDIIII@Z$2:
	lea	ecx, DWORD PTR $T8[ebp]
	jmp	??1locale@std@@QAE@XZ			; std::locale::~locale
__unwindfunclet$?_Fput@?$num_put@DV?$ostreambuf_iterator@DU?$char_traits@D@std@@@std@@@std@@ABA?AV?$ostreambuf_iterator@DU?$char_traits@D@std@@@2@V32@AAVios_base@2@DPBDIIII@Z$3:
	lea	ecx, DWORD PTR __Grouping$[ebp]
	jmp	??1?$basic_string@DU?$char_traits@D@std@@V?$allocator@D@2@@std@@QAE@XZ ; std::basic_string<char,std::char_traits<char>,std::allocator<char> >::~basic_string<char,std::char_traits<char>,std::allocator<char> >
__ehhandler$?_Fput@?$num_put@DV?$ostreambuf_iterator@DU?$char_traits@D@std@@@std@@@std@@ABA?AV?$ostreambuf_iterator@DU?$char_traits@D@std@@@2@V32@AAVios_base@2@DPBDIIII@Z:
	mov	edx, DWORD PTR [esp+8]
	lea	eax, DWORD PTR [edx+12]
	mov	ecx, DWORD PTR [edx-236]
	xor	ecx, eax
	call	@__security_check_cookie@4
	mov	ecx, DWORD PTR [edx-4]
	xor	ecx, eax
	call	@__security_check_cookie@4
	mov	eax, OFFSET __ehfuncinfo$?_Fput@?$num_put@DV?$ostreambuf_iterator@DU?$char_traits@D@std@@@std@@@std@@ABA?AV?$ostreambuf_iterator@DU?$char_traits@D@std@@@2@V32@AAVios_base@2@DPBDIIII@Z
	jmp	___CxxFrameHandler3
text$x	ENDS
?_Fput@?$num_put@DV?$ostreambuf_iterator@DU?$char_traits@D@std@@@std@@@std@@ABA?AV?$ostreambuf_iterator@DU?$char_traits@D@std@@@2@V32@AAVios_base@2@DPBDIIII@Z ENDP ; std::num_put<char,std::ostreambuf_iterator<char,std::char_traits<char> > >::_Fput
; Function compile flags: /Odtp /RTCsu
; File c:\program files (x86)\microsoft visual studio 12.0\vc\include\xlocnum
;	COMDAT ?_Ffmt@?$num_put@DV?$ostreambuf_iterator@DU?$char_traits@D@std@@@std@@@std@@ABAPADPADDH@Z
_TEXT	SEGMENT
tv90 = -14						; size = 1
tv91 = -13						; size = 1
tv92 = -12						; size = 1
tv83 = -11						; size = 1
tv84 = -10						; size = 1
tv85 = -9						; size = 1
__Ffl$ = -8						; size = 4
__Ptr$ = -4						; size = 4
_this$ = 8						; size = 4
__Fmt$ = 12						; size = 4
__Spec$ = 16						; size = 1
__Flags$ = 20						; size = 4
?_Ffmt@?$num_put@DV?$ostreambuf_iterator@DU?$char_traits@D@std@@@std@@@std@@ABAPADPADDH@Z PROC ; std::num_put<char,std::ostreambuf_iterator<char,std::char_traits<char> > >::_Ffmt, COMDAT

; 1344 : 		{	// generate sprintf format for floating-point

	push	ebp
	mov	ebp, esp
	sub	esp, 16					; 00000010H
	mov	eax, -858993460				; ccccccccH
	mov	DWORD PTR [ebp-16], eax
	mov	DWORD PTR [ebp-12], eax
	mov	DWORD PTR [ebp-8], eax
	mov	DWORD PTR [ebp-4], eax

; 1345 : 		char *_Ptr = _Fmt;

	mov	eax, DWORD PTR __Fmt$[ebp]
	mov	DWORD PTR __Ptr$[ebp], eax

; 1346 : 		*_Ptr++ = '%';

	mov	ecx, DWORD PTR __Ptr$[ebp]
	mov	BYTE PTR [ecx], 37			; 00000025H
	mov	edx, DWORD PTR __Ptr$[ebp]
	add	edx, 1
	mov	DWORD PTR __Ptr$[ebp], edx

; 1347 : 
; 1348 : 		if (_Flags & ios_base::showpos)

	mov	eax, DWORD PTR __Flags$[ebp]
	and	eax, 32					; 00000020H
	je	SHORT $LN5@Ffmt

; 1349 : 			*_Ptr++ = '+';

	mov	ecx, DWORD PTR __Ptr$[ebp]
	mov	BYTE PTR [ecx], 43			; 0000002bH
	mov	edx, DWORD PTR __Ptr$[ebp]
	add	edx, 1
	mov	DWORD PTR __Ptr$[ebp], edx
$LN5@Ffmt:

