; Listing generated by Microsoft (R) Optimizing Compiler Version 18.00.31101.0 

	TITLE	C:\Users\Maxime\Videos\TP IA\VS2010\Common\fuzzy\FuzzyOperators.cpp
	.686P
	.XMM
	include listing.inc
	.model	flat

INCLUDELIB LIBCMTD
INCLUDELIB OLDNAMES

CONST	SEGMENT
_Pi	DQ	0400921f9f01b866er		; 3.14159
CONST	ENDS
PUBLIC	_hypot
PUBLIC	?max@?$numeric_limits@H@std@@SAHXZ		; std::numeric_limits<int>::max
PUBLIC	?min@?$numeric_limits@M@std@@SAMXZ		; std::numeric_limits<float>::min
PUBLIC	?max@?$numeric_limits@M@std@@SAMXZ		; std::numeric_limits<float>::max
PUBLIC	?min@?$numeric_limits@N@std@@SANXZ		; std::numeric_limits<double>::min
PUBLIC	?max@?$numeric_limits@N@std@@SANXZ		; std::numeric_limits<double>::max
PUBLIC	??2@YAPAXIPAX@Z					; operator new
PUBLIC	??3@YAXPAX0@Z					; operator delete
PUBLIC	?length@?$char_traits@D@std@@SAIPBD@Z		; std::char_traits<char>::length
PUBLIC	?copy@?$char_traits@D@std@@SAPADPADPBDI@Z	; std::char_traits<char>::copy
PUBLIC	?move@?$char_traits@D@std@@SAPADPADPBDI@Z	; std::char_traits<char>::move
PUBLIC	?assign@?$char_traits@D@std@@SAXAADABD@Z	; std::char_traits<char>::assign
PUBLIC	??0_Container_proxy@std@@QAE@XZ			; std::_Container_proxy::_Container_proxy
PUBLIC	??0_Container_base12@std@@QAE@XZ		; std::_Container_base12::_Container_base12
PUBLIC	??1_Container_base12@std@@QAE@XZ		; std::_Container_base12::~_Container_base12
PUBLIC	?_Getpfirst@_Container_base12@std@@QBEPAPAU_Iterator_base12@2@XZ ; std::_Container_base12::_Getpfirst
PUBLIC	?_Orphan_all@_Container_base12@std@@QAEXXZ	; std::_Container_base12::_Orphan_all
PUBLIC	??0_Iterator_base12@std@@QAE@XZ			; std::_Iterator_base12::_Iterator_base12
PUBLIC	??4_Iterator_base12@std@@QAEAAU01@ABU01@@Z	; std::_Iterator_base12::operator=
PUBLIC	??1_Iterator_base12@std@@QAE@XZ			; std::_Iterator_base12::~_Iterator_base12
PUBLIC	?_Adopt@_Iterator_base12@std@@QAEXPBU_Container_base12@2@@Z ; std::_Iterator_base12::_Adopt
PUBLIC	?_Clrcont@_Iterator_base12@std@@QAEXXZ		; std::_Iterator_base12::_Clrcont
PUBLIC	?_Getcont@_Iterator_base12@std@@QBEPBU_Container_base12@2@XZ ; std::_Iterator_base12::_Getcont
PUBLIC	?_Getpnext@_Iterator_base12@std@@QAEPAPAU12@XZ	; std::_Iterator_base12::_Getpnext
PUBLIC	?_Orphan_me@_Iterator_base12@std@@QAEXXZ	; std::_Iterator_base12::_Orphan_me
PUBLIC	??0?$allocator@D@std@@QAE@XZ			; std::allocator<char>::allocator<char>
PUBLIC	?deallocate@?$allocator@D@std@@QAEXPADI@Z	; std::allocator<char>::deallocate
PUBLIC	?allocate@?$allocator@D@std@@QAEPADI@Z		; std::allocator<char>::allocate
PUBLIC	?max_size@?$allocator@D@std@@QBEIXZ		; std::allocator<char>::max_size
PUBLIC	?max_size@?$allocator_traits@V?$allocator@D@std@@@std@@SAIABV?$allocator@D@2@@Z ; std::allocator_traits<std::allocator<char> >::max_size
PUBLIC	??0?$_Wrap_alloc@V?$allocator@D@std@@@std@@QAE@XZ ; std::_Wrap_alloc<std::allocator<char> >::_Wrap_alloc<std::allocator<char> >
PUBLIC	?allocate@?$_Wrap_alloc@V?$allocator@D@std@@@std@@QAEPADI@Z ; std::_Wrap_alloc<std::allocator<char> >::allocate
PUBLIC	?deallocate@?$_Wrap_alloc@V?$allocator@D@std@@@std@@QAEXPADI@Z ; std::_Wrap_alloc<std::allocator<char> >::deallocate
PUBLIC	?max_size@?$_Wrap_alloc@V?$allocator@D@std@@@std@@QBEIXZ ; std::_Wrap_alloc<std::allocator<char> >::max_size
PUBLIC	??0?$_String_val@U?$_Simple_types@D@std@@@std@@QAE@XZ ; std::_String_val<std::_Simple_types<char> >::_String_val<std::_Simple_types<char> >
PUBLIC	?_Myptr@?$_String_val@U?$_Simple_types@D@std@@@std@@QAEPADXZ ; std::_String_val<std::_Simple_types<char> >::_Myptr
PUBLIC	?_Myptr@?$_String_val@U?$_Simple_types@D@std@@@std@@QBEPBDXZ ; std::_String_val<std::_Simple_types<char> >::_Myptr
PUBLIC	??1?$_String_val@U?$_Simple_types@D@std@@@std@@QAE@XZ ; std::_String_val<std::_Simple_types<char> >::~_String_val<std::_Simple_types<char> >
PUBLIC	??0?$_String_alloc@$0A@U?$_String_base_types@DV?$allocator@D@std@@@std@@@std@@QAE@ABV?$allocator@D@1@@Z ; std::_String_alloc<0,std::_String_base_types<char,std::allocator<char> > >::_String_alloc<0,std::_String_base_types<char,std::allocator<char> > >
PUBLIC	??1?$_String_alloc@$0A@U?$_String_base_types@DV?$allocator@D@std@@@std@@@std@@QAE@XZ ; std::_String_alloc<0,std::_String_base_types<char,std::allocator<char> > >::~_String_alloc<0,std::_String_base_types<char,std::allocator<char> > >
PUBLIC	?_Alloc_proxy@?$_String_alloc@$0A@U?$_String_base_types@DV?$allocator@D@std@@@std@@@std@@QAEXXZ ; std::_String_alloc<0,std::_String_base_types<char,std::allocator<char> > >::_Alloc_proxy
PUBLIC	?_Free_proxy@?$_String_alloc@$0A@U?$_String_base_types@DV?$allocator@D@std@@@std@@@std@@QAEXXZ ; std::_String_alloc<0,std::_String_base_types<char,std::allocator<char> > >::_Free_proxy
PUBLIC	?_Getal@?$_String_alloc@$0A@U?$_String_base_types@DV?$allocator@D@std@@@std@@@std@@QBE?AU?$_Wrap_alloc@V?$allocator@D@std@@@2@XZ ; std::_String_alloc<0,std::_String_base_types<char,std::allocator<char> > >::_Getal
PUBLIC	??0?$basic_string@DU?$char_traits@D@std@@V?$allocator@D@2@@std@@QAE@PBD@Z ; std::basic_string<char,std::char_traits<char>,std::allocator<char> >::basic_string<char,std::char_traits<char>,std::allocator<char> >
PUBLIC	?assign@?$basic_string@DU?$char_traits@D@std@@V?$allocator@D@2@@std@@QAEAAV12@ABV12@II@Z ; std::basic_string<char,std::char_traits<char>,std::allocator<char> >::assign
PUBLIC	?assign@?$basic_string@DU?$char_traits@D@std@@V?$allocator@D@2@@std@@QAEAAV12@PBDI@Z ; std::basic_string<char,std::char_traits<char>,std::allocator<char> >::assign
PUBLIC	?assign@?$basic_string@DU?$char_traits@D@std@@V?$allocator@D@2@@std@@QAEAAV12@PBD@Z ; std::basic_string<char,std::char_traits<char>,std::allocator<char> >::assign
PUBLIC	?erase@?$basic_string@DU?$char_traits@D@std@@V?$allocator@D@2@@std@@QAEAAV12@I@Z ; std::basic_string<char,std::char_traits<char>,std::allocator<char> >::erase
PUBLIC	?erase@?$basic_string@DU?$char_traits@D@std@@V?$allocator@D@2@@std@@QAEAAV12@II@Z ; std::basic_string<char,std::char_traits<char>,std::allocator<char> >::erase
PUBLIC	?size@?$basic_string@DU?$char_traits@D@std@@V?$allocator@D@2@@std@@QBEIXZ ; std::basic_string<char,std::char_traits<char>,std::allocator<char> >::size
PUBLIC	?max_size@?$basic_string@DU?$char_traits@D@std@@V?$allocator@D@2@@std@@QBEIXZ ; std::basic_string<char,std::char_traits<char>,std::allocator<char> >::max_size
PUBLIC	?_Copy@?$basic_string@DU?$char_traits@D@std@@V?$allocator@D@2@@std@@QAEXII@Z ; std::basic_string<char,std::char_traits<char>,std::allocator<char> >::_Copy
PUBLIC	?_Eos@?$basic_string@DU?$char_traits@D@std@@V?$allocator@D@2@@std@@QAEXI@Z ; std::basic_string<char,std::char_traits<char>,std::allocator<char> >::_Eos
PUBLIC	?_Grow@?$basic_string@DU?$char_traits@D@std@@V?$allocator@D@2@@std@@QAE_NI_N@Z ; std::basic_string<char,std::char_traits<char>,std::allocator<char> >::_Grow
PUBLIC	?_Inside@?$basic_string@DU?$char_traits@D@std@@V?$allocator@D@2@@std@@QAE_NPBD@Z ; std::basic_string<char,std::char_traits<char>,std::allocator<char> >::_Inside
PUBLIC	?_Tidy@?$basic_string@DU?$char_traits@D@std@@V?$allocator@D@2@@std@@QAEX_NI@Z ; std::basic_string<char,std::char_traits<char>,std::allocator<char> >::_Tidy
PUBLIC	?_Xlen@?$basic_string@DU?$char_traits@D@std@@V?$allocator@D@2@@std@@QBEXXZ ; std::basic_string<char,std::char_traits<char>,std::allocator<char> >::_Xlen
PUBLIC	?_Xran@?$basic_string@DU?$char_traits@D@std@@V?$allocator@D@2@@std@@QBEXXZ ; std::basic_string<char,std::char_traits<char>,std::allocator<char> >::_Xran
PUBLIC	??0id@locale@std@@QAE@I@Z			; std::locale::id::id
PUBLIC	??$_Debug_pointer@D@std@@YAXPBDPB_WI@Z		; std::_Debug_pointer<char>
PUBLIC	?generic_category@std@@YAABVerror_category@1@XZ	; std::generic_category
PUBLIC	?system_category@std@@YAABVerror_category@1@XZ	; std::system_category
PUBLIC	??0error_category@std@@QAE@XZ			; std::error_category::error_category
PUBLIC	??1error_category@std@@UAE@XZ			; std::error_category::~error_category
PUBLIC	?default_error_condition@error_category@std@@UBE?AVerror_condition@2@H@Z ; std::error_category::default_error_condition
PUBLIC	?equivalent@error_category@std@@UBE_NHABVerror_condition@2@@Z ; std::error_category::equivalent
PUBLIC	?equivalent@error_category@std@@UBE_NABVerror_code@2@H@Z ; std::error_category::equivalent
PUBLIC	??8error_category@std@@QBE_NABV01@@Z		; std::error_category::operator==
PUBLIC	??_Gerror_category@std@@UAEPAXI@Z		; std::error_category::`scalar deleting destructor'
PUBLIC	?value@error_code@std@@QBEHXZ			; std::error_code::value
PUBLIC	?category@error_code@std@@QBEABVerror_category@2@XZ ; std::error_code::category
PUBLIC	??0error_condition@std@@QAE@HABVerror_category@1@@Z ; std::error_condition::error_condition
PUBLIC	?value@error_condition@std@@QBEHXZ		; std::error_condition::value
PUBLIC	?category@error_condition@std@@QBEABVerror_category@2@XZ ; std::error_condition::category
PUBLIC	??8error_condition@std@@QBE_NABV01@@Z		; std::error_condition::operator==
PUBLIC	??0_Generic_error_category@std@@QAE@XZ		; std::_Generic_error_category::_Generic_error_category
PUBLIC	?name@_Generic_error_category@std@@UBEPBDXZ	; std::_Generic_error_category::name
PUBLIC	?message@_Generic_error_category@std@@UBE?AV?$basic_string@DU?$char_traits@D@std@@V?$allocator@D@2@@2@H@Z ; std::_Generic_error_category::message
PUBLIC	??1_Generic_error_category@std@@UAE@XZ		; std::_Generic_error_category::~_Generic_error_category
PUBLIC	??_G_Generic_error_category@std@@UAEPAXI@Z	; std::_Generic_error_category::`scalar deleting destructor'
PUBLIC	??0_Iostream_error_category@std@@QAE@XZ		; std::_Iostream_error_category::_Iostream_error_category
PUBLIC	?name@_Iostream_error_category@std@@UBEPBDXZ	; std::_Iostream_error_category::name
PUBLIC	?message@_Iostream_error_category@std@@UBE?AV?$basic_string@DU?$char_traits@D@std@@V?$allocator@D@2@@2@H@Z ; std::_Iostream_error_category::message
PUBLIC	??1_Iostream_error_category@std@@UAE@XZ		; std::_Iostream_error_category::~_Iostream_error_category
PUBLIC	??_G_Iostream_error_category@std@@UAEPAXI@Z	; std::_Iostream_error_category::`scalar deleting destructor'
PUBLIC	??0_System_error_category@std@@QAE@XZ		; std::_System_error_category::_System_error_category
PUBLIC	?name@_System_error_category@std@@UBEPBDXZ	; std::_System_error_category::name
PUBLIC	?message@_System_error_category@std@@UBE?AV?$basic_string@DU?$char_traits@D@std@@V?$allocator@D@2@@2@H@Z ; std::_System_error_category::message
PUBLIC	?default_error_condition@_System_error_category@std@@UBE?AVerror_condition@2@H@Z ; std::_System_error_category::default_error_condition
PUBLIC	??1_System_error_category@std@@UAE@XZ		; std::_System_error_category::~_System_error_category
PUBLIC	??_G_System_error_category@std@@UAEPAXI@Z	; std::_System_error_category::`scalar deleting destructor'
PUBLIC	??1FuzzyTerm@@UAE@XZ				; FuzzyTerm::~FuzzyTerm
PUBLIC	??0FuzzyTerm@@QAE@XZ				; FuzzyTerm::FuzzyTerm
PUBLIC	??_GFuzzyTerm@@UAEPAXI@Z			; FuzzyTerm::`scalar deleting destructor'
PUBLIC	??0?$allocator@PAVFuzzyTerm@@@std@@QAE@XZ	; std::allocator<FuzzyTerm *>::allocator<FuzzyTerm *>
PUBLIC	?deallocate@?$allocator@PAVFuzzyTerm@@@std@@QAEXPAPAVFuzzyTerm@@I@Z ; std::allocator<FuzzyTerm *>::deallocate
PUBLIC	?allocate@?$allocator@PAVFuzzyTerm@@@std@@QAEPAPAVFuzzyTerm@@I@Z ; std::allocator<FuzzyTerm *>::allocate
PUBLIC	?max_size@?$allocator@PAVFuzzyTerm@@@std@@QBEIXZ ; std::allocator<FuzzyTerm *>::max_size
PUBLIC	?max_size@?$allocator_traits@V?$allocator@PAVFuzzyTerm@@@std@@@std@@SAIABV?$allocator@PAVFuzzyTerm@@@2@@Z ; std::allocator_traits<std::allocator<FuzzyTerm *> >::max_size
PUBLIC	??0?$_Wrap_alloc@V?$allocator@PAVFuzzyTerm@@@std@@@std@@QAE@XZ ; std::_Wrap_alloc<std::allocator<FuzzyTerm *> >::_Wrap_alloc<std::allocator<FuzzyTerm *> >
PUBLIC	?allocate@?$_Wrap_alloc@V?$allocator@PAVFuzzyTerm@@@std@@@std@@QAEPAPAVFuzzyTerm@@I@Z ; std::_Wrap_alloc<std::allocator<FuzzyTerm *> >::allocate
PUBLIC	?deallocate@?$_Wrap_alloc@V?$allocator@PAVFuzzyTerm@@@std@@@std@@QAEXPAPAVFuzzyTerm@@I@Z ; std::_Wrap_alloc<std::allocator<FuzzyTerm *> >::deallocate
PUBLIC	?max_size@?$_Wrap_alloc@V?$allocator@PAVFuzzyTerm@@@std@@@std@@QBEIXZ ; std::_Wrap_alloc<std::allocator<FuzzyTerm *> >::max_size
PUBLIC	??0?$_Vector_val@U?$_Simple_types@PAVFuzzyTerm@@@std@@@std@@QAE@XZ ; std::_Vector_val<std::_Simple_types<FuzzyTerm *> >::_Vector_val<std::_Simple_types<FuzzyTerm *> >
PUBLIC	??1?$_Vector_val@U?$_Simple_types@PAVFuzzyTerm@@@std@@@std@@QAE@XZ ; std::_Vector_val<std::_Simple_types<FuzzyTerm *> >::~_Vector_val<std::_Simple_types<FuzzyTerm *> >
PUBLIC	??0?$_Vector_alloc@$0A@U?$_Vec_base_types@PAVFuzzyTerm@@V?$allocator@PAVFuzzyTerm@@@std@@@std@@@std@@QAE@ABV?$allocator@PAVFuzzyTerm@@@1@@Z ; std::_Vector_alloc<0,std::_Vec_base_types<FuzzyTerm *,std::allocator<FuzzyTerm *> > >::_Vector_alloc<0,std::_Vec_base_types<FuzzyTerm *,std::allocator<FuzzyTerm *> > >
PUBLIC	??1?$_Vector_alloc@$0A@U?$_Vec_base_types@PAVFuzzyTerm@@V?$allocator@PAVFuzzyTerm@@@std@@@std@@@std@@QAE@XZ ; std::_Vector_alloc<0,std::_Vec_base_types<FuzzyTerm *,std::allocator<FuzzyTerm *> > >::~_Vector_alloc<0,std::_Vec_base_types<FuzzyTerm *,std::allocator<FuzzyTerm *> > >
PUBLIC	?_Alloc_proxy@?$_Vector_alloc@$0A@U?$_Vec_base_types@PAVFuzzyTerm@@V?$allocator@PAVFuzzyTerm@@@std@@@std@@@std@@QAEXXZ ; std::_Vector_alloc<0,std::_Vec_base_types<FuzzyTerm *,std::allocator<FuzzyTerm *> > >::_Alloc_proxy
PUBLIC	?_Free_proxy@?$_Vector_alloc@$0A@U?$_Vec_base_types@PAVFuzzyTerm@@V?$allocator@PAVFuzzyTerm@@@std@@@std@@@std@@QAEXXZ ; std::_Vector_alloc<0,std::_Vec_base_types<FuzzyTerm *,std::allocator<FuzzyTerm *> > >::_Free_proxy
PUBLIC	?_Getal@?$_Vector_alloc@$0A@U?$_Vec_base_types@PAVFuzzyTerm@@V?$allocator@PAVFuzzyTerm@@@std@@@std@@@std@@QBE?AU?$_Wrap_alloc@V?$allocator@PAVFuzzyTerm@@@std@@@2@XZ ; std::_Vector_alloc<0,std::_Vec_base_types<FuzzyTerm *,std::allocator<FuzzyTerm *> > >::_Getal
PUBLIC	??0?$vector@PAVFuzzyTerm@@V?$allocator@PAVFuzzyTerm@@@std@@@std@@QAE@XZ ; std::vector<FuzzyTerm *,std::allocator<FuzzyTerm *> >::vector<FuzzyTerm *,std::allocator<FuzzyTerm *> >
PUBLIC	?push_back@?$vector@PAVFuzzyTerm@@V?$allocator@PAVFuzzyTerm@@@std@@@std@@QAEX$$QAPAVFuzzyTerm@@@Z ; std::vector<FuzzyTerm *,std::allocator<FuzzyTerm *> >::push_back
PUBLIC	??1?$vector@PAVFuzzyTerm@@V?$allocator@PAVFuzzyTerm@@@std@@@std@@QAE@XZ ; std::vector<FuzzyTerm *,std::allocator<FuzzyTerm *> >::~vector<FuzzyTerm *,std::allocator<FuzzyTerm *> >
PUBLIC	?capacity@?$vector@PAVFuzzyTerm@@V?$allocator@PAVFuzzyTerm@@@std@@@std@@QBEIXZ ; std::vector<FuzzyTerm *,std::allocator<FuzzyTerm *> >::capacity
PUBLIC	?_Unused_capacity@?$vector@PAVFuzzyTerm@@V?$allocator@PAVFuzzyTerm@@@std@@@std@@QBEIXZ ; std::vector<FuzzyTerm *,std::allocator<FuzzyTerm *> >::_Unused_capacity
PUBLIC	?begin@?$vector@PAVFuzzyTerm@@V?$allocator@PAVFuzzyTerm@@@std@@@std@@QAE?AV?$_Vector_iterator@V?$_Vector_val@U?$_Simple_types@PAVFuzzyTerm@@@std@@@std@@@2@XZ ; std::vector<FuzzyTerm *,std::allocator<FuzzyTerm *> >::begin
PUBLIC	?begin@?$vector@PAVFuzzyTerm@@V?$allocator@PAVFuzzyTerm@@@std@@@std@@QBE?AV?$_Vector_const_iterator@V?$_Vector_val@U?$_Simple_types@PAVFuzzyTerm@@@std@@@std@@@2@XZ ; std::vector<FuzzyTerm *,std::allocator<FuzzyTerm *> >::begin
PUBLIC	?end@?$vector@PAVFuzzyTerm@@V?$allocator@PAVFuzzyTerm@@@std@@@std@@QAE?AV?$_Vector_iterator@V?$_Vector_val@U?$_Simple_types@PAVFuzzyTerm@@@std@@@std@@@2@XZ ; std::vector<FuzzyTerm *,std::allocator<FuzzyTerm *> >::end
PUBLIC	?end@?$vector@PAVFuzzyTerm@@V?$allocator@PAVFuzzyTerm@@@std@@@std@@QBE?AV?$_Vector_const_iterator@V?$_Vector_val@U?$_Simple_types@PAVFuzzyTerm@@@std@@@std@@@2@XZ ; std::vector<FuzzyTerm *,std::allocator<FuzzyTerm *> >::end
PUBLIC	?size@?$vector@PAVFuzzyTerm@@V?$allocator@PAVFuzzyTerm@@@std@@@std@@QBEIXZ ; std::vector<FuzzyTerm *,std::allocator<FuzzyTerm *> >::size
PUBLIC	?max_size@?$vector@PAVFuzzyTerm@@V?$allocator@PAVFuzzyTerm@@@std@@@std@@QBEIXZ ; std::vector<FuzzyTerm *,std::allocator<FuzzyTerm *> >::max_size
PUBLIC	?_Destroy@?$vector@PAVFuzzyTerm@@V?$allocator@PAVFuzzyTerm@@@std@@@std@@IAEXPAPAVFuzzyTerm@@0@Z ; std::vector<FuzzyTerm *,std::allocator<FuzzyTerm *> >::_Destroy
PUBLIC	?_Grow_to@?$vector@PAVFuzzyTerm@@V?$allocator@PAVFuzzyTerm@@@std@@@std@@IBEII@Z ; std::vector<FuzzyTerm *,std::allocator<FuzzyTerm *> >::_Grow_to
PUBLIC	?_Inside@?$vector@PAVFuzzyTerm@@V?$allocator@PAVFuzzyTerm@@@std@@@std@@IBE_NPBQAVFuzzyTerm@@@Z ; std::vector<FuzzyTerm *,std::allocator<FuzzyTerm *> >::_Inside
PUBLIC	?_Reallocate@?$vector@PAVFuzzyTerm@@V?$allocator@PAVFuzzyTerm@@@std@@@std@@IAEXI@Z ; std::vector<FuzzyTerm *,std::allocator<FuzzyTerm *> >::_Reallocate
PUBLIC	?_Reserve@?$vector@PAVFuzzyTerm@@V?$allocator@PAVFuzzyTerm@@@std@@@std@@IAEXI@Z ; std::vector<FuzzyTerm *,std::allocator<FuzzyTerm *> >::_Reserve
PUBLIC	?_Tidy@?$vector@PAVFuzzyTerm@@V?$allocator@PAVFuzzyTerm@@@std@@@std@@IAEXXZ ; std::vector<FuzzyTerm *,std::allocator<FuzzyTerm *> >::_Tidy
PUBLIC	?_Xlen@?$vector@PAVFuzzyTerm@@V?$allocator@PAVFuzzyTerm@@@std@@@std@@IBEXXZ ; std::vector<FuzzyTerm *,std::allocator<FuzzyTerm *> >::_Xlen
PUBLIC	?_Orphan_range@?$vector@PAVFuzzyTerm@@V?$allocator@PAVFuzzyTerm@@@std@@@std@@IBEXPAPAVFuzzyTerm@@0@Z ; std::vector<FuzzyTerm *,std::allocator<FuzzyTerm *> >::_Orphan_range
PUBLIC	??1FzAND@@UAE@XZ				; FzAND::~FzAND
PUBLIC	??0FzAND@@QAE@ABV0@@Z				; FzAND::FzAND
PUBLIC	??0FzAND@@QAE@AAVFuzzyTerm@@0@Z			; FzAND::FzAND
PUBLIC	??0FzAND@@QAE@AAVFuzzyTerm@@00@Z		; FzAND::FzAND
PUBLIC	??0FzAND@@QAE@AAVFuzzyTerm@@000@Z		; FzAND::FzAND
PUBLIC	?Clone@FzAND@@UBEPAVFuzzyTerm@@XZ		; FzAND::Clone
PUBLIC	?GetDOM@FzAND@@UBENXZ				; FzAND::GetDOM
PUBLIC	?ClearDOM@FzAND@@UAEXXZ				; FzAND::ClearDOM
PUBLIC	?ORwithDOM@FzAND@@UAEXN@Z			; FzAND::ORwithDOM
PUBLIC	??_GFzAND@@UAEPAXI@Z				; FzAND::`scalar deleting destructor'
PUBLIC	??1FzOR@@UAE@XZ					; FzOR::~FzOR
PUBLIC	??0FzOR@@QAE@ABV0@@Z				; FzOR::FzOR
PUBLIC	??0FzOR@@QAE@AAVFuzzyTerm@@0@Z			; FzOR::FzOR
PUBLIC	??0FzOR@@QAE@AAVFuzzyTerm@@00@Z			; FzOR::FzOR
PUBLIC	??0FzOR@@QAE@AAVFuzzyTerm@@000@Z		; FzOR::FzOR
PUBLIC	?Clone@FzOR@@UBEPAVFuzzyTerm@@XZ		; FzOR::Clone
PUBLIC	?GetDOM@FzOR@@UBENXZ				; FzOR::GetDOM
PUBLIC	?ClearDOM@FzOR@@UAEXXZ				; FzOR::ClearDOM
PUBLIC	?ORwithDOM@FzOR@@UAEXN@Z			; FzOR::ORwithDOM
PUBLIC	??_GFzOR@@UAEPAXI@Z				; FzOR::`scalar deleting destructor'
PUBLIC	??0?$_Iterator012@Urandom_access_iterator_tag@std@@PAVFuzzyTerm@@HPBQAV3@ABQAV3@U_Iterator_base12@2@@std@@QAE@XZ ; std::_Iterator012<std::random_access_iterator_tag,FuzzyTerm *,int,FuzzyTerm * const *,FuzzyTerm * const &,std::_Iterator_base12>::_Iterator012<std::random_access_iterator_tag,FuzzyTerm *,int,FuzzyTerm * const *,FuzzyTerm * const &,std::_Iterator_base12>
PUBLIC	??1?$_Iterator012@Urandom_access_iterator_tag@std@@PAVFuzzyTerm@@HPBQAV3@ABQAV3@U_Iterator_base12@2@@std@@QAE@XZ ; std::_Iterator012<std::random_access_iterator_tag,FuzzyTerm *,int,FuzzyTerm * const *,FuzzyTerm * const &,std::_Iterator_base12>::~_Iterator012<std::random_access_iterator_tag,FuzzyTerm *,int,FuzzyTerm * const *,FuzzyTerm * const &,std::_Iterator_base12>
PUBLIC	??4?$_Iterator012@Urandom_access_iterator_tag@std@@PAVFuzzyTerm@@HPBQAV3@ABQAV3@U_Iterator_base12@2@@std@@QAEAAU01@ABU01@@Z ; std::_Iterator012<std::random_access_iterator_tag,FuzzyTerm *,int,FuzzyTerm * const *,FuzzyTerm * const &,std::_Iterator_base12>::operator=
PUBLIC	??0?$_Vector_const_iterator@V?$_Vector_val@U?$_Simple_types@PAVFuzzyTerm@@@std@@@std@@@std@@QAE@XZ ; std::_Vector_const_iterator<std::_Vector_val<std::_Simple_types<FuzzyTerm *> > >::_Vector_const_iterator<std::_Vector_val<std::_Simple_types<FuzzyTerm *> > >
PUBLIC	??0?$_Vector_const_iterator@V?$_Vector_val@U?$_Simple_types@PAVFuzzyTerm@@@std@@@std@@@std@@QAE@PAPAVFuzzyTerm@@PBU_Container_base12@1@@Z ; std::_Vector_const_iterator<std::_Vector_val<std::_Simple_types<FuzzyTerm *> > >::_Vector_const_iterator<std::_Vector_val<std::_Simple_types<FuzzyTerm *> > >
PUBLIC	??D?$_Vector_const_iterator@V?$_Vector_val@U?$_Simple_types@PAVFuzzyTerm@@@std@@@std@@@std@@QBEABQAVFuzzyTerm@@XZ ; std::_Vector_const_iterator<std::_Vector_val<std::_Simple_types<FuzzyTerm *> > >::operator*
PUBLIC	??E?$_Vector_const_iterator@V?$_Vector_val@U?$_Simple_types@PAVFuzzyTerm@@@std@@@std@@@std@@QAEAAV01@XZ ; std::_Vector_const_iterator<std::_Vector_val<std::_Simple_types<FuzzyTerm *> > >::operator++
PUBLIC	??8?$_Vector_const_iterator@V?$_Vector_val@U?$_Simple_types@PAVFuzzyTerm@@@std@@@std@@@std@@QBE_NABV01@@Z ; std::_Vector_const_iterator<std::_Vector_val<std::_Simple_types<FuzzyTerm *> > >::operator==
PUBLIC	??9?$_Vector_const_iterator@V?$_Vector_val@U?$_Simple_types@PAVFuzzyTerm@@@std@@@std@@@std@@QBE_NABV01@@Z ; std::_Vector_const_iterator<std::_Vector_val<std::_Simple_types<FuzzyTerm *> > >::operator!=
PUBLIC	?_Compat@?$_Vector_const_iterator@V?$_Vector_val@U?$_Simple_types@PAVFuzzyTerm@@@std@@@std@@@std@@QBEXABV12@@Z ; std::_Vector_const_iterator<std::_Vector_val<std::_Simple_types<FuzzyTerm *> > >::_Compat
PUBLIC	??1?$_Vector_const_iterator@V?$_Vector_val@U?$_Simple_types@PAVFuzzyTerm@@@std@@@std@@@std@@QAE@XZ ; std::_Vector_const_iterator<std::_Vector_val<std::_Simple_types<FuzzyTerm *> > >::~_Vector_const_iterator<std::_Vector_val<std::_Simple_types<FuzzyTerm *> > >
PUBLIC	??4?$_Vector_const_iterator@V?$_Vector_val@U?$_Simple_types@PAVFuzzyTerm@@@std@@@std@@@std@@QAEAAV01@ABV01@@Z ; std::_Vector_const_iterator<std::_Vector_val<std::_Simple_types<FuzzyTerm *> > >::operator=
PUBLIC	??0?$_Vector_iterator@V?$_Vector_val@U?$_Simple_types@PAVFuzzyTerm@@@std@@@std@@@std@@QAE@XZ ; std::_Vector_iterator<std::_Vector_val<std::_Simple_types<FuzzyTerm *> > >::_Vector_iterator<std::_Vector_val<std::_Simple_types<FuzzyTerm *> > >
PUBLIC	??0?$_Vector_iterator@V?$_Vector_val@U?$_Simple_types@PAVFuzzyTerm@@@std@@@std@@@std@@QAE@PAPAVFuzzyTerm@@PBU_Container_base12@1@@Z ; std::_Vector_iterator<std::_Vector_val<std::_Simple_types<FuzzyTerm *> > >::_Vector_iterator<std::_Vector_val<std::_Simple_types<FuzzyTerm *> > >
PUBLIC	??D?$_Vector_iterator@V?$_Vector_val@U?$_Simple_types@PAVFuzzyTerm@@@std@@@std@@@std@@QBEAAPAVFuzzyTerm@@XZ ; std::_Vector_iterator<std::_Vector_val<std::_Simple_types<FuzzyTerm *> > >::operator*
PUBLIC	??E?$_Vector_iterator@V?$_Vector_val@U?$_Simple_types@PAVFuzzyTerm@@@std@@@std@@@std@@QAEAAV01@XZ ; std::_Vector_iterator<std::_Vector_val<std::_Simple_types<FuzzyTerm *> > >::operator++
PUBLIC	??1?$_Vector_iterator@V?$_Vector_val@U?$_Simple_types@PAVFuzzyTerm@@@std@@@std@@@std@@QAE@XZ ; std::_Vector_iterator<std::_Vector_val<std::_Simple_types<FuzzyTerm *> > >::~_Vector_iterator<std::_Vector_val<std::_Simple_types<FuzzyTerm *> > >
PUBLIC	??4?$_Vector_iterator@V?$_Vector_val@U?$_Simple_types@PAVFuzzyTerm@@@std@@@std@@@std@@QAEAAV01@ABV01@@Z ; std::_Vector_iterator<std::_Vector_val<std::_Simple_types<FuzzyTerm *> > >::operator=
PUBLIC	??$addressof@PAVFuzzyTerm@@@std@@YAPAPAVFuzzyTerm@@AAPAV1@@Z ; std::addressof<FuzzyTerm *>
PUBLIC	??$forward@PAVFuzzyTerm@@@std@@YA$$QAPAVFuzzyTerm@@AAPAV1@@Z ; std::forward<FuzzyTerm *>
PUBLIC	??$construct@PAVFuzzyTerm@@PAV1@@?$_Wrap_alloc@V?$allocator@PAVFuzzyTerm@@@std@@@std@@QAEXPAPAVFuzzyTerm@@$$QAPAV2@@Z ; std::_Wrap_alloc<std::allocator<FuzzyTerm *> >::construct<FuzzyTerm *,FuzzyTerm *>
PUBLIC	??$construct@PADAAPAD@?$_Wrap_alloc@V?$allocator@D@std@@@std@@QAEXPAPADAAPAD@Z ; std::_Wrap_alloc<std::allocator<char> >::construct<char *,char * &>
PUBLIC	??$destroy@PAD@?$_Wrap_alloc@V?$allocator@D@std@@@std@@QAEXPAPAD@Z ; std::_Wrap_alloc<std::allocator<char> >::destroy<char *>
PUBLIC	??$addressof@D@std@@YAPADAAD@Z			; std::addressof<char>
PUBLIC	??0?$allocator@U_Container_proxy@std@@@std@@QAE@XZ ; std::allocator<std::_Container_proxy>::allocator<std::_Container_proxy>
PUBLIC	?deallocate@?$allocator@U_Container_proxy@std@@@std@@QAEXPAU_Container_proxy@2@I@Z ; std::allocator<std::_Container_proxy>::deallocate
PUBLIC	?allocate@?$allocator@U_Container_proxy@std@@@std@@QAEPAU_Container_proxy@2@I@Z ; std::allocator<std::_Container_proxy>::allocate
PUBLIC	??$construct@U_Container_proxy@std@@U12@@?$allocator@U_Container_proxy@std@@@std@@QAEXPAU_Container_proxy@1@$$QAU21@@Z ; std::allocator<std::_Container_proxy>::construct<std::_Container_proxy,std::_Container_proxy>
PUBLIC	??$destroy@U_Container_proxy@std@@@?$allocator@U_Container_proxy@std@@@std@@QAEXPAU_Container_proxy@1@@Z ; std::allocator<std::_Container_proxy>::destroy<std::_Container_proxy>
PUBLIC	??$_Destroy_range@U?$_Wrap_alloc@V?$allocator@PAVFuzzyTerm@@@std@@@std@@@std@@YAXPAPAVFuzzyTerm@@0AAU?$_Wrap_alloc@V?$allocator@PAVFuzzyTerm@@@std@@@0@@Z ; std::_Destroy_range<std::_Wrap_alloc<std::allocator<FuzzyTerm *> > >
PUBLIC	??$_Umove@PAPAVFuzzyTerm@@@?$vector@PAVFuzzyTerm@@V?$allocator@PAVFuzzyTerm@@@std@@@std@@IAEPAPAVFuzzyTerm@@PAPAV2@00@Z ; std::vector<FuzzyTerm *,std::allocator<FuzzyTerm *> >::_Umove<FuzzyTerm * *>
PUBLIC	??0?$_Wrap_alloc@V?$allocator@U_Container_proxy@std@@@std@@@std@@QAE@XZ ; std::_Wrap_alloc<std::allocator<std::_Container_proxy> >::_Wrap_alloc<std::allocator<std::_Container_proxy> >
PUBLIC	?allocate@?$_Wrap_alloc@V?$allocator@U_Container_proxy@std@@@std@@@std@@QAEPAU_Container_proxy@2@I@Z ; std::_Wrap_alloc<std::allocator<std::_Container_proxy> >::allocate
PUBLIC	?deallocate@?$_Wrap_alloc@V?$allocator@U_Container_proxy@std@@@std@@@std@@QAEXPAU_Container_proxy@2@I@Z ; std::_Wrap_alloc<std::allocator<std::_Container_proxy> >::deallocate
PUBLIC	??$construct@U_Container_proxy@std@@U12@@?$_Wrap_alloc@V?$allocator@U_Container_proxy@std@@@std@@@std@@QAEXPAU_Container_proxy@1@$$QAU21@@Z ; std::_Wrap_alloc<std::allocator<std::_Container_proxy> >::construct<std::_Container_proxy,std::_Container_proxy>
PUBLIC	??$destroy@U_Container_proxy@std@@@?$_Wrap_alloc@V?$allocator@U_Container_proxy@std@@@std@@@std@@QAEXPAU_Container_proxy@1@@Z ; std::_Wrap_alloc<std::allocator<std::_Container_proxy> >::destroy<std::_Container_proxy>
PUBLIC	??$_Allocate@U_Container_proxy@std@@@std@@YAPAU_Container_proxy@0@IPAU10@@Z ; std::_Allocate<std::_Container_proxy>
PUBLIC	??$_Allocate@PAVFuzzyTerm@@@std@@YAPAPAVFuzzyTerm@@IPAPAV1@@Z ; std::_Allocate<FuzzyTerm *>
PUBLIC	??$_Allocate@D@std@@YAPADIPAD@Z			; std::_Allocate<char>
PUBLIC	??$construct@PAVFuzzyTerm@@PAV1@@?$allocator_traits@V?$allocator@PAVFuzzyTerm@@@std@@@std@@SAXAAV?$allocator@PAVFuzzyTerm@@@1@PAPAVFuzzyTerm@@$$QAPAV3@@Z ; std::allocator_traits<std::allocator<FuzzyTerm *> >::construct<FuzzyTerm *,FuzzyTerm *>
PUBLIC	??$forward@AAPAD@std@@YAAAPADAAPAD@Z		; std::forward<char * &>
PUBLIC	??$construct@PADAAPAD@?$allocator_traits@V?$allocator@D@std@@@std@@SAXAAV?$allocator@D@1@PAPADAAPAD@Z ; std::allocator_traits<std::allocator<char> >::construct<char *,char * &>
PUBLIC	??$destroy@PAD@?$allocator_traits@V?$allocator@D@std@@@std@@SAXAAV?$allocator@D@1@PAPAD@Z ; std::allocator_traits<std::allocator<char> >::destroy<char *>
PUBLIC	??$forward@U_Container_proxy@std@@@std@@YA$$QAU_Container_proxy@0@AAU10@@Z ; std::forward<std::_Container_proxy>
PUBLIC	??$_Ptr_cat@PAVFuzzyTerm@@PAV1@@std@@YA?AU_Scalar_ptr_iterator_tag@0@PAPAVFuzzyTerm@@0@Z ; std::_Ptr_cat<FuzzyTerm *,FuzzyTerm *>
PUBLIC	??$_Destroy_range@U?$_Wrap_alloc@V?$allocator@PAVFuzzyTerm@@@std@@@std@@@std@@YAXPAPAVFuzzyTerm@@0AAU?$_Wrap_alloc@V?$allocator@PAVFuzzyTerm@@@std@@@0@U_Scalar_ptr_iterator_tag@0@@Z ; std::_Destroy_range<std::_Wrap_alloc<std::allocator<FuzzyTerm *> > >
PUBLIC	??$_Uninitialized_move@PAPAVFuzzyTerm@@PAPAV1@U?$_Wrap_alloc@V?$allocator@PAVFuzzyTerm@@@std@@@std@@@std@@YAPAPAVFuzzyTerm@@PAPAV1@00AAU?$_Wrap_alloc@V?$allocator@PAVFuzzyTerm@@@std@@@0@@Z ; std::_Uninitialized_move<FuzzyTerm * *,FuzzyTerm * *,std::_Wrap_alloc<std::allocator<FuzzyTerm *> > >
PUBLIC	??$construct@U_Container_proxy@std@@U12@@?$allocator_traits@V?$allocator@U_Container_proxy@std@@@std@@@std@@SAXAAV?$allocator@U_Container_proxy@std@@@1@PAU_Container_proxy@1@$$QAU31@@Z ; std::allocator_traits<std::allocator<std::_Container_proxy> >::construct<std::_Container_proxy,std::_Container_proxy>
PUBLIC	??$destroy@U_Container_proxy@std@@@?$allocator_traits@V?$allocator@U_Container_proxy@std@@@std@@@std@@SAXAAV?$allocator@U_Container_proxy@std@@@1@PAU_Container_proxy@1@@Z ; std::allocator_traits<std::allocator<std::_Container_proxy> >::destroy<std::_Container_proxy>
PUBLIC	??$construct@PAVFuzzyTerm@@PAV1@@?$allocator@PAVFuzzyTerm@@@std@@QAEXPAPAVFuzzyTerm@@$$QAPAV2@@Z ; std::allocator<FuzzyTerm *>::construct<FuzzyTerm *,FuzzyTerm *>
PUBLIC	??$construct@PADAAPAD@?$allocator@D@std@@QAEXPAPADAAPAD@Z ; std::allocator<char>::construct<char *,char * &>
PUBLIC	??$destroy@PAD@?$allocator@D@std@@QAEXPAPAD@Z	; std::allocator<char>::destroy<char *>
PUBLIC	??$_Unchecked@PAPAVFuzzyTerm@@@std@@YAPAPAVFuzzyTerm@@PAPAV1@@Z ; std::_Unchecked<FuzzyTerm * *>
PUBLIC	??$_Uninit_move@PAPAVFuzzyTerm@@PAPAV1@U?$_Wrap_alloc@V?$allocator@PAVFuzzyTerm@@@std@@@std@@@std@@YAPAPAVFuzzyTerm@@PAPAV1@00AAU?$_Wrap_alloc@V?$allocator@PAVFuzzyTerm@@@std@@@0@@Z ; std::_Uninit_move<FuzzyTerm * *,FuzzyTerm * *,std::_Wrap_alloc<std::allocator<FuzzyTerm *> > >
PUBLIC	??$_Rechecked@PAPAVFuzzyTerm@@PAPAV1@@std@@YAAAPAPAVFuzzyTerm@@AAPAPAV1@PAPAV1@@Z ; std::_Rechecked<FuzzyTerm * *,FuzzyTerm * *>
PUBLIC	??$_Val_type@PAPAVFuzzyTerm@@@std@@YAPAPAVFuzzyTerm@@PAPAV1@@Z ; std::_Val_type<FuzzyTerm * *>
PUBLIC	??$_Uninit_move@PAVFuzzyTerm@@PAV1@PAV1@@std@@YAPAPAVFuzzyTerm@@PAPAV1@00AAU?$_Wrap_alloc@V?$allocator@PAVFuzzyTerm@@@std@@@0@0U_Scalar_ptr_iterator_tag@0@@Z ; std::_Uninit_move<FuzzyTerm *,FuzzyTerm *,FuzzyTerm *>
PUBLIC	??$_Debug_range@PAPAVFuzzyTerm@@@std@@YAXPAPAVFuzzyTerm@@0PB_WI@Z ; std::_Debug_range<FuzzyTerm * *>
PUBLIC	??$_Debug_pointer@PAVFuzzyTerm@@@std@@YAXPAPAVFuzzyTerm@@PB_WI@Z ; std::_Debug_pointer<FuzzyTerm *>
PUBLIC	??$_Iter_cat@PAPAVFuzzyTerm@@@std@@YA?AUrandom_access_iterator_tag@0@ABQAPAVFuzzyTerm@@@Z ; std::_Iter_cat<FuzzyTerm * *>
PUBLIC	??$_Debug_range2@PAPAVFuzzyTerm@@@std@@YAXPAPAVFuzzyTerm@@0PB_WIUrandom_access_iterator_tag@0@@Z ; std::_Debug_range2<FuzzyTerm * *>
PUBLIC	??_C@_1JA@EADLBAJ@?$AAC?$AA?3?$AA?2?$AAP?$AAr?$AAo?$AAg?$AAr?$AAa?$AAm?$AA?5?$AAF?$AAi?$AAl?$AAe?$AAs?$AA?5?$AA?$CI?$AAx?$AA8?$AA6?$AA?$CJ?$AA?2?$AAM?$AAi?$AAc?$AAr?$AAo?$AAs?$AAo?$AAf?$AAt@ ; `string'
PUBLIC	??_C@_1DC@POOIKBAO@?$AAI?$AAT?$AAE?$AAR?$AAA?$AAT?$AAO?$AAR?$AA?5?$AAL?$AAI?$AAS?$AAT?$AA?5?$AAC?$AAO?$AAR?$AAR?$AAU?$AAP?$AAT?$AAE?$AAD?$AA?$CB?$AA?$AA@ ; `string'
PUBLIC	??_7error_category@std@@6B@			; std::error_category::`vftable'
PUBLIC	??_7_Generic_error_category@std@@6B@		; std::_Generic_error_category::`vftable'
PUBLIC	??_C@_07DCLBNMLN@generic?$AA@			; `string'
PUBLIC	??_C@_0O@BFJCFAAK@unknown?5error?$AA@		; `string'
PUBLIC	??_7_Iostream_error_category@std@@6B@		; std::_Iostream_error_category::`vftable'
PUBLIC	??_C@_08LLGCOLLL@iostream?$AA@			; `string'
PUBLIC	??_C@_0BG@PADBLCHM@iostream?5stream?5error?$AA@	; `string'
PUBLIC	??_7_System_error_category@std@@6B@		; std::_System_error_category::`vftable'
PUBLIC	??_C@_06FHFOAHML@system?$AA@			; `string'
PUBLIC	?_Generic_object@?$_Error_objects@H@std@@2V_Generic_error_category@2@A ; std::_Error_objects<int>::_Generic_object
PUBLIC	?_Iostream_object@?$_Error_objects@H@std@@2V_Iostream_error_category@2@A ; std::_Error_objects<int>::_Iostream_object
PUBLIC	?_System_object@?$_Error_objects@H@std@@2V_System_error_category@2@A ; std::_Error_objects<int>::_System_object
PUBLIC	?id@?$num_put@DV?$back_insert_iterator@V?$basic_string@DU?$char_traits@D@std@@V?$allocator@D@2@@std@@@std@@@std@@2V0locale@2@A ; std::num_put<char,std::back_insert_iterator<std::basic_string<char,std::char_traits<char>,std::allocator<char> > > >::id
PUBLIC	?id@?$num_put@_WV?$back_insert_iterator@V?$basic_string@_WU?$char_traits@_W@std@@V?$allocator@_W@2@@std@@@std@@@std@@2V0locale@2@A ; std::num_put<wchar_t,std::back_insert_iterator<std::basic_string<wchar_t,std::char_traits<wchar_t>,std::allocator<wchar_t> > > >::id
PUBLIC	??_7FuzzyTerm@@6B@				; FuzzyTerm::`vftable'
PUBLIC	??_7FzAND@@6B@					; FzAND::`vftable'
PUBLIC	??_7FzOR@@6B@					; FzOR::`vftable'
PUBLIC	??_C@_1IE@CIAIIFIM@?$AAc?$AA?3?$AA?2?$AAu?$AAs?$AAe?$AAr?$AAs?$AA?2?$AAm?$AAa?$AAx?$AAi?$AAm?$AAe?$AA?2?$AAv?$AAi?$AAd?$AAe?$AAo?$AAs?$AA?2?$AAt?$AAp?$AA?5?$AAi?$AAa?$AA?2?$AAv?$AAs?$AA2@ ; `string'
PUBLIC	??_C@_1FC@EJGEACIH@?$AA0?$AA?5?$AA?$CG?$AA?$CG?$AA?5?$AA?$CC?$AA?$DM?$AAF?$AAz?$AAO?$AAR?$AA?3?$AA?3?$AAC?$AAl?$AAe?$AAa?$AAr?$AAD?$AAO?$AAM?$AA?$DO?$AA?3?$AA?5?$AAi?$AAn?$AAv?$AAa?$AAl?$AAi?$AAd?$AA?5@ ; `string'
PUBLIC	??_C@_1FE@EKNHDPMB@?$AA0?$AA?5?$AA?$CG?$AA?$CG?$AA?5?$AA?$CC?$AA?$DM?$AAF?$AAz?$AAO?$AAR?$AA?3?$AA?3?$AAO?$AAR?$AAw?$AAi?$AAt?$AAh?$AAD?$AAO?$AAM?$AA?$DO?$AA?3?$AA?5?$AAi?$AAn?$AAv?$AAa?$AAl?$AAi?$AAd@ ; `string'
PUBLIC	??_C@_1IO@FEAPGJBD@?$AAC?$AA?3?$AA?2?$AAP?$AAr?$AAo?$AAg?$AAr?$AAa?$AAm?$AA?5?$AAF?$AAi?$AAl?$AAe?$AAs?$AA?5?$AA?$CI?$AAx?$AA8?$AA6?$AA?$CJ?$AA?2?$AAM?$AAi?$AAc?$AAr?$AAo?$AAs?$AAo?$AAf?$AAt@ ; `string'
PUBLIC	?id@?$numpunct@D@std@@2V0locale@2@A		; std::numpunct<char>::id
PUBLIC	?id@?$numpunct@_W@std@@2V0locale@2@A		; std::numpunct<wchar_t>::id
PUBLIC	??_C@_1IM@EINEHPHE@?$AAC?$AA?3?$AA?2?$AAP?$AAr?$AAo?$AAg?$AAr?$AAa?$AAm?$AA?5?$AAF?$AAi?$AAl?$AAe?$AAs?$AA?5?$AA?$CI?$AAx?$AA8?$AA6?$AA?$CJ?$AA?2?$AAM?$AAi?$AAc?$AAr?$AAo?$AAs?$AAo?$AAf?$AAt@ ; `string'
PUBLIC	??_C@_0CE@OFMIGAMM@Standard?5C?$CL?$CL?5Libraries?5Out?5of?5Ra@ ; `string'
PUBLIC	??_C@_1FG@IBPIFFN@?$AA?$CC?$AAS?$AAt?$AAa?$AAn?$AAd?$AAa?$AAr?$AAd?$AA?5?$AAC?$AA?$CL?$AA?$CL?$AA?5?$AAL?$AAi?$AAb?$AAr?$AAa?$AAr?$AAi?$AAe?$AAs?$AA?5?$AAO?$AAu?$AAt?$AA?5?$AAo?$AAf?$AA?5?$AAR@ ; `string'
PUBLIC	??_C@_15GANGMFKL@?$AA?$CF?$AAs?$AA?$AA@		; `string'
PUBLIC	??_C@_1BO@MEPPHOO@?$AA?$CC?$AAo?$AAu?$AAt?$AA?5?$AAo?$AAf?$AA?5?$AAr?$AAa?$AAn?$AAg?$AAe?$AA?$CC?$AA?$AA@ ; `string'
PUBLIC	??_C@_1EG@FOHJJHAC@?$AAv?$AAe?$AAc?$AAt?$AAo?$AAr?$AA?5?$AAi?$AAt?$AAe?$AAr?$AAa?$AAt?$AAo?$AAr?$AA?5?$AAn?$AAo?$AAt?$AA?5?$AAd?$AAe?$AAr?$AAe?$AAf?$AAe?$AAr?$AAe?$AAn?$AAc?$AAa?$AAb@ ; `string'
PUBLIC	??_C@_1OA@BIBNCNDA@?$AAs?$AAt?$AAd?$AA?3?$AA?3?$AA_?$AAV?$AAe?$AAc?$AAt?$AAo?$AAr?$AA_?$AAc?$AAo?$AAn?$AAs?$AAt?$AA_?$AAi?$AAt?$AAe?$AAr?$AAa?$AAt?$AAo?$AAr?$AA?$DM?$AAc?$AAl?$AAa?$AAs@ ; `string'
PUBLIC	??_C@_1EE@EJDKCLKB@?$AAv?$AAe?$AAc?$AAt?$AAo?$AAr?$AA?5?$AAi?$AAt?$AAe?$AAr?$AAa?$AAt?$AAo?$AAr?$AA?5?$AAn?$AAo?$AAt?$AA?5?$AAi?$AAn?$AAc?$AAr?$AAe?$AAm?$AAe?$AAn?$AAt?$AAa?$AAb?$AAl@ ; `string'
PUBLIC	??_C@_1OC@CGPGIJAB@?$AAs?$AAt?$AAd?$AA?3?$AA?3?$AA_?$AAV?$AAe?$AAc?$AAt?$AAo?$AAr?$AA_?$AAc?$AAo?$AAn?$AAs?$AAt?$AA_?$AAi?$AAt?$AAe?$AAr?$AAa?$AAt?$AAo?$AAr?$AA?$DM?$AAc?$AAl?$AAa?$AAs@ ; `string'
PUBLIC	??_C@_0BA@JFNIOLAK@string?5too?5long?$AA@	; `string'
PUBLIC	??_C@_0BI@CFPLBAOH@invalid?5string?5position?$AA@ ; `string'
PUBLIC	??_C@_0BD@OLBABOEK@vector?$DMT?$DO?5too?5long?$AA@ ; `string'
PUBLIC	??_C@_1DM@HINDPMBP@?$AAv?$AAe?$AAc?$AAt?$AAo?$AAr?$AA?5?$AAi?$AAt?$AAe?$AAr?$AAa?$AAt?$AAo?$AAr?$AAs?$AA?5?$AAi?$AAn?$AAc?$AAo?$AAm?$AAp?$AAa?$AAt?$AAi?$AAb?$AAl?$AAe?$AA?$AA@ ; `string'
PUBLIC	??_C@_0CI@FNPHFCCM@Standard?5C?$CL?$CL?5Libraries?5Invalid?5A@ ; `string'
PUBLIC	??_C@_1FO@GJIHNDLM@?$AA?$CC?$AAS?$AAt?$AAa?$AAn?$AAd?$AAa?$AAr?$AAd?$AA?5?$AAC?$AA?$CL?$AA?$CL?$AA?5?$AAL?$AAi?$AAb?$AAr?$AAa?$AAr?$AAi?$AAe?$AAs?$AA?5?$AAI?$AAn?$AAv?$AAa?$AAl?$AAi?$AAd?$AA?5@ ; `string'
PUBLIC	??_C@_1NK@PBOLGCJB@?$AAs?$AAt?$AAd?$AA?3?$AA?3?$AA_?$AAV?$AAe?$AAc?$AAt?$AAo?$AAr?$AA_?$AAc?$AAo?$AAn?$AAs?$AAt?$AA_?$AAi?$AAt?$AAe?$AAr?$AAa?$AAt?$AAo?$AAr?$AA?$DM?$AAc?$AAl?$AAa?$AAs@ ; `string'
PUBLIC	??_C@_1CG@JNLFBNGN@?$AA?$CC?$AAi?$AAn?$AAv?$AAa?$AAl?$AAi?$AAd?$AA?5?$AAa?$AAr?$AAg?$AAu?$AAm?$AAe?$AAn?$AAt?$AA?$CC?$AA?$AA@ ; `string'
PUBLIC	??_C@_1CK@EOPGIILJ@?$AAi?$AAn?$AAv?$AAa?$AAl?$AAi?$AAd?$AA?5?$AAn?$AAu?$AAl?$AAl?$AA?5?$AAp?$AAo?$AAi?$AAn?$AAt?$AAe?$AAr?$AA?$AA@ ; `string'
PUBLIC	??_C@_1CO@DGLIKNHI@?$AAi?$AAn?$AAv?$AAa?$AAl?$AAi?$AAd?$AA?5?$AAi?$AAt?$AAe?$AAr?$AAa?$AAt?$AAo?$AAr?$AA?5?$AAr?$AAa?$AAn?$AAg?$AAe?$AA?$AA@ ; `string'
PUBLIC	??_C@_1IO@LKIDJAMC@?$AAC?$AA?3?$AA?2?$AAP?$AAr?$AAo?$AAg?$AAr?$AAa?$AAm?$AA?5?$AAF?$AAi?$AAl?$AAe?$AAs?$AA?5?$AA?$CI?$AAx?$AA8?$AA6?$AA?$CJ?$AA?2?$AAM?$AAi?$AAc?$AAr?$AAo?$AAs?$AAo?$AAf?$AAt@ ; `string'
PUBLIC	??_R4error_category@std@@6B@			; std::error_category::`RTTI Complete Object Locator'
PUBLIC	??_R0?AVerror_category@std@@@8			; std::error_category `RTTI Type Descriptor'
PUBLIC	??_R3error_category@std@@8			; std::error_category::`RTTI Class Hierarchy Descriptor'
PUBLIC	??_R2error_category@std@@8			; std::error_category::`RTTI Base Class Array'
PUBLIC	??_R1A@?0A@EA@error_category@std@@8		; std::error_category::`RTTI Base Class Descriptor at (0,-1,0,64)'
PUBLIC	??_R4_Generic_error_category@std@@6B@		; std::_Generic_error_category::`RTTI Complete Object Locator'
PUBLIC	??_R0?AV_Generic_error_category@std@@@8		; std::_Generic_error_category `RTTI Type Descriptor'
PUBLIC	??_R3_Generic_error_category@std@@8		; std::_Generic_error_category::`RTTI Class Hierarchy Descriptor'
PUBLIC	??_R2_Generic_error_category@std@@8		; std::_Generic_error_category::`RTTI Base Class Array'
PUBLIC	??_R1A@?0A@EA@_Generic_error_category@std@@8	; std::_Generic_error_category::`RTTI Base Class Descriptor at (0,-1,0,64)'
PUBLIC	??_R4_Iostream_error_category@std@@6B@		; std::_Iostream_error_category::`RTTI Complete Object Locator'
PUBLIC	??_R0?AV_Iostream_error_category@std@@@8	; std::_Iostream_error_category `RTTI Type Descriptor'
PUBLIC	??_R3_Iostream_error_category@std@@8		; std::_Iostream_error_category::`RTTI Class Hierarchy Descriptor'
PUBLIC	??_R2_Iostream_error_category@std@@8		; std::_Iostream_error_category::`RTTI Base Class Array'
PUBLIC	??_R1A@?0A@EA@_Iostream_error_category@std@@8	; std::_Iostream_error_category::`RTTI Base Class Descriptor at (0,-1,0,64)'
PUBLIC	??_R4_System_error_category@std@@6B@		; std::_System_error_category::`RTTI Complete Object Locator'
PUBLIC	??_R0?AV_System_error_category@std@@@8		; std::_System_error_category `RTTI Type Descriptor'
PUBLIC	??_R3_System_error_category@std@@8		; std::_System_error_category::`RTTI Class Hierarchy Descriptor'
PUBLIC	??_R2_System_error_category@std@@8		; std::_System_error_category::`RTTI Base Class Array'
PUBLIC	??_R1A@?0A@EA@_System_error_category@std@@8	; std::_System_error_category::`RTTI Base Class Descriptor at (0,-1,0,64)'
PUBLIC	??_R4FuzzyTerm@@6B@				; FuzzyTerm::`RTTI Complete Object Locator'
PUBLIC	??_R0?AVFuzzyTerm@@@8				; FuzzyTerm `RTTI Type Descriptor'
PUBLIC	??_R3FuzzyTerm@@8				; FuzzyTerm::`RTTI Class Hierarchy Descriptor'
PUBLIC	??_R2FuzzyTerm@@8				; FuzzyTerm::`RTTI Base Class Array'
PUBLIC	??_R1A@?0A@EA@FuzzyTerm@@8			; FuzzyTerm::`RTTI Base Class Descriptor at (0,-1,0,64)'
PUBLIC	??_R4FzAND@@6B@					; FzAND::`RTTI Complete Object Locator'
PUBLIC	??_R0?AVFzAND@@@8				; FzAND `RTTI Type Descriptor'
PUBLIC	??_R3FzAND@@8					; FzAND::`RTTI Class Hierarchy Descriptor'
PUBLIC	??_R2FzAND@@8					; FzAND::`RTTI Base Class Array'
PUBLIC	??_R1A@?0A@EA@FzAND@@8				; FzAND::`RTTI Base Class Descriptor at (0,-1,0,64)'
PUBLIC	??_R4FzOR@@6B@					; FzOR::`RTTI Complete Object Locator'
PUBLIC	??_R0?AVFzOR@@@8				; FzOR `RTTI Type Descriptor'
PUBLIC	??_R3FzOR@@8					; FzOR::`RTTI Class Hierarchy Descriptor'
PUBLIC	??_R2FzOR@@8					; FzOR::`RTTI Base Class Array'
PUBLIC	??_R1A@?0A@EA@FzOR@@8				; FzOR::`RTTI Base Class Descriptor at (0,-1,0,64)'
PUBLIC	__real@0010000000000000
PUBLIC	__real@00800000
PUBLIC	__real@4000000000000000
PUBLIC	__real@4010000000000000
PUBLIC	__real@7f7fffff
PUBLIC	__real@7fefffffffffffff
EXTRN	__purecall:PROC
EXTRN	??2@YAPAXI@Z:PROC				; operator new
EXTRN	??3@YAXPAX@Z:PROC				; operator delete
EXTRN	_atexit:PROC
EXTRN	__invalid_parameter:PROC
EXTRN	??0_Lockit@std@@QAE@H@Z:PROC			; std::_Lockit::_Lockit
EXTRN	??1_Lockit@std@@QAE@XZ:PROC			; std::_Lockit::~_Lockit
EXTRN	__hypot:PROC
EXTRN	_memmove:PROC
EXTRN	_memcpy:PROC
EXTRN	_strlen:PROC
EXTRN	__CrtDbgReportW:PROC
EXTRN	?_Debug_message@std@@YAXPB_W0I@Z:PROC		; std::_Debug_message
EXTRN	?_Xbad_alloc@std@@YAXXZ:PROC			; std::_Xbad_alloc
EXTRN	?_Xlength_error@std@@YAXPBD@Z:PROC		; std::_Xlength_error
EXTRN	?_Xout_of_range@std@@YAXPBD@Z:PROC		; std::_Xout_of_range
EXTRN	__wassert:PROC
EXTRN	??_Eerror_category@std@@UAEPAXI@Z:PROC		; std::error_category::`vector deleting destructor'
EXTRN	?_Syserror_map@std@@YAPBDH@Z:PROC		; std::_Syserror_map
EXTRN	?_Winerror_map@std@@YAPBDH@Z:PROC		; std::_Winerror_map
EXTRN	??_E_Generic_error_category@std@@UAEPAXI@Z:PROC	; std::_Generic_error_category::`vector deleting destructor'
EXTRN	??_E_Iostream_error_category@std@@UAEPAXI@Z:PROC ; std::_Iostream_error_category::`vector deleting destructor'
EXTRN	??_E_System_error_category@std@@UAEPAXI@Z:PROC	; std::_System_error_category::`vector deleting destructor'
EXTRN	??_EFuzzyTerm@@UAEPAXI@Z:PROC			; FuzzyTerm::`vector deleting destructor'
EXTRN	??_EFzAND@@UAEPAXI@Z:PROC			; FzAND::`vector deleting destructor'
EXTRN	??_EFzOR@@UAEPAXI@Z:PROC			; FzOR::`vector deleting destructor'
EXTRN	@_RTC_CheckStackVars@8:PROC
EXTRN	@__security_check_cookie@4:PROC
EXTRN	__CxxThrowException@8:PROC
EXTRN	__RTC_CheckEsp:PROC
EXTRN	__RTC_InitBase:PROC
EXTRN	__RTC_Shutdown:PROC
EXTRN	___CxxFrameHandler3:PROC
EXTRN	??_7type_info@@6B@:QWORD			; type_info::`vftable'
EXTRN	___security_cookie:DWORD
EXTRN	__fltused:DWORD
_BSS	SEGMENT
_piecewise_construct DB 01H DUP (?)
	ALIGN	4

_allocator_arg DB 01H DUP (?)
_BSS	ENDS
;	COMDAT ?_Generic_object@?$_Error_objects@H@std@@2V_Generic_error_category@2@A
_BSS	SEGMENT
?_Generic_object@?$_Error_objects@H@std@@2V_Generic_error_category@2@A DD 01H DUP (?) ; std::_Error_objects<int>::_Generic_object
_BSS	ENDS
;	COMDAT ?_Iostream_object@?$_Error_objects@H@std@@2V_Iostream_error_category@2@A
_BSS	SEGMENT
?_Iostream_object@?$_Error_objects@H@std@@2V_Iostream_error_category@2@A DD 01H DUP (?) ; std::_Error_objects<int>::_Iostream_object
_BSS	ENDS
;	COMDAT ?_System_object@?$_Error_objects@H@std@@2V_System_error_category@2@A
_BSS	SEGMENT
?_System_object@?$_Error_objects@H@std@@2V_System_error_category@2@A DD 01H DUP (?) ; std::_Error_objects<int>::_System_object
_BSS	ENDS
;	COMDAT ?id@?$num_put@DV?$back_insert_iterator@V?$basic_string@DU?$char_traits@D@std@@V?$allocator@D@2@@std@@@std@@@std@@2V0locale@2@A
_BSS	SEGMENT
?id@?$num_put@DV?$back_insert_iterator@V?$basic_string@DU?$char_traits@D@std@@V?$allocator@D@2@@std@@@std@@@std@@2V0locale@2@A DD 01H DUP (?) ; std::num_put<char,std::back_insert_iterator<std::basic_string<char,std::char_traits<char>,std::allocator<char> > > >::id
_BSS	ENDS
;	COMDAT ?id@?$num_put@_WV?$back_insert_iterator@V?$basic_string@_WU?$char_traits@_W@std@@V?$allocator@_W@2@@std@@@std@@@std@@2V0locale@2@A
_BSS	SEGMENT
?id@?$num_put@_WV?$back_insert_iterator@V?$basic_string@_WU?$char_traits@_W@std@@V?$allocator@_W@2@@std@@@std@@@std@@2V0locale@2@A DD 01H DUP (?) ; std::num_put<wchar_t,std::back_insert_iterator<std::basic_string<wchar_t,std::char_traits<wchar_t>,std::allocator<wchar_t> > > >::id
_BSS	ENDS
_BSS	SEGMENT
	ALIGN	4

_MaxInt	DD	01H DUP (?)
	ALIGN	8

_MaxDouble DQ	01H DUP (?)
_MinDouble DQ	01H DUP (?)
_MaxFloat DD	01H DUP (?)
_MinFloat DD	01H DUP (?)
_TwoPi	DQ	01H DUP (?)
_HalfPi	DQ	01H DUP (?)
_QuarterPi DQ	01H DUP (?)
_BSS	ENDS
;	COMDAT ?id@?$numpunct@D@std@@2V0locale@2@A
_BSS	SEGMENT
?id@?$numpunct@D@std@@2V0locale@2@A DD 01H DUP (?)	; std::numpunct<char>::id
_BSS	ENDS
;	COMDAT ?id@?$numpunct@_W@std@@2V0locale@2@A
_BSS	SEGMENT
?id@?$numpunct@_W@std@@2V0locale@2@A DD 01H DUP (?)	; std::numpunct<wchar_t>::id
_BSS	ENDS
CRT$XCU	SEGMENT
_piecewise_construct$initializer$ DD FLAT:??__Epiecewise_construct@std@@YAXXZ
CRT$XCU	ENDS
;	COMDAT __real@7fefffffffffffff
CONST	SEGMENT
__real@7fefffffffffffff DQ 07fefffffffffffffr	; 1.79769e+308
CONST	ENDS
;	COMDAT __real@7f7fffff
CONST	SEGMENT
__real@7f7fffff DD 07f7fffffr			; 3.40282e+038
CONST	ENDS
;	COMDAT __real@4010000000000000
CONST	SEGMENT
__real@4010000000000000 DQ 04010000000000000r	; 4
CONST	ENDS
;	COMDAT __real@4000000000000000
CONST	SEGMENT
__real@4000000000000000 DQ 04000000000000000r	; 2
CONST	ENDS
;	COMDAT __real@00800000
CONST	SEGMENT
__real@00800000 DD 000800000r			; 1.17549e-038
CONST	ENDS
;	COMDAT __real@0010000000000000
CONST	SEGMENT
__real@0010000000000000 DQ 00010000000000000r	; 2.22507e-308
CONST	ENDS
;	COMDAT rtc$TMZ
rtc$TMZ	SEGMENT
__RTC_Shutdown.rtc$TMZ DD FLAT:__RTC_Shutdown
rtc$TMZ	ENDS
;	COMDAT rtc$IMZ
rtc$IMZ	SEGMENT
__RTC_InitBase.rtc$IMZ DD FLAT:__RTC_InitBase
rtc$IMZ	ENDS
;	COMDAT ??_R1A@?0A@EA@FzOR@@8
rdata$r	SEGMENT
??_R1A@?0A@EA@FzOR@@8 DD FLAT:??_R0?AVFzOR@@@8		; FzOR::`RTTI Base Class Descriptor at (0,-1,0,64)'
	DD	01H
	DD	00H
	DD	0ffffffffH
	DD	00H
	DD	040H
	DD	FLAT:??_R3FzOR@@8
rdata$r	ENDS
;	COMDAT ??_R2FzOR@@8
rdata$r	SEGMENT
??_R2FzOR@@8 DD	FLAT:??_R1A@?0A@EA@FzOR@@8		; FzOR::`RTTI Base Class Array'
	DD	FLAT:??_R1A@?0A@EA@FuzzyTerm@@8
rdata$r	ENDS
;	COMDAT ??_R3FzOR@@8
rdata$r	SEGMENT
??_R3FzOR@@8 DD	00H					; FzOR::`RTTI Class Hierarchy Descriptor'
	DD	00H
	DD	02H
	DD	FLAT:??_R2FzOR@@8
rdata$r	ENDS
;	COMDAT ??_R0?AVFzOR@@@8
data$r	SEGMENT
??_R0?AVFzOR@@@8 DD FLAT:??_7type_info@@6B@		; FzOR `RTTI Type Descriptor'
	DD	00H
	DB	'.?AVFzOR@@', 00H
data$r	ENDS
;	COMDAT ??_R4FzOR@@6B@
rdata$r	SEGMENT
??_R4FzOR@@6B@ DD 00H					; FzOR::`RTTI Complete Object Locator'
	DD	00H
	DD	00H
	DD	FLAT:??_R0?AVFzOR@@@8
	DD	FLAT:??_R3FzOR@@8
rdata$r	ENDS
;	COMDAT ??_R1A@?0A@EA@FzAND@@8
rdata$r	SEGMENT
??_R1A@?0A@EA@FzAND@@8 DD FLAT:??_R0?AVFzAND@@@8	; FzAND::`RTTI Base Class Descriptor at (0,-1,0,64)'
	DD	01H
	DD	00H
	DD	0ffffffffH
	DD	00H
	DD	040H
	DD	FLAT:??_R3FzAND@@8
rdata$r	ENDS
;	COMDAT ??_R2FzAND@@8
rdata$r	SEGMENT
??_R2FzAND@@8 DD FLAT:??_R1A@?0A@EA@FzAND@@8		; FzAND::`RTTI Base Class Array'
	DD	FLAT:??_R1A@?0A@EA@FuzzyTerm@@8
rdata$r	ENDS
;	COMDAT ??_R3FzAND@@8
rdata$r	SEGMENT
??_R3FzAND@@8 DD 00H					; FzAND::`RTTI Class Hierarchy Descriptor'
	DD	00H
	DD	02H
	DD	FLAT:??_R2FzAND@@8
rdata$r	ENDS
;	COMDAT ??_R0?AVFzAND@@@8
data$r	SEGMENT
??_R0?AVFzAND@@@8 DD FLAT:??_7type_info@@6B@		; FzAND `RTTI Type Descriptor'
	DD	00H
	DB	'.?AVFzAND@@', 00H
data$r	ENDS
;	COMDAT ??_R4FzAND@@6B@
rdata$r	SEGMENT
??_R4FzAND@@6B@ DD 00H					; FzAND::`RTTI Complete Object Locator'
	DD	00H
	DD	00H
	DD	FLAT:??_R0?AVFzAND@@@8
	DD	FLAT:??_R3FzAND@@8
rdata$r	ENDS
;	COMDAT ??_R1A@?0A@EA@FuzzyTerm@@8
rdata$r	SEGMENT
??_R1A@?0A@EA@FuzzyTerm@@8 DD FLAT:??_R0?AVFuzzyTerm@@@8 ; FuzzyTerm::`RTTI Base Class Descriptor at (0,-1,0,64)'
	DD	00H
	DD	00H
	DD	0ffffffffH
	DD	00H
	DD	040H
	DD	FLAT:??_R3FuzzyTerm@@8
rdata$r	ENDS
;	COMDAT ??_R2FuzzyTerm@@8
rdata$r	SEGMENT
??_R2FuzzyTerm@@8 DD FLAT:??_R1A@?0A@EA@FuzzyTerm@@8	; FuzzyTerm::`RTTI Base Class Array'
rdata$r	ENDS
;	COMDAT ??_R3FuzzyTerm@@8
rdata$r	SEGMENT
??_R3FuzzyTerm@@8 DD 00H				; FuzzyTerm::`RTTI Class Hierarchy Descriptor'
	DD	00H
	DD	01H
	DD	FLAT:??_R2FuzzyTerm@@8
rdata$r	ENDS
;	COMDAT ??_R0?AVFuzzyTerm@@@8
data$r	SEGMENT
??_R0?AVFuzzyTerm@@@8 DD FLAT:??_7type_info@@6B@	; FuzzyTerm `RTTI Type Descriptor'
	DD	00H
	DB	'.?AVFuzzyTerm@@', 00H
data$r	ENDS
;	COMDAT ??_R4FuzzyTerm@@6B@
rdata$r	SEGMENT
??_R4FuzzyTerm@@6B@ DD 00H				; FuzzyTerm::`RTTI Complete Object Locator'
	DD	00H
	DD	00H
	DD	FLAT:??_R0?AVFuzzyTerm@@@8
	DD	FLAT:??_R3FuzzyTerm@@8
rdata$r	ENDS
;	COMDAT ??_R1A@?0A@EA@_System_error_category@std@@8
rdata$r	SEGMENT
??_R1A@?0A@EA@_System_error_category@std@@8 DD FLAT:??_R0?AV_System_error_category@std@@@8 ; std::_System_error_category::`RTTI Base Class Descriptor at (0,-1,0,64)'
	DD	02H
	DD	00H
	DD	0ffffffffH
	DD	00H
	DD	040H
	DD	FLAT:??_R3_System_error_category@std@@8
rdata$r	ENDS
;	COMDAT ??_R2_System_error_category@std@@8
rdata$r	SEGMENT
??_R2_System_error_category@std@@8 DD FLAT:??_R1A@?0A@EA@_System_error_category@std@@8 ; std::_System_error_category::`RTTI Base Class Array'
	DD	FLAT:??_R1A@?0A@EA@_Generic_error_category@std@@8
	DD	FLAT:??_R1A@?0A@EA@error_category@std@@8
rdata$r	ENDS
;	COMDAT ??_R3_System_error_category@std@@8
rdata$r	SEGMENT
??_R3_System_error_category@std@@8 DD 00H		; std::_System_error_category::`RTTI Class Hierarchy Descriptor'
	DD	00H
	DD	03H
	DD	FLAT:??_R2_System_error_category@std@@8
rdata$r	ENDS
;	COMDAT ??_R0?AV_System_error_category@std@@@8
data$r	SEGMENT
??_R0?AV_System_error_category@std@@@8 DD FLAT:??_7type_info@@6B@ ; std::_System_error_category `RTTI Type Descriptor'
	DD	00H
	DB	'.?AV_System_error_category@std@@', 00H
data$r	ENDS
;	COMDAT ??_R4_System_error_category@std@@6B@
rdata$r	SEGMENT
??_R4_System_error_category@std@@6B@ DD 00H		; std::_System_error_category::`RTTI Complete Object Locator'
	DD	00H
	DD	00H
	DD	FLAT:??_R0?AV_System_error_category@std@@@8
	DD	FLAT:??_R3_System_error_category@std@@8
rdata$r	ENDS
;	COMDAT ??_R1A@?0A@EA@_Iostream_error_category@std@@8
rdata$r	SEGMENT
??_R1A@?0A@EA@_Iostream_error_category@std@@8 DD FLAT:??_R0?AV_Iostream_error_category@std@@@8 ; std::_Iostream_error_category::`RTTI Base Class Descriptor at (0,-1,0,64)'
	DD	02H
	DD	00H
	DD	0ffffffffH
	DD	00H
	DD	040H
	DD	FLAT:??_R3_Iostream_error_category@std@@8
rdata$r	ENDS
;	COMDAT ??_R2_Iostream_error_category@std@@8
rdata$r	SEGMENT
??_R2_Iostream_error_category@std@@8 DD FLAT:??_R1A@?0A@EA@_Iostream_error_category@std@@8 ; std::_Iostream_error_category::`RTTI Base Class Array'
	DD	FLAT:??_R1A@?0A@EA@_Generic_error_category@std@@8
	DD	FLAT:??_R1A@?0A@EA@error_category@std@@8
rdata$r	ENDS
;	COMDAT ??_R3_Iostream_error_category@std@@8
rdata$r	SEGMENT
??_R3_Iostream_error_category@std@@8 DD 00H		; std::_Iostream_error_category::`RTTI Class Hierarchy Descriptor'
	DD	00H
	DD	03H
	DD	FLAT:??_R2_Iostream_error_category@std@@8
rdata$r	ENDS
;	COMDAT ??_R0?AV_Iostream_error_category@std@@@8
data$r	SEGMENT
??_R0?AV_Iostream_error_category@std@@@8 DD FLAT:??_7type_info@@6B@ ; std::_Iostream_error_category `RTTI Type Descriptor'
	DD	00H
	DB	'.?AV_Iostream_error_category@std@@', 00H
data$r	ENDS
;	COMDAT ??_R4_Iostream_error_category@std@@6B@
rdata$r	SEGMENT
??_R4_Iostream_error_category@std@@6B@ DD 00H		; std::_Iostream_error_category::`RTTI Complete Object Locator'
	DD	00H
	DD	00H
	DD	FLAT:??_R0?AV_Iostream_error_category@std@@@8
	DD	FLAT:??_R3_Iostream_error_category@std@@8
rdata$r	ENDS
;	COMDAT ??_R1A@?0A@EA@_Generic_error_category@std@@8
rdata$r	SEGMENT
??_R1A@?0A@EA@_Generic_error_category@std@@8 DD FLAT:??_R0?AV_Generic_error_category@std@@@8 ; std::_Generic_error_category::`RTTI Base Class Descriptor at (0,-1,0,64)'
	DD	01H
	DD	00H
	DD	0ffffffffH
	DD	00H
	DD	040H
	DD	FLAT:??_R3_Generic_error_category@std@@8
rdata$r	ENDS
;	COMDAT ??_R2_Generic_error_category@std@@8
rdata$r	SEGMENT
??_R2_Generic_error_category@std@@8 DD FLAT:??_R1A@?0A@EA@_Generic_error_category@std@@8 ; std::_Generic_error_category::`RTTI Base Class Array'
	DD	FLAT:??_R1A@?0A@EA@error_category@std@@8
rdata$r	ENDS
;	COMDAT ??_R3_Generic_error_category@std@@8
rdata$r	SEGMENT
??_R3_Generic_error_category@std@@8 DD 00H		; std::_Generic_error_category::`RTTI Class Hierarchy Descriptor'
	DD	00H
	DD	02H
	DD	FLAT:??_R2_Generic_error_category@std@@8
rdata$r	ENDS
;	COMDAT ??_R0?AV_Generic_error_category@std@@@8
data$r	SEGMENT
??_R0?AV_Generic_error_category@std@@@8 DD FLAT:??_7type_info@@6B@ ; std::_Generic_error_category `RTTI Type Descriptor'
	DD	00H
	DB	'.?AV_Generic_error_category@std@@', 00H
data$r	ENDS
;	COMDAT ??_R4_Generic_error_category@std@@6B@
rdata$r	SEGMENT
??_R4_Generic_error_category@std@@6B@ DD 00H		; std::_Generic_error_category::`RTTI Complete Object Locator'
	DD	00H
	DD	00H
	DD	FLAT:??_R0?AV_Generic_error_category@std@@@8
	DD	FLAT:??_R3_Generic_error_category@std@@8
rdata$r	ENDS
;	COMDAT ??_R1A@?0A@EA@error_category@std@@8
rdata$r	SEGMENT
??_R1A@?0A@EA@error_category@std@@8 DD FLAT:??_R0?AVerror_category@std@@@8 ; std::error_category::`RTTI Base Class Descriptor at (0,-1,0,64)'
	DD	00H
	DD	00H
	DD	0ffffffffH
	DD	00H
	DD	040H
	DD	FLAT:??_R3error_category@std@@8
rdata$r	ENDS
;	COMDAT ??_R2error_category@std@@8
rdata$r	SEGMENT
??_R2error_category@std@@8 DD FLAT:??_R1A@?0A@EA@error_category@std@@8 ; std::error_category::`RTTI Base Class Array'
rdata$r	ENDS
;	COMDAT ??_R3error_category@std@@8
rdata$r	SEGMENT
??_R3error_category@std@@8 DD 00H			; std::error_category::`RTTI Class Hierarchy Descriptor'
	DD	00H
	DD	01H
	DD	FLAT:??_R2error_category@std@@8
rdata$r	ENDS
;	COMDAT ??_R0?AVerror_category@std@@@8
data$r	SEGMENT
??_R0?AVerror_category@std@@@8 DD FLAT:??_7type_info@@6B@ ; std::error_category `RTTI Type Descriptor'
	DD	00H
	DB	'.?AVerror_category@std@@', 00H
data$r	ENDS
;	COMDAT ??_R4error_category@std@@6B@
rdata$r	SEGMENT
??_R4error_category@std@@6B@ DD 00H			; std::error_category::`RTTI Complete Object Locator'
	DD	00H
	DD	00H
	DD	FLAT:??_R0?AVerror_category@std@@@8
	DD	FLAT:??_R3error_category@std@@8
rdata$r	ENDS
;	COMDAT ??_C@_1IO@LKIDJAMC@?$AAC?$AA?3?$AA?2?$AAP?$AAr?$AAo?$AAg?$AAr?$AAa?$AAm?$AA?5?$AAF?$AAi?$AAl?$AAe?$AAs?$AA?5?$AA?$CI?$AAx?$AA8?$AA6?$AA?$CJ?$AA?2?$AAM?$AAi?$AAc?$AAr?$AAo?$AAs?$AAo?$AAf?$AAt@
CONST	SEGMENT
??_C@_1IO@LKIDJAMC@?$AAC?$AA?3?$AA?2?$AAP?$AAr?$AAo?$AAg?$AAr?$AAa?$AAm?$AA?5?$AAF?$AAi?$AAl?$AAe?$AAs?$AA?5?$AA?$CI?$AAx?$AA8?$AA6?$AA?$CJ?$AA?2?$AAM?$AAi?$AAc?$AAr?$AAo?$AAs?$AAo?$AAf?$AAt@ DB 'C'
	DB	00H, ':', 00H, '\', 00H, 'P', 00H, 'r', 00H, 'o', 00H, 'g', 00H
	DB	'r', 00H, 'a', 00H, 'm', 00H, ' ', 00H, 'F', 00H, 'i', 00H, 'l'
	DB	00H, 'e', 00H, 's', 00H, ' ', 00H, '(', 00H, 'x', 00H, '8', 00H
	DB	'6', 00H, ')', 00H, '\', 00H, 'M', 00H, 'i', 00H, 'c', 00H, 'r'
	DB	00H, 'o', 00H, 's', 00H, 'o', 00H, 'f', 00H, 't', 00H, ' ', 00H
	DB	'V', 00H, 'i', 00H, 's', 00H, 'u', 00H, 'a', 00H, 'l', 00H, ' '
	DB	00H, 'S', 00H, 't', 00H, 'u', 00H, 'd', 00H, 'i', 00H, 'o', 00H
	DB	' ', 00H, '1', 00H, '2', 00H, '.', 00H, '0', 00H, '\', 00H, 'V'
	DB	00H, 'C', 00H, '\', 00H, 'i', 00H, 'n', 00H, 'c', 00H, 'l', 00H
	DB	'u', 00H, 'd', 00H, 'e', 00H, '\', 00H, 'x', 00H, 'm', 00H, 'e'
	DB	00H, 'm', 00H, 'o', 00H, 'r', 00H, 'y', 00H, 00H, 00H ; `string'
CONST	ENDS
;	COMDAT ??_C@_1CO@DGLIKNHI@?$AAi?$AAn?$AAv?$AAa?$AAl?$AAi?$AAd?$AA?5?$AAi?$AAt?$AAe?$AAr?$AAa?$AAt?$AAo?$AAr?$AA?5?$AAr?$AAa?$AAn?$AAg?$AAe?$AA?$AA@
CONST	SEGMENT
??_C@_1CO@DGLIKNHI@?$AAi?$AAn?$AAv?$AAa?$AAl?$AAi?$AAd?$AA?5?$AAi?$AAt?$AAe?$AAr?$AAa?$AAt?$AAo?$AAr?$AA?5?$AAr?$AAa?$AAn?$AAg?$AAe?$AA?$AA@ DB 'i'
	DB	00H, 'n', 00H, 'v', 00H, 'a', 00H, 'l', 00H, 'i', 00H, 'd', 00H
	DB	' ', 00H, 'i', 00H, 't', 00H, 'e', 00H, 'r', 00H, 'a', 00H, 't'
	DB	00H, 'o', 00H, 'r', 00H, ' ', 00H, 'r', 00H, 'a', 00H, 'n', 00H
	DB	'g', 00H, 'e', 00H, 00H, 00H			; `string'
CONST	ENDS
;	COMDAT ??_C@_1CK@EOPGIILJ@?$AAi?$AAn?$AAv?$AAa?$AAl?$AAi?$AAd?$AA?5?$AAn?$AAu?$AAl?$AAl?$AA?5?$AAp?$AAo?$AAi?$AAn?$AAt?$AAe?$AAr?$AA?$AA@
CONST	SEGMENT
??_C@_1CK@EOPGIILJ@?$AAi?$AAn?$AAv?$AAa?$AAl?$AAi?$AAd?$AA?5?$AAn?$AAu?$AAl?$AAl?$AA?5?$AAp?$AAo?$AAi?$AAn?$AAt?$AAe?$AAr?$AA?$AA@ DB 'i'
	DB	00H, 'n', 00H, 'v', 00H, 'a', 00H, 'l', 00H, 'i', 00H, 'd', 00H
	DB	' ', 00H, 'n', 00H, 'u', 00H, 'l', 00H, 'l', 00H, ' ', 00H, 'p'
	DB	00H, 'o', 00H, 'i', 00H, 'n', 00H, 't', 00H, 'e', 00H, 'r', 00H
	DB	00H, 00H					; `string'
CONST	ENDS
;	COMDAT ??_C@_1CG@JNLFBNGN@?$AA?$CC?$AAi?$AAn?$AAv?$AAa?$AAl?$AAi?$AAd?$AA?5?$AAa?$AAr?$AAg?$AAu?$AAm?$AAe?$AAn?$AAt?$AA?$CC?$AA?$AA@
CONST	SEGMENT
??_C@_1CG@JNLFBNGN@?$AA?$CC?$AAi?$AAn?$AAv?$AAa?$AAl?$AAi?$AAd?$AA?5?$AAa?$AAr?$AAg?$AAu?$AAm?$AAe?$AAn?$AAt?$AA?$CC?$AA?$AA@ DB '"'
	DB	00H, 'i', 00H, 'n', 00H, 'v', 00H, 'a', 00H, 'l', 00H, 'i', 00H
	DB	'd', 00H, ' ', 00H, 'a', 00H, 'r', 00H, 'g', 00H, 'u', 00H, 'm'
	DB	00H, 'e', 00H, 'n', 00H, 't', 00H, '"', 00H, 00H, 00H ; `string'
CONST	ENDS
;	COMDAT ??_C@_1NK@PBOLGCJB@?$AAs?$AAt?$AAd?$AA?3?$AA?3?$AA_?$AAV?$AAe?$AAc?$AAt?$AAo?$AAr?$AA_?$AAc?$AAo?$AAn?$AAs?$AAt?$AA_?$AAi?$AAt?$AAe?$AAr?$AAa?$AAt?$AAo?$AAr?$AA?$DM?$AAc?$AAl?$AAa?$AAs@
CONST	SEGMENT
??_C@_1NK@PBOLGCJB@?$AAs?$AAt?$AAd?$AA?3?$AA?3?$AA_?$AAV?$AAe?$AAc?$AAt?$AAo?$AAr?$AA_?$AAc?$AAo?$AAn?$AAs?$AAt?$AA_?$AAi?$AAt?$AAe?$AAr?$AAa?$AAt?$AAo?$AAr?$AA?$DM?$AAc?$AAl?$AAa?$AAs@ DB 's'
	DB	00H, 't', 00H, 'd', 00H, ':', 00H, ':', 00H, '_', 00H, 'V', 00H
	DB	'e', 00H, 'c', 00H, 't', 00H, 'o', 00H, 'r', 00H, '_', 00H, 'c'
	DB	00H, 'o', 00H, 'n', 00H, 's', 00H, 't', 00H, '_', 00H, 'i', 00H
	DB	't', 00H, 'e', 00H, 'r', 00H, 'a', 00H, 't', 00H, 'o', 00H, 'r'
	DB	00H, '<', 00H, 'c', 00H, 'l', 00H, 'a', 00H, 's', 00H, 's', 00H
	DB	' ', 00H, 's', 00H, 't', 00H, 'd', 00H, ':', 00H, ':', 00H, '_'
	DB	00H, 'V', 00H, 'e', 00H, 'c', 00H, 't', 00H, 'o', 00H, 'r', 00H
	DB	'_', 00H, 'v', 00H, 'a', 00H, 'l', 00H, '<', 00H, 's', 00H, 't'
	DB	00H, 'r', 00H, 'u', 00H, 'c', 00H, 't', 00H, ' ', 00H, 's', 00H
	DB	't', 00H, 'd', 00H, ':', 00H, ':', 00H, '_', 00H, 'S', 00H, 'i'
	DB	00H, 'm', 00H, 'p', 00H, 'l', 00H, 'e', 00H, '_', 00H, 't', 00H
	DB	'y', 00H, 'p', 00H, 'e', 00H, 's', 00H, '<', 00H, 'c', 00H, 'l'
	DB	00H, 'a', 00H, 's', 00H, 's', 00H, ' ', 00H, 'F', 00H, 'u', 00H
	DB	'z', 00H, 'z', 00H, 'y', 00H, 'T', 00H, 'e', 00H, 'r', 00H, 'm'
	DB	00H, ' ', 00H, '*', 00H, '>', 00H, ' ', 00H, '>', 00H, ' ', 00H
	DB	'>', 00H, ':', 00H, ':', 00H, '_', 00H, 'C', 00H, 'o', 00H, 'm'
	DB	00H, 'p', 00H, 'a', 00H, 't', 00H, 00H, 00H	; `string'
CONST	ENDS
;	COMDAT ??_C@_1FO@GJIHNDLM@?$AA?$CC?$AAS?$AAt?$AAa?$AAn?$AAd?$AAa?$AAr?$AAd?$AA?5?$AAC?$AA?$CL?$AA?$CL?$AA?5?$AAL?$AAi?$AAb?$AAr?$AAa?$AAr?$AAi?$AAe?$AAs?$AA?5?$AAI?$AAn?$AAv?$AAa?$AAl?$AAi?$AAd?$AA?5@
CONST	SEGMENT
??_C@_1FO@GJIHNDLM@?$AA?$CC?$AAS?$AAt?$AAa?$AAn?$AAd?$AAa?$AAr?$AAd?$AA?5?$AAC?$AA?$CL?$AA?$CL?$AA?5?$AAL?$AAi?$AAb?$AAr?$AAa?$AAr?$AAi?$AAe?$AAs?$AA?5?$AAI?$AAn?$AAv?$AAa?$AAl?$AAi?$AAd?$AA?5@ DB '"'
	DB	00H, 'S', 00H, 't', 00H, 'a', 00H, 'n', 00H, 'd', 00H, 'a', 00H
	DB	'r', 00H, 'd', 00H, ' ', 00H, 'C', 00H, '+', 00H, '+', 00H, ' '
	DB	00H, 'L', 00H, 'i', 00H, 'b', 00H, 'r', 00H, 'a', 00H, 'r', 00H
	DB	'i', 00H, 'e', 00H, 's', 00H, ' ', 00H, 'I', 00H, 'n', 00H, 'v'
	DB	00H, 'a', 00H, 'l', 00H, 'i', 00H, 'd', 00H, ' ', 00H, 'A', 00H
	DB	'r', 00H, 'g', 00H, 'u', 00H, 'm', 00H, 'e', 00H, 'n', 00H, 't'
	DB	00H, '"', 00H, ' ', 00H, '&', 00H, '&', 00H, ' ', 00H, '0', 00H
	DB	00H, 00H					; `string'
CONST	ENDS
;	COMDAT ??_C@_0CI@FNPHFCCM@Standard?5C?$CL?$CL?5Libraries?5Invalid?5A@
CONST	SEGMENT
??_C@_0CI@FNPHFCCM@Standard?5C?$CL?$CL?5Libraries?5Invalid?5A@ DB 'Standa'
	DB	'rd C++ Libraries Invalid Argument', 00H	; `string'
CONST	ENDS
;	COMDAT ??_C@_1DM@HINDPMBP@?$AAv?$AAe?$AAc?$AAt?$AAo?$AAr?$AA?5?$AAi?$AAt?$AAe?$AAr?$AAa?$AAt?$AAo?$AAr?$AAs?$AA?5?$AAi?$AAn?$AAc?$AAo?$AAm?$AAp?$AAa?$AAt?$AAi?$AAb?$AAl?$AAe?$AA?$AA@
CONST	SEGMENT
??_C@_1DM@HINDPMBP@?$AAv?$AAe?$AAc?$AAt?$AAo?$AAr?$AA?5?$AAi?$AAt?$AAe?$AAr?$AAa?$AAt?$AAo?$AAr?$AAs?$AA?5?$AAi?$AAn?$AAc?$AAo?$AAm?$AAp?$AAa?$AAt?$AAi?$AAb?$AAl?$AAe?$AA?$AA@ DB 'v'
	DB	00H, 'e', 00H, 'c', 00H, 't', 00H, 'o', 00H, 'r', 00H, ' ', 00H
	DB	'i', 00H, 't', 00H, 'e', 00H, 'r', 00H, 'a', 00H, 't', 00H, 'o'
	DB	00H, 'r', 00H, 's', 00H, ' ', 00H, 'i', 00H, 'n', 00H, 'c', 00H
	DB	'o', 00H, 'm', 00H, 'p', 00H, 'a', 00H, 't', 00H, 'i', 00H, 'b'
	DB	00H, 'l', 00H, 'e', 00H, 00H, 00H		; `string'
CONST	ENDS
;	COMDAT ??_C@_0BD@OLBABOEK@vector?$DMT?$DO?5too?5long?$AA@
CONST	SEGMENT
??_C@_0BD@OLBABOEK@vector?$DMT?$DO?5too?5long?$AA@ DB 'vector<T> too long'
	DB	00H						; `string'
CONST	ENDS
;	COMDAT ??_C@_0BI@CFPLBAOH@invalid?5string?5position?$AA@
CONST	SEGMENT
??_C@_0BI@CFPLBAOH@invalid?5string?5position?$AA@ DB 'invalid string posi'
	DB	'tion', 00H					; `string'
CONST	ENDS
;	COMDAT ??_C@_0BA@JFNIOLAK@string?5too?5long?$AA@
CONST	SEGMENT
??_C@_0BA@JFNIOLAK@string?5too?5long?$AA@ DB 'string too long', 00H ; `string'
CONST	ENDS
;	COMDAT ??_C@_1OC@CGPGIJAB@?$AAs?$AAt?$AAd?$AA?3?$AA?3?$AA_?$AAV?$AAe?$AAc?$AAt?$AAo?$AAr?$AA_?$AAc?$AAo?$AAn?$AAs?$AAt?$AA_?$AAi?$AAt?$AAe?$AAr?$AAa?$AAt?$AAo?$AAr?$AA?$DM?$AAc?$AAl?$AAa?$AAs@
CONST	SEGMENT
??_C@_1OC@CGPGIJAB@?$AAs?$AAt?$AAd?$AA?3?$AA?3?$AA_?$AAV?$AAe?$AAc?$AAt?$AAo?$AAr?$AA_?$AAc?$AAo?$AAn?$AAs?$AAt?$AA_?$AAi?$AAt?$AAe?$AAr?$AAa?$AAt?$AAo?$AAr?$AA?$DM?$AAc?$AAl?$AAa?$AAs@ DB 's'
	DB	00H, 't', 00H, 'd', 00H, ':', 00H, ':', 00H, '_', 00H, 'V', 00H
	DB	'e', 00H, 'c', 00H, 't', 00H, 'o', 00H, 'r', 00H, '_', 00H, 'c'
	DB	00H, 'o', 00H, 'n', 00H, 's', 00H, 't', 00H, '_', 00H, 'i', 00H
	DB	't', 00H, 'e', 00H, 'r', 00H, 'a', 00H, 't', 00H, 'o', 00H, 'r'
	DB	00H, '<', 00H, 'c', 00H, 'l', 00H, 'a', 00H, 's', 00H, 's', 00H
	DB	' ', 00H, 's', 00H, 't', 00H, 'd', 00H, ':', 00H, ':', 00H, '_'
	DB	00H, 'V', 00H, 'e', 00H, 'c', 00H, 't', 00H, 'o', 00H, 'r', 00H
	DB	'_', 00H, 'v', 00H, 'a', 00H, 'l', 00H, '<', 00H, 's', 00H, 't'
	DB	00H, 'r', 00H, 'u', 00H, 'c', 00H, 't', 00H, ' ', 00H, 's', 00H
	DB	't', 00H, 'd', 00H, ':', 00H, ':', 00H, '_', 00H, 'S', 00H, 'i'
	DB	00H, 'm', 00H, 'p', 00H, 'l', 00H, 'e', 00H, '_', 00H, 't', 00H
	DB	'y', 00H, 'p', 00H, 'e', 00H, 's', 00H, '<', 00H, 'c', 00H, 'l'
	DB	00H, 'a', 00H, 's', 00H, 's', 00H, ' ', 00H, 'F', 00H, 'u', 00H
	DB	'z', 00H, 'z', 00H, 'y', 00H, 'T', 00H, 'e', 00H, 'r', 00H, 'm'
	DB	00H, ' ', 00H, '*', 00H, '>', 00H, ' ', 00H, '>', 00H, ' ', 00H
	DB	'>', 00H, ':', 00H, ':', 00H, 'o', 00H, 'p', 00H, 'e', 00H, 'r'
	DB	00H, 'a', 00H, 't', 00H, 'o', 00H, 'r', 00H, ' ', 00H, '+', 00H
	DB	'+', 00H, 00H, 00H				; `string'
CONST	ENDS
;	COMDAT ??_C@_1EE@EJDKCLKB@?$AAv?$AAe?$AAc?$AAt?$AAo?$AAr?$AA?5?$AAi?$AAt?$AAe?$AAr?$AAa?$AAt?$AAo?$AAr?$AA?5?$AAn?$AAo?$AAt?$AA?5?$AAi?$AAn?$AAc?$AAr?$AAe?$AAm?$AAe?$AAn?$AAt?$AAa?$AAb?$AAl@
CONST	SEGMENT
??_C@_1EE@EJDKCLKB@?$AAv?$AAe?$AAc?$AAt?$AAo?$AAr?$AA?5?$AAi?$AAt?$AAe?$AAr?$AAa?$AAt?$AAo?$AAr?$AA?5?$AAn?$AAo?$AAt?$AA?5?$AAi?$AAn?$AAc?$AAr?$AAe?$AAm?$AAe?$AAn?$AAt?$AAa?$AAb?$AAl@ DB 'v'
	DB	00H, 'e', 00H, 'c', 00H, 't', 00H, 'o', 00H, 'r', 00H, ' ', 00H
	DB	'i', 00H, 't', 00H, 'e', 00H, 'r', 00H, 'a', 00H, 't', 00H, 'o'
	DB	00H, 'r', 00H, ' ', 00H, 'n', 00H, 'o', 00H, 't', 00H, ' ', 00H
	DB	'i', 00H, 'n', 00H, 'c', 00H, 'r', 00H, 'e', 00H, 'm', 00H, 'e'
	DB	00H, 'n', 00H, 't', 00H, 'a', 00H, 'b', 00H, 'l', 00H, 'e', 00H
	DB	00H, 00H					; `string'
CONST	ENDS
;	COMDAT ??_C@_1OA@BIBNCNDA@?$AAs?$AAt?$AAd?$AA?3?$AA?3?$AA_?$AAV?$AAe?$AAc?$AAt?$AAo?$AAr?$AA_?$AAc?$AAo?$AAn?$AAs?$AAt?$AA_?$AAi?$AAt?$AAe?$AAr?$AAa?$AAt?$AAo?$AAr?$AA?$DM?$AAc?$AAl?$AAa?$AAs@
CONST	SEGMENT
??_C@_1OA@BIBNCNDA@?$AAs?$AAt?$AAd?$AA?3?$AA?3?$AA_?$AAV?$AAe?$AAc?$AAt?$AAo?$AAr?$AA_?$AAc?$AAo?$AAn?$AAs?$AAt?$AA_?$AAi?$AAt?$AAe?$AAr?$AAa?$AAt?$AAo?$AAr?$AA?$DM?$AAc?$AAl?$AAa?$AAs@ DB 's'
	DB	00H, 't', 00H, 'd', 00H, ':', 00H, ':', 00H, '_', 00H, 'V', 00H
	DB	'e', 00H, 'c', 00H, 't', 00H, 'o', 00H, 'r', 00H, '_', 00H, 'c'
	DB	00H, 'o', 00H, 'n', 00H, 's', 00H, 't', 00H, '_', 00H, 'i', 00H
	DB	't', 00H, 'e', 00H, 'r', 00H, 'a', 00H, 't', 00H, 'o', 00H, 'r'
	DB	00H, '<', 00H, 'c', 00H, 'l', 00H, 'a', 00H, 's', 00H, 's', 00H
	DB	' ', 00H, 's', 00H, 't', 00H, 'd', 00H, ':', 00H, ':', 00H, '_'
	DB	00H, 'V', 00H, 'e', 00H, 'c', 00H, 't', 00H, 'o', 00H, 'r', 00H
	DB	'_', 00H, 'v', 00H, 'a', 00H, 'l', 00H, '<', 00H, 's', 00H, 't'
	DB	00H, 'r', 00H, 'u', 00H, 'c', 00H, 't', 00H, ' ', 00H, 's', 00H
	DB	't', 00H, 'd', 00H, ':', 00H, ':', 00H, '_', 00H, 'S', 00H, 'i'
	DB	00H, 'm', 00H, 'p', 00H, 'l', 00H, 'e', 00H, '_', 00H, 't', 00H
	DB	'y', 00H, 'p', 00H, 'e', 00H, 's', 00H, '<', 00H, 'c', 00H, 'l'
	DB	00H, 'a', 00H, 's', 00H, 's', 00H, ' ', 00H, 'F', 00H, 'u', 00H
	DB	'z', 00H, 'z', 00H, 'y', 00H, 'T', 00H, 'e', 00H, 'r', 00H, 'm'
	DB	00H, ' ', 00H, '*', 00H, '>', 00H, ' ', 00H, '>', 00H, ' ', 00H
	DB	'>', 00H, ':', 00H, ':', 00H, 'o', 00H, 'p', 00H, 'e', 00H, 'r'
	DB	00H, 'a', 00H, 't', 00H, 'o', 00H, 'r', 00H, ' ', 00H, '*', 00H
	DB	00H, 00H					; `string'
CONST	ENDS
;	COMDAT ??_C@_1EG@FOHJJHAC@?$AAv?$AAe?$AAc?$AAt?$AAo?$AAr?$AA?5?$AAi?$AAt?$AAe?$AAr?$AAa?$AAt?$AAo?$AAr?$AA?5?$AAn?$AAo?$AAt?$AA?5?$AAd?$AAe?$AAr?$AAe?$AAf?$AAe?$AAr?$AAe?$AAn?$AAc?$AAa?$AAb@
CONST	SEGMENT
??_C@_1EG@FOHJJHAC@?$AAv?$AAe?$AAc?$AAt?$AAo?$AAr?$AA?5?$AAi?$AAt?$AAe?$AAr?$AAa?$AAt?$AAo?$AAr?$AA?5?$AAn?$AAo?$AAt?$AA?5?$AAd?$AAe?$AAr?$AAe?$AAf?$AAe?$AAr?$AAe?$AAn?$AAc?$AAa?$AAb@ DB 'v'
	DB	00H, 'e', 00H, 'c', 00H, 't', 00H, 'o', 00H, 'r', 00H, ' ', 00H
	DB	'i', 00H, 't', 00H, 'e', 00H, 'r', 00H, 'a', 00H, 't', 00H, 'o'
	DB	00H, 'r', 00H, ' ', 00H, 'n', 00H, 'o', 00H, 't', 00H, ' ', 00H
	DB	'd', 00H, 'e', 00H, 'r', 00H, 'e', 00H, 'f', 00H, 'e', 00H, 'r'
	DB	00H, 'e', 00H, 'n', 00H, 'c', 00H, 'a', 00H, 'b', 00H, 'l', 00H
	DB	'e', 00H, 00H, 00H				; `string'
CONST	ENDS
;	COMDAT ??_C@_1BO@MEPPHOO@?$AA?$CC?$AAo?$AAu?$AAt?$AA?5?$AAo?$AAf?$AA?5?$AAr?$AAa?$AAn?$AAg?$AAe?$AA?$CC?$AA?$AA@
CONST	SEGMENT
??_C@_1BO@MEPPHOO@?$AA?$CC?$AAo?$AAu?$AAt?$AA?5?$AAo?$AAf?$AA?5?$AAr?$AAa?$AAn?$AAg?$AAe?$AA?$CC?$AA?$AA@ DB '"'
	DB	00H, 'o', 00H, 'u', 00H, 't', 00H, ' ', 00H, 'o', 00H, 'f', 00H
	DB	' ', 00H, 'r', 00H, 'a', 00H, 'n', 00H, 'g', 00H, 'e', 00H, '"'
	DB	00H, 00H, 00H				; `string'
CONST	ENDS
;	COMDAT ??_C@_15GANGMFKL@?$AA?$CF?$AAs?$AA?$AA@
CONST	SEGMENT
??_C@_15GANGMFKL@?$AA?$CF?$AAs?$AA?$AA@ DB '%', 00H, 's', 00H, 00H, 00H ; `string'
CONST	ENDS
;	COMDAT ??_C@_1FG@IBPIFFN@?$AA?$CC?$AAS?$AAt?$AAa?$AAn?$AAd?$AAa?$AAr?$AAd?$AA?5?$AAC?$AA?$CL?$AA?$CL?$AA?5?$AAL?$AAi?$AAb?$AAr?$AAa?$AAr?$AAi?$AAe?$AAs?$AA?5?$AAO?$AAu?$AAt?$AA?5?$AAo?$AAf?$AA?5?$AAR@
CONST	SEGMENT
??_C@_1FG@IBPIFFN@?$AA?$CC?$AAS?$AAt?$AAa?$AAn?$AAd?$AAa?$AAr?$AAd?$AA?5?$AAC?$AA?$CL?$AA?$CL?$AA?5?$AAL?$AAi?$AAb?$AAr?$AAa?$AAr?$AAi?$AAe?$AAs?$AA?5?$AAO?$AAu?$AAt?$AA?5?$AAo?$AAf?$AA?5?$AAR@ DB '"'
	DB	00H, 'S', 00H, 't', 00H, 'a', 00H, 'n', 00H, 'd', 00H, 'a', 00H
	DB	'r', 00H, 'd', 00H, ' ', 00H, 'C', 00H, '+', 00H, '+', 00H, ' '
	DB	00H, 'L', 00H, 'i', 00H, 'b', 00H, 'r', 00H, 'a', 00H, 'r', 00H
	DB	'i', 00H, 'e', 00H, 's', 00H, ' ', 00H, 'O', 00H, 'u', 00H, 't'
	DB	00H, ' ', 00H, 'o', 00H, 'f', 00H, ' ', 00H, 'R', 00H, 'a', 00H
	DB	'n', 00H, 'g', 00H, 'e', 00H, '"', 00H, ' ', 00H, '&', 00H, '&'
	DB	00H, ' ', 00H, '0', 00H, 00H, 00H		; `string'
CONST	ENDS
;	COMDAT ??_C@_0CE@OFMIGAMM@Standard?5C?$CL?$CL?5Libraries?5Out?5of?5Ra@
CONST	SEGMENT
??_C@_0CE@OFMIGAMM@Standard?5C?$CL?$CL?5Libraries?5Out?5of?5Ra@ DB 'Stand'
	DB	'ard C++ Libraries Out of Range', 00H	; `string'
CONST	ENDS
;	COMDAT ??_C@_1IM@EINEHPHE@?$AAC?$AA?3?$AA?2?$AAP?$AAr?$AAo?$AAg?$AAr?$AAa?$AAm?$AA?5?$AAF?$AAi?$AAl?$AAe?$AAs?$AA?5?$AA?$CI?$AAx?$AA8?$AA6?$AA?$CJ?$AA?2?$AAM?$AAi?$AAc?$AAr?$AAo?$AAs?$AAo?$AAf?$AAt@
CONST	SEGMENT
??_C@_1IM@EINEHPHE@?$AAC?$AA?3?$AA?2?$AAP?$AAr?$AAo?$AAg?$AAr?$AAa?$AAm?$AA?5?$AAF?$AAi?$AAl?$AAe?$AAs?$AA?5?$AA?$CI?$AAx?$AA8?$AA6?$AA?$CJ?$AA?2?$AAM?$AAi?$AAc?$AAr?$AAo?$AAs?$AAo?$AAf?$AAt@ DB 'C'
	DB	00H, ':', 00H, '\', 00H, 'P', 00H, 'r', 00H, 'o', 00H, 'g', 00H
	DB	'r', 00H, 'a', 00H, 'm', 00H, ' ', 00H, 'F', 00H, 'i', 00H, 'l'
	DB	00H, 'e', 00H, 's', 00H, ' ', 00H, '(', 00H, 'x', 00H, '8', 00H
	DB	'6', 00H, ')', 00H, '\', 00H, 'M', 00H, 'i', 00H, 'c', 00H, 'r'
	DB	00H, 'o', 00H, 's', 00H, 'o', 00H, 'f', 00H, 't', 00H, ' ', 00H
	DB	'V', 00H, 'i', 00H, 's', 00H, 'u', 00H, 'a', 00H, 'l', 00H, ' '
	DB	00H, 'S', 00H, 't', 00H, 'u', 00H, 'd', 00H, 'i', 00H, 'o', 00H
	DB	' ', 00H, '1', 00H, '2', 00H, '.', 00H, '0', 00H, '\', 00H, 'V'
	DB	00H, 'C', 00H, '\', 00H, 'i', 00H, 'n', 00H, 'c', 00H, 'l', 00H
	DB	'u', 00H, 'd', 00H, 'e', 00H, '\', 00H, 'v', 00H, 'e', 00H, 'c'
	DB	00H, 't', 00H, 'o', 00H, 'r', 00H, 00H, 00H	; `string'
CONST	ENDS
;	COMDAT ??_C@_1IO@FEAPGJBD@?$AAC?$AA?3?$AA?2?$AAP?$AAr?$AAo?$AAg?$AAr?$AAa?$AAm?$AA?5?$AAF?$AAi?$AAl?$AAe?$AAs?$AA?5?$AA?$CI?$AAx?$AA8?$AA6?$AA?$CJ?$AA?2?$AAM?$AAi?$AAc?$AAr?$AAo?$AAs?$AAo?$AAf?$AAt@
CONST	SEGMENT
??_C@_1IO@FEAPGJBD@?$AAC?$AA?3?$AA?2?$AAP?$AAr?$AAo?$AAg?$AAr?$AAa?$AAm?$AA?5?$AAF?$AAi?$AAl?$AAe?$AAs?$AA?5?$AA?$CI?$AAx?$AA8?$AA6?$AA?$CJ?$AA?2?$AAM?$AAi?$AAc?$AAr?$AAo?$AAs?$AAo?$AAf?$AAt@ DB 'C'
	DB	00H, ':', 00H, '\', 00H, 'P', 00H, 'r', 00H, 'o', 00H, 'g', 00H
	DB	'r', 00H, 'a', 00H, 'm', 00H, ' ', 00H, 'F', 00H, 'i', 00H, 'l'
	DB	00H, 'e', 00H, 's', 00H, ' ', 00H, '(', 00H, 'x', 00H, '8', 00H
	DB	'6', 00H, ')', 00H, '\', 00H, 'M', 00H, 'i', 00H, 'c', 00H, 'r'
	DB	00H, 'o', 00H, 's', 00H, 'o', 00H, 'f', 00H, 't', 00H, ' ', 00H
	DB	'V', 00H, 'i', 00H, 's', 00H, 'u', 00H, 'a', 00H, 'l', 00H, ' '
	DB	00H, 'S', 00H, 't', 00H, 'u', 00H, 'd', 00H, 'i', 00H, 'o', 00H
	DB	' ', 00H, '1', 00H, '2', 00H, '.', 00H, '0', 00H, '\', 00H, 'V'
	DB	00H, 'C', 00H, '\', 00H, 'i', 00H, 'n', 00H, 'c', 00H, 'l', 00H
	DB	'u', 00H, 'd', 00H, 'e', 00H, '\', 00H, 'x', 00H, 's', 00H, 't'
	DB	00H, 'r', 00H, 'i', 00H, 'n', 00H, 'g', 00H, 00H, 00H ; `string'
CONST	ENDS
;	COMDAT ??_C@_1FE@EKNHDPMB@?$AA0?$AA?5?$AA?$CG?$AA?$CG?$AA?5?$AA?$CC?$AA?$DM?$AAF?$AAz?$AAO?$AAR?$AA?3?$AA?3?$AAO?$AAR?$AAw?$AAi?$AAt?$AAh?$AAD?$AAO?$AAM?$AA?$DO?$AA?3?$AA?5?$AAi?$AAn?$AAv?$AAa?$AAl?$AAi?$AAd@
CONST	SEGMENT
??_C@_1FE@EKNHDPMB@?$AA0?$AA?5?$AA?$CG?$AA?$CG?$AA?5?$AA?$CC?$AA?$DM?$AAF?$AAz?$AAO?$AAR?$AA?3?$AA?3?$AAO?$AAR?$AAw?$AAi?$AAt?$AAh?$AAD?$AAO?$AAM?$AA?$DO?$AA?3?$AA?5?$AAi?$AAn?$AAv?$AAa?$AAl?$AAi?$AAd@ DB '0'
	DB	00H, ' ', 00H, '&', 00H, '&', 00H, ' ', 00H, '"', 00H, '<', 00H
	DB	'F', 00H, 'z', 00H, 'O', 00H, 'R', 00H, ':', 00H, ':', 00H, 'O'
	DB	00H, 'R', 00H, 'w', 00H, 'i', 00H, 't', 00H, 'h', 00H, 'D', 00H
	DB	'O', 00H, 'M', 00H, '>', 00H, ':', 00H, ' ', 00H, 'i', 00H, 'n'
	DB	00H, 'v', 00H, 'a', 00H, 'l', 00H, 'i', 00H, 'd', 00H, ' ', 00H
	DB	'c', 00H, 'o', 00H, 'n', 00H, 't', 00H, 'e', 00H, 'x', 00H, 't'
	DB	00H, '"', 00H, 00H, 00H			; `string'
CONST	ENDS
;	COMDAT ??_C@_1FC@EJGEACIH@?$AA0?$AA?5?$AA?$CG?$AA?$CG?$AA?5?$AA?$CC?$AA?$DM?$AAF?$AAz?$AAO?$AAR?$AA?3?$AA?3?$AAC?$AAl?$AAe?$AAa?$AAr?$AAD?$AAO?$AAM?$AA?$DO?$AA?3?$AA?5?$AAi?$AAn?$AAv?$AAa?$AAl?$AAi?$AAd?$AA?5@
CONST	SEGMENT
??_C@_1FC@EJGEACIH@?$AA0?$AA?5?$AA?$CG?$AA?$CG?$AA?5?$AA?$CC?$AA?$DM?$AAF?$AAz?$AAO?$AAR?$AA?3?$AA?3?$AAC?$AAl?$AAe?$AAa?$AAr?$AAD?$AAO?$AAM?$AA?$DO?$AA?3?$AA?5?$AAi?$AAn?$AAv?$AAa?$AAl?$AAi?$AAd?$AA?5@ DB '0'
	DB	00H, ' ', 00H, '&', 00H, '&', 00H, ' ', 00H, '"', 00H, '<', 00H
	DB	'F', 00H, 'z', 00H, 'O', 00H, 'R', 00H, ':', 00H, ':', 00H, 'C'
	DB	00H, 'l', 00H, 'e', 00H, 'a', 00H, 'r', 00H, 'D', 00H, 'O', 00H
	DB	'M', 00H, '>', 00H, ':', 00H, ' ', 00H, 'i', 00H, 'n', 00H, 'v'
	DB	00H, 'a', 00H, 'l', 00H, 'i', 00H, 'd', 00H, ' ', 00H, 'c', 00H
	DB	'o', 00H, 'n', 00H, 't', 00H, 'e', 00H, 'x', 00H, 't', 00H, '"'
	DB	00H, 00H, 00H				; `string'
CONST	ENDS
;	COMDAT ??_C@_1IE@CIAIIFIM@?$AAc?$AA?3?$AA?2?$AAu?$AAs?$AAe?$AAr?$AAs?$AA?2?$AAm?$AAa?$AAx?$AAi?$AAm?$AAe?$AA?2?$AAv?$AAi?$AAd?$AAe?$AAo?$AAs?$AA?2?$AAt?$AAp?$AA?5?$AAi?$AAa?$AA?2?$AAv?$AAs?$AA2@
CONST	SEGMENT
??_C@_1IE@CIAIIFIM@?$AAc?$AA?3?$AA?2?$AAu?$AAs?$AAe?$AAr?$AAs?$AA?2?$AAm?$AAa?$AAx?$AAi?$AAm?$AAe?$AA?2?$AAv?$AAi?$AAd?$AAe?$AAo?$AAs?$AA?2?$AAt?$AAp?$AA?5?$AAi?$AAa?$AA?2?$AAv?$AAs?$AA2@ DB 'c'
	DB	00H, ':', 00H, '\', 00H, 'u', 00H, 's', 00H, 'e', 00H, 'r', 00H
	DB	's', 00H, '\', 00H, 'm', 00H, 'a', 00H, 'x', 00H, 'i', 00H, 'm'
	DB	00H, 'e', 00H, '\', 00H, 'v', 00H, 'i', 00H, 'd', 00H, 'e', 00H
	DB	'o', 00H, 's', 00H, '\', 00H, 't', 00H, 'p', 00H, ' ', 00H, 'i'
	DB	00H, 'a', 00H, '\', 00H, 'v', 00H, 's', 00H, '2', 00H, '0', 00H
	DB	'1', 00H, '0', 00H, '\', 00H, 'c', 00H, 'o', 00H, 'm', 00H, 'm'
	DB	00H, 'o', 00H, 'n', 00H, '\', 00H, 'f', 00H, 'u', 00H, 'z', 00H
	DB	'z', 00H, 'y', 00H, '\', 00H, 'F', 00H, 'u', 00H, 'z', 00H, 'z'
	DB	00H, 'y', 00H, 'O', 00H, 'p', 00H, 'e', 00H, 'r', 00H, 'a', 00H
	DB	't', 00H, 'o', 00H, 'r', 00H, 's', 00H, '.', 00H, 'h', 00H, 00H
	DB	00H						; `string'
CONST	ENDS
;	COMDAT ??_7FzOR@@6B@
CONST	SEGMENT
??_7FzOR@@6B@ DD FLAT:??_R4FzOR@@6B@			; FzOR::`vftable'
	DD	FLAT:??_EFzOR@@UAEPAXI@Z
	DD	FLAT:?Clone@FzOR@@UBEPAVFuzzyTerm@@XZ
	DD	FLAT:?GetDOM@FzOR@@UBENXZ
	DD	FLAT:?ClearDOM@FzOR@@UAEXXZ
	DD	FLAT:?ORwithDOM@FzOR@@UAEXN@Z
CONST	ENDS
;	COMDAT ??_7FzAND@@6B@
CONST	SEGMENT
??_7FzAND@@6B@ DD FLAT:??_R4FzAND@@6B@			; FzAND::`vftable'
	DD	FLAT:??_EFzAND@@UAEPAXI@Z
	DD	FLAT:?Clone@FzAND@@UBEPAVFuzzyTerm@@XZ
	DD	FLAT:?GetDOM@FzAND@@UBENXZ
	DD	FLAT:?ClearDOM@FzAND@@UAEXXZ
	DD	FLAT:?ORwithDOM@FzAND@@UAEXN@Z
CONST	ENDS
;	COMDAT ??_7FuzzyTerm@@6B@
CONST	SEGMENT
??_7FuzzyTerm@@6B@ DD FLAT:??_R4FuzzyTerm@@6B@		; FuzzyTerm::`vftable'
	DD	FLAT:??_EFuzzyTerm@@UAEPAXI@Z
	DD	FLAT:__purecall
	DD	FLAT:__purecall
	DD	FLAT:__purecall
	DD	FLAT:__purecall
CONST	ENDS
;	COMDAT ??_C@_06FHFOAHML@system?$AA@
CONST	SEGMENT
??_C@_06FHFOAHML@system?$AA@ DB 'system', 00H		; `string'
CONST	ENDS
;	COMDAT ??_7_System_error_category@std@@6B@
CONST	SEGMENT
??_7_System_error_category@std@@6B@ DD FLAT:??_R4_System_error_category@std@@6B@ ; std::_System_error_category::`vftable'
	DD	FLAT:??_E_System_error_category@std@@UAEPAXI@Z
	DD	FLAT:?name@_System_error_category@std@@UBEPBDXZ
	DD	FLAT:?message@_System_error_category@std@@UBE?AV?$basic_string@DU?$char_traits@D@std@@V?$allocator@D@2@@2@H@Z
	DD	FLAT:?default_error_condition@_System_error_category@std@@UBE?AVerror_condition@2@H@Z
	DD	FLAT:?equivalent@error_category@std@@UBE_NABVerror_code@2@H@Z
	DD	FLAT:?equivalent@error_category@std@@UBE_NHABVerror_condition@2@@Z
CONST	ENDS
;	COMDAT ??_C@_0BG@PADBLCHM@iostream?5stream?5error?$AA@
CONST	SEGMENT
??_C@_0BG@PADBLCHM@iostream?5stream?5error?$AA@ DB 'iostream stream error'
	DB	00H						; `string'
CONST	ENDS
;	COMDAT ??_C@_08LLGCOLLL@iostream?$AA@
CONST	SEGMENT
??_C@_08LLGCOLLL@iostream?$AA@ DB 'iostream', 00H	; `string'
CONST	ENDS
;	COMDAT ??_7_Iostream_error_category@std@@6B@
CONST	SEGMENT
??_7_Iostream_error_category@std@@6B@ DD FLAT:??_R4_Iostream_error_category@std@@6B@ ; std::_Iostream_error_category::`vftable'
	DD	FLAT:??_E_Iostream_error_category@std@@UAEPAXI@Z
	DD	FLAT:?name@_Iostream_error_category@std@@UBEPBDXZ
	DD	FLAT:?message@_Iostream_error_category@std@@UBE?AV?$basic_string@DU?$char_traits@D@std@@V?$allocator@D@2@@2@H@Z
	DD	FLAT:?default_error_condition@error_category@std@@UBE?AVerror_condition@2@H@Z
	DD	FLAT:?equivalent@error_category@std@@UBE_NABVerror_code@2@H@Z
	DD	FLAT:?equivalent@error_category@std@@UBE_NHABVerror_condition@2@@Z
CONST	ENDS
;	COMDAT ??_C@_0O@BFJCFAAK@unknown?5error?$AA@
CONST	SEGMENT
??_C@_0O@BFJCFAAK@unknown?5error?$AA@ DB 'unknown error', 00H ; `string'
CONST	ENDS
;	COMDAT ??_C@_07DCLBNMLN@generic?$AA@
CONST	SEGMENT
??_C@_07DCLBNMLN@generic?$AA@ DB 'generic', 00H		; `string'
CONST	ENDS
;	COMDAT ??_7_Generic_error_category@std@@6B@
CONST	SEGMENT
??_7_Generic_error_category@std@@6B@ DD FLAT:??_R4_Generic_error_category@std@@6B@ ; std::_Generic_error_category::`vftable'
	DD	FLAT:??_E_Generic_error_category@std@@UAEPAXI@Z
	DD	FLAT:?name@_Generic_error_category@std@@UBEPBDXZ
	DD	FLAT:?message@_Generic_error_category@std@@UBE?AV?$basic_string@DU?$char_traits@D@std@@V?$allocator@D@2@@2@H@Z
	DD	FLAT:?default_error_condition@error_category@std@@UBE?AVerror_condition@2@H@Z
	DD	FLAT:?equivalent@error_category@std@@UBE_NABVerror_code@2@H@Z
	DD	FLAT:?equivalent@error_category@std@@UBE_NHABVerror_condition@2@@Z
CONST	ENDS
;	COMDAT ??_7error_category@std@@6B@
CONST	SEGMENT
??_7error_category@std@@6B@ DD FLAT:??_R4error_category@std@@6B@ ; std::error_category::`vftable'
	DD	FLAT:??_Eerror_category@std@@UAEPAXI@Z
	DD	FLAT:__purecall
	DD	FLAT:__purecall
	DD	FLAT:?default_error_condition@error_category@std@@UBE?AVerror_condition@2@H@Z
	DD	FLAT:?equivalent@error_category@std@@UBE_NABVerror_code@2@H@Z
	DD	FLAT:?equivalent@error_category@std@@UBE_NHABVerror_condition@2@@Z
CONST	ENDS
;	COMDAT ??_C@_1DC@POOIKBAO@?$AAI?$AAT?$AAE?$AAR?$AAA?$AAT?$AAO?$AAR?$AA?5?$AAL?$AAI?$AAS?$AAT?$AA?5?$AAC?$AAO?$AAR?$AAR?$AAU?$AAP?$AAT?$AAE?$AAD?$AA?$CB?$AA?$AA@
CONST	SEGMENT
??_C@_1DC@POOIKBAO@?$AAI?$AAT?$AAE?$AAR?$AAA?$AAT?$AAO?$AAR?$AA?5?$AAL?$AAI?$AAS?$AAT?$AA?5?$AAC?$AAO?$AAR?$AAR?$AAU?$AAP?$AAT?$AAE?$AAD?$AA?$CB?$AA?$AA@ DB 'I'
	DB	00H, 'T', 00H, 'E', 00H, 'R', 00H, 'A', 00H, 'T', 00H, 'O', 00H
	DB	'R', 00H, ' ', 00H, 'L', 00H, 'I', 00H, 'S', 00H, 'T', 00H, ' '
	DB	00H, 'C', 00H, 'O', 00H, 'R', 00H, 'R', 00H, 'U', 00H, 'P', 00H
	DB	'T', 00H, 'E', 00H, 'D', 00H, '!', 00H, 00H, 00H ; `string'
CONST	ENDS
;	COMDAT ??_C@_1JA@EADLBAJ@?$AAC?$AA?3?$AA?2?$AAP?$AAr?$AAo?$AAg?$AAr?$AAa?$AAm?$AA?5?$AAF?$AAi?$AAl?$AAe?$AAs?$AA?5?$AA?$CI?$AAx?$AA8?$AA6?$AA?$CJ?$AA?2?$AAM?$AAi?$AAc?$AAr?$AAo?$AAs?$AAo?$AAf?$AAt@
CONST	SEGMENT
??_C@_1JA@EADLBAJ@?$AAC?$AA?3?$AA?2?$AAP?$AAr?$AAo?$AAg?$AAr?$AAa?$AAm?$AA?5?$AAF?$AAi?$AAl?$AAe?$AAs?$AA?5?$AA?$CI?$AAx?$AA8?$AA6?$AA?$CJ?$AA?2?$AAM?$AAi?$AAc?$AAr?$AAo?$AAs?$AAo?$AAf?$AAt@ DB 'C'
	DB	00H, ':', 00H, '\', 00H, 'P', 00H, 'r', 00H, 'o', 00H, 'g', 00H
	DB	'r', 00H, 'a', 00H, 'm', 00H, ' ', 00H, 'F', 00H, 'i', 00H, 'l'
	DB	00H, 'e', 00H, 's', 00H, ' ', 00H, '(', 00H, 'x', 00H, '8', 00H
	DB	'6', 00H, ')', 00H, '\', 00H, 'M', 00H, 'i', 00H, 'c', 00H, 'r'
	DB	00H, 'o', 00H, 's', 00H, 'o', 00H, 'f', 00H, 't', 00H, ' ', 00H
	DB	'V', 00H, 'i', 00H, 's', 00H, 'u', 00H, 'a', 00H, 'l', 00H, ' '
	DB	00H, 'S', 00H, 't', 00H, 'u', 00H, 'd', 00H, 'i', 00H, 'o', 00H
	DB	' ', 00H, '1', 00H, '2', 00H, '.', 00H, '0', 00H, '\', 00H, 'V'
	DB	00H, 'C', 00H, '\', 00H, 'i', 00H, 'n', 00H, 'c', 00H, 'l', 00H
	DB	'u', 00H, 'd', 00H, 'e', 00H, '\', 00H, 'x', 00H, 'u', 00H, 't'
	DB	00H, 'i', 00H, 'l', 00H, 'i', 00H, 't', 00H, 'y', 00H, 00H, 00H ; `string'
CONST	ENDS
;	COMDAT xdata$x
xdata$x	SEGMENT
__unwindtable$??$construct@PADAAPAD@?$allocator@D@std@@QAEXPAPADAAPAD@Z DD 0ffffffffH
	DD	FLAT:__unwindfunclet$??$construct@PADAAPAD@?$allocator@D@std@@QAEXPAPADAAPAD@Z$0
__ehfuncinfo$??$construct@PADAAPAD@?$allocator@D@std@@QAEXPAPADAAPAD@Z DD 019930522H
	DD	01H
	DD	FLAT:__unwindtable$??$construct@PADAAPAD@?$allocator@D@std@@QAEXPAPADAAPAD@Z
	DD	2 DUP(00H)
	DD	2 DUP(00H)
	DD	00H
	DD	01H
xdata$x	ENDS
;	COMDAT xdata$x
xdata$x	SEGMENT
__unwindtable$??$construct@PAVFuzzyTerm@@PAV1@@?$allocator@PAVFuzzyTerm@@@std@@QAEXPAPAVFuzzyTerm@@$$QAPAV2@@Z DD 0ffffffffH
	DD	FLAT:__unwindfunclet$??$construct@PAVFuzzyTerm@@PAV1@@?$allocator@PAVFuzzyTerm@@@std@@QAEXPAPAVFuzzyTerm@@$$QAPAV2@@Z$0
__ehfuncinfo$??$construct@PAVFuzzyTerm@@PAV1@@?$allocator@PAVFuzzyTerm@@@std@@QAEXPAPAVFuzzyTerm@@$$QAPAV2@@Z DD 019930522H
	DD	01H
	DD	FLAT:__unwindtable$??$construct@PAVFuzzyTerm@@PAV1@@?$allocator@PAVFuzzyTerm@@@std@@QAEXPAPAVFuzzyTerm@@$$QAPAV2@@Z
	DD	2 DUP(00H)
	DD	2 DUP(00H)
	DD	00H
	DD	01H
xdata$x	ENDS
;	COMDAT xdata$x
xdata$x	SEGMENT
__unwindtable$??$construct@U_Container_proxy@std@@U12@@?$allocator@U_Container_proxy@std@@@std@@QAEXPAU_Container_proxy@1@$$QAU21@@Z DD 0ffffffffH
	DD	FLAT:__unwindfunclet$??$construct@U_Container_proxy@std@@U12@@?$allocator@U_Container_proxy@std@@@std@@QAEXPAU_Container_proxy@1@$$QAU21@@Z$0
__ehfuncinfo$??$construct@U_Container_proxy@std@@U12@@?$allocator@U_Container_proxy@std@@@std@@QAEXPAU_Container_proxy@1@$$QAU21@@Z DD 019930522H
	DD	01H
	DD	FLAT:__unwindtable$??$construct@U_Container_proxy@std@@U12@@?$allocator@U_Container_proxy@std@@@std@@QAEXPAU_Container_proxy@1@$$QAU21@@Z
	DD	2 DUP(00H)
	DD	2 DUP(00H)
	DD	00H
	DD	01H
xdata$x	ENDS
;	COMDAT xdata$x
xdata$x	SEGMENT
__unwindtable$??0?$_Vector_const_iterator@V?$_Vector_val@U?$_Simple_types@PAVFuzzyTerm@@@std@@@std@@@std@@QAE@PAPAVFuzzyTerm@@PBU_Container_base12@1@@Z DD 0ffffffffH
	DD	FLAT:__unwindfunclet$??0?$_Vector_const_iterator@V?$_Vector_val@U?$_Simple_types@PAVFuzzyTerm@@@std@@@std@@@std@@QAE@PAPAVFuzzyTerm@@PBU_Container_base12@1@@Z$0
__ehfuncinfo$??0?$_Vector_const_iterator@V?$_Vector_val@U?$_Simple_types@PAVFuzzyTerm@@@std@@@std@@@std@@QAE@PAPAVFuzzyTerm@@PBU_Container_base12@1@@Z DD 019930522H
	DD	01H
	DD	FLAT:__unwindtable$??0?$_Vector_const_iterator@V?$_Vector_val@U?$_Simple_types@PAVFuzzyTerm@@@std@@@std@@@std@@QAE@PAPAVFuzzyTerm@@PBU_Container_base12@1@@Z
	DD	2 DUP(00H)
	DD	2 DUP(00H)
	DD	00H
	DD	01H
xdata$x	ENDS
;	COMDAT xdata$x
xdata$x	SEGMENT
__unwindtable$?Clone@FzOR@@UBEPAVFuzzyTerm@@XZ DD 0ffffffffH
	DD	FLAT:__unwindfunclet$?Clone@FzOR@@UBEPAVFuzzyTerm@@XZ$0
__ehfuncinfo$?Clone@FzOR@@UBEPAVFuzzyTerm@@XZ DD 019930522H
	DD	01H
	DD	FLAT:__unwindtable$?Clone@FzOR@@UBEPAVFuzzyTerm@@XZ
	DD	2 DUP(00H)
	DD	2 DUP(00H)
	DD	00H
	DD	01H
xdata$x	ENDS
;	COMDAT xdata$x
xdata$x	SEGMENT
__unwindtable$?Clone@FzAND@@UBEPAVFuzzyTerm@@XZ DD 0ffffffffH
	DD	FLAT:__unwindfunclet$?Clone@FzAND@@UBEPAVFuzzyTerm@@XZ$0
__ehfuncinfo$?Clone@FzAND@@UBEPAVFuzzyTerm@@XZ DD 019930522H
	DD	01H
	DD	FLAT:__unwindtable$?Clone@FzAND@@UBEPAVFuzzyTerm@@XZ
	DD	2 DUP(00H)
	DD	2 DUP(00H)
	DD	00H
	DD	01H
xdata$x	ENDS
xdata$x	SEGMENT
__unwindtable$??0FzOR@@QAE@AAVFuzzyTerm@@000@Z DD 0ffffffffH
	DD	FLAT:__unwindfunclet$??0FzOR@@QAE@AAVFuzzyTerm@@000@Z$0
	DD	00H
	DD	FLAT:__unwindfunclet$??0FzOR@@QAE@AAVFuzzyTerm@@000@Z$1
__unwindtable$??0FzOR@@QAE@AAVFuzzyTerm@@00@Z DD 0ffffffffH
	DD	FLAT:__unwindfunclet$??0FzOR@@QAE@AAVFuzzyTerm@@00@Z$0
	DD	00H
	DD	FLAT:__unwindfunclet$??0FzOR@@QAE@AAVFuzzyTerm@@00@Z$1
__unwindtable$??0FzOR@@QAE@AAVFuzzyTerm@@0@Z DD 0ffffffffH
	DD	FLAT:__unwindfunclet$??0FzOR@@QAE@AAVFuzzyTerm@@0@Z$0
	DD	00H
	DD	FLAT:__unwindfunclet$??0FzOR@@QAE@AAVFuzzyTerm@@0@Z$1
__unwindtable$??0FzAND@@QAE@AAVFuzzyTerm@@000@Z DD 0ffffffffH
	DD	FLAT:__unwindfunclet$??0FzAND@@QAE@AAVFuzzyTerm@@000@Z$0
	DD	00H
	DD	FLAT:__unwindfunclet$??0FzAND@@QAE@AAVFuzzyTerm@@000@Z$1
__unwindtable$??0FzAND@@QAE@AAVFuzzyTerm@@00@Z DD 0ffffffffH
	DD	FLAT:__unwindfunclet$??0FzAND@@QAE@AAVFuzzyTerm@@00@Z$0
	DD	00H
	DD	FLAT:__unwindfunclet$??0FzAND@@QAE@AAVFuzzyTerm@@00@Z$1
__unwindtable$??0FzAND@@QAE@AAVFuzzyTerm@@0@Z DD 0ffffffffH
	DD	FLAT:__unwindfunclet$??0FzAND@@QAE@AAVFuzzyTerm@@0@Z$0
	DD	00H
	DD	FLAT:__unwindfunclet$??0FzAND@@QAE@AAVFuzzyTerm@@0@Z$1
__unwindtable$?GetDOM@FzOR@@UBENXZ DD 0ffffffffH
	DD	FLAT:__unwindfunclet$?GetDOM@FzOR@@UBENXZ$0
	DD	00H
	DD	FLAT:__unwindfunclet$?GetDOM@FzOR@@UBENXZ$1
	DD	00H
	DD	FLAT:__unwindfunclet$?GetDOM@FzOR@@UBENXZ$2
__unwindtable$?ORwithDOM@FzAND@@UAEXN@Z DD 0ffffffffH
	DD	FLAT:__unwindfunclet$?ORwithDOM@FzAND@@UAEXN@Z$0
	DD	00H
	DD	FLAT:__unwindfunclet$?ORwithDOM@FzAND@@UAEXN@Z$1
	DD	00H
	DD	FLAT:__unwindfunclet$?ORwithDOM@FzAND@@UAEXN@Z$2
__unwindtable$?ClearDOM@FzAND@@UAEXXZ DD 0ffffffffH
	DD	FLAT:__unwindfunclet$?ClearDOM@FzAND@@UAEXXZ$0
	DD	00H
	DD	FLAT:__unwindfunclet$?ClearDOM@FzAND@@UAEXXZ$1
	DD	00H
	DD	FLAT:__unwindfunclet$?ClearDOM@FzAND@@UAEXXZ$2
__unwindtable$?GetDOM@FzAND@@UBENXZ DD 0ffffffffH
	DD	FLAT:__unwindfunclet$?GetDOM@FzAND@@UBENXZ$0
	DD	00H
	DD	FLAT:__unwindfunclet$?GetDOM@FzAND@@UBENXZ$1
	DD	00H
	DD	FLAT:__unwindfunclet$?GetDOM@FzAND@@UBENXZ$2
__ehfuncinfo$?GetDOM@FzOR@@UBENXZ DD 019930522H
	DD	03H
	DD	FLAT:__unwindtable$?GetDOM@FzOR@@UBENXZ
	DD	2 DUP(00H)
	DD	2 DUP(00H)
	DD	00H
	DD	01H
__ehfuncinfo$??0FzOR@@QAE@AAVFuzzyTerm@@000@Z DD 019930522H
	DD	02H
	DD	FLAT:__unwindtable$??0FzOR@@QAE@AAVFuzzyTerm@@000@Z
	DD	2 DUP(00H)
	DD	2 DUP(00H)
	DD	00H
	DD	01H
__ehfuncinfo$??0FzOR@@QAE@AAVFuzzyTerm@@00@Z DD 019930522H
	DD	02H
	DD	FLAT:__unwindtable$??0FzOR@@QAE@AAVFuzzyTerm@@00@Z
	DD	2 DUP(00H)
	DD	2 DUP(00H)
	DD	00H
	DD	01H
__ehfuncinfo$??0FzOR@@QAE@AAVFuzzyTerm@@0@Z DD 019930522H
	DD	02H
	DD	FLAT:__unwindtable$??0FzOR@@QAE@AAVFuzzyTerm@@0@Z
	DD	2 DUP(00H)
	DD	2 DUP(00H)
	DD	00H
	DD	01H
__ehfuncinfo$??0FzOR@@QAE@ABV0@@Z DD 019930522H
	DD	05H
	DD	FLAT:__unwindtable$??0FzOR@@QAE@ABV0@@Z
	DD	2 DUP(00H)
	DD	2 DUP(00H)
	DD	00H
	DD	01H
__ehfuncinfo$??1FzOR@@UAE@XZ DD 019930522H
	DD	05H
	DD	FLAT:__unwindtable$??1FzOR@@UAE@XZ
	DD	2 DUP(00H)
	DD	2 DUP(00H)
	DD	00H
	DD	01H
__ehfuncinfo$?ORwithDOM@FzAND@@UAEXN@Z DD 019930522H
	DD	03H
	DD	FLAT:__unwindtable$?ORwithDOM@FzAND@@UAEXN@Z
	DD	2 DUP(00H)
	DD	2 DUP(00H)
	DD	00H
	DD	01H
__ehfuncinfo$?ClearDOM@FzAND@@UAEXXZ DD 019930522H
	DD	03H
	DD	FLAT:__unwindtable$?ClearDOM@FzAND@@UAEXXZ
	DD	2 DUP(00H)
	DD	2 DUP(00H)
	DD	00H
	DD	01H
__ehfuncinfo$?GetDOM@FzAND@@UBENXZ DD 019930522H
	DD	03H
	DD	FLAT:__unwindtable$?GetDOM@FzAND@@UBENXZ
	DD	2 DUP(00H)
	DD	2 DUP(00H)
	DD	00H
	DD	01H
__ehfuncinfo$??0FzAND@@QAE@AAVFuzzyTerm@@000@Z DD 019930522H
	DD	02H
	DD	FLAT:__unwindtable$??0FzAND@@QAE@AAVFuzzyTerm@@000@Z
	DD	2 DUP(00H)
	DD	2 DUP(00H)
	DD	00H
	DD	01H
__ehfuncinfo$??0FzAND@@QAE@AAVFuzzyTerm@@00@Z DD 019930522H
	DD	02H
	DD	FLAT:__unwindtable$??0FzAND@@QAE@AAVFuzzyTerm@@00@Z
	DD	2 DUP(00H)
	DD	2 DUP(00H)
	DD	00H
	DD	01H
__ehfuncinfo$??0FzAND@@QAE@AAVFuzzyTerm@@0@Z DD 019930522H
	DD	02H
	DD	FLAT:__unwindtable$??0FzAND@@QAE@AAVFuzzyTerm@@0@Z
	DD	2 DUP(00H)
	DD	2 DUP(00H)
	DD	00H
	DD	01H
__ehfuncinfo$??0FzAND@@QAE@ABV0@@Z DD 019930522H
	DD	05H
	DD	FLAT:__unwindtable$??0FzAND@@QAE@ABV0@@Z
	DD	2 DUP(00H)
	DD	2 DUP(00H)
	DD	00H
	DD	01H
__ehfuncinfo$??1FzAND@@UAE@XZ DD 019930522H
	DD	05H
	DD	FLAT:__unwindtable$??1FzAND@@UAE@XZ
	DD	2 DUP(00H)
	DD	2 DUP(00H)
	DD	00H
	DD	01H
__unwindtable$??0FzOR@@QAE@ABV0@@Z DD 0ffffffffH
	DD	FLAT:__unwindfunclet$??0FzOR@@QAE@ABV0@@Z$0
	DD	00H
	DD	FLAT:__unwindfunclet$??0FzOR@@QAE@ABV0@@Z$1
	DD	01H
	DD	FLAT:__unwindfunclet$??0FzOR@@QAE@ABV0@@Z$2
	DD	02H
	DD	FLAT:__unwindfunclet$??0FzOR@@QAE@ABV0@@Z$3
	DD	02H
	DD	FLAT:__unwindfunclet$??0FzOR@@QAE@ABV0@@Z$4
__unwindtable$??1FzOR@@UAE@XZ DD 0ffffffffH
	DD	FLAT:__unwindfunclet$??1FzOR@@UAE@XZ$0
	DD	00H
	DD	FLAT:__unwindfunclet$??1FzOR@@UAE@XZ$1
	DD	01H
	DD	FLAT:__unwindfunclet$??1FzOR@@UAE@XZ$2
	DD	02H
	DD	FLAT:__unwindfunclet$??1FzOR@@UAE@XZ$3
	DD	02H
	DD	FLAT:__unwindfunclet$??1FzOR@@UAE@XZ$4
__unwindtable$??0FzAND@@QAE@ABV0@@Z DD 0ffffffffH
	DD	FLAT:__unwindfunclet$??0FzAND@@QAE@ABV0@@Z$0
	DD	00H
	DD	FLAT:__unwindfunclet$??0FzAND@@QAE@ABV0@@Z$1
	DD	01H
	DD	FLAT:__unwindfunclet$??0FzAND@@QAE@ABV0@@Z$2
	DD	02H
	DD	FLAT:__unwindfunclet$??0FzAND@@QAE@ABV0@@Z$3
	DD	02H
	DD	FLAT:__unwindfunclet$??0FzAND@@QAE@ABV0@@Z$4
__unwindtable$??1FzAND@@UAE@XZ DD 0ffffffffH
	DD	FLAT:__unwindfunclet$??1FzAND@@UAE@XZ$0
	DD	00H
	DD	FLAT:__unwindfunclet$??1FzAND@@UAE@XZ$1
	DD	01H
	DD	FLAT:__unwindfunclet$??1FzAND@@UAE@XZ$2
	DD	02H
	DD	FLAT:__unwindfunclet$??1FzAND@@UAE@XZ$3
	DD	02H
	DD	FLAT:__unwindfunclet$??1FzAND@@UAE@XZ$4
xdata$x	ENDS
;	COMDAT xdata$x
xdata$x	SEGMENT
__unwindtable$?_Orphan_range@?$vector@PAVFuzzyTerm@@V?$allocator@PAVFuzzyTerm@@@std@@@std@@IBEXPAPAVFuzzyTerm@@0@Z DD 0ffffffffH
	DD	FLAT:__unwindfunclet$?_Orphan_range@?$vector@PAVFuzzyTerm@@V?$allocator@PAVFuzzyTerm@@@std@@@std@@IBEXPAPAVFuzzyTerm@@0@Z$0
__ehfuncinfo$?_Orphan_range@?$vector@PAVFuzzyTerm@@V?$allocator@PAVFuzzyTerm@@@std@@@std@@IBEXPAPAVFuzzyTerm@@0@Z DD 019930522H
	DD	01H
	DD	FLAT:__unwindtable$?_Orphan_range@?$vector@PAVFuzzyTerm@@V?$allocator@PAVFuzzyTerm@@@std@@@std@@IBEXPAPAVFuzzyTerm@@0@Z
	DD	2 DUP(00H)
	DD	2 DUP(00H)
	DD	00H
	DD	01H
xdata$x	ENDS
;	COMDAT xdata$x
xdata$x	SEGMENT
__catchsym$?_Reallocate@?$vector@PAVFuzzyTerm@@V?$allocator@PAVFuzzyTerm@@@std@@@std@@IAEXI@Z$2 DD 040H
	DD	00H
	DD	00H
	DD	FLAT:__catch$?_Reallocate@?$vector@PAVFuzzyTerm@@V?$allocator@PAVFuzzyTerm@@@std@@@std@@IAEXI@Z$0
__unwindtable$?_Reallocate@?$vector@PAVFuzzyTerm@@V?$allocator@PAVFuzzyTerm@@@std@@@std@@IAEXI@Z DD 0ffffffffH
	DD	00H
	DD	0ffffffffH
	DD	00H
__tryblocktable$?_Reallocate@?$vector@PAVFuzzyTerm@@V?$allocator@PAVFuzzyTerm@@@std@@@std@@IAEXI@Z DD 00H
	DD	00H
	DD	01H
	DD	01H
	DD	FLAT:__catchsym$?_Reallocate@?$vector@PAVFuzzyTerm@@V?$allocator@PAVFuzzyTerm@@@std@@@std@@IAEXI@Z$2
__ehfuncinfo$?_Reallocate@?$vector@PAVFuzzyTerm@@V?$allocator@PAVFuzzyTerm@@@std@@@std@@IAEXI@Z DD 019930522H
	DD	02H
	DD	FLAT:__unwindtable$?_Reallocate@?$vector@PAVFuzzyTerm@@V?$allocator@PAVFuzzyTerm@@@std@@@std@@IAEXI@Z
	DD	01H
	DD	FLAT:__tryblocktable$?_Reallocate@?$vector@PAVFuzzyTerm@@V?$allocator@PAVFuzzyTerm@@@std@@@std@@IAEXI@Z
	DD	2 DUP(00H)
	DD	00H
	DD	01H
xdata$x	ENDS
;	COMDAT xdata$x
xdata$x	SEGMENT
__unwindtable$??0?$_Vector_alloc@$0A@U?$_Vec_base_types@PAVFuzzyTerm@@V?$allocator@PAVFuzzyTerm@@@std@@@std@@@std@@QAE@ABV?$allocator@PAVFuzzyTerm@@@1@@Z DD 0ffffffffH
	DD	FLAT:__unwindfunclet$??0?$_Vector_alloc@$0A@U?$_Vec_base_types@PAVFuzzyTerm@@V?$allocator@PAVFuzzyTerm@@@std@@@std@@@std@@QAE@ABV?$allocator@PAVFuzzyTerm@@@1@@Z$0
__ehfuncinfo$??0?$_Vector_alloc@$0A@U?$_Vec_base_types@PAVFuzzyTerm@@V?$allocator@PAVFuzzyTerm@@@std@@@std@@@std@@QAE@ABV?$allocator@PAVFuzzyTerm@@@1@@Z DD 019930522H
	DD	01H
	DD	FLAT:__unwindtable$??0?$_Vector_alloc@$0A@U?$_Vec_base_types@PAVFuzzyTerm@@V?$allocator@PAVFuzzyTerm@@@std@@@std@@@std@@QAE@ABV?$allocator@PAVFuzzyTerm@@@1@@Z
	DD	2 DUP(00H)
	DD	2 DUP(00H)
	DD	00H
	DD	01H
xdata$x	ENDS
;	COMDAT xdata$x
xdata$x	SEGMENT
__catchsym$?_Copy@?$basic_string@DU?$char_traits@D@std@@V?$allocator@D@2@@std@@QAEXII@Z$5 DD 040H
	DD	00H
	DD	00H
	DD	FLAT:__catch$?_Copy@?$basic_string@DU?$char_traits@D@std@@V?$allocator@D@2@@std@@QAEXII@Z$0
__catchsym$?_Copy@?$basic_string@DU?$char_traits@D@std@@V?$allocator@D@2@@std@@QAEXII@Z$4 DD 040H
	DD	00H
	DD	00H
	DD	FLAT:__catch$?_Copy@?$basic_string@DU?$char_traits@D@std@@V?$allocator@D@2@@std@@QAEXII@Z$1
__unwindtable$?_Copy@?$basic_string@DU?$char_traits@D@std@@V?$allocator@D@2@@std@@QAEXII@Z DD 0ffffffffH
	DD	00H
	DD	0ffffffffH
	DD	00H
	DD	01H
	DD	00H
	DD	01H
	DD	00H
__ehfuncinfo$?_Copy@?$basic_string@DU?$char_traits@D@std@@V?$allocator@D@2@@std@@QAEXII@Z DD 019930522H
	DD	04H
	DD	FLAT:__unwindtable$?_Copy@?$basic_string@DU?$char_traits@D@std@@V?$allocator@D@2@@std@@QAEXII@Z
	DD	02H
	DD	FLAT:__tryblocktable$?_Copy@?$basic_string@DU?$char_traits@D@std@@V?$allocator@D@2@@std@@QAEXII@Z
	DD	2 DUP(00H)
	DD	00H
	DD	01H
__tryblocktable$?_Copy@?$basic_string@DU?$char_traits@D@std@@V?$allocator@D@2@@std@@QAEXII@Z DD 02H
	DD	02H
	DD	03H
	DD	01H
	DD	FLAT:__catchsym$?_Copy@?$basic_string@DU?$char_traits@D@std@@V?$allocator@D@2@@std@@QAEXII@Z$4
	DD	00H
	DD	00H
	DD	03H
	DD	01H
	DD	FLAT:__catchsym$?_Copy@?$basic_string@DU?$char_traits@D@std@@V?$allocator@D@2@@std@@QAEXII@Z$5
xdata$x	ENDS
;	COMDAT xdata$x
xdata$x	SEGMENT
__unwindtable$??0?$basic_string@DU?$char_traits@D@std@@V?$allocator@D@2@@std@@QAE@PBD@Z DD 0ffffffffH
	DD	FLAT:__unwindfunclet$??0?$basic_string@DU?$char_traits@D@std@@V?$allocator@D@2@@std@@QAE@PBD@Z$0
__ehfuncinfo$??0?$basic_string@DU?$char_traits@D@std@@V?$allocator@D@2@@std@@QAE@PBD@Z DD 019930522H
	DD	01H
	DD	FLAT:__unwindtable$??0?$basic_string@DU?$char_traits@D@std@@V?$allocator@D@2@@std@@QAE@PBD@Z
	DD	2 DUP(00H)
	DD	2 DUP(00H)
	DD	00H
	DD	01H
xdata$x	ENDS
;	COMDAT xdata$x
xdata$x	SEGMENT
__unwindtable$??0?$_String_alloc@$0A@U?$_String_base_types@DV?$allocator@D@std@@@std@@@std@@QAE@ABV?$allocator@D@1@@Z DD 0ffffffffH
	DD	FLAT:__unwindfunclet$??0?$_String_alloc@$0A@U?$_String_base_types@DV?$allocator@D@std@@@std@@@std@@QAE@ABV?$allocator@D@1@@Z$0
__ehfuncinfo$??0?$_String_alloc@$0A@U?$_String_base_types@DV?$allocator@D@std@@@std@@@std@@QAE@ABV?$allocator@D@1@@Z DD 019930522H
	DD	01H
	DD	FLAT:__unwindtable$??0?$_String_alloc@$0A@U?$_String_base_types@DV?$allocator@D@std@@@std@@@std@@QAE@ABV?$allocator@D@1@@Z
	DD	2 DUP(00H)
	DD	2 DUP(00H)
	DD	00H
	DD	01H
xdata$x	ENDS
;	COMDAT xdata$x
xdata$x	SEGMENT
__unwindtable$?_Adopt@_Iterator_base12@std@@QAEXPBU_Container_base12@2@@Z DD 0ffffffffH
	DD	FLAT:__unwindfunclet$?_Adopt@_Iterator_base12@std@@QAEXPBU_Container_base12@2@@Z$0
	DD	0ffffffffH
	DD	FLAT:__unwindfunclet$?_Adopt@_Iterator_base12@std@@QAEXPBU_Container_base12@2@@Z$1
__ehfuncinfo$?_Adopt@_Iterator_base12@std@@QAEXPBU_Container_base12@2@@Z DD 019930522H
	DD	02H
	DD	FLAT:__unwindtable$?_Adopt@_Iterator_base12@std@@QAEXPBU_Container_base12@2@@Z
	DD	2 DUP(00H)
	DD	2 DUP(00H)
	DD	00H
	DD	01H
xdata$x	ENDS
;	COMDAT xdata$x
xdata$x	SEGMENT
__unwindtable$??4_Iterator_base12@std@@QAEAAU01@ABU01@@Z DD 0ffffffffH
	DD	FLAT:__unwindfunclet$??4_Iterator_base12@std@@QAEAAU01@ABU01@@Z$0
__ehfuncinfo$??4_Iterator_base12@std@@QAEAAU01@ABU01@@Z DD 019930522H
	DD	01H
	DD	FLAT:__unwindtable$??4_Iterator_base12@std@@QAEAAU01@ABU01@@Z
	DD	2 DUP(00H)
	DD	2 DUP(00H)
	DD	00H
	DD	01H
xdata$x	ENDS
CRT$XCU	SEGMENT
_allocator_arg$initializer$ DD FLAT:??__Eallocator_arg@std@@YAXXZ
CRT$XCU	ENDS
CRT$XCU	SEGMENT
_MaxInt$initializer$ DD FLAT:??__EMaxInt@@YAXXZ
CRT$XCU	ENDS
CRT$XCU	SEGMENT
_MaxDouble$initializer$ DD FLAT:??__EMaxDouble@@YAXXZ
CRT$XCU	ENDS
CRT$XCU	SEGMENT
_MinDouble$initializer$ DD FLAT:??__EMinDouble@@YAXXZ
CRT$XCU	ENDS
CRT$XCU	SEGMENT
_MaxFloat$initializer$ DD FLAT:??__EMaxFloat@@YAXXZ
CRT$XCU	ENDS
CRT$XCU	SEGMENT
_MinFloat$initializer$ DD FLAT:??__EMinFloat@@YAXXZ
CRT$XCU	ENDS
CRT$XCU	SEGMENT
_TwoPi$initializer$ DD FLAT:??__ETwoPi@@YAXXZ
CRT$XCU	ENDS
CRT$XCU	SEGMENT
_HalfPi$initializer$ DD FLAT:??__EHalfPi@@YAXXZ
CRT$XCU	ENDS
CRT$XCU	SEGMENT
_QuarterPi$initializer$ DD FLAT:??__EQuarterPi@@YAXXZ
CRT$XCU	ENDS
;	COMDAT CRT$XCU
CRT$XCU	SEGMENT
?_Generic_object$initializer$@?$_Error_objects@H@std@@2P6AXXZA DD FLAT:??__E?_Generic_object@?$_Error_objects@H@std@@2V_Generic_error_category@2@A@@YAXXZ ; std::_Error_objects<int>::_Generic_object$initializer$
CRT$XCU	ENDS
;	COMDAT CRT$XCU
CRT$XCU	SEGMENT
?_Iostream_object$initializer$@?$_Error_objects@H@std@@2P6AXXZA DD FLAT:??__E?_Iostream_object@?$_Error_objects@H@std@@2V_Iostream_error_category@2@A@@YAXXZ ; std::_Error_objects<int>::_Iostream_object$initializer$
CRT$XCU	ENDS
;	COMDAT CRT$XCU
CRT$XCU	SEGMENT
?_System_object$initializer$@?$_Error_objects@H@std@@2P6AXXZA DD FLAT:??__E?_System_object@?$_Error_objects@H@std@@2V_System_error_category@2@A@@YAXXZ ; std::_Error_objects<int>::_System_object$initializer$
CRT$XCU	ENDS
;	COMDAT CRT$XCU
CRT$XCU	SEGMENT
?id$initializer$@?$num_put@DV?$back_insert_iterator@V?$basic_string@DU?$char_traits@D@std@@V?$allocator@D@2@@std@@@std@@@std@@2P6AXXZA DD FLAT:??__E?id@?$num_put@DV?$back_insert_iterator@V?$basic_string@DU?$char_traits@D@std@@V?$allocator@D@2@@std@@@std@@@std@@2V0locale@2@A@@YAXXZ ; std::num_put<char,std::back_insert_iterator<std::basic_string<char,std::char_traits<char>,std::allocator<char> > > >::id$initializer$
CRT$XCU	ENDS
;	COMDAT CRT$XCU
CRT$XCU	SEGMENT
?id$initializer$@?$num_put@_WV?$back_insert_iterator@V?$basic_string@_WU?$char_traits@_W@std@@V?$allocator@_W@2@@std@@@std@@@std@@2P6AXXZA DD FLAT:??__E?id@?$num_put@_WV?$back_insert_iterator@V?$basic_string@_WU?$char_traits@_W@std@@V?$allocator@_W@2@@std@@@std@@@std@@2V0locale@2@A@@YAXXZ ; std::num_put<wchar_t,std::back_insert_iterator<std::basic_string<wchar_t,std::char_traits<wchar_t>,std::allocator<wchar_t> > > >::id$initializer$
CRT$XCU	ENDS
;	COMDAT CRT$XCU
CRT$XCU	SEGMENT
?id$initializer$@?$numpunct@D@std@@2P6AXXZA DD FLAT:??__E?id@?$numpunct@D@std@@2V0locale@2@A@@YAXXZ ; std::numpunct<char>::id$initializer$
CRT$XCU	ENDS
;	COMDAT CRT$XCU
CRT$XCU	SEGMENT
?id$initializer$@?$numpunct@_W@std@@2P6AXXZA DD FLAT:??__E?id@?$numpunct@_W@std@@2V0locale@2@A@@YAXXZ ; std::numpunct<wchar_t>::id$initializer$
CRT$XCU	ENDS
; Function compile flags: /Odtp /RTCsu
; File c:\program files (x86)\microsoft visual studio 12.0\vc\include\xutility
;	COMDAT ??$_Debug_range2@PAPAVFuzzyTerm@@@std@@YAXPAPAVFuzzyTerm@@0PB_WIUrandom_access_iterator_tag@0@@Z
_TEXT	SEGMENT
__First$ = 8						; size = 4
__Last$ = 12						; size = 4
__File$ = 16						; size = 4
__Line$ = 20						; size = 4
___formal$ = 24						; size = 1
??$_Debug_range2@PAPAVFuzzyTerm@@@std@@YAXPAPAVFuzzyTerm@@0PB_WIUrandom_access_iterator_tag@0@@Z PROC ; std::_Debug_range2<FuzzyTerm * *>, COMDAT

; 570  : 	{	// test iterator pair for valid range, random-access iterators

	push	ebp
	mov	ebp, esp

; 571  : 	if (_First != _Last)

	mov	eax, DWORD PTR __First$[ebp]
	cmp	eax, DWORD PTR __Last$[ebp]
	je	SHORT $LN3@Debug_rang

; 572  : 		{	// check for non-null pointers, valid range
; 573  : 		_DEBUG_POINTER2(_First, _File, _Line);

	mov	ecx, DWORD PTR __Line$[ebp]
	push	ecx
	mov	edx, DWORD PTR __File$[ebp]
	push	edx
	mov	eax, DWORD PTR __First$[ebp]
	push	eax
	call	??$_Debug_pointer@PAVFuzzyTerm@@@std@@YAXPAPAVFuzzyTerm@@PB_WI@Z ; std::_Debug_pointer<FuzzyTerm *>
	add	esp, 12					; 0000000cH

; 574  : 		_DEBUG_POINTER2(_Last, _File, _Line);

	mov	ecx, DWORD PTR __Line$[ebp]
	push	ecx
	mov	edx, DWORD PTR __File$[ebp]
	push	edx
	mov	eax, DWORD PTR __Last$[ebp]
	push	eax
	call	??$_Debug_pointer@PAVFuzzyTerm@@@std@@YAXPAPAVFuzzyTerm@@PB_WI@Z ; std::_Debug_pointer<FuzzyTerm *>
	add	esp, 12					; 0000000cH

; 575  : 		if (_Last < _First)

	mov	ecx, DWORD PTR __Last$[ebp]
	cmp	ecx, DWORD PTR __First$[ebp]
	jae	SHORT $LN3@Debug_rang

; 576  : 			_DEBUG_ERROR2("invalid iterator range", _File, _Line);

	mov	edx, DWORD PTR __Line$[ebp]
	push	edx
	mov	eax, DWORD PTR __File$[ebp]
	push	eax
	push	OFFSET ??_C@_1CO@DGLIKNHI@?$AAi?$AAn?$AAv?$AAa?$AAl?$AAi?$AAd?$AA?5?$AAi?$AAt?$AAe?$AAr?$AAa?$AAt?$AAo?$AAr?$AA?5?$AAr?$AAa?$AAn?$AAg?$AAe?$AA?$AA@
	call	?_Debug_message@std@@YAXPB_W0I@Z	; std::_Debug_message
	add	esp, 12					; 0000000cH
$LN3@Debug_rang:

; 577  : 		}
; 578  : 	}

	cmp	ebp, esp
	call	__RTC_CheckEsp
	pop	ebp
	ret	0
??$_Debug_range2@PAPAVFuzzyTerm@@@std@@YAXPAPAVFuzzyTerm@@0PB_WIUrandom_access_iterator_tag@0@@Z ENDP ; std::_Debug_range2<FuzzyTerm * *>
_TEXT	ENDS
; Function compile flags: /Odtp /RTCsu
; File c:\program files (x86)\microsoft visual studio 12.0\vc\include\xutility
;	COMDAT ??$_Iter_cat@PAPAVFuzzyTerm@@@std@@YA?AUrandom_access_iterator_tag@0@ABQAPAVFuzzyTerm@@@Z
_TEXT	SEGMENT
__Cat$ = -5						; size = 1
___$ReturnUdt$ = 8					; size = 4
___formal$ = 12						; size = 4
??$_Iter_cat@PAPAVFuzzyTerm@@@std@@YA?AUrandom_access_iterator_tag@0@ABQAPAVFuzzyTerm@@@Z PROC ; std::_Iter_cat<FuzzyTerm * *>, COMDAT

; 405  : 	{	// return category from iterator argument

	push	ebp
	mov	ebp, esp
	sub	esp, 12					; 0000000cH
	mov	DWORD PTR [ebp-12], -858993460		; ccccccccH
	mov	DWORD PTR [ebp-8], -858993460		; ccccccccH
	mov	DWORD PTR [ebp-4], -858993460		; ccccccccH

; 406  : 	typename iterator_traits<_Iter>::iterator_category _Cat;
; 407  : 	return (_Cat);

	mov	eax, DWORD PTR ___$ReturnUdt$[ebp]
	mov	cl, BYTE PTR __Cat$[ebp]
	mov	BYTE PTR [eax], cl
	mov	eax, DWORD PTR ___$ReturnUdt$[ebp]

; 408  : 	}

	push	edx
	mov	ecx, ebp
	push	eax
	lea	edx, DWORD PTR $LN5@Iter_cat
	call	@_RTC_CheckStackVars@8
	pop	eax
	pop	edx
	mov	esp, ebp
	pop	ebp
	ret	0
	npad	1
$LN5@Iter_cat:
	DD	1
	DD	$LN4@Iter_cat
$LN4@Iter_cat:
	DD	-5					; fffffffbH
	DD	1
	DD	$LN3@Iter_cat
$LN3@Iter_cat:
	DB	95					; 0000005fH
	DB	67					; 00000043H
	DB	97					; 00000061H
	DB	116					; 00000074H
	DB	0
??$_Iter_cat@PAPAVFuzzyTerm@@@std@@YA?AUrandom_access_iterator_tag@0@ABQAPAVFuzzyTerm@@@Z ENDP ; std::_Iter_cat<FuzzyTerm * *>
_TEXT	ENDS
; Function compile flags: /Odtp /RTCsu
; File c:\program files (x86)\microsoft visual studio 12.0\vc\include\xutility
;	COMDAT ??$_Debug_pointer@PAVFuzzyTerm@@@std@@YAXPAPAVFuzzyTerm@@PB_WI@Z
_TEXT	SEGMENT
__First$ = 8						; size = 4
__File$ = 12						; size = 4
__Line$ = 16						; size = 4
??$_Debug_pointer@PAVFuzzyTerm@@@std@@YAXPAPAVFuzzyTerm@@PB_WI@Z PROC ; std::_Debug_pointer<FuzzyTerm *>, COMDAT

; 552  : 	{	// test iterator for non-singularity, pointers

	push	ebp
	mov	ebp, esp

; 553  : 	if (_First == 0)

	cmp	DWORD PTR __First$[ebp], 0
	jne	SHORT $LN2@Debug_poin

; 554  : 		_DEBUG_ERROR2("invalid null pointer", _File, _Line);

	mov	eax, DWORD PTR __Line$[ebp]
	push	eax
	mov	ecx, DWORD PTR __File$[ebp]
	push	ecx
	push	OFFSET ??_C@_1CK@EOPGIILJ@?$AAi?$AAn?$AAv?$AAa?$AAl?$AAi?$AAd?$AA?5?$AAn?$AAu?$AAl?$AAl?$AA?5?$AAp?$AAo?$AAi?$AAn?$AAt?$AAe?$AAr?$AA?$AA@
	call	?_Debug_message@std@@YAXPB_W0I@Z	; std::_Debug_message
	add	esp, 12					; 0000000cH
$LN2@Debug_poin:

; 555  : 	}

	cmp	ebp, esp
	call	__RTC_CheckEsp
	pop	ebp
	ret	0
??$_Debug_pointer@PAVFuzzyTerm@@@std@@YAXPAPAVFuzzyTerm@@PB_WI@Z ENDP ; std::_Debug_pointer<FuzzyTerm *>
_TEXT	ENDS
; Function compile flags: /Odtp /RTCsu
; File c:\program files (x86)\microsoft visual studio 12.0\vc\include\xutility
;	COMDAT ??$_Debug_range@PAPAVFuzzyTerm@@@std@@YAXPAPAVFuzzyTerm@@0PB_WI@Z
_TEXT	SEGMENT
$T1 = -1						; size = 1
__First$ = 8						; size = 4
__Last$ = 12						; size = 4
__File$ = 16						; size = 4
__Line$ = 20						; size = 4
??$_Debug_range@PAPAVFuzzyTerm@@@std@@YAXPAPAVFuzzyTerm@@0PB_WI@Z PROC ; std::_Debug_range<FuzzyTerm * *>, COMDAT

; 583  : 	{	// test iterator pair for valid range

	push	ebp
	mov	ebp, esp
	push	ecx
	mov	DWORD PTR [ebp-4], -858993460		; ccccccccH

; 584  : 	_Debug_range2(_First, _Last, _File, _Line, _Iter_cat(_First));

	lea	eax, DWORD PTR __First$[ebp]
	push	eax
	lea	ecx, DWORD PTR $T1[ebp]
	push	ecx
	call	??$_Iter_cat@PAPAVFuzzyTerm@@@std@@YA?AUrandom_access_iterator_tag@0@ABQAPAVFuzzyTerm@@@Z ; std::_Iter_cat<FuzzyTerm * *>
	add	esp, 8
	mov	dl, BYTE PTR [eax]
	movzx	eax, dl
	push	eax
	mov	ecx, DWORD PTR __Line$[ebp]
	push	ecx
	mov	edx, DWORD PTR __File$[ebp]
	push	edx
	mov	eax, DWORD PTR __Last$[ebp]
	push	eax
	mov	ecx, DWORD PTR __First$[ebp]
	push	ecx
	call	??$_Debug_range2@PAPAVFuzzyTerm@@@std@@YAXPAPAVFuzzyTerm@@0PB_WIUrandom_access_iterator_tag@0@@Z ; std::_Debug_range2<FuzzyTerm * *>
	add	esp, 20					; 00000014H

; 585  : 	}

	add	esp, 4
	cmp	ebp, esp
	call	__RTC_CheckEsp
	mov	esp, ebp
	pop	ebp
	ret	0
??$_Debug_range@PAPAVFuzzyTerm@@@std@@YAXPAPAVFuzzyTerm@@0PB_WI@Z ENDP ; std::_Debug_range<FuzzyTerm * *>
_TEXT	ENDS
; Function compile flags: /Odtp /RTCsu
; File c:\program files (x86)\microsoft visual studio 12.0\vc\include\xmemory
;	COMDAT ??$_Uninit_move@PAVFuzzyTerm@@PAV1@PAV1@@std@@YAPAPAVFuzzyTerm@@PAPAV1@00AAU?$_Wrap_alloc@V?$allocator@PAVFuzzyTerm@@@std@@@0@0U_Scalar_ptr_iterator_tag@0@@Z
_TEXT	SEGMENT
__Count$ = -4						; size = 4
__First$ = 8						; size = 4
__Last$ = 12						; size = 4
__Dest$ = 16						; size = 4
___formal$ = 20						; size = 4
___formal$ = 24						; size = 4
___formal$ = 28						; size = 1
??$_Uninit_move@PAVFuzzyTerm@@PAV1@PAV1@@std@@YAPAPAVFuzzyTerm@@PAPAV1@00AAU?$_Wrap_alloc@V?$allocator@PAVFuzzyTerm@@@std@@@0@0U_Scalar_ptr_iterator_tag@0@@Z PROC ; std::_Uninit_move<FuzzyTerm *,FuzzyTerm *,FuzzyTerm *>, COMDAT

; 469  : 	{	// move [_First, _Last) to raw _Dest, scalar type

	push	ebp
	mov	ebp, esp
	push	ecx
	mov	DWORD PTR [ebp-4], -858993460		; ccccccccH

; 470  : 	_DEBUG_RANGE(_First, _Last);

	push	470					; 000001d6H
	push	OFFSET ??_C@_1IO@LKIDJAMC@?$AAC?$AA?3?$AA?2?$AAP?$AAr?$AAo?$AAg?$AAr?$AAa?$AAm?$AA?5?$AAF?$AAi?$AAl?$AAe?$AAs?$AA?5?$AA?$CI?$AAx?$AA8?$AA6?$AA?$CJ?$AA?2?$AAM?$AAi?$AAc?$AAr?$AAo?$AAs?$AAo?$AAf?$AAt@
	mov	eax, DWORD PTR __Last$[ebp]
	push	eax
	mov	ecx, DWORD PTR __First$[ebp]
	push	ecx
	call	??$_Debug_range@PAPAVFuzzyTerm@@@std@@YAXPAPAVFuzzyTerm@@0PB_WI@Z ; std::_Debug_range<FuzzyTerm * *>
	add	esp, 16					; 00000010H

; 471  : 	_DEBUG_POINTER(_Dest);

	push	471					; 000001d7H
	push	OFFSET ??_C@_1IO@LKIDJAMC@?$AAC?$AA?3?$AA?2?$AAP?$AAr?$AAo?$AAg?$AAr?$AAa?$AAm?$AA?5?$AAF?$AAi?$AAl?$AAe?$AAs?$AA?5?$AA?$CI?$AAx?$AA8?$AA6?$AA?$CJ?$AA?2?$AAM?$AAi?$AAc?$AAr?$AAo?$AAs?$AAo?$AAf?$AAt@
	mov	edx, DWORD PTR __Dest$[ebp]
	push	edx
	call	??$_Debug_pointer@PAVFuzzyTerm@@@std@@YAXPAPAVFuzzyTerm@@PB_WI@Z ; std::_Debug_pointer<FuzzyTerm *>
	add	esp, 12					; 0000000cH

; 472  : 	size_t _Count = (size_t)(_Last - _First);

	mov	eax, DWORD PTR __Last$[ebp]
	sub	eax, DWORD PTR __First$[ebp]
	sar	eax, 2
	mov	DWORD PTR __Count$[ebp], eax

; 473  : 	return ((_Ty2 *)_CSTD memmove(&*_Dest, &*_First,
; 474  : 		_Count * sizeof (*_First)) + _Count);	// NB: non-overlapping move

	mov	ecx, DWORD PTR __Count$[ebp]
	shl	ecx, 2
	push	ecx
	mov	edx, DWORD PTR __First$[ebp]
	push	edx
	mov	eax, DWORD PTR __Dest$[ebp]
	push	eax
	call	_memmove
	add	esp, 12					; 0000000cH
	mov	ecx, DWORD PTR __Count$[ebp]
	lea	eax, DWORD PTR [eax+ecx*4]

; 475  : 	}

	add	esp, 4
	cmp	ebp, esp
	call	__RTC_CheckEsp
	mov	esp, ebp
	pop	ebp
	ret	0
??$_Uninit_move@PAVFuzzyTerm@@PAV1@PAV1@@std@@YAPAPAVFuzzyTerm@@PAPAV1@00AAU?$_Wrap_alloc@V?$allocator@PAVFuzzyTerm@@@std@@@0@0U_Scalar_ptr_iterator_tag@0@@Z ENDP ; std::_Uninit_move<FuzzyTerm *,FuzzyTerm *,FuzzyTerm *>
_TEXT	ENDS
; Function compile flags: /Odtp /RTCsu
; File c:\program files (x86)\microsoft visual studio 12.0\vc\include\xutility
;	COMDAT ??$_Val_type@PAPAVFuzzyTerm@@@std@@YAPAPAVFuzzyTerm@@PAPAV1@@Z
_TEXT	SEGMENT
___formal$ = 8						; size = 4
??$_Val_type@PAPAVFuzzyTerm@@@std@@YAPAPAVFuzzyTerm@@PAPAV1@@Z PROC ; std::_Val_type<FuzzyTerm * *>, COMDAT

; 645  : 	{	// return value type from arbitrary argument

	push	ebp
	mov	ebp, esp

; 646  : 	return (0);

	xor	eax, eax

; 647  : 	}

	pop	ebp
	ret	0
??$_Val_type@PAPAVFuzzyTerm@@@std@@YAPAPAVFuzzyTerm@@PAPAV1@@Z ENDP ; std::_Val_type<FuzzyTerm * *>
_TEXT	ENDS
; Function compile flags: /Odtp /RTCsu
; File c:\program files (x86)\microsoft visual studio 12.0\vc\include\xutility
;	COMDAT ??$_Rechecked@PAPAVFuzzyTerm@@PAPAV1@@std@@YAAAPAPAVFuzzyTerm@@AAPAPAV1@PAPAV1@@Z
_TEXT	SEGMENT
__Dest$ = 8						; size = 4
__Src$ = 12						; size = 4
??$_Rechecked@PAPAVFuzzyTerm@@PAPAV1@@std@@YAAAPAPAVFuzzyTerm@@AAPAPAV1@PAPAV1@@Z PROC ; std::_Rechecked<FuzzyTerm * *,FuzzyTerm * *>, COMDAT

; 288  : 	{	// reset checked from unchecked, generic

	push	ebp
	mov	ebp, esp

; 289  : 	_Dest = _Src;

	mov	eax, DWORD PTR __Dest$[ebp]
	mov	ecx, DWORD PTR __Src$[ebp]
	mov	DWORD PTR [eax], ecx

; 290  : 	return (_Dest);

	mov	eax, DWORD PTR __Dest$[ebp]

; 291  : 	}

	pop	ebp
	ret	0
??$_Rechecked@PAPAVFuzzyTerm@@PAPAV1@@std@@YAAAPAPAVFuzzyTerm@@AAPAPAV1@PAPAV1@@Z ENDP ; std::_Rechecked<FuzzyTerm * *,FuzzyTerm * *>
_TEXT	ENDS
; Function compile flags: /Odtp /RTCsu
; File c:\program files (x86)\microsoft visual studio 12.0\vc\include\xmemory
;	COMDAT ??$_Uninit_move@PAPAVFuzzyTerm@@PAPAV1@U?$_Wrap_alloc@V?$allocator@PAVFuzzyTerm@@@std@@@std@@@std@@YAPAPAVFuzzyTerm@@PAPAV1@00AAU?$_Wrap_alloc@V?$allocator@PAVFuzzyTerm@@@std@@@0@@Z
_TEXT	SEGMENT
$T1 = -1						; size = 1
__First$ = 8						; size = 4
__Last$ = 12						; size = 4
__Dest$ = 16						; size = 4
__Al$ = 20						; size = 4
??$_Uninit_move@PAPAVFuzzyTerm@@PAPAV1@U?$_Wrap_alloc@V?$allocator@PAVFuzzyTerm@@@std@@@std@@@std@@YAPAPAVFuzzyTerm@@PAPAV1@00AAU?$_Wrap_alloc@V?$allocator@PAVFuzzyTerm@@@std@@@0@@Z PROC ; std::_Uninit_move<FuzzyTerm * *,FuzzyTerm * *,std::_Wrap_alloc<std::allocator<FuzzyTerm *> > >, COMDAT

; 482  : 	{	// move [_First, _Last) to raw _Dest, using _Al

	push	ebp
	mov	ebp, esp
	push	ecx
	mov	DWORD PTR [ebp-4], -858993460		; ccccccccH

; 483  : 	return (_Uninit_move(_First, _Last, _Dest, _Al,
; 484  : 		_Val_type(_First), _Ptr_cat(_First, _Dest)));

	mov	eax, DWORD PTR __Dest$[ebp]
	push	eax
	mov	ecx, DWORD PTR __First$[ebp]
	push	ecx
	call	??$_Ptr_cat@PAVFuzzyTerm@@PAV1@@std@@YA?AU_Scalar_ptr_iterator_tag@0@PAPAVFuzzyTerm@@0@Z ; std::_Ptr_cat<FuzzyTerm *,FuzzyTerm *>
	add	esp, 8
	mov	BYTE PTR $T1[ebp], al
	movzx	edx, BYTE PTR $T1[ebp]
	push	edx
	mov	eax, DWORD PTR __First$[ebp]
	push	eax
	call	??$_Val_type@PAPAVFuzzyTerm@@@std@@YAPAPAVFuzzyTerm@@PAPAV1@@Z ; std::_Val_type<FuzzyTerm * *>
	add	esp, 4
	push	eax
	mov	ecx, DWORD PTR __Al$[ebp]
	push	ecx
	mov	edx, DWORD PTR __Dest$[ebp]
	push	edx
	mov	eax, DWORD PTR __Last$[ebp]
	push	eax
	mov	ecx, DWORD PTR __First$[ebp]
	push	ecx
	call	??$_Uninit_move@PAVFuzzyTerm@@PAV1@PAV1@@std@@YAPAPAVFuzzyTerm@@PAPAV1@00AAU?$_Wrap_alloc@V?$allocator@PAVFuzzyTerm@@@std@@@0@0U_Scalar_ptr_iterator_tag@0@@Z ; std::_Uninit_move<FuzzyTerm *,FuzzyTerm *,FuzzyTerm *>
	add	esp, 24					; 00000018H

; 485  : 	}

	add	esp, 4
	cmp	ebp, esp
	call	__RTC_CheckEsp
	mov	esp, ebp
	pop	ebp
	ret	0
??$_Uninit_move@PAPAVFuzzyTerm@@PAPAV1@U?$_Wrap_alloc@V?$allocator@PAVFuzzyTerm@@@std@@@std@@@std@@YAPAPAVFuzzyTerm@@PAPAV1@00AAU?$_Wrap_alloc@V?$allocator@PAVFuzzyTerm@@@std@@@0@@Z ENDP ; std::_Uninit_move<FuzzyTerm * *,FuzzyTerm * *,std::_Wrap_alloc<std::allocator<FuzzyTerm *> > >
_TEXT	ENDS
; Function compile flags: /Odtp /RTCsu
; File c:\program files (x86)\microsoft visual studio 12.0\vc\include\xutility
;	COMDAT ??$_Unchecked@PAPAVFuzzyTerm@@@std@@YAPAPAVFuzzyTerm@@PAPAV1@@Z
_TEXT	SEGMENT
__Src$ = 8						; size = 4
??$_Unchecked@PAPAVFuzzyTerm@@@std@@YAPAPAVFuzzyTerm@@PAPAV1@@Z PROC ; std::_Unchecked<FuzzyTerm * *>, COMDAT

; 280  : 	{	// construct unchecked from checked, generic

	push	ebp
	mov	ebp, esp

; 281  : 	return (_Src);

	mov	eax, DWORD PTR __Src$[ebp]

; 282  : 	}

	pop	ebp
	ret	0
??$_Unchecked@PAPAVFuzzyTerm@@@std@@YAPAPAVFuzzyTerm@@PAPAV1@@Z ENDP ; std::_Unchecked<FuzzyTerm * *>
_TEXT	ENDS
; Function compile flags: /Odtp /RTCsu
; File c:\program files (x86)\microsoft visual studio 12.0\vc\include\xmemory0
;	COMDAT ??$destroy@PAD@?$allocator@D@std@@QAEXPAPAD@Z
_TEXT	SEGMENT
_this$ = -4						; size = 4
__Ptr$ = 8						; size = 4
??$destroy@PAD@?$allocator@D@std@@QAEXPAPAD@Z PROC	; std::allocator<char>::destroy<char *>, COMDAT
; _this$ = ecx

; 605  : 		void destroy(_Uty *_Ptr)

	push	ebp
	mov	ebp, esp
	push	ecx
	mov	DWORD PTR [ebp-4], -858993460		; ccccccccH
	mov	DWORD PTR _this$[ebp], ecx

; 606  : 		{	// destroy object at _Ptr
; 607  : 		_Ptr->~_Uty();
; 608  : 		}

	mov	esp, ebp
	pop	ebp
	ret	4
??$destroy@PAD@?$allocator@D@std@@QAEXPAPAD@Z ENDP	; std::allocator<char>::destroy<char *>
_TEXT	ENDS
; Function compile flags: /Odtp /RTCsu
; File c:\program files (x86)\microsoft visual studio 12.0\vc\include\xmemory0
;	COMDAT ??$construct@PADAAPAD@?$allocator@D@std@@QAEXPAPADAAPAD@Z
_TEXT	SEGMENT
tv73 = -28						; size = 4
$T2 = -24						; size = 4
$T3 = -20						; size = 4
_this$ = -16						; size = 4
__$EHRec$ = -12						; size = 12
__Ptr$ = 8						; size = 4
_<_Args_0>$ = 12					; size = 4
??$construct@PADAAPAD@?$allocator@D@std@@QAEXPAPADAAPAD@Z PROC ; std::allocator<char>::construct<char *,char * &>, COMDAT
; _this$ = ecx

; 598  : 		void construct(_Objty *_Ptr, _Types&&... _Args)

	push	ebp
	mov	ebp, esp
	push	-1
	push	__ehhandler$??$construct@PADAAPAD@?$allocator@D@std@@QAEXPAPADAAPAD@Z
	mov	eax, DWORD PTR fs:0
	push	eax
	sub	esp, 16					; 00000010H
	mov	eax, -858993460				; ccccccccH
	mov	DWORD PTR [ebp-28], eax
	mov	DWORD PTR [ebp-24], eax
	mov	DWORD PTR [ebp-20], eax
	mov	DWORD PTR [ebp-16], eax
	mov	eax, DWORD PTR ___security_cookie
	xor	eax, ebp
	push	eax
	lea	eax, DWORD PTR __$EHRec$[ebp]
	mov	DWORD PTR fs:0, eax
	mov	DWORD PTR _this$[ebp], ecx

; 599  : 		{	// construct _Objty(_Types...) at _Ptr
; 600  : 		::new ((void *)_Ptr) _Objty(_STD forward<_Types>(_Args)...);

	mov	eax, DWORD PTR __Ptr$[ebp]
	push	eax
	push	4
	call	??2@YAPAXIPAX@Z				; operator new
	add	esp, 8
	mov	DWORD PTR $T2[ebp], eax
	mov	DWORD PTR __$EHRec$[ebp+8], 0
	cmp	DWORD PTR $T2[ebp], 0
	je	SHORT $LN3@construct
	mov	ecx, DWORD PTR _<_Args_0>$[ebp]
	push	ecx
	call	??$forward@AAPAD@std@@YAAAPADAAPAD@Z	; std::forward<char * &>
	add	esp, 4
	mov	edx, DWORD PTR $T2[ebp]
	mov	eax, DWORD PTR [eax]
	mov	DWORD PTR [edx], eax
	mov	ecx, DWORD PTR $T2[ebp]
	mov	DWORD PTR tv73[ebp], ecx
	jmp	SHORT $LN4@construct
$LN3@construct:
	mov	DWORD PTR tv73[ebp], 0
$LN4@construct:
	mov	edx, DWORD PTR tv73[ebp]
	mov	DWORD PTR $T3[ebp], edx
	mov	DWORD PTR __$EHRec$[ebp+8], -1

; 601  : 		}

	mov	ecx, DWORD PTR __$EHRec$[ebp]
	mov	DWORD PTR fs:0, ecx
	pop	ecx
	add	esp, 28					; 0000001cH
	cmp	ebp, esp
	call	__RTC_CheckEsp
	mov	esp, ebp
	pop	ebp
	ret	8
_TEXT	ENDS
;	COMDAT text$x
text$x	SEGMENT
__unwindfunclet$??$construct@PADAAPAD@?$allocator@D@std@@QAEXPAPADAAPAD@Z$0:
	mov	eax, DWORD PTR __Ptr$[ebp]
	push	eax
	mov	eax, DWORD PTR $T2[ebp]
	push	eax
	call	??3@YAXPAX0@Z				; operator delete
	add	esp, 8
	ret	0
__ehhandler$??$construct@PADAAPAD@?$allocator@D@std@@QAEXPAPADAAPAD@Z:
	mov	edx, DWORD PTR [esp+8]
	lea	eax, DWORD PTR [edx+12]
	mov	ecx, DWORD PTR [edx-20]
	xor	ecx, eax
	call	@__security_check_cookie@4
	mov	eax, OFFSET __ehfuncinfo$??$construct@PADAAPAD@?$allocator@D@std@@QAEXPAPADAAPAD@Z
	jmp	___CxxFrameHandler3
text$x	ENDS
??$construct@PADAAPAD@?$allocator@D@std@@QAEXPAPADAAPAD@Z ENDP ; std::allocator<char>::construct<char *,char * &>
; Function compile flags: /Odtp /RTCsu
; File c:\program files (x86)\microsoft visual studio 12.0\vc\include\xmemory0
;	COMDAT ??$construct@PAVFuzzyTerm@@PAV1@@?$allocator@PAVFuzzyTerm@@@std@@QAEXPAPAVFuzzyTerm@@$$QAPAV2@@Z
_TEXT	SEGMENT
tv73 = -28						; size = 4
$T2 = -24						; size = 4
$T3 = -20						; size = 4
_this$ = -16						; size = 4
__$EHRec$ = -12						; size = 12
__Ptr$ = 8						; size = 4
_<_Args_0>$ = 12					; size = 4
??$construct@PAVFuzzyTerm@@PAV1@@?$allocator@PAVFuzzyTerm@@@std@@QAEXPAPAVFuzzyTerm@@$$QAPAV2@@Z PROC ; std::allocator<FuzzyTerm *>::construct<FuzzyTerm *,FuzzyTerm *>, COMDAT
; _this$ = ecx

; 598  : 		void construct(_Objty *_Ptr, _Types&&... _Args)

	push	ebp
	mov	ebp, esp
	push	-1
	push	__ehhandler$??$construct@PAVFuzzyTerm@@PAV1@@?$allocator@PAVFuzzyTerm@@@std@@QAEXPAPAVFuzzyTerm@@$$QAPAV2@@Z
	mov	eax, DWORD PTR fs:0
	push	eax
	sub	esp, 16					; 00000010H
	mov	eax, -858993460				; ccccccccH
	mov	DWORD PTR [ebp-28], eax
	mov	DWORD PTR [ebp-24], eax
	mov	DWORD PTR [ebp-20], eax
	mov	DWORD PTR [ebp-16], eax
	mov	eax, DWORD PTR ___security_cookie
	xor	eax, ebp
	push	eax
	lea	eax, DWORD PTR __$EHRec$[ebp]
	mov	DWORD PTR fs:0, eax
	mov	DWORD PTR _this$[ebp], ecx

; 599  : 		{	// construct _Objty(_Types...) at _Ptr
; 600  : 		::new ((void *)_Ptr) _Objty(_STD forward<_Types>(_Args)...);

	mov	eax, DWORD PTR __Ptr$[ebp]
	push	eax
	push	4
	call	??2@YAPAXIPAX@Z				; operator new
	add	esp, 8
	mov	DWORD PTR $T2[ebp], eax
	mov	DWORD PTR __$EHRec$[ebp+8], 0
	cmp	DWORD PTR $T2[ebp], 0
	je	SHORT $LN3@construct
	mov	ecx, DWORD PTR _<_Args_0>$[ebp]
	push	ecx
	call	??$forward@PAVFuzzyTerm@@@std@@YA$$QAPAVFuzzyTerm@@AAPAV1@@Z ; std::forward<FuzzyTerm *>
	add	esp, 4
	mov	edx, DWORD PTR $T2[ebp]
	mov	eax, DWORD PTR [eax]
	mov	DWORD PTR [edx], eax
	mov	ecx, DWORD PTR $T2[ebp]
	mov	DWORD PTR tv73[ebp], ecx
	jmp	SHORT $LN4@construct
$LN3@construct:
	mov	DWORD PTR tv73[ebp], 0
$LN4@construct:
	mov	edx, DWORD PTR tv73[ebp]
	mov	DWORD PTR $T3[ebp], edx
	mov	DWORD PTR __$EHRec$[ebp+8], -1

; 601  : 		}

	mov	ecx, DWORD PTR __$EHRec$[ebp]
	mov	DWORD PTR fs:0, ecx
	pop	ecx
	add	esp, 28					; 0000001cH
	cmp	ebp, esp
	call	__RTC_CheckEsp
	mov	esp, ebp
	pop	ebp
	ret	8
_TEXT	ENDS
;	COMDAT text$x
text$x	SEGMENT
__unwindfunclet$??$construct@PAVFuzzyTerm@@PAV1@@?$allocator@PAVFuzzyTerm@@@std@@QAEXPAPAVFuzzyTerm@@$$QAPAV2@@Z$0:
	mov	eax, DWORD PTR __Ptr$[ebp]
	push	eax
	mov	eax, DWORD PTR $T2[ebp]
	push	eax
	call	??3@YAXPAX0@Z				; operator delete
	add	esp, 8
	ret	0
__ehhandler$??$construct@PAVFuzzyTerm@@PAV1@@?$allocator@PAVFuzzyTerm@@@std@@QAEXPAPAVFuzzyTerm@@$$QAPAV2@@Z:
	mov	edx, DWORD PTR [esp+8]
	lea	eax, DWORD PTR [edx+12]
	mov	ecx, DWORD PTR [edx-20]
	xor	ecx, eax
	call	@__security_check_cookie@4
	mov	eax, OFFSET __ehfuncinfo$??$construct@PAVFuzzyTerm@@PAV1@@?$allocator@PAVFuzzyTerm@@@std@@QAEXPAPAVFuzzyTerm@@$$QAPAV2@@Z
	jmp	___CxxFrameHandler3
text$x	ENDS
??$construct@PAVFuzzyTerm@@PAV1@@?$allocator@PAVFuzzyTerm@@@std@@QAEXPAPAVFuzzyTerm@@$$QAPAV2@@Z ENDP ; std::allocator<FuzzyTerm *>::construct<FuzzyTerm *,FuzzyTerm *>
; Function compile flags: /Odtp /RTCsu
; File c:\program files (x86)\microsoft visual studio 12.0\vc\include\xlocnum
;	COMDAT ??__E?id@?$numpunct@_W@std@@2V0locale@2@A@@YAXXZ
text$di	SEGMENT
??__E?id@?$numpunct@_W@std@@2V0locale@2@A@@YAXXZ PROC	; `dynamic initializer for 'std::numpunct<wchar_t>::id'', COMDAT

; 254  : 	__PURE_APPDOMAIN_GLOBAL locale::id numpunct<_Elem>::id;

	push	ebp
	mov	ebp, esp
	push	0
	mov	ecx, OFFSET ?id@?$numpunct@_W@std@@2V0locale@2@A ; std::numpunct<wchar_t>::id
	call	??0id@locale@std@@QAE@I@Z		; std::locale::id::id
	cmp	ebp, esp
	call	__RTC_CheckEsp
	pop	ebp
	ret	0
??__E?id@?$numpunct@_W@std@@2V0locale@2@A@@YAXXZ ENDP	; `dynamic initializer for 'std::numpunct<wchar_t>::id''
text$di	ENDS
; Function compile flags: /Odtp /RTCsu
; File c:\program files (x86)\microsoft visual studio 12.0\vc\include\xlocnum
;	COMDAT ??__E?id@?$numpunct@D@std@@2V0locale@2@A@@YAXXZ
text$di	SEGMENT
??__E?id@?$numpunct@D@std@@2V0locale@2@A@@YAXXZ PROC	; `dynamic initializer for 'std::numpunct<char>::id'', COMDAT

; 254  : 	__PURE_APPDOMAIN_GLOBAL locale::id numpunct<_Elem>::id;

	push	ebp
	mov	ebp, esp
	push	0
	mov	ecx, OFFSET ?id@?$numpunct@D@std@@2V0locale@2@A ; std::numpunct<char>::id
	call	??0id@locale@std@@QAE@I@Z		; std::locale::id::id
	cmp	ebp, esp
	call	__RTC_CheckEsp
	pop	ebp
	ret	0
??__E?id@?$numpunct@D@std@@2V0locale@2@A@@YAXXZ ENDP	; `dynamic initializer for 'std::numpunct<char>::id''
text$di	ENDS
; Function compile flags: /Odtp /RTCsu
; File c:\program files (x86)\microsoft visual studio 12.0\vc\include\xlocnum
;	COMDAT ??__E?id@?$num_put@_WV?$back_insert_iterator@V?$basic_string@_WU?$char_traits@_W@std@@V?$allocator@_W@2@@std@@@std@@@std@@2V0locale@2@A@@YAXXZ
text$di	SEGMENT
??__E?id@?$num_put@_WV?$back_insert_iterator@V?$basic_string@_WU?$char_traits@_W@std@@V?$allocator@_W@2@@std@@@std@@@std@@2V0locale@2@A@@YAXXZ PROC ; `dynamic initializer for 'std::num_put<wchar_t,std::back_insert_iterator<std::basic_string<wchar_t,std::char_traits<wchar_t>,std::allocator<wchar_t> > > >::id'', COMDAT

; 1567 : 	__PURE_APPDOMAIN_GLOBAL locale::id num_put<_Elem, _OutIt>::id;

	push	ebp
	mov	ebp, esp
	push	0
	mov	ecx, OFFSET ?id@?$num_put@_WV?$back_insert_iterator@V?$basic_string@_WU?$char_traits@_W@std@@V?$allocator@_W@2@@std@@@std@@@std@@2V0locale@2@A ; std::num_put<wchar_t,std::back_insert_iterator<std::basic_string<wchar_t,std::char_traits<wchar_t>,std::allocator<wchar_t> > > >::id
	call	??0id@locale@std@@QAE@I@Z		; std::locale::id::id
	cmp	ebp, esp
	call	__RTC_CheckEsp
	pop	ebp
	ret	0
??__E?id@?$num_put@_WV?$back_insert_iterator@V?$basic_string@_WU?$char_traits@_W@std@@V?$allocator@_W@2@@std@@@std@@@std@@2V0locale@2@A@@YAXXZ ENDP ; `dynamic initializer for 'std::num_put<wchar_t,std::back_insert_iterator<std::basic_string<wchar_t,std::char_traits<wchar_t>,std::allocator<wchar_t> > > >::id''
text$di	ENDS
; Function compile flags: /Odtp /RTCsu
; File c:\program files (x86)\microsoft visual studio 12.0\vc\include\xlocnum
;	COMDAT ??__E?id@?$num_put@DV?$back_insert_iterator@V?$basic_string@DU?$char_traits@D@std@@V?$allocator@D@2@@std@@@std@@@std@@2V0locale@2@A@@YAXXZ
text$di	SEGMENT
??__E?id@?$num_put@DV?$back_insert_iterator@V?$basic_string@DU?$char_traits@D@std@@V?$allocator@D@2@@std@@@std@@@std@@2V0locale@2@A@@YAXXZ PROC ; `dynamic initializer for 'std::num_put<char,std::back_insert_iterator<std::basic_string<char,std::char_traits<char>,std::allocator<char> > > >::id'', COMDAT

; 1567 : 	__PURE_APPDOMAIN_GLOBAL locale::id num_put<_Elem, _OutIt>::id;

	push	ebp
	mov	ebp, esp
	push	0
	mov	ecx, OFFSET ?id@?$num_put@DV?$back_insert_iterator@V?$basic_string@DU?$char_traits@D@std@@V?$allocator@D@2@@std@@@std@@@std@@2V0locale@2@A ; std::num_put<char,std::back_insert_iterator<std::basic_string<char,std::char_traits<char>,std::allocator<char> > > >::id
	call	??0id@locale@std@@QAE@I@Z		; std::locale::id::id
	cmp	ebp, esp
	call	__RTC_CheckEsp
	pop	ebp
	ret	0
??__E?id@?$num_put@DV?$back_insert_iterator@V?$basic_string@DU?$char_traits@D@std@@V?$allocator@D@2@@std@@@std@@@std@@2V0locale@2@A@@YAXXZ ENDP ; `dynamic initializer for 'std::num_put<char,std::back_insert_iterator<std::basic_string<char,std::char_traits<char>,std::allocator<char> > > >::id''
text$di	ENDS
; Function compile flags: /Odtp /RTCsu
; File c:\program files (x86)\microsoft visual studio 12.0\vc\include\xmemory0
;	COMDAT ??$destroy@U_Container_proxy@std@@@?$allocator_traits@V?$allocator@U_Container_proxy@std@@@std@@@std@@SAXAAV?$allocator@U_Container_proxy@std@@@1@PAU_Container_proxy@1@@Z
_TEXT	SEGMENT
__Al$ = 8						; size = 4
__Ptr$ = 12						; size = 4
??$destroy@U_Container_proxy@std@@@?$allocator_traits@V?$allocator@U_Container_proxy@std@@@std@@@std@@SAXAAV?$allocator@U_Container_proxy@std@@@1@PAU_Container_proxy@1@@Z PROC ; std::allocator_traits<std::allocator<std::_Container_proxy> >::destroy<std::_Container_proxy>, COMDAT

; 728  : 		static void destroy(_Alloc& _Al, _Uty *_Ptr)

	push	ebp
	mov	ebp, esp

; 729  : 		{	// destroy object at _Ptr
; 730  : 		_Al.destroy(_Ptr);

	mov	eax, DWORD PTR __Ptr$[ebp]
	push	eax
	mov	ecx, DWORD PTR __Al$[ebp]
	call	??$destroy@U_Container_proxy@std@@@?$allocator@U_Container_proxy@std@@@std@@QAEXPAU_Container_proxy@1@@Z ; std::allocator<std::_Container_proxy>::destroy<std::_Container_proxy>

; 731  : 		}

	cmp	ebp, esp
	call	__RTC_CheckEsp
	pop	ebp
	ret	0
??$destroy@U_Container_proxy@std@@@?$allocator_traits@V?$allocator@U_Container_proxy@std@@@std@@@std@@SAXAAV?$allocator@U_Container_proxy@std@@@1@PAU_Container_proxy@1@@Z ENDP ; std::allocator_traits<std::allocator<std::_Container_proxy> >::destroy<std::_Container_proxy>
_TEXT	ENDS
; Function compile flags: /Odtp /RTCsu
; File c:\program files (x86)\microsoft visual studio 12.0\vc\include\xmemory0
;	COMDAT ??$construct@U_Container_proxy@std@@U12@@?$allocator_traits@V?$allocator@U_Container_proxy@std@@@std@@@std@@SAXAAV?$allocator@U_Container_proxy@std@@@1@PAU_Container_proxy@1@$$QAU31@@Z
_TEXT	SEGMENT
__Al$ = 8						; size = 4
__Ptr$ = 12						; size = 4
_<_Args_0>$ = 16					; size = 4
??$construct@U_Container_proxy@std@@U12@@?$allocator_traits@V?$allocator@U_Container_proxy@std@@@std@@@std@@SAXAAV?$allocator@U_Container_proxy@std@@@1@PAU_Container_proxy@1@$$QAU31@@Z PROC ; std::allocator_traits<std::allocator<std::_Container_proxy> >::construct<std::_Container_proxy,std::_Container_proxy>, COMDAT

; 720  : 		static void construct(_Alloc& _Al, _Objty *_Ptr,

	push	ebp
	mov	ebp, esp

; 721  : 			_Types&&... _Args)
; 722  : 		{	// construct _Objty(_Types...) at _Ptr
; 723  : 		_Al.construct(_Ptr, _STD forward<_Types>(_Args)...);

	mov	eax, DWORD PTR _<_Args_0>$[ebp]
	push	eax
	call	??$forward@U_Container_proxy@std@@@std@@YA$$QAU_Container_proxy@0@AAU10@@Z ; std::forward<std::_Container_proxy>
	add	esp, 4
	push	eax
	mov	ecx, DWORD PTR __Ptr$[ebp]
	push	ecx
	mov	ecx, DWORD PTR __Al$[ebp]
	call	??$construct@U_Container_proxy@std@@U12@@?$allocator@U_Container_proxy@std@@@std@@QAEXPAU_Container_proxy@1@$$QAU21@@Z ; std::allocator<std::_Container_proxy>::construct<std::_Container_proxy,std::_Container_proxy>

; 724  : 		}

	cmp	ebp, esp
	call	__RTC_CheckEsp
	pop	ebp
	ret	0
??$construct@U_Container_proxy@std@@U12@@?$allocator_traits@V?$allocator@U_Container_proxy@std@@@std@@@std@@SAXAAV?$allocator@U_Container_proxy@std@@@1@PAU_Container_proxy@1@$$QAU31@@Z ENDP ; std::allocator_traits<std::allocator<std::_Container_proxy> >::construct<std::_Container_proxy,std::_Container_proxy>
_TEXT	ENDS
; Function compile flags: /Odtp /RTCsu
; File c:\program files (x86)\microsoft visual studio 12.0\vc\include\xmemory
;	COMDAT ??$_Uninitialized_move@PAPAVFuzzyTerm@@PAPAV1@U?$_Wrap_alloc@V?$allocator@PAVFuzzyTerm@@@std@@@std@@@std@@YAPAPAVFuzzyTerm@@PAPAV1@00AAU?$_Wrap_alloc@V?$allocator@PAVFuzzyTerm@@@std@@@0@@Z
_TEXT	SEGMENT
__First$ = 8						; size = 4
__Last$ = 12						; size = 4
__Dest$ = 16						; size = 4
__Al$ = 20						; size = 4
??$_Uninitialized_move@PAPAVFuzzyTerm@@PAPAV1@U?$_Wrap_alloc@V?$allocator@PAVFuzzyTerm@@@std@@@std@@@std@@YAPAPAVFuzzyTerm@@PAPAV1@00AAU?$_Wrap_alloc@V?$allocator@PAVFuzzyTerm@@@std@@@0@@Z PROC ; std::_Uninitialized_move<FuzzyTerm * *,FuzzyTerm * *,std::_Wrap_alloc<std::allocator<FuzzyTerm *> > >, COMDAT

; 492  : 	{	// move [_First, _Last) to raw _Dest, using _Al

	push	ebp
	mov	ebp, esp

; 493  : 	return (_Rechecked(_Dest,
; 494  : 		_Uninit_move(_Unchecked(_First), _Unchecked(_Last),
; 495  : 			_Unchecked(_Dest), _Al)));

	mov	eax, DWORD PTR __Al$[ebp]
	push	eax
	mov	ecx, DWORD PTR __Dest$[ebp]
	push	ecx
	call	??$_Unchecked@PAPAVFuzzyTerm@@@std@@YAPAPAVFuzzyTerm@@PAPAV1@@Z ; std::_Unchecked<FuzzyTerm * *>
	add	esp, 4
	push	eax
	mov	edx, DWORD PTR __Last$[ebp]
	push	edx
	call	??$_Unchecked@PAPAVFuzzyTerm@@@std@@YAPAPAVFuzzyTerm@@PAPAV1@@Z ; std::_Unchecked<FuzzyTerm * *>
	add	esp, 4
	push	eax
	mov	eax, DWORD PTR __First$[ebp]
	push	eax
	call	??$_Unchecked@PAPAVFuzzyTerm@@@std@@YAPAPAVFuzzyTerm@@PAPAV1@@Z ; std::_Unchecked<FuzzyTerm * *>
	add	esp, 4
	push	eax
	call	??$_Uninit_move@PAPAVFuzzyTerm@@PAPAV1@U?$_Wrap_alloc@V?$allocator@PAVFuzzyTerm@@@std@@@std@@@std@@YAPAPAVFuzzyTerm@@PAPAV1@00AAU?$_Wrap_alloc@V?$allocator@PAVFuzzyTerm@@@std@@@0@@Z ; std::_Uninit_move<FuzzyTerm * *,FuzzyTerm * *,std::_Wrap_alloc<std::allocator<FuzzyTerm *> > >
	add	esp, 16					; 00000010H
	push	eax
	lea	ecx, DWORD PTR __Dest$[ebp]
	push	ecx
	call	??$_Rechecked@PAPAVFuzzyTerm@@PAPAV1@@std@@YAAAPAPAVFuzzyTerm@@AAPAPAV1@PAPAV1@@Z ; std::_Rechecked<FuzzyTerm * *,FuzzyTerm * *>
	add	esp, 8
	mov	eax, DWORD PTR [eax]

; 496  : 	}

	cmp	ebp, esp
	call	__RTC_CheckEsp
	pop	ebp
	ret	0
??$_Uninitialized_move@PAPAVFuzzyTerm@@PAPAV1@U?$_Wrap_alloc@V?$allocator@PAVFuzzyTerm@@@std@@@std@@@std@@YAPAPAVFuzzyTerm@@PAPAV1@00AAU?$_Wrap_alloc@V?$allocator@PAVFuzzyTerm@@@std@@@0@@Z ENDP ; std::_Uninitialized_move<FuzzyTerm * *,FuzzyTerm * *,std::_Wrap_alloc<std::allocator<FuzzyTerm *> > >
_TEXT	ENDS
; Function compile flags: /Odtp /RTCsu
; File c:\program files (x86)\microsoft visual studio 12.0\vc\include\xmemory0
;	COMDAT ??$_Destroy_range@U?$_Wrap_alloc@V?$allocator@PAVFuzzyTerm@@@std@@@std@@@std@@YAXPAPAVFuzzyTerm@@0AAU?$_Wrap_alloc@V?$allocator@PAVFuzzyTerm@@@std@@@0@U_Scalar_ptr_iterator_tag@0@@Z
_TEXT	SEGMENT
__First$ = 8						; size = 4
__Last$ = 12						; size = 4
__Al$ = 16						; size = 4
___formal$ = 20						; size = 1
??$_Destroy_range@U?$_Wrap_alloc@V?$allocator@PAVFuzzyTerm@@@std@@@std@@@std@@YAXPAPAVFuzzyTerm@@0AAU?$_Wrap_alloc@V?$allocator@PAVFuzzyTerm@@@std@@@0@U_Scalar_ptr_iterator_tag@0@@Z PROC ; std::_Destroy_range<std::_Wrap_alloc<std::allocator<FuzzyTerm *> > >, COMDAT

; 89   : 	{	// destroy [_First, _Last), scalar type (do nothing)

	push	ebp
	mov	ebp, esp

; 90   : 	}

	pop	ebp
	ret	0
??$_Destroy_range@U?$_Wrap_alloc@V?$allocator@PAVFuzzyTerm@@@std@@@std@@@std@@YAXPAPAVFuzzyTerm@@0AAU?$_Wrap_alloc@V?$allocator@PAVFuzzyTerm@@@std@@@0@U_Scalar_ptr_iterator_tag@0@@Z ENDP ; std::_Destroy_range<std::_Wrap_alloc<std::allocator<FuzzyTerm *> > >
_TEXT	ENDS
; Function compile flags: /Odtp /RTCsu
; File c:\program files (x86)\microsoft visual studio 12.0\vc\include\xutility
;	COMDAT ??$_Ptr_cat@PAVFuzzyTerm@@PAV1@@std@@YA?AU_Scalar_ptr_iterator_tag@0@PAPAVFuzzyTerm@@0@Z
_TEXT	SEGMENT
__Cat$ = -5						; size = 1
___formal$ = 8						; size = 4
___formal$ = 12						; size = 4
??$_Ptr_cat@PAVFuzzyTerm@@PAV1@@std@@YA?AU_Scalar_ptr_iterator_tag@0@PAPAVFuzzyTerm@@0@Z PROC ; std::_Ptr_cat<FuzzyTerm *,FuzzyTerm *>, COMDAT

; 444  : 	{	// return pointer category from pointers

	push	ebp
	mov	ebp, esp
	sub	esp, 12					; 0000000cH
	mov	DWORD PTR [ebp-12], -858993460		; ccccccccH
	mov	DWORD PTR [ebp-8], -858993460		; ccccccccH
	mov	DWORD PTR [ebp-4], -858993460		; ccccccccH

; 445  : 	typename _Ptr_cat_helper<_Elem1, _Elem2>::type _Cat;
; 446  : 	return (_Cat);

	mov	al, BYTE PTR __Cat$[ebp]

; 447  : 	}

	push	edx
	mov	ecx, ebp
	push	eax
	lea	edx, DWORD PTR $LN5@Ptr_cat
	call	@_RTC_CheckStackVars@8
	pop	eax
	pop	edx
	mov	esp, ebp
	pop	ebp
	ret	0
	npad	1
$LN5@Ptr_cat:
	DD	1
	DD	$LN4@Ptr_cat
$LN4@Ptr_cat:
	DD	-5					; fffffffbH
	DD	1
	DD	$LN3@Ptr_cat
$LN3@Ptr_cat:
	DB	95					; 0000005fH
	DB	67					; 00000043H
	DB	97					; 00000061H
	DB	116					; 00000074H
	DB	0
??$_Ptr_cat@PAVFuzzyTerm@@PAV1@@std@@YA?AU_Scalar_ptr_iterator_tag@0@PAPAVFuzzyTerm@@0@Z ENDP ; std::_Ptr_cat<FuzzyTerm *,FuzzyTerm *>
_TEXT	ENDS
; Function compile flags: /Odtp /RTCsu
; File c:\program files (x86)\microsoft visual studio 12.0\vc\include\type_traits
;	COMDAT ??$forward@U_Container_proxy@std@@@std@@YA$$QAU_Container_proxy@0@AAU10@@Z
_TEXT	SEGMENT
__Arg$ = 8						; size = 4
??$forward@U_Container_proxy@std@@@std@@YA$$QAU_Container_proxy@0@AAU10@@Z PROC ; std::forward<std::_Container_proxy>, COMDAT

; 1504 : 	{	// forward an lvalue

	push	ebp
	mov	ebp, esp

; 1505 : 	return (static_cast<_Ty&&>(_Arg));

	mov	eax, DWORD PTR __Arg$[ebp]

; 1506 : 	}

	pop	ebp
	ret	0
??$forward@U_Container_proxy@std@@@std@@YA$$QAU_Container_proxy@0@AAU10@@Z ENDP ; std::forward<std::_Container_proxy>
_TEXT	ENDS
; Function compile flags: /Odtp /RTCsu
; File c:\program files (x86)\microsoft visual studio 12.0\vc\include\xmemory0
;	COMDAT ??$destroy@PAD@?$allocator_traits@V?$allocator@D@std@@@std@@SAXAAV?$allocator@D@1@PAPAD@Z
_TEXT	SEGMENT
__Al$ = 8						; size = 4
__Ptr$ = 12						; size = 4
??$destroy@PAD@?$allocator_traits@V?$allocator@D@std@@@std@@SAXAAV?$allocator@D@1@PAPAD@Z PROC ; std::allocator_traits<std::allocator<char> >::destroy<char *>, COMDAT

; 728  : 		static void destroy(_Alloc& _Al, _Uty *_Ptr)

	push	ebp
	mov	ebp, esp

; 729  : 		{	// destroy object at _Ptr
; 730  : 		_Al.destroy(_Ptr);

	mov	eax, DWORD PTR __Ptr$[ebp]
	push	eax
	mov	ecx, DWORD PTR __Al$[ebp]
	call	??$destroy@PAD@?$allocator@D@std@@QAEXPAPAD@Z ; std::allocator<char>::destroy<char *>

; 731  : 		}

	cmp	ebp, esp
	call	__RTC_CheckEsp
	pop	ebp
	ret	0
??$destroy@PAD@?$allocator_traits@V?$allocator@D@std@@@std@@SAXAAV?$allocator@D@1@PAPAD@Z ENDP ; std::allocator_traits<std::allocator<char> >::destroy<char *>
_TEXT	ENDS
; Function compile flags: /Odtp /RTCsu
; File c:\program files (x86)\microsoft visual studio 12.0\vc\include\xmemory0
;	COMDAT ??$construct@PADAAPAD@?$allocator_traits@V?$allocator@D@std@@@std@@SAXAAV?$allocator@D@1@PAPADAAPAD@Z
_TEXT	SEGMENT
__Al$ = 8						; size = 4
__Ptr$ = 12						; size = 4
_<_Args_0>$ = 16					; size = 4
??$construct@PADAAPAD@?$allocator_traits@V?$allocator@D@std@@@std@@SAXAAV?$allocator@D@1@PAPADAAPAD@Z PROC ; std::allocator_traits<std::allocator<char> >::construct<char *,char * &>, COMDAT

; 720  : 		static void construct(_Alloc& _Al, _Objty *_Ptr,

	push	ebp
	mov	ebp, esp

; 721  : 			_Types&&... _Args)
; 722  : 		{	// construct _Objty(_Types...) at _Ptr
; 723  : 		_Al.construct(_Ptr, _STD forward<_Types>(_Args)...);

	mov	eax, DWORD PTR _<_Args_0>$[ebp]
	push	eax
	call	??$forward@AAPAD@std@@YAAAPADAAPAD@Z	; std::forward<char * &>
	add	esp, 4
	push	eax
	mov	ecx, DWORD PTR __Ptr$[ebp]
	push	ecx
	mov	ecx, DWORD PTR __Al$[ebp]
	call	??$construct@PADAAPAD@?$allocator@D@std@@QAEXPAPADAAPAD@Z ; std::allocator<char>::construct<char *,char * &>

; 724  : 		}

	cmp	ebp, esp
	call	__RTC_CheckEsp
	pop	ebp
	ret	0
??$construct@PADAAPAD@?$allocator_traits@V?$allocator@D@std@@@std@@SAXAAV?$allocator@D@1@PAPADAAPAD@Z ENDP ; std::allocator_traits<std::allocator<char> >::construct<char *,char * &>
_TEXT	ENDS
; Function compile flags: /Odtp /RTCsu
; File c:\program files (x86)\microsoft visual studio 12.0\vc\include\type_traits
;	COMDAT ??$forward@AAPAD@std@@YAAAPADAAPAD@Z
_TEXT	SEGMENT
__Arg$ = 8						; size = 4
??$forward@AAPAD@std@@YAAAPADAAPAD@Z PROC		; std::forward<char * &>, COMDAT

; 1504 : 	{	// forward an lvalue

	push	ebp
	mov	ebp, esp

; 1505 : 	return (static_cast<_Ty&&>(_Arg));

	mov	eax, DWORD PTR __Arg$[ebp]

; 1506 : 	}

	pop	ebp
	ret	0
??$forward@AAPAD@std@@YAAAPADAAPAD@Z ENDP		; std::forward<char * &>
_TEXT	ENDS
; Function compile flags: /Odtp /RTCsu
; File c:\program files (x86)\microsoft visual studio 12.0\vc\include\xmemory0
;	COMDAT ??$construct@PAVFuzzyTerm@@PAV1@@?$allocator_traits@V?$allocator@PAVFuzzyTerm@@@std@@@std@@SAXAAV?$allocator@PAVFuzzyTerm@@@1@PAPAVFuzzyTerm@@$$QAPAV3@@Z
_TEXT	SEGMENT
__Al$ = 8						; size = 4
__Ptr$ = 12						; size = 4
_<_Args_0>$ = 16					; size = 4
??$construct@PAVFuzzyTerm@@PAV1@@?$allocator_traits@V?$allocator@PAVFuzzyTerm@@@std@@@std@@SAXAAV?$allocator@PAVFuzzyTerm@@@1@PAPAVFuzzyTerm@@$$QAPAV3@@Z PROC ; std::allocator_traits<std::allocator<FuzzyTerm *> >::construct<FuzzyTerm *,FuzzyTerm *>, COMDAT

; 720  : 		static void construct(_Alloc& _Al, _Objty *_Ptr,

	push	ebp
	mov	ebp, esp

; 721  : 			_Types&&... _Args)
; 722  : 		{	// construct _Objty(_Types...) at _Ptr
; 723  : 		_Al.construct(_Ptr, _STD forward<_Types>(_Args)...);

	mov	eax, DWORD PTR _<_Args_0>$[ebp]
	push	eax
	call	??$forward@PAVFuzzyTerm@@@std@@YA$$QAPAVFuzzyTerm@@AAPAV1@@Z ; std::forward<FuzzyTerm *>
	add	esp, 4
	push	eax
	mov	ecx, DWORD PTR __Ptr$[ebp]
	push	ecx
	mov	ecx, DWORD PTR __Al$[ebp]
	call	??$construct@PAVFuzzyTerm@@PAV1@@?$allocator@PAVFuzzyTerm@@@std@@QAEXPAPAVFuzzyTerm@@$$QAPAV2@@Z ; std::allocator<FuzzyTerm *>::construct<FuzzyTerm *,FuzzyTerm *>

; 724  : 		}

	cmp	ebp, esp
	call	__RTC_CheckEsp
	pop	ebp
	ret	0
??$construct@PAVFuzzyTerm@@PAV1@@?$allocator_traits@V?$allocator@PAVFuzzyTerm@@@std@@@std@@SAXAAV?$allocator@PAVFuzzyTerm@@@1@PAPAVFuzzyTerm@@$$QAPAV3@@Z ENDP ; std::allocator_traits<std::allocator<FuzzyTerm *> >::construct<FuzzyTerm *,FuzzyTerm *>
_TEXT	ENDS
; Function compile flags: /Odtp /RTCsu
;	COMDAT ??__F?_System_object@?$_Error_objects@H@std@@2V_System_error_category@2@A@@YAXXZ
text$yd	SEGMENT
??__F?_System_object@?$_Error_objects@H@std@@2V_System_error_category@2@A@@YAXXZ PROC ; `dynamic atexit destructor for 'std::_Error_objects<int>::_System_object'', COMDAT
	push	ebp
	mov	ebp, esp
	mov	ecx, OFFSET ?_System_object@?$_Error_objects@H@std@@2V_System_error_category@2@A ; std::_Error_objects<int>::_System_object
	call	??1_System_error_category@std@@UAE@XZ
	cmp	ebp, esp
	call	__RTC_CheckEsp
	pop	ebp
	ret	0
??__F?_System_object@?$_Error_objects@H@std@@2V_System_error_category@2@A@@YAXXZ ENDP ; `dynamic atexit destructor for 'std::_Error_objects<int>::_System_object''
text$yd	ENDS
; Function compile flags: /Odtp /RTCsu
; File c:\program files (x86)\microsoft visual studio 12.0\vc\include\system_error
;	COMDAT ??__E?_System_object@?$_Error_objects@H@std@@2V_System_error_category@2@A@@YAXXZ
text$di	SEGMENT
??__E?_System_object@?$_Error_objects@H@std@@2V_System_error_category@2@A@@YAXXZ PROC ; `dynamic initializer for 'std::_Error_objects<int>::_System_object'', COMDAT

; 639  : 	_System_error_category _Error_objects<_Cat>::_System_object;

	push	ebp
	mov	ebp, esp
	mov	ecx, OFFSET ?_System_object@?$_Error_objects@H@std@@2V_System_error_category@2@A ; std::_Error_objects<int>::_System_object
	call	??0_System_error_category@std@@QAE@XZ	; std::_System_error_category::_System_error_category
	push	OFFSET ??__F?_System_object@?$_Error_objects@H@std@@2V_System_error_category@2@A@@YAXXZ ; `dynamic atexit destructor for 'std::_Error_objects<int>::_System_object''
	call	_atexit
	add	esp, 4
	cmp	ebp, esp
	call	__RTC_CheckEsp
	pop	ebp
	ret	0
??__E?_System_object@?$_Error_objects@H@std@@2V_System_error_category@2@A@@YAXXZ ENDP ; `dynamic initializer for 'std::_Error_objects<int>::_System_object''
text$di	ENDS
; Function compile flags: /Odtp /RTCsu
;	COMDAT ??__F?_Iostream_object@?$_Error_objects@H@std@@2V_Iostream_error_category@2@A@@YAXXZ
text$yd	SEGMENT
??__F?_Iostream_object@?$_Error_objects@H@std@@2V_Iostream_error_category@2@A@@YAXXZ PROC ; `dynamic atexit destructor for 'std::_Error_objects<int>::_Iostream_object'', COMDAT
	push	ebp
	mov	ebp, esp
	mov	ecx, OFFSET ?_Iostream_object@?$_Error_objects@H@std@@2V_Iostream_error_category@2@A ; std::_Error_objects<int>::_Iostream_object
	call	??1_Iostream_error_category@std@@UAE@XZ
	cmp	ebp, esp
	call	__RTC_CheckEsp
	pop	ebp
	ret	0
??__F?_Iostream_object@?$_Error_objects@H@std@@2V_Iostream_error_category@2@A@@YAXXZ ENDP ; `dynamic atexit destructor for 'std::_Error_objects<int>::_Iostream_object''
text$yd	ENDS
; Function compile flags: /Odtp /RTCsu
; File c:\program files (x86)\microsoft visual studio 12.0\vc\include\system_error
;	COMDAT ??__E?_Iostream_object@?$_Error_objects@H@std@@2V_Iostream_error_category@2@A@@YAXXZ
text$di	SEGMENT
??__E?_Iostream_object@?$_Error_objects@H@std@@2V_Iostream_error_category@2@A@@YAXXZ PROC ; `dynamic initializer for 'std::_Error_objects<int>::_Iostream_object'', COMDAT

; 637  : 	_Iostream_error_category _Error_objects<_Cat>::_Iostream_object;

	push	ebp
	mov	ebp, esp
	mov	ecx, OFFSET ?_Iostream_object@?$_Error_objects@H@std@@2V_Iostream_error_category@2@A ; std::_Error_objects<int>::_Iostream_object
	call	??0_Iostream_error_category@std@@QAE@XZ	; std::_Iostream_error_category::_Iostream_error_category
	push	OFFSET ??__F?_Iostream_object@?$_Error_objects@H@std@@2V_Iostream_error_category@2@A@@YAXXZ ; `dynamic atexit destructor for 'std::_Error_objects<int>::_Iostream_object''
	call	_atexit
	add	esp, 4
	cmp	ebp, esp
	call	__RTC_CheckEsp
	pop	ebp
	ret	0
??__E?_Iostream_object@?$_Error_objects@H@std@@2V_Iostream_error_category@2@A@@YAXXZ ENDP ; `dynamic initializer for 'std::_Error_objects<int>::_Iostream_object''
text$di	ENDS
; Function compile flags: /Odtp /RTCsu
;	COMDAT ??__F?_Generic_object@?$_Error_objects@H@std@@2V_Generic_error_category@2@A@@YAXXZ
text$yd	SEGMENT
??__F?_Generic_object@?$_Error_objects@H@std@@2V_Generic_error_category@2@A@@YAXXZ PROC ; `dynamic atexit destructor for 'std::_Error_objects<int>::_Generic_object'', COMDAT
	push	ebp
	mov	ebp, esp
	mov	ecx, OFFSET ?_Generic_object@?$_Error_objects@H@std@@2V_Generic_error_category@2@A ; std::_Error_objects<int>::_Generic_object
	call	??1_Generic_error_category@std@@UAE@XZ
	cmp	ebp, esp
	call	__RTC_CheckEsp
	pop	ebp
	ret	0
??__F?_Generic_object@?$_Error_objects@H@std@@2V_Generic_error_category@2@A@@YAXXZ ENDP ; `dynamic atexit destructor for 'std::_Error_objects<int>::_Generic_object''
text$yd	ENDS
; Function compile flags: /Odtp /RTCsu
; File c:\program files (x86)\microsoft visual studio 12.0\vc\include\system_error
;	COMDAT ??__E?_Generic_object@?$_Error_objects@H@std@@2V_Generic_error_category@2@A@@YAXXZ
text$di	SEGMENT
??__E?_Generic_object@?$_Error_objects@H@std@@2V_Generic_error_category@2@A@@YAXXZ PROC ; `dynamic initializer for 'std::_Error_objects<int>::_Generic_object'', COMDAT

; 635  : 	_Generic_error_category _Error_objects<_Cat>::_Generic_object;

	push	ebp
	mov	ebp, esp
	mov	ecx, OFFSET ?_Generic_object@?$_Error_objects@H@std@@2V_Generic_error_category@2@A ; std::_Error_objects<int>::_Generic_object
	call	??0_Generic_error_category@std@@QAE@XZ	; std::_Generic_error_category::_Generic_error_category
	push	OFFSET ??__F?_Generic_object@?$_Error_objects@H@std@@2V_Generic_error_category@2@A@@YAXXZ ; `dynamic atexit destructor for 'std::_Error_objects<int>::_Generic_object''
	call	_atexit
	add	esp, 4
	cmp	ebp, esp
	call	__RTC_CheckEsp
	pop	ebp
	ret	0
??__E?_Generic_object@?$_Error_objects@H@std@@2V_Generic_error_category@2@A@@YAXXZ ENDP ; `dynamic initializer for 'std::_Error_objects<int>::_Generic_object''
text$di	ENDS
; Function compile flags: /Odtp /RTCsu
; File c:\program files (x86)\microsoft visual studio 12.0\vc\include\xmemory0
;	COMDAT ??$_Allocate@D@std@@YAPADIPAD@Z
_TEXT	SEGMENT
__Ptr$ = -4						; size = 4
__Count$ = 8						; size = 4
___formal$ = 12						; size = 4
??$_Allocate@D@std@@YAPADIPAD@Z PROC			; std::_Allocate<char>, COMDAT

; 22   : 	{	// allocate storage for _Count elements of type _Ty

	push	ebp
	mov	ebp, esp
	push	ecx
	mov	DWORD PTR [ebp-4], -858993460		; ccccccccH

; 23   : 	void *_Ptr = 0;

	mov	DWORD PTR __Ptr$[ebp], 0

; 24   : 
; 25   : 	if (_Count == 0)

	cmp	DWORD PTR __Count$[ebp], 0
	jne	SHORT $LN4@Allocate

; 26   : 		;
; 27   : 	else if (((size_t)(-1) / sizeof (_Ty) < _Count)

	jmp	SHORT $LN3@Allocate
$LN4@Allocate:

; 28   : 		|| (_Ptr = ::operator new(_Count * sizeof (_Ty))) == 0)

	cmp	DWORD PTR __Count$[ebp], -1
	ja	SHORT $LN1@Allocate
	mov	eax, DWORD PTR __Count$[ebp]
	push	eax
	call	??2@YAPAXI@Z				; operator new
	add	esp, 4
	mov	DWORD PTR __Ptr$[ebp], eax
	cmp	DWORD PTR __Ptr$[ebp], 0
	jne	SHORT $LN3@Allocate
$LN1@Allocate:

; 29   : 		_Xbad_alloc();	// report no memory

	call	?_Xbad_alloc@std@@YAXXZ			; std::_Xbad_alloc
$LN3@Allocate:

; 30   : 
; 31   : 	return ((_Ty *)_Ptr);

	mov	eax, DWORD PTR __Ptr$[ebp]
$LN6@Allocate:

; 32   : 	}

	add	esp, 4
	cmp	ebp, esp
	call	__RTC_CheckEsp
	mov	esp, ebp
	pop	ebp
	ret	0
??$_Allocate@D@std@@YAPADIPAD@Z ENDP			; std::_Allocate<char>
_TEXT	ENDS
; Function compile flags: /Odtp /RTCsu
; File c:\program files (x86)\microsoft visual studio 12.0\vc\include\xmemory0
;	COMDAT ??$_Allocate@PAVFuzzyTerm@@@std@@YAPAPAVFuzzyTerm@@IPAPAV1@@Z
_TEXT	SEGMENT
__Ptr$ = -4						; size = 4
__Count$ = 8						; size = 4
___formal$ = 12						; size = 4
??$_Allocate@PAVFuzzyTerm@@@std@@YAPAPAVFuzzyTerm@@IPAPAV1@@Z PROC ; std::_Allocate<FuzzyTerm *>, COMDAT

; 22   : 	{	// allocate storage for _Count elements of type _Ty

	push	ebp
	mov	ebp, esp
	push	ecx
	mov	DWORD PTR [ebp-4], -858993460		; ccccccccH

; 23   : 	void *_Ptr = 0;

	mov	DWORD PTR __Ptr$[ebp], 0

; 24   : 
; 25   : 	if (_Count == 0)

	cmp	DWORD PTR __Count$[ebp], 0
	jne	SHORT $LN4@Allocate

; 26   : 		;
; 27   : 	else if (((size_t)(-1) / sizeof (_Ty) < _Count)

	jmp	SHORT $LN3@Allocate
$LN4@Allocate:

; 28   : 		|| (_Ptr = ::operator new(_Count * sizeof (_Ty))) == 0)

	cmp	DWORD PTR __Count$[ebp], 1073741823	; 3fffffffH
	ja	SHORT $LN1@Allocate
	mov	eax, DWORD PTR __Count$[ebp]
	shl	eax, 2
	push	eax
	call	??2@YAPAXI@Z				; operator new
	add	esp, 4
	mov	DWORD PTR __Ptr$[ebp], eax
	cmp	DWORD PTR __Ptr$[ebp], 0
	jne	SHORT $LN3@Allocate
$LN1@Allocate:

; 29   : 		_Xbad_alloc();	// report no memory

	call	?_Xbad_alloc@std@@YAXXZ			; std::_Xbad_alloc
$LN3@Allocate:

; 30   : 
; 31   : 	return ((_Ty *)_Ptr);

	mov	eax, DWORD PTR __Ptr$[ebp]
$LN6@Allocate:

; 32   : 	}

	add	esp, 4
	cmp	ebp, esp
	call	__RTC_CheckEsp
	mov	esp, ebp
	pop	ebp
	ret	0
??$_Allocate@PAVFuzzyTerm@@@std@@YAPAPAVFuzzyTerm@@IPAPAV1@@Z ENDP ; std::_Allocate<FuzzyTerm *>
_TEXT	ENDS
; Function compile flags: /Odtp /RTCsu
; File c:\program files (x86)\microsoft visual studio 12.0\vc\include\xmemory0
;	COMDAT ??$_Allocate@U_Container_proxy@std@@@std@@YAPAU_Container_proxy@0@IPAU10@@Z
_TEXT	SEGMENT
__Ptr$ = -4						; size = 4
__Count$ = 8						; size = 4
___formal$ = 12						; size = 4
??$_Allocate@U_Container_proxy@std@@@std@@YAPAU_Container_proxy@0@IPAU10@@Z PROC ; std::_Allocate<std::_Container_proxy>, COMDAT

; 22   : 	{	// allocate storage for _Count elements of type _Ty

	push	ebp
	mov	ebp, esp
	push	ecx
	mov	DWORD PTR [ebp-4], -858993460		; ccccccccH

; 23   : 	void *_Ptr = 0;

	mov	DWORD PTR __Ptr$[ebp], 0

; 24   : 
; 25   : 	if (_Count == 0)

	cmp	DWORD PTR __Count$[ebp], 0
	jne	SHORT $LN4@Allocate

; 26   : 		;
; 27   : 	else if (((size_t)(-1) / sizeof (_Ty) < _Count)

	jmp	SHORT $LN3@Allocate
$LN4@Allocate:

; 28   : 		|| (_Ptr = ::operator new(_Count * sizeof (_Ty))) == 0)

	cmp	DWORD PTR __Count$[ebp], 536870911	; 1fffffffH
	ja	SHORT $LN1@Allocate
	mov	eax, DWORD PTR __Count$[ebp]
	shl	eax, 3
	push	eax
	call	??2@YAPAXI@Z				; operator new
	add	esp, 4
	mov	DWORD PTR __Ptr$[ebp], eax
	cmp	DWORD PTR __Ptr$[ebp], 0
	jne	SHORT $LN3@Allocate
$LN1@Allocate:

; 29   : 		_Xbad_alloc();	// report no memory

	call	?_Xbad_alloc@std@@YAXXZ			; std::_Xbad_alloc
$LN3@Allocate:

; 30   : 
; 31   : 	return ((_Ty *)_Ptr);

	mov	eax, DWORD PTR __Ptr$[ebp]
$LN6@Allocate:

; 32   : 	}

	add	esp, 4
	cmp	ebp, esp
	call	__RTC_CheckEsp
	mov	esp, ebp
	pop	ebp
	ret	0
??$_Allocate@U_Container_proxy@std@@@std@@YAPAU_Container_proxy@0@IPAU10@@Z ENDP ; std::_Allocate<std::_Container_proxy>
_TEXT	ENDS
; Function compile flags: /Odtp /RTCsu
; File c:\program files (x86)\microsoft visual studio 12.0\vc\include\xmemory0
;	COMDAT ??$destroy@U_Container_proxy@std@@@?$_Wrap_alloc@V?$allocator@U_Container_proxy@std@@@std@@@std@@QAEXPAU_Container_proxy@1@@Z
_TEXT	SEGMENT
_this$ = -4						; size = 4
__Ptr$ = 8						; size = 4
??$destroy@U_Container_proxy@std@@@?$_Wrap_alloc@V?$allocator@U_Container_proxy@std@@@std@@@std@@QAEXPAU_Container_proxy@1@@Z PROC ; std::_Wrap_alloc<std::allocator<std::_Container_proxy> >::destroy<std::_Container_proxy>, COMDAT
; _this$ = ecx

; 877  : 		void destroy(_Ty *_Ptr)

	push	ebp
	mov	ebp, esp
	push	ecx
	mov	DWORD PTR [ebp-4], -858993460		; ccccccccH
	mov	DWORD PTR _this$[ebp], ecx

; 878  : 		{	// destroy object at _Ptr
; 879  : 		_Mytraits::destroy(*this, _Ptr);

	mov	eax, DWORD PTR __Ptr$[ebp]
	push	eax
	mov	ecx, DWORD PTR _this$[ebp]
	push	ecx
	call	??$destroy@U_Container_proxy@std@@@?$allocator_traits@V?$allocator@U_Container_proxy@std@@@std@@@std@@SAXAAV?$allocator@U_Container_proxy@std@@@1@PAU_Container_proxy@1@@Z ; std::allocator_traits<std::allocator<std::_Container_proxy> >::destroy<std::_Container_proxy>
	add	esp, 8

; 880  : 		}

	add	esp, 4
	cmp	ebp, esp
	call	__RTC_CheckEsp
	mov	esp, ebp
	pop	ebp
	ret	4
??$destroy@U_Container_proxy@std@@@?$_Wrap_alloc@V?$allocator@U_Container_proxy@std@@@std@@@std@@QAEXPAU_Container_proxy@1@@Z ENDP ; std::_Wrap_alloc<std::allocator<std::_Container_proxy> >::destroy<std::_Container_proxy>
_TEXT	ENDS
; Function compile flags: /Odtp /RTCsu
; File c:\program files (x86)\microsoft visual studio 12.0\vc\include\xmemory0
;	COMDAT ??$construct@U_Container_proxy@std@@U12@@?$_Wrap_alloc@V?$allocator@U_Container_proxy@std@@@std@@@std@@QAEXPAU_Container_proxy@1@$$QAU21@@Z
_TEXT	SEGMENT
_this$ = -4						; size = 4
__Ptr$ = 8						; size = 4
_<_Args_0>$ = 12					; size = 4
??$construct@U_Container_proxy@std@@U12@@?$_Wrap_alloc@V?$allocator@U_Container_proxy@std@@@std@@@std@@QAEXPAU_Container_proxy@1@$$QAU21@@Z PROC ; std::_Wrap_alloc<std::allocator<std::_Container_proxy> >::construct<std::_Container_proxy,std::_Container_proxy>, COMDAT
; _this$ = ecx

; 868  : 		void construct(_Ty *_Ptr,

	push	ebp
	mov	ebp, esp
	push	ecx
	mov	DWORD PTR [ebp-4], -858993460		; ccccccccH
	mov	DWORD PTR _this$[ebp], ecx

; 869  : 			_Types&&... _Args)
; 870  : 		{	// construct _Ty(_Types...) at _Ptr
; 871  : 		_Mytraits::construct(*this, _Ptr,
; 872  : 			_STD forward<_Types>(_Args)...);

	mov	eax, DWORD PTR _<_Args_0>$[ebp]
	push	eax
	call	??$forward@U_Container_proxy@std@@@std@@YA$$QAU_Container_proxy@0@AAU10@@Z ; std::forward<std::_Container_proxy>
	add	esp, 4
	push	eax
	mov	ecx, DWORD PTR __Ptr$[ebp]
	push	ecx
	mov	edx, DWORD PTR _this$[ebp]
	push	edx
	call	??$construct@U_Container_proxy@std@@U12@@?$allocator_traits@V?$allocator@U_Container_proxy@std@@@std@@@std@@SAXAAV?$allocator@U_Container_proxy@std@@@1@PAU_Container_proxy@1@$$QAU31@@Z ; std::allocator_traits<std::allocator<std::_Container_proxy> >::construct<std::_Container_proxy,std::_Container_proxy>
	add	esp, 12					; 0000000cH

; 873  : 		}

	add	esp, 4
	cmp	ebp, esp
	call	__RTC_CheckEsp
	mov	esp, ebp
	pop	ebp
	ret	8
??$construct@U_Container_proxy@std@@U12@@?$_Wrap_alloc@V?$allocator@U_Container_proxy@std@@@std@@@std@@QAEXPAU_Container_proxy@1@$$QAU21@@Z ENDP ; std::_Wrap_alloc<std::allocator<std::_Container_proxy> >::construct<std::_Container_proxy,std::_Container_proxy>
_TEXT	ENDS
; Function compile flags: /Odtp /RTCsu
; File c:\program files (x86)\microsoft visual studio 12.0\vc\include\xmemory0
;	COMDAT ?deallocate@?$_Wrap_alloc@V?$allocator@U_Container_proxy@std@@@std@@@std@@QAEXPAU_Container_proxy@2@I@Z
_TEXT	SEGMENT
_this$ = -4						; size = 4
__Ptr$ = 8						; size = 4
__Count$ = 12						; size = 4
?deallocate@?$_Wrap_alloc@V?$allocator@U_Container_proxy@std@@@std@@@std@@QAEXPAU_Container_proxy@2@I@Z PROC ; std::_Wrap_alloc<std::allocator<std::_Container_proxy> >::deallocate, COMDAT
; _this$ = ecx

; 857  : 		{	// deallocate object at _Ptr, ignore size

	push	ebp
	mov	ebp, esp
	push	ecx
	mov	DWORD PTR [ebp-4], -858993460		; ccccccccH
	mov	DWORD PTR _this$[ebp], ecx

; 858  : 		_Mybase::deallocate(_Ptr, _Count);

	mov	eax, DWORD PTR __Count$[ebp]
	push	eax
	mov	ecx, DWORD PTR __Ptr$[ebp]
	push	ecx
	mov	ecx, DWORD PTR _this$[ebp]
	call	?deallocate@?$allocator@U_Container_proxy@std@@@std@@QAEXPAU_Container_proxy@2@I@Z ; std::allocator<std::_Container_proxy>::deallocate

; 859  : 		}

	add	esp, 4
	cmp	ebp, esp
	call	__RTC_CheckEsp
	mov	esp, ebp
	pop	ebp
	ret	8
?deallocate@?$_Wrap_alloc@V?$allocator@U_Container_proxy@std@@@std@@@std@@QAEXPAU_Container_proxy@2@I@Z ENDP ; std::_Wrap_alloc<std::allocator<std::_Container_proxy> >::deallocate
_TEXT	ENDS
; Function compile flags: /Odtp /RTCsu
; File c:\program files (x86)\microsoft visual studio 12.0\vc\include\xmemory0
;	COMDAT ?allocate@?$_Wrap_alloc@V?$allocator@U_Container_proxy@std@@@std@@@std@@QAEPAU_Container_proxy@2@I@Z
_TEXT	SEGMENT
_this$ = -4						; size = 4
__Count$ = 8						; size = 4
?allocate@?$_Wrap_alloc@V?$allocator@U_Container_proxy@std@@@std@@@std@@QAEPAU_Container_proxy@2@I@Z PROC ; std::_Wrap_alloc<std::allocator<std::_Container_proxy> >::allocate, COMDAT
; _this$ = ecx

; 846  : 		{	// allocate array of _Count elements

	push	ebp
	mov	ebp, esp
	push	ecx
	mov	DWORD PTR [ebp-4], -858993460		; ccccccccH
	mov	DWORD PTR _this$[ebp], ecx

; 847  : 		return (_Mybase::allocate(_Count));

	mov	eax, DWORD PTR __Count$[ebp]
	push	eax
	mov	ecx, DWORD PTR _this$[ebp]
	call	?allocate@?$allocator@U_Container_proxy@std@@@std@@QAEPAU_Container_proxy@2@I@Z ; std::allocator<std::_Container_proxy>::allocate

; 848  : 		}

	add	esp, 4
	cmp	ebp, esp
	call	__RTC_CheckEsp
	mov	esp, ebp
	pop	ebp
	ret	4
?allocate@?$_Wrap_alloc@V?$allocator@U_Container_proxy@std@@@std@@@std@@QAEPAU_Container_proxy@2@I@Z ENDP ; std::_Wrap_alloc<std::allocator<std::_Container_proxy> >::allocate
_TEXT	ENDS
; Function compile flags: /Odtp /RTCsu
; File c:\program files (x86)\microsoft visual studio 12.0\vc\include\xmemory0
;	COMDAT ??0?$_Wrap_alloc@V?$allocator@U_Container_proxy@std@@@std@@@std@@QAE@XZ
_TEXT	SEGMENT
_this$ = -4						; size = 4
??0?$_Wrap_alloc@V?$allocator@U_Container_proxy@std@@@std@@@std@@QAE@XZ PROC ; std::_Wrap_alloc<std::allocator<std::_Container_proxy> >::_Wrap_alloc<std::allocator<std::_Container_proxy> >, COMDAT
; _this$ = ecx

; 801  : 		{	// construct default allocator (do nothing)

	push	ebp
	mov	ebp, esp
	push	ecx
	mov	DWORD PTR [ebp-4], -858993460		; ccccccccH
	mov	DWORD PTR _this$[ebp], ecx
	mov	ecx, DWORD PTR _this$[ebp]
	call	??0?$allocator@U_Container_proxy@std@@@std@@QAE@XZ ; std::allocator<std::_Container_proxy>::allocator<std::_Container_proxy>

; 802  : 		}

	mov	eax, DWORD PTR _this$[ebp]
	add	esp, 4
	cmp	ebp, esp
	call	__RTC_CheckEsp
	mov	esp, ebp
	pop	ebp
	ret	0
??0?$_Wrap_alloc@V?$allocator@U_Container_proxy@std@@@std@@@std@@QAE@XZ ENDP ; std::_Wrap_alloc<std::allocator<std::_Container_proxy> >::_Wrap_alloc<std::allocator<std::_Container_proxy> >
_TEXT	ENDS
; Function compile flags: /Odtp /RTCsu
; File c:\program files (x86)\microsoft visual studio 12.0\vc\include\vector
;	COMDAT ??$_Umove@PAPAVFuzzyTerm@@@?$vector@PAVFuzzyTerm@@V?$allocator@PAVFuzzyTerm@@@std@@@std@@IAEPAPAVFuzzyTerm@@PAPAV2@00@Z
_TEXT	SEGMENT
__Alval$ = -9						; size = 1
_this$ = -4						; size = 4
__First$ = 8						; size = 4
__Last$ = 12						; size = 4
__Ptr$ = 16						; size = 4
??$_Umove@PAPAVFuzzyTerm@@@?$vector@PAVFuzzyTerm@@V?$allocator@PAVFuzzyTerm@@@std@@@std@@IAEPAPAVFuzzyTerm@@PAPAV2@00@Z PROC ; std::vector<FuzzyTerm *,std::allocator<FuzzyTerm *> >::_Umove<FuzzyTerm * *>, COMDAT
; _this$ = ecx

; 1644 : 		pointer _Umove(_Iter _First, _Iter _Last, pointer _Ptr)

	push	ebp
	mov	ebp, esp
	sub	esp, 16					; 00000010H
	mov	eax, -858993460				; ccccccccH
	mov	DWORD PTR [ebp-16], eax
	mov	DWORD PTR [ebp-12], eax
	mov	DWORD PTR [ebp-8], eax
	mov	DWORD PTR [ebp-4], eax
	mov	DWORD PTR _this$[ebp], ecx

; 1645 : 		{	// move initializing [_First, _Last), using allocator
; 1646 : 		_Alty _Alval(this->_Getal());

	lea	eax, DWORD PTR __Alval$[ebp]
	push	eax
	mov	ecx, DWORD PTR _this$[ebp]
	call	?_Getal@?$_Vector_alloc@$0A@U?$_Vec_base_types@PAVFuzzyTerm@@V?$allocator@PAVFuzzyTerm@@@std@@@std@@@std@@QBE?AU?$_Wrap_alloc@V?$allocator@PAVFuzzyTerm@@@std@@@2@XZ ; std::_Vector_alloc<0,std::_Vec_base_types<FuzzyTerm *,std::allocator<FuzzyTerm *> > >::_Getal

; 1647 : 		return (_Uninitialized_move(_First, _Last,
; 1648 : 			_Ptr, _Alval));

	lea	ecx, DWORD PTR __Alval$[ebp]
	push	ecx
	mov	edx, DWORD PTR __Ptr$[ebp]
	push	edx
	mov	eax, DWORD PTR __Last$[ebp]
	push	eax
	mov	ecx, DWORD PTR __First$[ebp]
	push	ecx
	call	??$_Uninitialized_move@PAPAVFuzzyTerm@@PAPAV1@U?$_Wrap_alloc@V?$allocator@PAVFuzzyTerm@@@std@@@std@@@std@@YAPAPAVFuzzyTerm@@PAPAV1@00AAU?$_Wrap_alloc@V?$allocator@PAVFuzzyTerm@@@std@@@0@@Z ; std::_Uninitialized_move<FuzzyTerm * *,FuzzyTerm * *,std::_Wrap_alloc<std::allocator<FuzzyTerm *> > >
	add	esp, 16					; 00000010H

; 1649 : 		}

	push	edx
	mov	ecx, ebp
	push	eax
	lea	edx, DWORD PTR $LN5@Umove
	call	@_RTC_CheckStackVars@8
	pop	eax
	pop	edx
	add	esp, 16					; 00000010H
	cmp	ebp, esp
	call	__RTC_CheckEsp
	mov	esp, ebp
	pop	ebp
	ret	12					; 0000000cH
	npad	1
$LN5@Umove:
	DD	1
	DD	$LN4@Umove
$LN4@Umove:
	DD	-9					; fffffff7H
	DD	1
	DD	$LN3@Umove
$LN3@Umove:
	DB	95					; 0000005fH
	DB	65					; 00000041H
	DB	108					; 0000006cH
	DB	118					; 00000076H
	DB	97					; 00000061H
	DB	108					; 0000006cH
	DB	0
??$_Umove@PAPAVFuzzyTerm@@@?$vector@PAVFuzzyTerm@@V?$allocator@PAVFuzzyTerm@@@std@@@std@@IAEPAPAVFuzzyTerm@@PAPAV2@00@Z ENDP ; std::vector<FuzzyTerm *,std::allocator<FuzzyTerm *> >::_Umove<FuzzyTerm * *>
_TEXT	ENDS
; Function compile flags: /Odtp /RTCsu
; File c:\program files (x86)\microsoft visual studio 12.0\vc\include\xmemory0
;	COMDAT ??$_Destroy_range@U?$_Wrap_alloc@V?$allocator@PAVFuzzyTerm@@@std@@@std@@@std@@YAXPAPAVFuzzyTerm@@0AAU?$_Wrap_alloc@V?$allocator@PAVFuzzyTerm@@@std@@@0@@Z
_TEXT	SEGMENT
$T1 = -1						; size = 1
__First$ = 8						; size = 4
__Last$ = 12						; size = 4
__Al$ = 16						; size = 4
??$_Destroy_range@U?$_Wrap_alloc@V?$allocator@PAVFuzzyTerm@@@std@@@std@@@std@@YAXPAPAVFuzzyTerm@@0AAU?$_Wrap_alloc@V?$allocator@PAVFuzzyTerm@@@std@@@0@@Z PROC ; std::_Destroy_range<std::_Wrap_alloc<std::allocator<FuzzyTerm *> > >, COMDAT

; 95   : 	{	// destroy [_First, _Last)

	push	ebp
	mov	ebp, esp
	push	ecx
	mov	DWORD PTR [ebp-4], -858993460		; ccccccccH

; 96   : 	_Destroy_range(_First, _Last, _Al, _Ptr_cat(_First, _Last));

	mov	eax, DWORD PTR __Last$[ebp]
	push	eax
	mov	ecx, DWORD PTR __First$[ebp]
	push	ecx
	call	??$_Ptr_cat@PAVFuzzyTerm@@PAV1@@std@@YA?AU_Scalar_ptr_iterator_tag@0@PAPAVFuzzyTerm@@0@Z ; std::_Ptr_cat<FuzzyTerm *,FuzzyTerm *>
	add	esp, 8
	mov	BYTE PTR $T1[ebp], al
	movzx	edx, BYTE PTR $T1[ebp]
	push	edx
	mov	eax, DWORD PTR __Al$[ebp]
	push	eax
	mov	ecx, DWORD PTR __Last$[ebp]
	push	ecx
	mov	edx, DWORD PTR __First$[ebp]
	push	edx
	call	??$_Destroy_range@U?$_Wrap_alloc@V?$allocator@PAVFuzzyTerm@@@std@@@std@@@std@@YAXPAPAVFuzzyTerm@@0AAU?$_Wrap_alloc@V?$allocator@PAVFuzzyTerm@@@std@@@0@U_Scalar_ptr_iterator_tag@0@@Z ; std::_Destroy_range<std::_Wrap_alloc<std::allocator<FuzzyTerm *> > >
	add	esp, 16					; 00000010H

; 97   : 	}

	add	esp, 4
	cmp	ebp, esp
	call	__RTC_CheckEsp
	mov	esp, ebp
	pop	ebp
	ret	0
??$_Destroy_range@U?$_Wrap_alloc@V?$allocator@PAVFuzzyTerm@@@std@@@std@@@std@@YAXPAPAVFuzzyTerm@@0AAU?$_Wrap_alloc@V?$allocator@PAVFuzzyTerm@@@std@@@0@@Z ENDP ; std::_Destroy_range<std::_Wrap_alloc<std::allocator<FuzzyTerm *> > >
_TEXT	ENDS
; Function compile flags: /Odtp /RTCsu
; File c:\program files (x86)\microsoft visual studio 12.0\vc\include\xmemory0
;	COMDAT ??$destroy@U_Container_proxy@std@@@?$allocator@U_Container_proxy@std@@@std@@QAEXPAU_Container_proxy@1@@Z
_TEXT	SEGMENT
_this$ = -4						; size = 4
__Ptr$ = 8						; size = 4
??$destroy@U_Container_proxy@std@@@?$allocator@U_Container_proxy@std@@@std@@QAEXPAU_Container_proxy@1@@Z PROC ; std::allocator<std::_Container_proxy>::destroy<std::_Container_proxy>, COMDAT
; _this$ = ecx

; 605  : 		void destroy(_Uty *_Ptr)

	push	ebp
	mov	ebp, esp
	push	ecx
	mov	DWORD PTR [ebp-4], -858993460		; ccccccccH
	mov	DWORD PTR _this$[ebp], ecx

; 606  : 		{	// destroy object at _Ptr
; 607  : 		_Ptr->~_Uty();
; 608  : 		}

	mov	esp, ebp
	pop	ebp
	ret	4
??$destroy@U_Container_proxy@std@@@?$allocator@U_Container_proxy@std@@@std@@QAEXPAU_Container_proxy@1@@Z ENDP ; std::allocator<std::_Container_proxy>::destroy<std::_Container_proxy>
_TEXT	ENDS
; Function compile flags: /Odtp /RTCsu
; File c:\program files (x86)\microsoft visual studio 12.0\vc\include\xmemory0
;	COMDAT ??$construct@U_Container_proxy@std@@U12@@?$allocator@U_Container_proxy@std@@@std@@QAEXPAU_Container_proxy@1@$$QAU21@@Z
_TEXT	SEGMENT
tv74 = -28						; size = 4
$T2 = -24						; size = 4
$T3 = -20						; size = 4
_this$ = -16						; size = 4
__$EHRec$ = -12						; size = 12
__Ptr$ = 8						; size = 4
_<_Args_0>$ = 12					; size = 4
??$construct@U_Container_proxy@std@@U12@@?$allocator@U_Container_proxy@std@@@std@@QAEXPAU_Container_proxy@1@$$QAU21@@Z PROC ; std::allocator<std::_Container_proxy>::construct<std::_Container_proxy,std::_Container_proxy>, COMDAT
; _this$ = ecx

; 598  : 		void construct(_Objty *_Ptr, _Types&&... _Args)

	push	ebp
	mov	ebp, esp
	push	-1
	push	__ehhandler$??$construct@U_Container_proxy@std@@U12@@?$allocator@U_Container_proxy@std@@@std@@QAEXPAU_Container_proxy@1@$$QAU21@@Z
	mov	eax, DWORD PTR fs:0
	push	eax
	sub	esp, 16					; 00000010H
	mov	eax, -858993460				; ccccccccH
	mov	DWORD PTR [ebp-28], eax
	mov	DWORD PTR [ebp-24], eax
	mov	DWORD PTR [ebp-20], eax
	mov	DWORD PTR [ebp-16], eax
	mov	eax, DWORD PTR ___security_cookie
	xor	eax, ebp
	push	eax
	lea	eax, DWORD PTR __$EHRec$[ebp]
	mov	DWORD PTR fs:0, eax
	mov	DWORD PTR _this$[ebp], ecx

; 599  : 		{	// construct _Objty(_Types...) at _Ptr
; 600  : 		::new ((void *)_Ptr) _Objty(_STD forward<_Types>(_Args)...);

	mov	eax, DWORD PTR __Ptr$[ebp]
	push	eax
	push	8
	call	??2@YAPAXIPAX@Z				; operator new
	add	esp, 8
	mov	DWORD PTR $T2[ebp], eax
	mov	DWORD PTR __$EHRec$[ebp+8], 0
	cmp	DWORD PTR $T2[ebp], 0
	je	SHORT $LN3@construct
	mov	ecx, DWORD PTR _<_Args_0>$[ebp]
	push	ecx
	call	??$forward@U_Container_proxy@std@@@std@@YA$$QAU_Container_proxy@0@AAU10@@Z ; std::forward<std::_Container_proxy>
	add	esp, 4
	mov	edx, DWORD PTR [eax]
	mov	eax, DWORD PTR [eax+4]
	mov	ecx, DWORD PTR $T2[ebp]
	mov	DWORD PTR [ecx], edx
	mov	DWORD PTR [ecx+4], eax
	mov	edx, DWORD PTR $T2[ebp]
	mov	DWORD PTR tv74[ebp], edx
	jmp	SHORT $LN4@construct
$LN3@construct:
	mov	DWORD PTR tv74[ebp], 0
$LN4@construct:
	mov	eax, DWORD PTR tv74[ebp]
	mov	DWORD PTR $T3[ebp], eax
	mov	DWORD PTR __$EHRec$[ebp+8], -1

; 601  : 		}

	mov	ecx, DWORD PTR __$EHRec$[ebp]
	mov	DWORD PTR fs:0, ecx
	pop	ecx
	add	esp, 28					; 0000001cH
	cmp	ebp, esp
	call	__RTC_CheckEsp
	mov	esp, ebp
	pop	ebp
	ret	8
_TEXT	ENDS
;	COMDAT text$x
text$x	SEGMENT
__unwindfunclet$??$construct@U_Container_proxy@std@@U12@@?$allocator@U_Container_proxy@std@@@std@@QAEXPAU_Container_proxy@1@$$QAU21@@Z$0:
	mov	eax, DWORD PTR __Ptr$[ebp]
	push	eax
	mov	eax, DWORD PTR $T2[ebp]
	push	eax
	call	??3@YAXPAX0@Z				; operator delete
	add	esp, 8
	ret	0
__ehhandler$??$construct@U_Container_proxy@std@@U12@@?$allocator@U_Container_proxy@std@@@std@@QAEXPAU_Container_proxy@1@$$QAU21@@Z:
	mov	edx, DWORD PTR [esp+8]
	lea	eax, DWORD PTR [edx+12]
	mov	ecx, DWORD PTR [edx-20]
	xor	ecx, eax
	call	@__security_check_cookie@4
	mov	eax, OFFSET __ehfuncinfo$??$construct@U_Container_proxy@std@@U12@@?$allocator@U_Container_proxy@std@@@std@@QAEXPAU_Container_proxy@1@$$QAU21@@Z
	jmp	___CxxFrameHandler3
text$x	ENDS
??$construct@U_Container_proxy@std@@U12@@?$allocator@U_Container_proxy@std@@@std@@QAEXPAU_Container_proxy@1@$$QAU21@@Z ENDP ; std::allocator<std::_Container_proxy>::construct<std::_Container_proxy,std::_Container_proxy>
; Function compile flags: /Odtp /RTCsu
; File c:\program files (x86)\microsoft visual studio 12.0\vc\include\xmemory0
;	COMDAT ?allocate@?$allocator@U_Container_proxy@std@@@std@@QAEPAU_Container_proxy@2@I@Z
_TEXT	SEGMENT
_this$ = -4						; size = 4
__Count$ = 8						; size = 4
?allocate@?$allocator@U_Container_proxy@std@@@std@@QAEPAU_Container_proxy@2@I@Z PROC ; std::allocator<std::_Container_proxy>::allocate, COMDAT
; _this$ = ecx

; 577  : 		{	// allocate array of _Count elements

	push	ebp
	mov	ebp, esp
	push	ecx
	mov	DWORD PTR [ebp-4], -858993460		; ccccccccH
	mov	DWORD PTR _this$[ebp], ecx

; 578  : 		return (_Allocate(_Count, (pointer)0));

	push	0
	mov	eax, DWORD PTR __Count$[ebp]
	push	eax
	call	??$_Allocate@U_Container_proxy@std@@@std@@YAPAU_Container_proxy@0@IPAU10@@Z ; std::_Allocate<std::_Container_proxy>
	add	esp, 8

; 579  : 		}

	add	esp, 4
	cmp	ebp, esp
	call	__RTC_CheckEsp
	mov	esp, ebp
	pop	ebp
	ret	4
?allocate@?$allocator@U_Container_proxy@std@@@std@@QAEPAU_Container_proxy@2@I@Z ENDP ; std::allocator<std::_Container_proxy>::allocate
_TEXT	ENDS
; Function compile flags: /Odtp /RTCsu
; File c:\program files (x86)\microsoft visual studio 12.0\vc\include\xmemory0
;	COMDAT ?deallocate@?$allocator@U_Container_proxy@std@@@std@@QAEXPAU_Container_proxy@2@I@Z
_TEXT	SEGMENT
_this$ = -4						; size = 4
__Ptr$ = 8						; size = 4
___formal$ = 12						; size = 4
?deallocate@?$allocator@U_Container_proxy@std@@@std@@QAEXPAU_Container_proxy@2@I@Z PROC ; std::allocator<std::_Container_proxy>::deallocate, COMDAT
; _this$ = ecx

; 572  : 		{	// deallocate object at _Ptr, ignore size

	push	ebp
	mov	ebp, esp
	push	ecx
	mov	DWORD PTR [ebp-4], -858993460		; ccccccccH
	mov	DWORD PTR _this$[ebp], ecx

; 573  : 		::operator delete(_Ptr);

	mov	eax, DWORD PTR __Ptr$[ebp]
	push	eax
	call	??3@YAXPAX@Z				; operator delete
	add	esp, 4

; 574  : 		}

	add	esp, 4
	cmp	ebp, esp
	call	__RTC_CheckEsp
	mov	esp, ebp
	pop	ebp
	ret	8
?deallocate@?$allocator@U_Container_proxy@std@@@std@@QAEXPAU_Container_proxy@2@I@Z ENDP ; std::allocator<std::_Container_proxy>::deallocate
_TEXT	ENDS
; Function compile flags: /Odtp /RTCsu
; File c:\program files (x86)\microsoft visual studio 12.0\vc\include\xmemory0
;	COMDAT ??0?$allocator@U_Container_proxy@std@@@std@@QAE@XZ
_TEXT	SEGMENT
_this$ = -4						; size = 4
??0?$allocator@U_Container_proxy@std@@@std@@QAE@XZ PROC	; std::allocator<std::_Container_proxy>::allocator<std::_Container_proxy>, COMDAT
; _this$ = ecx

; 552  : 	allocator() _THROW0()

	push	ebp
	mov	ebp, esp
	push	ecx
	mov	DWORD PTR [ebp-4], -858993460		; ccccccccH
	mov	DWORD PTR _this$[ebp], ecx

; 553  : 		{	// construct default allocator (do nothing)
; 554  : 		}

	mov	eax, DWORD PTR _this$[ebp]
	mov	esp, ebp
	pop	ebp
	ret	0
??0?$allocator@U_Container_proxy@std@@@std@@QAE@XZ ENDP	; std::allocator<std::_Container_proxy>::allocator<std::_Container_proxy>
_TEXT	ENDS
; Function compile flags: /Odtp /RTCsu
; File c:\program files (x86)\microsoft visual studio 12.0\vc\include\xstddef
;	COMDAT ??$addressof@D@std@@YAPADAAD@Z
_TEXT	SEGMENT
__Val$ = 8						; size = 4
??$addressof@D@std@@YAPADAAD@Z PROC			; std::addressof<char>, COMDAT

; 92   : 	{	// return address of _Val

	push	ebp
	mov	ebp, esp

; 93   : 	return (reinterpret_cast<_Ty *>(
; 94   : 		(&const_cast<char&>(
; 95   : 		reinterpret_cast<const volatile char&>(_Val)))));

	mov	eax, DWORD PTR __Val$[ebp]

; 96   : 	}

	pop	ebp
	ret	0
??$addressof@D@std@@YAPADAAD@Z ENDP			; std::addressof<char>
_TEXT	ENDS
; Function compile flags: /Odtp /RTCsu
; File c:\program files (x86)\microsoft visual studio 12.0\vc\include\xmemory0
;	COMDAT ??$destroy@PAD@?$_Wrap_alloc@V?$allocator@D@std@@@std@@QAEXPAPAD@Z
_TEXT	SEGMENT
_this$ = -4						; size = 4
__Ptr$ = 8						; size = 4
??$destroy@PAD@?$_Wrap_alloc@V?$allocator@D@std@@@std@@QAEXPAPAD@Z PROC ; std::_Wrap_alloc<std::allocator<char> >::destroy<char *>, COMDAT
; _this$ = ecx

; 877  : 		void destroy(_Ty *_Ptr)

	push	ebp
	mov	ebp, esp
	push	ecx
	mov	DWORD PTR [ebp-4], -858993460		; ccccccccH
	mov	DWORD PTR _this$[ebp], ecx

; 878  : 		{	// destroy object at _Ptr
; 879  : 		_Mytraits::destroy(*this, _Ptr);

	mov	eax, DWORD PTR __Ptr$[ebp]
	push	eax
	mov	ecx, DWORD PTR _this$[ebp]
	push	ecx
	call	??$destroy@PAD@?$allocator_traits@V?$allocator@D@std@@@std@@SAXAAV?$allocator@D@1@PAPAD@Z ; std::allocator_traits<std::allocator<char> >::destroy<char *>
	add	esp, 8

; 880  : 		}

	add	esp, 4
	cmp	ebp, esp
	call	__RTC_CheckEsp
	mov	esp, ebp
	pop	ebp
	ret	4
??$destroy@PAD@?$_Wrap_alloc@V?$allocator@D@std@@@std@@QAEXPAPAD@Z ENDP ; std::_Wrap_alloc<std::allocator<char> >::destroy<char *>
_TEXT	ENDS
; Function compile flags: /Odtp /RTCsu
; File c:\program files (x86)\microsoft visual studio 12.0\vc\include\xmemory0
;	COMDAT ??$construct@PADAAPAD@?$_Wrap_alloc@V?$allocator@D@std@@@std@@QAEXPAPADAAPAD@Z
_TEXT	SEGMENT
_this$ = -4						; size = 4
__Ptr$ = 8						; size = 4
_<_Args_0>$ = 12					; size = 4
??$construct@PADAAPAD@?$_Wrap_alloc@V?$allocator@D@std@@@std@@QAEXPAPADAAPAD@Z PROC ; std::_Wrap_alloc<std::allocator<char> >::construct<char *,char * &>, COMDAT
; _this$ = ecx

; 868  : 		void construct(_Ty *_Ptr,

	push	ebp
	mov	ebp, esp
	push	ecx
	mov	DWORD PTR [ebp-4], -858993460		; ccccccccH
	mov	DWORD PTR _this$[ebp], ecx

; 869  : 			_Types&&... _Args)
; 870  : 		{	// construct _Ty(_Types...) at _Ptr
; 871  : 		_Mytraits::construct(*this, _Ptr,
; 872  : 			_STD forward<_Types>(_Args)...);

	mov	eax, DWORD PTR _<_Args_0>$[ebp]
	push	eax
	call	??$forward@AAPAD@std@@YAAAPADAAPAD@Z	; std::forward<char * &>
	add	esp, 4
	push	eax
	mov	ecx, DWORD PTR __Ptr$[ebp]
	push	ecx
	mov	edx, DWORD PTR _this$[ebp]
	push	edx
	call	??$construct@PADAAPAD@?$allocator_traits@V?$allocator@D@std@@@std@@SAXAAV?$allocator@D@1@PAPADAAPAD@Z ; std::allocator_traits<std::allocator<char> >::construct<char *,char * &>
	add	esp, 12					; 0000000cH

; 873  : 		}

	add	esp, 4
	cmp	ebp, esp
	call	__RTC_CheckEsp
	mov	esp, ebp
	pop	ebp
	ret	8
??$construct@PADAAPAD@?$_Wrap_alloc@V?$allocator@D@std@@@std@@QAEXPAPADAAPAD@Z ENDP ; std::_Wrap_alloc<std::allocator<char> >::construct<char *,char * &>
_TEXT	ENDS
; Function compile flags: /Odtp /RTCsu
; File c:\program files (x86)\microsoft visual studio 12.0\vc\include\xmemory0
;	COMDAT ??$construct@PAVFuzzyTerm@@PAV1@@?$_Wrap_alloc@V?$allocator@PAVFuzzyTerm@@@std@@@std@@QAEXPAPAVFuzzyTerm@@$$QAPAV2@@Z
_TEXT	SEGMENT
_this$ = -4						; size = 4
__Ptr$ = 8						; size = 4
_<_Args_0>$ = 12					; size = 4
??$construct@PAVFuzzyTerm@@PAV1@@?$_Wrap_alloc@V?$allocator@PAVFuzzyTerm@@@std@@@std@@QAEXPAPAVFuzzyTerm@@$$QAPAV2@@Z PROC ; std::_Wrap_alloc<std::allocator<FuzzyTerm *> >::construct<FuzzyTerm *,FuzzyTerm *>, COMDAT
; _this$ = ecx

; 868  : 		void construct(_Ty *_Ptr,

	push	ebp
	mov	ebp, esp
	push	ecx
	mov	DWORD PTR [ebp-4], -858993460		; ccccccccH
	mov	DWORD PTR _this$[ebp], ecx

; 869  : 			_Types&&... _Args)
; 870  : 		{	// construct _Ty(_Types...) at _Ptr
; 871  : 		_Mytraits::construct(*this, _Ptr,
; 872  : 			_STD forward<_Types>(_Args)...);

	mov	eax, DWORD PTR _<_Args_0>$[ebp]
	push	eax
	call	??$forward@PAVFuzzyTerm@@@std@@YA$$QAPAVFuzzyTerm@@AAPAV1@@Z ; std::forward<FuzzyTerm *>
	add	esp, 4
	push	eax
	mov	ecx, DWORD PTR __Ptr$[ebp]
	push	ecx
	mov	edx, DWORD PTR _this$[ebp]
	push	edx
	call	??$construct@PAVFuzzyTerm@@PAV1@@?$allocator_traits@V?$allocator@PAVFuzzyTerm@@@std@@@std@@SAXAAV?$allocator@PAVFuzzyTerm@@@1@PAPAVFuzzyTerm@@$$QAPAV3@@Z ; std::allocator_traits<std::allocator<FuzzyTerm *> >::construct<FuzzyTerm *,FuzzyTerm *>
	add	esp, 12					; 0000000cH

; 873  : 		}

	add	esp, 4
	cmp	ebp, esp
	call	__RTC_CheckEsp
	mov	esp, ebp
	pop	ebp
	ret	8
??$construct@PAVFuzzyTerm@@PAV1@@?$_Wrap_alloc@V?$allocator@PAVFuzzyTerm@@@std@@@std@@QAEXPAPAVFuzzyTerm@@$$QAPAV2@@Z ENDP ; std::_Wrap_alloc<std::allocator<FuzzyTerm *> >::construct<FuzzyTerm *,FuzzyTerm *>
_TEXT	ENDS
; Function compile flags: /Odtp /RTCsu
; File c:\program files (x86)\microsoft visual studio 12.0\vc\include\type_traits
;	COMDAT ??$forward@PAVFuzzyTerm@@@std@@YA$$QAPAVFuzzyTerm@@AAPAV1@@Z
_TEXT	SEGMENT
__Arg$ = 8						; size = 4
??$forward@PAVFuzzyTerm@@@std@@YA$$QAPAVFuzzyTerm@@AAPAV1@@Z PROC ; std::forward<FuzzyTerm *>, COMDAT

; 1504 : 	{	// forward an lvalue

	push	ebp
	mov	ebp, esp

; 1505 : 	return (static_cast<_Ty&&>(_Arg));

	mov	eax, DWORD PTR __Arg$[ebp]

; 1506 : 	}

	pop	ebp
	ret	0
??$forward@PAVFuzzyTerm@@@std@@YA$$QAPAVFuzzyTerm@@AAPAV1@@Z ENDP ; std::forward<FuzzyTerm *>
_TEXT	ENDS
; Function compile flags: /Odtp /RTCsu
; File c:\program files (x86)\microsoft visual studio 12.0\vc\include\xstddef
;	COMDAT ??$addressof@PAVFuzzyTerm@@@std@@YAPAPAVFuzzyTerm@@AAPAV1@@Z
_TEXT	SEGMENT
__Val$ = 8						; size = 4
??$addressof@PAVFuzzyTerm@@@std@@YAPAPAVFuzzyTerm@@AAPAV1@@Z PROC ; std::addressof<FuzzyTerm *>, COMDAT

; 92   : 	{	// return address of _Val

	push	ebp
	mov	ebp, esp

; 93   : 	return (reinterpret_cast<_Ty *>(
; 94   : 		(&const_cast<char&>(
; 95   : 		reinterpret_cast<const volatile char&>(_Val)))));

	mov	eax, DWORD PTR __Val$[ebp]

; 96   : 	}

	pop	ebp
	ret	0
??$addressof@PAVFuzzyTerm@@@std@@YAPAPAVFuzzyTerm@@AAPAV1@@Z ENDP ; std::addressof<FuzzyTerm *>
_TEXT	ENDS
; Function compile flags: /Odtp /RTCsu
;	COMDAT ??4?$_Vector_iterator@V?$_Vector_val@U?$_Simple_types@PAVFuzzyTerm@@@std@@@std@@@std@@QAEAAV01@ABV01@@Z
_TEXT	SEGMENT
_this$ = -4						; size = 4
___that$ = 8						; size = 4
??4?$_Vector_iterator@V?$_Vector_val@U?$_Simple_types@PAVFuzzyTerm@@@std@@@std@@@std@@QAEAAV01@ABV01@@Z PROC ; std::_Vector_iterator<std::_Vector_val<std::_Simple_types<FuzzyTerm *> > >::operator=, COMDAT
; _this$ = ecx
	push	ebp
	mov	ebp, esp
	push	ecx
	mov	DWORD PTR [ebp-4], -858993460		; ccccccccH
	mov	DWORD PTR _this$[ebp], ecx
	mov	eax, DWORD PTR ___that$[ebp]
	push	eax
	mov	ecx, DWORD PTR _this$[ebp]
	call	??4?$_Vector_const_iterator@V?$_Vector_val@U?$_Simple_types@PAVFuzzyTerm@@@std@@@std@@@std@@QAEAAV01@ABV01@@Z
	mov	eax, DWORD PTR _this$[ebp]
	add	esp, 4
	cmp	ebp, esp
	call	__RTC_CheckEsp
	mov	esp, ebp
	pop	ebp
	ret	4
??4?$_Vector_iterator@V?$_Vector_val@U?$_Simple_types@PAVFuzzyTerm@@@std@@@std@@@std@@QAEAAV01@ABV01@@Z ENDP ; std::_Vector_iterator<std::_Vector_val<std::_Simple_types<FuzzyTerm *> > >::operator=
_TEXT	ENDS
; Function compile flags: /Odtp /RTCsu
;	COMDAT ??1?$_Vector_iterator@V?$_Vector_val@U?$_Simple_types@PAVFuzzyTerm@@@std@@@std@@@std@@QAE@XZ
_TEXT	SEGMENT
_this$ = -4						; size = 4
??1?$_Vector_iterator@V?$_Vector_val@U?$_Simple_types@PAVFuzzyTerm@@@std@@@std@@@std@@QAE@XZ PROC ; std::_Vector_iterator<std::_Vector_val<std::_Simple_types<FuzzyTerm *> > >::~_Vector_iterator<std::_Vector_val<std::_Simple_types<FuzzyTerm *> > >, COMDAT
; _this$ = ecx
	push	ebp
	mov	ebp, esp
	push	ecx
	mov	DWORD PTR [ebp-4], -858993460		; ccccccccH
	mov	DWORD PTR _this$[ebp], ecx
	mov	ecx, DWORD PTR _this$[ebp]
	call	??1?$_Vector_const_iterator@V?$_Vector_val@U?$_Simple_types@PAVFuzzyTerm@@@std@@@std@@@std@@QAE@XZ
	add	esp, 4
	cmp	ebp, esp
	call	__RTC_CheckEsp
	mov	esp, ebp
	pop	ebp
	ret	0
??1?$_Vector_iterator@V?$_Vector_val@U?$_Simple_types@PAVFuzzyTerm@@@std@@@std@@@std@@QAE@XZ ENDP ; std::_Vector_iterator<std::_Vector_val<std::_Simple_types<FuzzyTerm *> > >::~_Vector_iterator<std::_Vector_val<std::_Simple_types<FuzzyTerm *> > >
_TEXT	ENDS
; Function compile flags: /Odtp /RTCsu
; File c:\program files (x86)\microsoft visual studio 12.0\vc\include\vector
;	COMDAT ??E?$_Vector_iterator@V?$_Vector_val@U?$_Simple_types@PAVFuzzyTerm@@@std@@@std@@@std@@QAEAAV01@XZ
_TEXT	SEGMENT
_this$ = -4						; size = 4
??E?$_Vector_iterator@V?$_Vector_val@U?$_Simple_types@PAVFuzzyTerm@@@std@@@std@@@std@@QAEAAV01@XZ PROC ; std::_Vector_iterator<std::_Vector_val<std::_Simple_types<FuzzyTerm *> > >::operator++, COMDAT
; _this$ = ecx

; 333  : 		{	// preincrement

	push	ebp
	mov	ebp, esp
	push	ecx
	mov	DWORD PTR [ebp-4], -858993460		; ccccccccH
	mov	DWORD PTR _this$[ebp], ecx

; 334  : 		++*(_Mybase *)this;

	mov	ecx, DWORD PTR _this$[ebp]
	call	??E?$_Vector_const_iterator@V?$_Vector_val@U?$_Simple_types@PAVFuzzyTerm@@@std@@@std@@@std@@QAEAAV01@XZ ; std::_Vector_const_iterator<std::_Vector_val<std::_Simple_types<FuzzyTerm *> > >::operator++

; 335  : 		return (*this);

	mov	eax, DWORD PTR _this$[ebp]

; 336  : 		}

	add	esp, 4
	cmp	ebp, esp
	call	__RTC_CheckEsp
	mov	esp, ebp
	pop	ebp
	ret	0
??E?$_Vector_iterator@V?$_Vector_val@U?$_Simple_types@PAVFuzzyTerm@@@std@@@std@@@std@@QAEAAV01@XZ ENDP ; std::_Vector_iterator<std::_Vector_val<std::_Simple_types<FuzzyTerm *> > >::operator++
_TEXT	ENDS
; Function compile flags: /Odtp /RTCsu
; File c:\program files (x86)\microsoft visual studio 12.0\vc\include\vector
;	COMDAT ??D?$_Vector_iterator@V?$_Vector_val@U?$_Simple_types@PAVFuzzyTerm@@@std@@@std@@@std@@QBEAAPAVFuzzyTerm@@XZ
_TEXT	SEGMENT
_this$ = -4						; size = 4
??D?$_Vector_iterator@V?$_Vector_val@U?$_Simple_types@PAVFuzzyTerm@@@std@@@std@@@std@@QBEAAPAVFuzzyTerm@@XZ PROC ; std::_Vector_iterator<std::_Vector_val<std::_Simple_types<FuzzyTerm *> > >::operator*, COMDAT
; _this$ = ecx

; 323  : 		{	// return designated object

	push	ebp
	mov	ebp, esp
	push	ecx
	mov	DWORD PTR [ebp-4], -858993460		; ccccccccH
	mov	DWORD PTR _this$[ebp], ecx

; 324  : 		return ((reference)**(_Mybase *)this);

	mov	ecx, DWORD PTR _this$[ebp]
	call	??D?$_Vector_const_iterator@V?$_Vector_val@U?$_Simple_types@PAVFuzzyTerm@@@std@@@std@@@std@@QBEABQAVFuzzyTerm@@XZ ; std::_Vector_const_iterator<std::_Vector_val<std::_Simple_types<FuzzyTerm *> > >::operator*

; 325  : 		}

	add	esp, 4
	cmp	ebp, esp
	call	__RTC_CheckEsp
	mov	esp, ebp
	pop	ebp
	ret	0
??D?$_Vector_iterator@V?$_Vector_val@U?$_Simple_types@PAVFuzzyTerm@@@std@@@std@@@std@@QBEAAPAVFuzzyTerm@@XZ ENDP ; std::_Vector_iterator<std::_Vector_val<std::_Simple_types<FuzzyTerm *> > >::operator*
_TEXT	ENDS
; Function compile flags: /Odtp /RTCsu
; File c:\program files (x86)\microsoft visual studio 12.0\vc\include\vector
;	COMDAT ??0?$_Vector_iterator@V?$_Vector_val@U?$_Simple_types@PAVFuzzyTerm@@@std@@@std@@@std@@QAE@PAPAVFuzzyTerm@@PBU_Container_base12@1@@Z
_TEXT	SEGMENT
_this$ = -4						; size = 4
__Parg$ = 8						; size = 4
__Pvector$ = 12						; size = 4
??0?$_Vector_iterator@V?$_Vector_val@U?$_Simple_types@PAVFuzzyTerm@@@std@@@std@@@std@@QAE@PAPAVFuzzyTerm@@PBU_Container_base12@1@@Z PROC ; std::_Vector_iterator<std::_Vector_val<std::_Simple_types<FuzzyTerm *> > >::_Vector_iterator<std::_Vector_val<std::_Simple_types<FuzzyTerm *> > >, COMDAT
; _this$ = ecx

; 306  : 		{	// construct with pointer _Parg

	push	ebp
	mov	ebp, esp
	push	ecx
	mov	DWORD PTR [ebp-4], -858993460		; ccccccccH
	mov	DWORD PTR _this$[ebp], ecx
	mov	eax, DWORD PTR __Pvector$[ebp]
	push	eax
	mov	ecx, DWORD PTR __Parg$[ebp]
	push	ecx
	mov	ecx, DWORD PTR _this$[ebp]
	call	??0?$_Vector_const_iterator@V?$_Vector_val@U?$_Simple_types@PAVFuzzyTerm@@@std@@@std@@@std@@QAE@PAPAVFuzzyTerm@@PBU_Container_base12@1@@Z ; std::_Vector_const_iterator<std::_Vector_val<std::_Simple_types<FuzzyTerm *> > >::_Vector_const_iterator<std::_Vector_val<std::_Simple_types<FuzzyTerm *> > >

; 307  : 		}

	mov	eax, DWORD PTR _this$[ebp]
	add	esp, 4
	cmp	ebp, esp
	call	__RTC_CheckEsp
	mov	esp, ebp
	pop	ebp
	ret	8
??0?$_Vector_iterator@V?$_Vector_val@U?$_Simple_types@PAVFuzzyTerm@@@std@@@std@@@std@@QAE@PAPAVFuzzyTerm@@PBU_Container_base12@1@@Z ENDP ; std::_Vector_iterator<std::_Vector_val<std::_Simple_types<FuzzyTerm *> > >::_Vector_iterator<std::_Vector_val<std::_Simple_types<FuzzyTerm *> > >
_TEXT	ENDS
; Function compile flags: /Odtp /RTCsu
; File c:\program files (x86)\microsoft visual studio 12.0\vc\include\vector
;	COMDAT ??0?$_Vector_iterator@V?$_Vector_val@U?$_Simple_types@PAVFuzzyTerm@@@std@@@std@@@std@@QAE@XZ
_TEXT	SEGMENT
_this$ = -4						; size = 4
??0?$_Vector_iterator@V?$_Vector_val@U?$_Simple_types@PAVFuzzyTerm@@@std@@@std@@@std@@QAE@XZ PROC ; std::_Vector_iterator<std::_Vector_val<std::_Simple_types<FuzzyTerm *> > >::_Vector_iterator<std::_Vector_val<std::_Simple_types<FuzzyTerm *> > >, COMDAT
; _this$ = ecx

; 300  : 	_Vector_iterator()

	push	ebp
	mov	ebp, esp
	push	ecx
	mov	DWORD PTR [ebp-4], -858993460		; ccccccccH
	mov	DWORD PTR _this$[ebp], ecx
	mov	ecx, DWORD PTR _this$[ebp]
	call	??0?$_Vector_const_iterator@V?$_Vector_val@U?$_Simple_types@PAVFuzzyTerm@@@std@@@std@@@std@@QAE@XZ ; std::_Vector_const_iterator<std::_Vector_val<std::_Simple_types<FuzzyTerm *> > >::_Vector_const_iterator<std::_Vector_val<std::_Simple_types<FuzzyTerm *> > >

; 301  : 		{	// construct with null vector pointer
; 302  : 		}

	mov	eax, DWORD PTR _this$[ebp]
	add	esp, 4
	cmp	ebp, esp
	call	__RTC_CheckEsp
	mov	esp, ebp
	pop	ebp
	ret	0
??0?$_Vector_iterator@V?$_Vector_val@U?$_Simple_types@PAVFuzzyTerm@@@std@@@std@@@std@@QAE@XZ ENDP ; std::_Vector_iterator<std::_Vector_val<std::_Simple_types<FuzzyTerm *> > >::_Vector_iterator<std::_Vector_val<std::_Simple_types<FuzzyTerm *> > >
_TEXT	ENDS
; Function compile flags: /Odtp /RTCsu
;	COMDAT ??4?$_Vector_const_iterator@V?$_Vector_val@U?$_Simple_types@PAVFuzzyTerm@@@std@@@std@@@std@@QAEAAV01@ABV01@@Z
_TEXT	SEGMENT
_this$ = -4						; size = 4
___that$ = 8						; size = 4
??4?$_Vector_const_iterator@V?$_Vector_val@U?$_Simple_types@PAVFuzzyTerm@@@std@@@std@@@std@@QAEAAV01@ABV01@@Z PROC ; std::_Vector_const_iterator<std::_Vector_val<std::_Simple_types<FuzzyTerm *> > >::operator=, COMDAT
; _this$ = ecx
	push	ebp
	mov	ebp, esp
	push	ecx
	mov	DWORD PTR [ebp-4], -858993460		; ccccccccH
	mov	DWORD PTR _this$[ebp], ecx
	mov	eax, DWORD PTR ___that$[ebp]
	push	eax
	mov	ecx, DWORD PTR _this$[ebp]
	call	??4?$_Iterator012@Urandom_access_iterator_tag@std@@PAVFuzzyTerm@@HPBQAV3@ABQAV3@U_Iterator_base12@2@@std@@QAEAAU01@ABU01@@Z
	mov	ecx, DWORD PTR _this$[ebp]
	mov	edx, DWORD PTR ___that$[ebp]
	mov	eax, DWORD PTR [edx+8]
	mov	DWORD PTR [ecx+8], eax
	mov	eax, DWORD PTR _this$[ebp]
	add	esp, 4
	cmp	ebp, esp
	call	__RTC_CheckEsp
	mov	esp, ebp
	pop	ebp
	ret	4
??4?$_Vector_const_iterator@V?$_Vector_val@U?$_Simple_types@PAVFuzzyTerm@@@std@@@std@@@std@@QAEAAV01@ABV01@@Z ENDP ; std::_Vector_const_iterator<std::_Vector_val<std::_Simple_types<FuzzyTerm *> > >::operator=
_TEXT	ENDS
; Function compile flags: /Odtp /RTCsu
;	COMDAT ??1?$_Vector_const_iterator@V?$_Vector_val@U?$_Simple_types@PAVFuzzyTerm@@@std@@@std@@@std@@QAE@XZ
_TEXT	SEGMENT
_this$ = -4						; size = 4
??1?$_Vector_const_iterator@V?$_Vector_val@U?$_Simple_types@PAVFuzzyTerm@@@std@@@std@@@std@@QAE@XZ PROC ; std::_Vector_const_iterator<std::_Vector_val<std::_Simple_types<FuzzyTerm *> > >::~_Vector_const_iterator<std::_Vector_val<std::_Simple_types<FuzzyTerm *> > >, COMDAT
; _this$ = ecx
	push	ebp
	mov	ebp, esp
	push	ecx
	mov	DWORD PTR [ebp-4], -858993460		; ccccccccH
	mov	DWORD PTR _this$[ebp], ecx
	mov	ecx, DWORD PTR _this$[ebp]
	call	??1?$_Iterator012@Urandom_access_iterator_tag@std@@PAVFuzzyTerm@@HPBQAV3@ABQAV3@U_Iterator_base12@2@@std@@QAE@XZ
	add	esp, 4
	cmp	ebp, esp
	call	__RTC_CheckEsp
	mov	esp, ebp
	pop	ebp
	ret	0
??1?$_Vector_const_iterator@V?$_Vector_val@U?$_Simple_types@PAVFuzzyTerm@@@std@@@std@@@std@@QAE@XZ ENDP ; std::_Vector_const_iterator<std::_Vector_val<std::_Simple_types<FuzzyTerm *> > >::~_Vector_const_iterator<std::_Vector_val<std::_Simple_types<FuzzyTerm *> > >
_TEXT	ENDS
; Function compile flags: /Odtp /RTCsu
; File c:\program files (x86)\microsoft visual studio 12.0\vc\include\vector
;	COMDAT ?_Compat@?$_Vector_const_iterator@V?$_Vector_val@U?$_Simple_types@PAVFuzzyTerm@@@std@@@std@@@std@@QBEXABV12@@Z
_TEXT	SEGMENT
_this$ = -4						; size = 4
__Right$ = 8						; size = 4
?_Compat@?$_Vector_const_iterator@V?$_Vector_val@U?$_Simple_types@PAVFuzzyTerm@@@std@@@std@@@std@@QBEXABV12@@Z PROC ; std::_Vector_const_iterator<std::_Vector_val<std::_Simple_types<FuzzyTerm *> > >::_Compat, COMDAT
; _this$ = ecx

; 236  : 		{	// test for compatible iterator pair

	push	ebp
	mov	ebp, esp
	push	ecx
	push	esi
	mov	DWORD PTR [ebp-4], -858993460		; ccccccccH
	mov	DWORD PTR _this$[ebp], ecx

; 237  : 		if (this->_Getcont() == 0
; 238  : 			|| this->_Getcont() != _Right._Getcont())

	mov	ecx, DWORD PTR _this$[ebp]
	call	?_Getcont@_Iterator_base12@std@@QBEPBU_Container_base12@2@XZ ; std::_Iterator_base12::_Getcont
	test	eax, eax
	je	SHORT $LN1@Compat
	mov	ecx, DWORD PTR _this$[ebp]
	call	?_Getcont@_Iterator_base12@std@@QBEPBU_Container_base12@2@XZ ; std::_Iterator_base12::_Getcont
	mov	esi, eax
	mov	ecx, DWORD PTR __Right$[ebp]
	call	?_Getcont@_Iterator_base12@std@@QBEPBU_Container_base12@2@XZ ; std::_Iterator_base12::_Getcont
	cmp	esi, eax
	je	SHORT $LN3@Compat
$LN1@Compat:

; 239  : 			{	// report error
; 240  : 			_DEBUG_ERROR("vector iterators incompatible");

	push	240					; 000000f0H
	push	OFFSET ??_C@_1IM@EINEHPHE@?$AAC?$AA?3?$AA?2?$AAP?$AAr?$AAo?$AAg?$AAr?$AAa?$AAm?$AA?5?$AAF?$AAi?$AAl?$AAe?$AAs?$AA?5?$AA?$CI?$AAx?$AA8?$AA6?$AA?$CJ?$AA?2?$AAM?$AAi?$AAc?$AAr?$AAo?$AAs?$AAo?$AAf?$AAt@
	push	OFFSET ??_C@_1DM@HINDPMBP@?$AAv?$AAe?$AAc?$AAt?$AAo?$AAr?$AA?5?$AAi?$AAt?$AAe?$AAr?$AAa?$AAt?$AAo?$AAr?$AAs?$AA?5?$AAi?$AAn?$AAc?$AAo?$AAm?$AAp?$AAa?$AAt?$AAi?$AAb?$AAl?$AAe?$AA?$AA@
	call	?_Debug_message@std@@YAXPB_W0I@Z	; std::_Debug_message
	add	esp, 12					; 0000000cH

; 241  : 			_SCL_SECURE_INVALID_ARGUMENT;

	mov	eax, OFFSET ??_C@_0CI@FNPHFCCM@Standard?5C?$CL?$CL?5Libraries?5Invalid?5A@
	test	eax, eax
	je	SHORT $LN5@Compat
	xor	ecx, ecx
	jne	SHORT $LN6@Compat
$LN5@Compat:
	push	OFFSET ??_C@_1FO@GJIHNDLM@?$AA?$CC?$AAS?$AAt?$AAa?$AAn?$AAd?$AAa?$AAr?$AAd?$AA?5?$AAC?$AA?$CL?$AA?$CL?$AA?5?$AAL?$AAi?$AAb?$AAr?$AAa?$AAr?$AAi?$AAe?$AAs?$AA?5?$AAI?$AAn?$AAv?$AAa?$AAl?$AAi?$AAd?$AA?5@
	push	OFFSET ??_C@_15GANGMFKL@?$AA?$CF?$AAs?$AA?$AA@
	push	0
	push	241					; 000000f1H
	push	OFFSET ??_C@_1IM@EINEHPHE@?$AAC?$AA?3?$AA?2?$AAP?$AAr?$AAo?$AAg?$AAr?$AAa?$AAm?$AA?5?$AAF?$AAi?$AAl?$AAe?$AAs?$AA?5?$AA?$CI?$AAx?$AA8?$AA6?$AA?$CJ?$AA?2?$AAM?$AAi?$AAc?$AAr?$AAo?$AAs?$AAo?$AAf?$AAt@
	push	2
	call	__CrtDbgReportW
	add	esp, 24					; 00000018H
	cmp	eax, 1
	jne	SHORT $LN6@Compat
	int	3
$LN6@Compat:
	push	0
	push	241					; 000000f1H
	push	OFFSET ??_C@_1IM@EINEHPHE@?$AAC?$AA?3?$AA?2?$AAP?$AAr?$AAo?$AAg?$AAr?$AAa?$AAm?$AA?5?$AAF?$AAi?$AAl?$AAe?$AAs?$AA?5?$AA?$CI?$AAx?$AA8?$AA6?$AA?$CJ?$AA?2?$AAM?$AAi?$AAc?$AAr?$AAo?$AAs?$AAo?$AAf?$AAt@
	push	OFFSET ??_C@_1NK@PBOLGCJB@?$AAs?$AAt?$AAd?$AA?3?$AA?3?$AA_?$AAV?$AAe?$AAc?$AAt?$AAo?$AAr?$AA_?$AAc?$AAo?$AAn?$AAs?$AAt?$AA_?$AAi?$AAt?$AAe?$AAr?$AAa?$AAt?$AAo?$AAr?$AA?$DM?$AAc?$AAl?$AAa?$AAs@
	push	OFFSET ??_C@_1CG@JNLFBNGN@?$AA?$CC?$AAi?$AAn?$AAv?$AAa?$AAl?$AAi?$AAd?$AA?5?$AAa?$AAr?$AAg?$AAu?$AAm?$AAe?$AAn?$AAt?$AA?$CC?$AA?$AA@
	call	__invalid_parameter
	add	esp, 20					; 00000014H
$LN3@Compat:

; 242  : 			}
; 243  : 		}

	pop	esi
	add	esp, 4
	cmp	ebp, esp
	call	__RTC_CheckEsp
	mov	esp, ebp
	pop	ebp
	ret	4
?_Compat@?$_Vector_const_iterator@V?$_Vector_val@U?$_Simple_types@PAVFuzzyTerm@@@std@@@std@@@std@@QBEXABV12@@Z ENDP ; std::_Vector_const_iterator<std::_Vector_val<std::_Simple_types<FuzzyTerm *> > >::_Compat
_TEXT	ENDS
; Function compile flags: /Odtp /RTCsu
; File c:\program files (x86)\microsoft visual studio 12.0\vc\include\vector
;	COMDAT ??9?$_Vector_const_iterator@V?$_Vector_val@U?$_Simple_types@PAVFuzzyTerm@@@std@@@std@@@std@@QBE_NABV01@@Z
_TEXT	SEGMENT
tv69 = -8						; size = 4
_this$ = -4						; size = 4
__Right$ = 8						; size = 4
??9?$_Vector_const_iterator@V?$_Vector_val@U?$_Simple_types@PAVFuzzyTerm@@@std@@@std@@@std@@QBE_NABV01@@Z PROC ; std::_Vector_const_iterator<std::_Vector_val<std::_Simple_types<FuzzyTerm *> > >::operator!=, COMDAT
; _this$ = ecx

; 209  : 		{	// test for iterator inequality

	push	ebp
	mov	ebp, esp
	sub	esp, 8
	mov	DWORD PTR [ebp-8], -858993460		; ccccccccH
	mov	DWORD PTR [ebp-4], -858993460		; ccccccccH
	mov	DWORD PTR _this$[ebp], ecx

; 210  : 		return (!(*this == _Right));

	mov	eax, DWORD PTR __Right$[ebp]
	push	eax
	mov	ecx, DWORD PTR _this$[ebp]
	call	??8?$_Vector_const_iterator@V?$_Vector_val@U?$_Simple_types@PAVFuzzyTerm@@@std@@@std@@@std@@QBE_NABV01@@Z ; std::_Vector_const_iterator<std::_Vector_val<std::_Simple_types<FuzzyTerm *> > >::operator==
	movzx	ecx, al
	test	ecx, ecx
	jne	SHORT $LN3@operator
	mov	DWORD PTR tv69[ebp], 1
	jmp	SHORT $LN4@operator
$LN3@operator:
	mov	DWORD PTR tv69[ebp], 0
$LN4@operator:
	mov	al, BYTE PTR tv69[ebp]

; 211  : 		}

	add	esp, 8
	cmp	ebp, esp
	call	__RTC_CheckEsp
	mov	esp, ebp
	pop	ebp
	ret	4
??9?$_Vector_const_iterator@V?$_Vector_val@U?$_Simple_types@PAVFuzzyTerm@@@std@@@std@@@std@@QBE_NABV01@@Z ENDP ; std::_Vector_const_iterator<std::_Vector_val<std::_Simple_types<FuzzyTerm *> > >::operator!=
_TEXT	ENDS
; Function compile flags: /Odtp /RTCsu
; File c:\program files (x86)\microsoft visual studio 12.0\vc\include\vector
;	COMDAT ??8?$_Vector_const_iterator@V?$_Vector_val@U?$_Simple_types@PAVFuzzyTerm@@@std@@@std@@@std@@QBE_NABV01@@Z
_TEXT	SEGMENT
tv69 = -8						; size = 4
_this$ = -4						; size = 4
__Right$ = 8						; size = 4
??8?$_Vector_const_iterator@V?$_Vector_val@U?$_Simple_types@PAVFuzzyTerm@@@std@@@std@@@std@@QBE_NABV01@@Z PROC ; std::_Vector_const_iterator<std::_Vector_val<std::_Simple_types<FuzzyTerm *> > >::operator==, COMDAT
; _this$ = ecx

; 203  : 		{	// test for iterator equality

	push	ebp
	mov	ebp, esp
	sub	esp, 8
	mov	DWORD PTR [ebp-8], -858993460		; ccccccccH
	mov	DWORD PTR [ebp-4], -858993460		; ccccccccH
	mov	DWORD PTR _this$[ebp], ecx

; 204  : 		_Compat(_Right);

	mov	eax, DWORD PTR __Right$[ebp]
	push	eax
	mov	ecx, DWORD PTR _this$[ebp]
	call	?_Compat@?$_Vector_const_iterator@V?$_Vector_val@U?$_Simple_types@PAVFuzzyTerm@@@std@@@std@@@std@@QBEXABV12@@Z ; std::_Vector_const_iterator<std::_Vector_val<std::_Simple_types<FuzzyTerm *> > >::_Compat

; 205  : 		return (this->_Ptr == _Right._Ptr);

	mov	ecx, DWORD PTR _this$[ebp]
	mov	edx, DWORD PTR __Right$[ebp]
	mov	eax, DWORD PTR [ecx+8]
	cmp	eax, DWORD PTR [edx+8]
	jne	SHORT $LN3@operator
	mov	DWORD PTR tv69[ebp], 1
	jmp	SHORT $LN4@operator
$LN3@operator:
	mov	DWORD PTR tv69[ebp], 0
$LN4@operator:
	mov	al, BYTE PTR tv69[ebp]

; 206  : 		}

	add	esp, 8
	cmp	ebp, esp
	call	__RTC_CheckEsp
	mov	esp, ebp
	pop	ebp
	ret	4
??8?$_Vector_const_iterator@V?$_Vector_val@U?$_Simple_types@PAVFuzzyTerm@@@std@@@std@@@std@@QBE_NABV01@@Z ENDP ; std::_Vector_const_iterator<std::_Vector_val<std::_Simple_types<FuzzyTerm *> > >::operator==
_TEXT	ENDS
; Function compile flags: /Odtp /RTCsu
; File c:\program files (x86)\microsoft visual studio 12.0\vc\include\vector
;	COMDAT ??E?$_Vector_const_iterator@V?$_Vector_val@U?$_Simple_types@PAVFuzzyTerm@@@std@@@std@@@std@@QAEAAV01@XZ
_TEXT	SEGMENT
_this$ = -4						; size = 4
??E?$_Vector_const_iterator@V?$_Vector_val@U?$_Simple_types@PAVFuzzyTerm@@@std@@@std@@@std@@QAEAAV01@XZ PROC ; std::_Vector_const_iterator<std::_Vector_val<std::_Simple_types<FuzzyTerm *> > >::operator++, COMDAT
; _this$ = ecx

; 95   : 		{	// preincrement

	push	ebp
	mov	ebp, esp
	push	ecx
	mov	DWORD PTR [ebp-4], -858993460		; ccccccccH
	mov	DWORD PTR _this$[ebp], ecx

; 96   :  #if _ITERATOR_DEBUG_LEVEL == 2
; 97   : 		if (this->_Getcont() == 0
; 98   : 			|| this->_Ptr == 0
; 99   : 			|| ((_Myvec *)this->_Getcont())->_Mylast <= this->_Ptr)

	mov	ecx, DWORD PTR _this$[ebp]
	call	?_Getcont@_Iterator_base12@std@@QBEPBU_Container_base12@2@XZ ; std::_Iterator_base12::_Getcont
	test	eax, eax
	je	SHORT $LN1@operator
	mov	eax, DWORD PTR _this$[ebp]
	cmp	DWORD PTR [eax+8], 0
	je	SHORT $LN1@operator
	mov	ecx, DWORD PTR _this$[ebp]
	call	?_Getcont@_Iterator_base12@std@@QBEPBU_Container_base12@2@XZ ; std::_Iterator_base12::_Getcont
	mov	ecx, DWORD PTR _this$[ebp]
	mov	edx, DWORD PTR [eax+8]
	cmp	edx, DWORD PTR [ecx+8]
	ja	SHORT $LN2@operator
$LN1@operator:

; 100  : 			{	// report error
; 101  : 			_DEBUG_ERROR("vector iterator not incrementable");

	push	101					; 00000065H
	push	OFFSET ??_C@_1IM@EINEHPHE@?$AAC?$AA?3?$AA?2?$AAP?$AAr?$AAo?$AAg?$AAr?$AAa?$AAm?$AA?5?$AAF?$AAi?$AAl?$AAe?$AAs?$AA?5?$AA?$CI?$AAx?$AA8?$AA6?$AA?$CJ?$AA?2?$AAM?$AAi?$AAc?$AAr?$AAo?$AAs?$AAo?$AAf?$AAt@
	push	OFFSET ??_C@_1EE@EJDKCLKB@?$AAv?$AAe?$AAc?$AAt?$AAo?$AAr?$AA?5?$AAi?$AAt?$AAe?$AAr?$AAa?$AAt?$AAo?$AAr?$AA?5?$AAn?$AAo?$AAt?$AA?5?$AAi?$AAn?$AAc?$AAr?$AAe?$AAm?$AAe?$AAn?$AAt?$AAa?$AAb?$AAl@
	call	?_Debug_message@std@@YAXPB_W0I@Z	; std::_Debug_message
	add	esp, 12					; 0000000cH

; 102  : 			_SCL_SECURE_OUT_OF_RANGE;

	mov	eax, OFFSET ??_C@_0CE@OFMIGAMM@Standard?5C?$CL?$CL?5Libraries?5Out?5of?5Ra@
	test	eax, eax
	je	SHORT $LN5@operator
	xor	ecx, ecx
	jne	SHORT $LN6@operator
$LN5@operator:
	push	OFFSET ??_C@_1FG@IBPIFFN@?$AA?$CC?$AAS?$AAt?$AAa?$AAn?$AAd?$AAa?$AAr?$AAd?$AA?5?$AAC?$AA?$CL?$AA?$CL?$AA?5?$AAL?$AAi?$AAb?$AAr?$AAa?$AAr?$AAi?$AAe?$AAs?$AA?5?$AAO?$AAu?$AAt?$AA?5?$AAo?$AAf?$AA?5?$AAR@
	push	OFFSET ??_C@_15GANGMFKL@?$AA?$CF?$AAs?$AA?$AA@
	push	0
	push	102					; 00000066H
	push	OFFSET ??_C@_1IM@EINEHPHE@?$AAC?$AA?3?$AA?2?$AAP?$AAr?$AAo?$AAg?$AAr?$AAa?$AAm?$AA?5?$AAF?$AAi?$AAl?$AAe?$AAs?$AA?5?$AA?$CI?$AAx?$AA8?$AA6?$AA?$CJ?$AA?2?$AAM?$AAi?$AAc?$AAr?$AAo?$AAs?$AAo?$AAf?$AAt@
	push	2
	call	__CrtDbgReportW
	add	esp, 24					; 00000018H
	cmp	eax, 1
	jne	SHORT $LN6@operator
	int	3
$LN6@operator:
	push	0
	push	102					; 00000066H
	push	OFFSET ??_C@_1IM@EINEHPHE@?$AAC?$AA?3?$AA?2?$AAP?$AAr?$AAo?$AAg?$AAr?$AAa?$AAm?$AA?5?$AAF?$AAi?$AAl?$AAe?$AAs?$AA?5?$AA?$CI?$AAx?$AA8?$AA6?$AA?$CJ?$AA?2?$AAM?$AAi?$AAc?$AAr?$AAo?$AAs?$AAo?$AAf?$AAt@
	push	OFFSET ??_C@_1OC@CGPGIJAB@?$AAs?$AAt?$AAd?$AA?3?$AA?3?$AA_?$AAV?$AAe?$AAc?$AAt?$AAo?$AAr?$AA_?$AAc?$AAo?$AAn?$AAs?$AAt?$AA_?$AAi?$AAt?$AAe?$AAr?$AAa?$AAt?$AAo?$AAr?$AA?$DM?$AAc?$AAl?$AAa?$AAs@
	push	OFFSET ??_C@_1BO@MEPPHOO@?$AA?$CC?$AAo?$AAu?$AAt?$AA?5?$AAo?$AAf?$AA?5?$AAr?$AAa?$AAn?$AAg?$AAe?$AA?$CC?$AA?$AA@
	call	__invalid_parameter
	add	esp, 20					; 00000014H
$LN2@operator:

; 103  : 			}
; 104  : 
; 105  :  #elif _ITERATOR_DEBUG_LEVEL == 1
; 106  : 		_SCL_SECURE_VALIDATE(this->_Getcont() != 0);
; 107  : 		_SCL_SECURE_VALIDATE_RANGE(
; 108  : 			this->_Ptr != _Tptr()
; 109  : 			&& this->_Ptr < ((_Myvec *)this->_Getcont())->_Mylast);
; 110  :  #endif /* _ITERATOR_DEBUG_LEVEL */
; 111  : 
; 112  : 		++this->_Ptr;

	mov	eax, DWORD PTR _this$[ebp]
	mov	ecx, DWORD PTR [eax+8]
	add	ecx, 4
	mov	edx, DWORD PTR _this$[ebp]
	mov	DWORD PTR [edx+8], ecx

; 113  : 		return (*this);

	mov	eax, DWORD PTR _this$[ebp]

; 114  : 		}

	add	esp, 4
	cmp	ebp, esp
	call	__RTC_CheckEsp
	mov	esp, ebp
	pop	ebp
	ret	0
??E?$_Vector_const_iterator@V?$_Vector_val@U?$_Simple_types@PAVFuzzyTerm@@@std@@@std@@@std@@QAEAAV01@XZ ENDP ; std::_Vector_const_iterator<std::_Vector_val<std::_Simple_types<FuzzyTerm *> > >::operator++
_TEXT	ENDS
; Function compile flags: /Odtp /RTCsu
; File c:\program files (x86)\microsoft visual studio 12.0\vc\include\vector
;	COMDAT ??D?$_Vector_const_iterator@V?$_Vector_val@U?$_Simple_types@PAVFuzzyTerm@@@std@@@std@@@std@@QBEABQAVFuzzyTerm@@XZ
_TEXT	SEGMENT
_this$ = -4						; size = 4
??D?$_Vector_const_iterator@V?$_Vector_val@U?$_Simple_types@PAVFuzzyTerm@@@std@@@std@@@std@@QBEABQAVFuzzyTerm@@XZ PROC ; std::_Vector_const_iterator<std::_Vector_val<std::_Simple_types<FuzzyTerm *> > >::operator*, COMDAT
; _this$ = ecx

; 65   : 		{	// return designated object

	push	ebp
	mov	ebp, esp
	push	ecx
	mov	DWORD PTR [ebp-4], -858993460		; ccccccccH
	mov	DWORD PTR _this$[ebp], ecx

; 66   :  #if _ITERATOR_DEBUG_LEVEL == 2
; 67   : 		if (this->_Getcont() == 0
; 68   : 			|| this->_Ptr == 0
; 69   : 			|| this->_Ptr < ((_Myvec *)this->_Getcont())->_Myfirst
; 70   : 			|| ((_Myvec *)this->_Getcont())->_Mylast <= this->_Ptr)

	mov	ecx, DWORD PTR _this$[ebp]
	call	?_Getcont@_Iterator_base12@std@@QBEPBU_Container_base12@2@XZ ; std::_Iterator_base12::_Getcont
	test	eax, eax
	je	SHORT $LN1@operator
	mov	eax, DWORD PTR _this$[ebp]
	cmp	DWORD PTR [eax+8], 0
	je	SHORT $LN1@operator
	mov	ecx, DWORD PTR _this$[ebp]
	call	?_Getcont@_Iterator_base12@std@@QBEPBU_Container_base12@2@XZ ; std::_Iterator_base12::_Getcont
	mov	ecx, DWORD PTR _this$[ebp]
	mov	edx, DWORD PTR [ecx+8]
	cmp	edx, DWORD PTR [eax+4]
	jb	SHORT $LN1@operator
	mov	ecx, DWORD PTR _this$[ebp]
	call	?_Getcont@_Iterator_base12@std@@QBEPBU_Container_base12@2@XZ ; std::_Iterator_base12::_Getcont
	mov	ecx, DWORD PTR _this$[ebp]
	mov	edx, DWORD PTR [eax+8]
	cmp	edx, DWORD PTR [ecx+8]
	ja	SHORT $LN2@operator
$LN1@operator:

; 71   : 			{	// report error
; 72   : 			_DEBUG_ERROR("vector iterator not dereferencable");

	push	72					; 00000048H
	push	OFFSET ??_C@_1IM@EINEHPHE@?$AAC?$AA?3?$AA?2?$AAP?$AAr?$AAo?$AAg?$AAr?$AAa?$AAm?$AA?5?$AAF?$AAi?$AAl?$AAe?$AAs?$AA?5?$AA?$CI?$AAx?$AA8?$AA6?$AA?$CJ?$AA?2?$AAM?$AAi?$AAc?$AAr?$AAo?$AAs?$AAo?$AAf?$AAt@
	push	OFFSET ??_C@_1EG@FOHJJHAC@?$AAv?$AAe?$AAc?$AAt?$AAo?$AAr?$AA?5?$AAi?$AAt?$AAe?$AAr?$AAa?$AAt?$AAo?$AAr?$AA?5?$AAn?$AAo?$AAt?$AA?5?$AAd?$AAe?$AAr?$AAe?$AAf?$AAe?$AAr?$AAe?$AAn?$AAc?$AAa?$AAb@
	call	?_Debug_message@std@@YAXPB_W0I@Z	; std::_Debug_message
	add	esp, 12					; 0000000cH

; 73   : 			_SCL_SECURE_OUT_OF_RANGE;

	mov	eax, OFFSET ??_C@_0CE@OFMIGAMM@Standard?5C?$CL?$CL?5Libraries?5Out?5of?5Ra@
	test	eax, eax
	je	SHORT $LN5@operator
	xor	ecx, ecx
	jne	SHORT $LN6@operator
$LN5@operator:
	push	OFFSET ??_C@_1FG@IBPIFFN@?$AA?$CC?$AAS?$AAt?$AAa?$AAn?$AAd?$AAa?$AAr?$AAd?$AA?5?$AAC?$AA?$CL?$AA?$CL?$AA?5?$AAL?$AAi?$AAb?$AAr?$AAa?$AAr?$AAi?$AAe?$AAs?$AA?5?$AAO?$AAu?$AAt?$AA?5?$AAo?$AAf?$AA?5?$AAR@
	push	OFFSET ??_C@_15GANGMFKL@?$AA?$CF?$AAs?$AA?$AA@
	push	0
	push	73					; 00000049H
	push	OFFSET ??_C@_1IM@EINEHPHE@?$AAC?$AA?3?$AA?2?$AAP?$AAr?$AAo?$AAg?$AAr?$AAa?$AAm?$AA?5?$AAF?$AAi?$AAl?$AAe?$AAs?$AA?5?$AA?$CI?$AAx?$AA8?$AA6?$AA?$CJ?$AA?2?$AAM?$AAi?$AAc?$AAr?$AAo?$AAs?$AAo?$AAf?$AAt@
	push	2
	call	__CrtDbgReportW
	add	esp, 24					; 00000018H
	cmp	eax, 1
	jne	SHORT $LN6@operator
	int	3
$LN6@operator:
	push	0
	push	73					; 00000049H
	push	OFFSET ??_C@_1IM@EINEHPHE@?$AAC?$AA?3?$AA?2?$AAP?$AAr?$AAo?$AAg?$AAr?$AAa?$AAm?$AA?5?$AAF?$AAi?$AAl?$AAe?$AAs?$AA?5?$AA?$CI?$AAx?$AA8?$AA6?$AA?$CJ?$AA?2?$AAM?$AAi?$AAc?$AAr?$AAo?$AAs?$AAo?$AAf?$AAt@
	push	OFFSET ??_C@_1OA@BIBNCNDA@?$AAs?$AAt?$AAd?$AA?3?$AA?3?$AA_?$AAV?$AAe?$AAc?$AAt?$AAo?$AAr?$AA_?$AAc?$AAo?$AAn?$AAs?$AAt?$AA_?$AAi?$AAt?$AAe?$AAr?$AAa?$AAt?$AAo?$AAr?$AA?$DM?$AAc?$AAl?$AAa?$AAs@
	push	OFFSET ??_C@_1BO@MEPPHOO@?$AA?$CC?$AAo?$AAu?$AAt?$AA?5?$AAo?$AAf?$AA?5?$AAr?$AAa?$AAn?$AAg?$AAe?$AA?$CC?$AA?$AA@
	call	__invalid_parameter
	add	esp, 20					; 00000014H
$LN2@operator:

; 74   : 			}
; 75   : 
; 76   :  #elif _ITERATOR_DEBUG_LEVEL == 1
; 77   : 		_SCL_SECURE_VALIDATE(this->_Getcont() != 0);
; 78   : 		_SCL_SECURE_VALIDATE_RANGE(
; 79   : 			this->_Ptr != _Tptr()
; 80   : 			&& ((_Myvec *)this->_Getcont())->_Myfirst <= this->_Ptr
; 81   : 			&& this->_Ptr < ((_Myvec *)this->_Getcont())->_Mylast);
; 82   :  #endif /* _ITERATOR_DEBUG_LEVEL */
; 83   : 
; 84   : 		_Analysis_assume_(this->_Ptr != _Tptr());
; 85   : 
; 86   : 		return (*this->_Ptr);

	mov	eax, DWORD PTR _this$[ebp]
	mov	eax, DWORD PTR [eax+8]

; 87   : 		}

	add	esp, 4
	cmp	ebp, esp
	call	__RTC_CheckEsp
	mov	esp, ebp
	pop	ebp
	ret	0
??D?$_Vector_const_iterator@V?$_Vector_val@U?$_Simple_types@PAVFuzzyTerm@@@std@@@std@@@std@@QBEABQAVFuzzyTerm@@XZ ENDP ; std::_Vector_const_iterator<std::_Vector_val<std::_Simple_types<FuzzyTerm *> > >::operator*
_TEXT	ENDS
; Function compile flags: /Odtp /RTCsu
; File c:\program files (x86)\microsoft visual studio 12.0\vc\include\vector
;	COMDAT ??0?$_Vector_const_iterator@V?$_Vector_val@U?$_Simple_types@PAVFuzzyTerm@@@std@@@std@@@std@@QAE@PAPAVFuzzyTerm@@PBU_Container_base12@1@@Z
_TEXT	SEGMENT
_this$ = -16						; size = 4
__$EHRec$ = -12						; size = 12
__Parg$ = 8						; size = 4
__Pvector$ = 12						; size = 4
??0?$_Vector_const_iterator@V?$_Vector_val@U?$_Simple_types@PAVFuzzyTerm@@@std@@@std@@@std@@QAE@PAPAVFuzzyTerm@@PBU_Container_base12@1@@Z PROC ; std::_Vector_const_iterator<std::_Vector_val<std::_Simple_types<FuzzyTerm *> > >::_Vector_const_iterator<std::_Vector_val<std::_Simple_types<FuzzyTerm *> > >, COMDAT
; _this$ = ecx

; 47   : 		{	// construct with pointer _Parg

	push	ebp
	mov	ebp, esp
	push	-1
	push	__ehhandler$??0?$_Vector_const_iterator@V?$_Vector_val@U?$_Simple_types@PAVFuzzyTerm@@@std@@@std@@@std@@QAE@PAPAVFuzzyTerm@@PBU_Container_base12@1@@Z
	mov	eax, DWORD PTR fs:0
	push	eax
	push	ecx
	mov	DWORD PTR [ebp-16], -858993460		; ccccccccH
	mov	eax, DWORD PTR ___security_cookie
	xor	eax, ebp
	push	eax
	lea	eax, DWORD PTR __$EHRec$[ebp]
	mov	DWORD PTR fs:0, eax
	mov	DWORD PTR _this$[ebp], ecx
	mov	ecx, DWORD PTR _this$[ebp]
	call	??0?$_Iterator012@Urandom_access_iterator_tag@std@@PAVFuzzyTerm@@HPBQAV3@ABQAV3@U_Iterator_base12@2@@std@@QAE@XZ
	mov	DWORD PTR __$EHRec$[ebp+8], 0
	mov	eax, DWORD PTR _this$[ebp]
	mov	ecx, DWORD PTR __Parg$[ebp]
	mov	DWORD PTR [eax+8], ecx

; 48   : 		this->_Adopt(_Pvector);

	mov	edx, DWORD PTR __Pvector$[ebp]
	push	edx
	mov	ecx, DWORD PTR _this$[ebp]
	call	?_Adopt@_Iterator_base12@std@@QAEXPBU_Container_base12@2@@Z ; std::_Iterator_base12::_Adopt

; 49   : 		}

	mov	DWORD PTR __$EHRec$[ebp+8], -1
	mov	eax, DWORD PTR _this$[ebp]
	mov	ecx, DWORD PTR __$EHRec$[ebp]
	mov	DWORD PTR fs:0, ecx
	pop	ecx
	add	esp, 16					; 00000010H
	cmp	ebp, esp
	call	__RTC_CheckEsp
	mov	esp, ebp
	pop	ebp
	ret	8
_TEXT	ENDS
;	COMDAT text$x
text$x	SEGMENT
__unwindfunclet$??0?$_Vector_const_iterator@V?$_Vector_val@U?$_Simple_types@PAVFuzzyTerm@@@std@@@std@@@std@@QAE@PAPAVFuzzyTerm@@PBU_Container_base12@1@@Z$0:
	mov	ecx, DWORD PTR _this$[ebp]
	jmp	??1?$_Iterator012@Urandom_access_iterator_tag@std@@PAVFuzzyTerm@@HPBQAV3@ABQAV3@U_Iterator_base12@2@@std@@QAE@XZ
__ehhandler$??0?$_Vector_const_iterator@V?$_Vector_val@U?$_Simple_types@PAVFuzzyTerm@@@std@@@std@@@std@@QAE@PAPAVFuzzyTerm@@PBU_Container_base12@1@@Z:
	mov	edx, DWORD PTR [esp+8]
	lea	eax, DWORD PTR [edx+12]
	mov	ecx, DWORD PTR [edx-8]
	xor	ecx, eax
	call	@__security_check_cookie@4
	mov	eax, OFFSET __ehfuncinfo$??0?$_Vector_const_iterator@V?$_Vector_val@U?$_Simple_types@PAVFuzzyTerm@@@std@@@std@@@std@@QAE@PAPAVFuzzyTerm@@PBU_Container_base12@1@@Z
	jmp	___CxxFrameHandler3
text$x	ENDS
??0?$_Vector_const_iterator@V?$_Vector_val@U?$_Simple_types@PAVFuzzyTerm@@@std@@@std@@@std@@QAE@PAPAVFuzzyTerm@@PBU_Container_base12@1@@Z ENDP ; std::_Vector_const_iterator<std::_Vector_val<std::_Simple_types<FuzzyTerm *> > >::_Vector_const_iterator<std::_Vector_val<std::_Simple_types<FuzzyTerm *> > >
; Function compile flags: /Odtp /RTCsu
; File c:\program files (x86)\microsoft visual studio 12.0\vc\include\vector
;	COMDAT ??0?$_Vector_const_iterator@V?$_Vector_val@U?$_Simple_types@PAVFuzzyTerm@@@std@@@std@@@std@@QAE@XZ
_TEXT	SEGMENT
_this$ = -4						; size = 4
??0?$_Vector_const_iterator@V?$_Vector_val@U?$_Simple_types@PAVFuzzyTerm@@@std@@@std@@@std@@QAE@XZ PROC ; std::_Vector_const_iterator<std::_Vector_val<std::_Simple_types<FuzzyTerm *> > >::_Vector_const_iterator<std::_Vector_val<std::_Simple_types<FuzzyTerm *> > >, COMDAT
; _this$ = ecx

; 42   : 		{	// construct with null pointer

	push	ebp
	mov	ebp, esp
	push	ecx
	mov	DWORD PTR [ebp-4], -858993460		; ccccccccH
	mov	DWORD PTR _this$[ebp], ecx
	mov	ecx, DWORD PTR _this$[ebp]
	call	??0?$_Iterator012@Urandom_access_iterator_tag@std@@PAVFuzzyTerm@@HPBQAV3@ABQAV3@U_Iterator_base12@2@@std@@QAE@XZ
	mov	eax, DWORD PTR _this$[ebp]
	mov	DWORD PTR [eax+8], 0

; 43   : 		}

	mov	eax, DWORD PTR _this$[ebp]
	add	esp, 4
	cmp	ebp, esp
	call	__RTC_CheckEsp
	mov	esp, ebp
	pop	ebp
	ret	0
??0?$_Vector_const_iterator@V?$_Vector_val@U?$_Simple_types@PAVFuzzyTerm@@@std@@@std@@@std@@QAE@XZ ENDP ; std::_Vector_const_iterator<std::_Vector_val<std::_Simple_types<FuzzyTerm *> > >::_Vector_const_iterator<std::_Vector_val<std::_Simple_types<FuzzyTerm *> > >
_TEXT	ENDS
; Function compile flags: /Odtp /RTCsu
;	COMDAT ??4?$_Iterator012@Urandom_access_iterator_tag@std@@PAVFuzzyTerm@@HPBQAV3@ABQAV3@U_Iterator_base12@2@@std@@QAEAAU01@ABU01@@Z
_TEXT	SEGMENT
_this$ = -4						; size = 4
___that$ = 8						; size = 4
??4?$_Iterator012@Urandom_access_iterator_tag@std@@PAVFuzzyTerm@@HPBQAV3@ABQAV3@U_Iterator_base12@2@@std@@QAEAAU01@ABU01@@Z PROC ; std::_Iterator012<std::random_access_iterator_tag,FuzzyTerm *,int,FuzzyTerm * const *,FuzzyTerm * const &,std::_Iterator_base12>::operator=, COMDAT
; _this$ = ecx
	push	ebp
	mov	ebp, esp
	push	ecx
	mov	DWORD PTR [ebp-4], -858993460		; ccccccccH
	mov	DWORD PTR _this$[ebp], ecx
	mov	eax, DWORD PTR ___that$[ebp]
	push	eax
	mov	ecx, DWORD PTR _this$[ebp]
	call	??4_Iterator_base12@std@@QAEAAU01@ABU01@@Z ; std::_Iterator_base12::operator=
	mov	eax, DWORD PTR _this$[ebp]
	add	esp, 4
	cmp	ebp, esp
	call	__RTC_CheckEsp
	mov	esp, ebp
	pop	ebp
	ret	4
??4?$_Iterator012@Urandom_access_iterator_tag@std@@PAVFuzzyTerm@@HPBQAV3@ABQAV3@U_Iterator_base12@2@@std@@QAEAAU01@ABU01@@Z ENDP ; std::_Iterator012<std::random_access_iterator_tag,FuzzyTerm *,int,FuzzyTerm * const *,FuzzyTerm * const &,std::_Iterator_base12>::operator=
_TEXT	ENDS
; Function compile flags: /Odtp /RTCsu
;	COMDAT ??1?$_Iterator012@Urandom_access_iterator_tag@std@@PAVFuzzyTerm@@HPBQAV3@ABQAV3@U_Iterator_base12@2@@std@@QAE@XZ
_TEXT	SEGMENT
_this$ = -4						; size = 4
??1?$_Iterator012@Urandom_access_iterator_tag@std@@PAVFuzzyTerm@@HPBQAV3@ABQAV3@U_Iterator_base12@2@@std@@QAE@XZ PROC ; std::_Iterator012<std::random_access_iterator_tag,FuzzyTerm *,int,FuzzyTerm * const *,FuzzyTerm * const &,std::_Iterator_base12>::~_Iterator012<std::random_access_iterator_tag,FuzzyTerm *,int,FuzzyTerm * const *,FuzzyTerm * const &,std::_Iterator_base12>, COMDAT
; _this$ = ecx
	push	ebp
	mov	ebp, esp
	push	ecx
	mov	DWORD PTR [ebp-4], -858993460		; ccccccccH
	mov	DWORD PTR _this$[ebp], ecx
	mov	ecx, DWORD PTR _this$[ebp]
	call	??1_Iterator_base12@std@@QAE@XZ		; std::_Iterator_base12::~_Iterator_base12
	add	esp, 4
	cmp	ebp, esp
	call	__RTC_CheckEsp
	mov	esp, ebp
	pop	ebp
	ret	0
??1?$_Iterator012@Urandom_access_iterator_tag@std@@PAVFuzzyTerm@@HPBQAV3@ABQAV3@U_Iterator_base12@2@@std@@QAE@XZ ENDP ; std::_Iterator012<std::random_access_iterator_tag,FuzzyTerm *,int,FuzzyTerm * const *,FuzzyTerm * const &,std::_Iterator_base12>::~_Iterator012<std::random_access_iterator_tag,FuzzyTerm *,int,FuzzyTerm * const *,FuzzyTerm * const &,std::_Iterator_base12>
_TEXT	ENDS
; Function compile flags: /Odtp /RTCsu
;	COMDAT ??0?$_Iterator012@Urandom_access_iterator_tag@std@@PAVFuzzyTerm@@HPBQAV3@ABQAV3@U_Iterator_base12@2@@std@@QAE@XZ
_TEXT	SEGMENT
_this$ = -4						; size = 4
??0?$_Iterator012@Urandom_access_iterator_tag@std@@PAVFuzzyTerm@@HPBQAV3@ABQAV3@U_Iterator_base12@2@@std@@QAE@XZ PROC ; std::_Iterator012<std::random_access_iterator_tag,FuzzyTerm *,int,FuzzyTerm * const *,FuzzyTerm * const &,std::_Iterator_base12>::_Iterator012<std::random_access_iterator_tag,FuzzyTerm *,int,FuzzyTerm * const *,FuzzyTerm * const &,std::_Iterator_base12>, COMDAT
; _this$ = ecx
	push	ebp
	mov	ebp, esp
	push	ecx
	mov	DWORD PTR [ebp-4], -858993460		; ccccccccH
	mov	DWORD PTR _this$[ebp], ecx
	mov	ecx, DWORD PTR _this$[ebp]
	call	??0_Iterator_base12@std@@QAE@XZ		; std::_Iterator_base12::_Iterator_base12
	mov	eax, DWORD PTR _this$[ebp]
	add	esp, 4
	cmp	ebp, esp
	call	__RTC_CheckEsp
	mov	esp, ebp
	pop	ebp
	ret	0
??0?$_Iterator012@Urandom_access_iterator_tag@std@@PAVFuzzyTerm@@HPBQAV3@ABQAV3@U_Iterator_base12@2@@std@@QAE@XZ ENDP ; std::_Iterator012<std::random_access_iterator_tag,FuzzyTerm *,int,FuzzyTerm * const *,FuzzyTerm * const &,std::_Iterator_base12>::_Iterator012<std::random_access_iterator_tag,FuzzyTerm *,int,FuzzyTerm * const *,FuzzyTerm * const &,std::_Iterator_base12>
_TEXT	ENDS
; Function compile flags: /Odtp /RTCsu
;	COMDAT ??_GFzOR@@UAEPAXI@Z
_TEXT	SEGMENT
_this$ = -4						; size = 4
___flags$ = 8						; size = 4
??_GFzOR@@UAEPAXI@Z PROC				; FzOR::`scalar deleting destructor', COMDAT
; _this$ = ecx
	push	ebp
	mov	ebp, esp
	push	ecx
	mov	DWORD PTR [ebp-4], -858993460		; ccccccccH
	mov	DWORD PTR _this$[ebp], ecx
	mov	ecx, DWORD PTR _this$[ebp]
	call	??1FzOR@@UAE@XZ				; FzOR::~FzOR
	mov	eax, DWORD PTR ___flags$[ebp]
	and	eax, 1
	je	SHORT $LN1@scalar
	mov	ecx, DWORD PTR _this$[ebp]
	push	ecx
	call	??3@YAXPAX@Z				; operator delete
	add	esp, 4
$LN1@scalar:
	mov	eax, DWORD PTR _this$[ebp]
	add	esp, 4
	cmp	ebp, esp
	call	__RTC_CheckEsp
	mov	esp, ebp
	pop	ebp
	ret	4
??_GFzOR@@UAEPAXI@Z ENDP				; FzOR::`scalar deleting destructor'
_TEXT	ENDS
; Function compile flags: /Odtp /RTCsu
; File c:\users\maxime\videos\tp ia\vs2010\common\fuzzy\fuzzyoperators.h
;	COMDAT ?ORwithDOM@FzOR@@UAEXN@Z
_TEXT	SEGMENT
_this$ = -4						; size = 4
_val$ = 8						; size = 8
?ORwithDOM@FzOR@@UAEXN@Z PROC				; FzOR::ORwithDOM, COMDAT
; _this$ = ecx

; 87   :   void ORwithDOM(double val){assert(0 && "<FzOR::ORwithDOM>: invalid context");}

	push	ebp
	mov	ebp, esp
	push	ecx
	mov	DWORD PTR [ebp-4], -858993460		; ccccccccH
	mov	DWORD PTR _this$[ebp], ecx
	xor	eax, eax
	jne	SHORT $LN1@ORwithDOM
	push	87					; 00000057H
	push	OFFSET ??_C@_1IE@CIAIIFIM@?$AAc?$AA?3?$AA?2?$AAu?$AAs?$AAe?$AAr?$AAs?$AA?2?$AAm?$AAa?$AAx?$AAi?$AAm?$AAe?$AA?2?$AAv?$AAi?$AAd?$AAe?$AAo?$AAs?$AA?2?$AAt?$AAp?$AA?5?$AAi?$AAa?$AA?2?$AAv?$AAs?$AA2@
	push	OFFSET ??_C@_1FE@EKNHDPMB@?$AA0?$AA?5?$AA?$CG?$AA?$CG?$AA?5?$AA?$CC?$AA?$DM?$AAF?$AAz?$AAO?$AAR?$AA?3?$AA?3?$AAO?$AAR?$AAw?$AAi?$AAt?$AAh?$AAD?$AAO?$AAM?$AA?$DO?$AA?3?$AA?5?$AAi?$AAn?$AAv?$AAa?$AAl?$AAi?$AAd@
	call	__wassert
	add	esp, 12					; 0000000cH
$LN1@ORwithDOM:
	add	esp, 4
	cmp	ebp, esp
	call	__RTC_CheckEsp
	mov	esp, ebp
	pop	ebp
	ret	8
?ORwithDOM@FzOR@@UAEXN@Z ENDP				; FzOR::ORwithDOM
_TEXT	ENDS
; Function compile flags: /Odtp /RTCsu
; File c:\users\maxime\videos\tp ia\vs2010\common\fuzzy\fuzzyoperators.h
;	COMDAT ?ClearDOM@FzOR@@UAEXXZ
_TEXT	SEGMENT
_this$ = -4						; size = 4
?ClearDOM@FzOR@@UAEXXZ PROC				; FzOR::ClearDOM, COMDAT
; _this$ = ecx

; 86   :   void ClearDOM(){assert(0 && "<FzOR::ClearDOM>: invalid context");}

	push	ebp
	mov	ebp, esp
	push	ecx
	mov	DWORD PTR [ebp-4], -858993460		; ccccccccH
	mov	DWORD PTR _this$[ebp], ecx
	xor	eax, eax
	jne	SHORT $LN1@ClearDOM
	push	86					; 00000056H
	push	OFFSET ??_C@_1IE@CIAIIFIM@?$AAc?$AA?3?$AA?2?$AAu?$AAs?$AAe?$AAr?$AAs?$AA?2?$AAm?$AAa?$AAx?$AAi?$AAm?$AAe?$AA?2?$AAv?$AAi?$AAd?$AAe?$AAo?$AAs?$AA?2?$AAt?$AAp?$AA?5?$AAi?$AAa?$AA?2?$AAv?$AAs?$AA2@
	push	OFFSET ??_C@_1FC@EJGEACIH@?$AA0?$AA?5?$AA?$CG?$AA?$CG?$AA?5?$AA?$CC?$AA?$DM?$AAF?$AAz?$AAO?$AAR?$AA?3?$AA?3?$AAC?$AAl?$AAe?$AAa?$AAr?$AAD?$AAO?$AAM?$AA?$DO?$AA?3?$AA?5?$AAi?$AAn?$AAv?$AAa?$AAl?$AAi?$AAd?$AA?5@
	call	__wassert
	add	esp, 12					; 0000000cH
$LN1@ClearDOM:
	add	esp, 4
	cmp	ebp, esp
	call	__RTC_CheckEsp
	mov	esp, ebp
	pop	ebp
	ret	0
?ClearDOM@FzOR@@UAEXXZ ENDP				; FzOR::ClearDOM
_TEXT	ENDS
; Function compile flags: /Odtp /RTCsu
; File c:\users\maxime\videos\tp ia\vs2010\common\fuzzy\fuzzyoperators.cpp
_TEXT	SEGMENT
tv133 = -112						; size = 4
tv167 = -108						; size = 8
tv92 = -100						; size = 4
tv141 = -96						; size = 4
tv143 = -92						; size = 4
tv139 = -88						; size = 4
tv66 = -84						; size = 4
$T2 = -80						; size = 8
$T3 = -72						; size = 12
$T4 = -57						; size = 1
$T5 = -56						; size = 12
_curTerm$ = -40						; size = 12
_largest$ = -24						; size = 8
_this$ = -16						; size = 4
__$EHRec$ = -12						; size = 12
?GetDOM@FzOR@@UBENXZ PROC				; FzOR::GetDOM
; _this$ = ecx

; 147  : {

	push	ebp
	mov	ebp, esp
	push	-1
	push	__ehhandler$?GetDOM@FzOR@@UBENXZ
	mov	eax, DWORD PTR fs:0
	push	eax
	sub	esp, 100				; 00000064H
	push	esi
	push	edi
	push	ecx
	lea	edi, DWORD PTR [ebp-112]
	mov	ecx, 25					; 00000019H
	mov	eax, -858993460				; ccccccccH
	rep stosd
	pop	ecx
	mov	eax, DWORD PTR ___security_cookie
	xor	eax, ebp
	push	eax
	lea	eax, DWORD PTR __$EHRec$[ebp]
	mov	DWORD PTR fs:0, eax
	mov	DWORD PTR _this$[ebp], ecx

; 148  :   double largest = MinFloat;

	cvtss2sd xmm0, DWORD PTR _MinFloat
	movsd	QWORD PTR _largest$[ebp], xmm0

; 149  : 
; 150  :   std::vector<FuzzyTerm*>::const_iterator curTerm;

	lea	ecx, DWORD PTR _curTerm$[ebp]
	call	??0?$_Vector_const_iterator@V?$_Vector_val@U?$_Simple_types@PAVFuzzyTerm@@@std@@@std@@@std@@QAE@XZ ; std::_Vector_const_iterator<std::_Vector_val<std::_Simple_types<FuzzyTerm *> > >::_Vector_const_iterator<std::_Vector_val<std::_Simple_types<FuzzyTerm *> > >
	mov	DWORD PTR __$EHRec$[ebp+8], 0

; 151  :   for (curTerm = m_Terms.begin(); curTerm != m_Terms.end(); ++curTerm)

	lea	eax, DWORD PTR $T5[ebp]
	push	eax
	mov	ecx, DWORD PTR _this$[ebp]
	add	ecx, 4
	call	?begin@?$vector@PAVFuzzyTerm@@V?$allocator@PAVFuzzyTerm@@@std@@@std@@QBE?AV?$_Vector_const_iterator@V?$_Vector_val@U?$_Simple_types@PAVFuzzyTerm@@@std@@@std@@@2@XZ ; std::vector<FuzzyTerm *,std::allocator<FuzzyTerm *> >::begin
	mov	DWORD PTR tv66[ebp], eax
	mov	ecx, DWORD PTR tv66[ebp]
	mov	DWORD PTR tv139[ebp], ecx
	mov	BYTE PTR __$EHRec$[ebp+8], 1
	mov	edx, DWORD PTR tv139[ebp]
	push	edx
	lea	ecx, DWORD PTR _curTerm$[ebp]
	call	??4?$_Vector_const_iterator@V?$_Vector_val@U?$_Simple_types@PAVFuzzyTerm@@@std@@@std@@@std@@QAEAAV01@ABV01@@Z
	mov	BYTE PTR __$EHRec$[ebp+8], 0
	lea	ecx, DWORD PTR $T5[ebp]
	call	??1?$_Vector_const_iterator@V?$_Vector_val@U?$_Simple_types@PAVFuzzyTerm@@@std@@@std@@@std@@QAE@XZ
	jmp	SHORT $LN4@GetDOM
$LN3@GetDOM:
	lea	ecx, DWORD PTR _curTerm$[ebp]
	call	??E?$_Vector_const_iterator@V?$_Vector_val@U?$_Simple_types@PAVFuzzyTerm@@@std@@@std@@@std@@QAEAAV01@XZ ; std::_Vector_const_iterator<std::_Vector_val<std::_Simple_types<FuzzyTerm *> > >::operator++
$LN4@GetDOM:
	lea	eax, DWORD PTR $T3[ebp]
	push	eax
	mov	ecx, DWORD PTR _this$[ebp]
	add	ecx, 4
	call	?end@?$vector@PAVFuzzyTerm@@V?$allocator@PAVFuzzyTerm@@@std@@@std@@QBE?AV?$_Vector_const_iterator@V?$_Vector_val@U?$_Simple_types@PAVFuzzyTerm@@@std@@@std@@@2@XZ ; std::vector<FuzzyTerm *,std::allocator<FuzzyTerm *> >::end
	mov	DWORD PTR tv143[ebp], eax
	mov	ecx, DWORD PTR tv143[ebp]
	mov	DWORD PTR tv141[ebp], ecx
	mov	BYTE PTR __$EHRec$[ebp+8], 2
	mov	edx, DWORD PTR tv141[ebp]
	push	edx
	lea	ecx, DWORD PTR _curTerm$[ebp]
	call	??9?$_Vector_const_iterator@V?$_Vector_val@U?$_Simple_types@PAVFuzzyTerm@@@std@@@std@@@std@@QBE_NABV01@@Z ; std::_Vector_const_iterator<std::_Vector_val<std::_Simple_types<FuzzyTerm *> > >::operator!=
	mov	BYTE PTR $T4[ebp], al
	mov	BYTE PTR __$EHRec$[ebp+8], 0
	lea	ecx, DWORD PTR $T3[ebp]
	call	??1?$_Vector_const_iterator@V?$_Vector_val@U?$_Simple_types@PAVFuzzyTerm@@@std@@@std@@@std@@QAE@XZ
	movzx	eax, BYTE PTR $T4[ebp]
	test	eax, eax
	je	SHORT $LN2@GetDOM

; 152  :   {
; 153  :     if ((*curTerm)->GetDOM() > largest)

	lea	ecx, DWORD PTR _curTerm$[ebp]
	call	??D?$_Vector_const_iterator@V?$_Vector_val@U?$_Simple_types@PAVFuzzyTerm@@@std@@@std@@@std@@QBEABQAVFuzzyTerm@@XZ ; std::_Vector_const_iterator<std::_Vector_val<std::_Simple_types<FuzzyTerm *> > >::operator*
	mov	ecx, DWORD PTR [eax]
	mov	DWORD PTR tv92[ebp], ecx
	mov	edx, DWORD PTR tv92[ebp]
	mov	eax, DWORD PTR [edx]
	mov	esi, esp
	mov	ecx, DWORD PTR tv92[ebp]
	mov	edx, DWORD PTR [eax+8]
	call	edx
	cmp	esi, esp
	call	__RTC_CheckEsp
	fstp	QWORD PTR tv167[ebp]
	movsd	xmm0, QWORD PTR tv167[ebp]
	comisd	xmm0, QWORD PTR _largest$[ebp]
	jbe	SHORT $LN1@GetDOM

; 154  :     {
; 155  :       largest = (*curTerm)->GetDOM();

	lea	ecx, DWORD PTR _curTerm$[ebp]
	call	??D?$_Vector_const_iterator@V?$_Vector_val@U?$_Simple_types@PAVFuzzyTerm@@@std@@@std@@@std@@QBEABQAVFuzzyTerm@@XZ ; std::_Vector_const_iterator<std::_Vector_val<std::_Simple_types<FuzzyTerm *> > >::operator*
	mov	eax, DWORD PTR [eax]
	mov	DWORD PTR tv133[ebp], eax
	mov	ecx, DWORD PTR tv133[ebp]
	mov	edx, DWORD PTR [ecx]
	mov	esi, esp
	mov	ecx, DWORD PTR tv133[ebp]
	mov	eax, DWORD PTR [edx+8]
	call	eax
	cmp	esi, esp
	call	__RTC_CheckEsp
	fstp	QWORD PTR _largest$[ebp]
$LN1@GetDOM:

; 156  :     }
; 157  :   }

	jmp	$LN3@GetDOM
$LN2@GetDOM:

; 158  : 
; 159  :   return largest;

	movsd	xmm0, QWORD PTR _largest$[ebp]
	movsd	QWORD PTR $T2[ebp], xmm0
	mov	DWORD PTR __$EHRec$[ebp+8], -1
	lea	ecx, DWORD PTR _curTerm$[ebp]
	call	??1?$_Vector_const_iterator@V?$_Vector_val@U?$_Simple_types@PAVFuzzyTerm@@@std@@@std@@@std@@QAE@XZ
	fld	QWORD PTR $T2[ebp]

; 160  : }

	push	edx
	mov	ecx, ebp
	push	eax
	lea	edx, DWORD PTR $LN13@GetDOM
	call	@_RTC_CheckStackVars@8
	pop	eax
	pop	edx
	mov	ecx, DWORD PTR __$EHRec$[ebp]
	mov	DWORD PTR fs:0, ecx
	pop	ecx
	pop	edi
	pop	esi
	add	esp, 112				; 00000070H
	cmp	ebp, esp
	call	__RTC_CheckEsp
	mov	esp, ebp
	pop	ebp
	ret	0
	npad	3
$LN13@GetDOM:
	DD	1
	DD	$LN12@GetDOM
$LN12@GetDOM:
	DD	-40					; ffffffd8H
	DD	12					; 0000000cH
	DD	$LN10@GetDOM
$LN10@GetDOM:
	DB	99					; 00000063H
	DB	117					; 00000075H
	DB	114					; 00000072H
	DB	84					; 00000054H
	DB	101					; 00000065H
	DB	114					; 00000072H
	DB	109					; 0000006dH
	DB	0
_TEXT	ENDS
text$x	SEGMENT
__unwindfunclet$?GetDOM@FzOR@@UBENXZ$0:
	lea	ecx, DWORD PTR _curTerm$[ebp]
	jmp	??1?$_Vector_const_iterator@V?$_Vector_val@U?$_Simple_types@PAVFuzzyTerm@@@std@@@std@@@std@@QAE@XZ
__unwindfunclet$?GetDOM@FzOR@@UBENXZ$1:
	lea	ecx, DWORD PTR $T5[ebp]
	jmp	??1?$_Vector_const_iterator@V?$_Vector_val@U?$_Simple_types@PAVFuzzyTerm@@@std@@@std@@@std@@QAE@XZ
__unwindfunclet$?GetDOM@FzOR@@UBENXZ$2:
	lea	ecx, DWORD PTR $T3[ebp]
	jmp	??1?$_Vector_const_iterator@V?$_Vector_val@U?$_Simple_types@PAVFuzzyTerm@@@std@@@std@@@std@@QAE@XZ
__ehhandler$?GetDOM@FzOR@@UBENXZ:
	mov	edx, DWORD PTR [esp+8]
	lea	eax, DWORD PTR [edx+12]
	mov	ecx, DWORD PTR [edx-112]
	xor	ecx, eax
	call	@__security_check_cookie@4
	mov	eax, OFFSET __ehfuncinfo$?GetDOM@FzOR@@UBENXZ
	jmp	___CxxFrameHandler3
text$x	ENDS
?GetDOM@FzOR@@UBENXZ ENDP				; FzOR::GetDOM
; Function compile flags: /Odtp /RTCsu
; File c:\users\maxime\videos\tp ia\vs2010\common\fuzzy\fuzzyoperators.h
;	COMDAT ?Clone@FzOR@@UBEPAVFuzzyTerm@@XZ
_TEXT	SEGMENT
tv75 = -28						; size = 4
$T2 = -24						; size = 4
$T3 = -20						; size = 4
_this$ = -16						; size = 4
__$EHRec$ = -12						; size = 12
?Clone@FzOR@@UBEPAVFuzzyTerm@@XZ PROC			; FzOR::Clone, COMDAT
; _this$ = ecx

; 81   :   FuzzyTerm* Clone()const{return new FzOR(*this);}

	push	ebp
	mov	ebp, esp
	push	-1
	push	__ehhandler$?Clone@FzOR@@UBEPAVFuzzyTerm@@XZ
	mov	eax, DWORD PTR fs:0
	push	eax
	sub	esp, 16					; 00000010H
	mov	eax, -858993460				; ccccccccH
	mov	DWORD PTR [ebp-28], eax
	mov	DWORD PTR [ebp-24], eax
	mov	DWORD PTR [ebp-20], eax
	mov	DWORD PTR [ebp-16], eax
	mov	eax, DWORD PTR ___security_cookie
	xor	eax, ebp
	push	eax
	lea	eax, DWORD PTR __$EHRec$[ebp]
	mov	DWORD PTR fs:0, eax
	mov	DWORD PTR _this$[ebp], ecx
	push	20					; 00000014H
	call	??2@YAPAXI@Z				; operator new
	add	esp, 4
	mov	DWORD PTR $T2[ebp], eax
	mov	DWORD PTR __$EHRec$[ebp+8], 0
	cmp	DWORD PTR $T2[ebp], 0
	je	SHORT $LN3@Clone
	mov	eax, DWORD PTR _this$[ebp]
	push	eax
	mov	ecx, DWORD PTR $T2[ebp]
	call	??0FzOR@@QAE@ABV0@@Z			; FzOR::FzOR
	mov	DWORD PTR tv75[ebp], eax
	jmp	SHORT $LN4@Clone
$LN3@Clone:
	mov	DWORD PTR tv75[ebp], 0
$LN4@Clone:
	mov	ecx, DWORD PTR tv75[ebp]
	mov	DWORD PTR $T3[ebp], ecx
	mov	DWORD PTR __$EHRec$[ebp+8], -1
	mov	eax, DWORD PTR $T3[ebp]
	mov	ecx, DWORD PTR __$EHRec$[ebp]
	mov	DWORD PTR fs:0, ecx
	pop	ecx
	add	esp, 28					; 0000001cH
	cmp	ebp, esp
	call	__RTC_CheckEsp
	mov	esp, ebp
	pop	ebp
	ret	0
_TEXT	ENDS
;	COMDAT text$x
text$x	SEGMENT
__unwindfunclet$?Clone@FzOR@@UBEPAVFuzzyTerm@@XZ$0:
	mov	eax, DWORD PTR $T2[ebp]
	push	eax
	call	??3@YAXPAX@Z				; operator delete
	pop	ecx
	ret	0
__ehhandler$?Clone@FzOR@@UBEPAVFuzzyTerm@@XZ:
	mov	edx, DWORD PTR [esp+8]
	lea	eax, DWORD PTR [edx+12]
	mov	ecx, DWORD PTR [edx-20]
	xor	ecx, eax
	call	@__security_check_cookie@4
	mov	eax, OFFSET __ehfuncinfo$?Clone@FzOR@@UBEPAVFuzzyTerm@@XZ
	jmp	___CxxFrameHandler3
text$x	ENDS
?Clone@FzOR@@UBEPAVFuzzyTerm@@XZ ENDP			; FzOR::Clone
; Function compile flags: /Odtp /RTCsu
; File c:\users\maxime\videos\tp ia\vs2010\common\fuzzy\fuzzyoperators.cpp
_TEXT	SEGMENT
$T2 = -32						; size = 4
$T3 = -28						; size = 4
$T4 = -24						; size = 4
$T5 = -20						; size = 4
_this$ = -16						; size = 4
__$EHRec$ = -12						; size = 12
_op1$ = 8						; size = 4
_op2$ = 12						; size = 4
_op3$ = 16						; size = 4
_op4$ = 20						; size = 4
??0FzOR@@QAE@AAVFuzzyTerm@@000@Z PROC			; FzOR::FzOR
; _this$ = ecx

; 124  : {

	push	ebp
	mov	ebp, esp
	push	-1
	push	__ehhandler$??0FzOR@@QAE@AAVFuzzyTerm@@000@Z
	mov	eax, DWORD PTR fs:0
	push	eax
	sub	esp, 20					; 00000014H
	push	esi
	mov	eax, -858993460				; ccccccccH
	mov	DWORD PTR [ebp-32], eax
	mov	DWORD PTR [ebp-28], eax
	mov	DWORD PTR [ebp-24], eax
	mov	DWORD PTR [ebp-20], eax
	mov	DWORD PTR [ebp-16], eax
	mov	eax, DWORD PTR ___security_cookie
	xor	eax, ebp
	push	eax
	lea	eax, DWORD PTR __$EHRec$[ebp]
	mov	DWORD PTR fs:0, eax
	mov	DWORD PTR _this$[ebp], ecx
	mov	ecx, DWORD PTR _this$[ebp]
	call	??0FuzzyTerm@@QAE@XZ
	mov	DWORD PTR __$EHRec$[ebp+8], 0
	mov	eax, DWORD PTR _this$[ebp]
	mov	DWORD PTR [eax], OFFSET ??_7FzOR@@6B@
	mov	ecx, DWORD PTR _this$[ebp]
	add	ecx, 4
	call	??0?$vector@PAVFuzzyTerm@@V?$allocator@PAVFuzzyTerm@@@std@@@std@@QAE@XZ ; std::vector<FuzzyTerm *,std::allocator<FuzzyTerm *> >::vector<FuzzyTerm *,std::allocator<FuzzyTerm *> >
	mov	BYTE PTR __$EHRec$[ebp+8], 1

; 125  :    m_Terms.push_back(op1.Clone());

	mov	ecx, DWORD PTR _op1$[ebp]
	mov	edx, DWORD PTR [ecx]
	mov	esi, esp
	mov	ecx, DWORD PTR _op1$[ebp]
	mov	eax, DWORD PTR [edx+4]
	call	eax
	cmp	esi, esp
	call	__RTC_CheckEsp
	mov	DWORD PTR $T5[ebp], eax
	lea	ecx, DWORD PTR $T5[ebp]
	push	ecx
	mov	ecx, DWORD PTR _this$[ebp]
	add	ecx, 4
	call	?push_back@?$vector@PAVFuzzyTerm@@V?$allocator@PAVFuzzyTerm@@@std@@@std@@QAEX$$QAPAVFuzzyTerm@@@Z ; std::vector<FuzzyTerm *,std::allocator<FuzzyTerm *> >::push_back

; 126  :    m_Terms.push_back(op2.Clone());

	mov	edx, DWORD PTR _op2$[ebp]
	mov	eax, DWORD PTR [edx]
	mov	esi, esp
	mov	ecx, DWORD PTR _op2$[ebp]
	mov	edx, DWORD PTR [eax+4]
	call	edx
	cmp	esi, esp
	call	__RTC_CheckEsp
	mov	DWORD PTR $T4[ebp], eax
	lea	eax, DWORD PTR $T4[ebp]
	push	eax
	mov	ecx, DWORD PTR _this$[ebp]
	add	ecx, 4
	call	?push_back@?$vector@PAVFuzzyTerm@@V?$allocator@PAVFuzzyTerm@@@std@@@std@@QAEX$$QAPAVFuzzyTerm@@@Z ; std::vector<FuzzyTerm *,std::allocator<FuzzyTerm *> >::push_back

; 127  :    m_Terms.push_back(op3.Clone());

	mov	ecx, DWORD PTR _op3$[ebp]
	mov	edx, DWORD PTR [ecx]
	mov	esi, esp
	mov	ecx, DWORD PTR _op3$[ebp]
	mov	eax, DWORD PTR [edx+4]
	call	eax
	cmp	esi, esp
	call	__RTC_CheckEsp
	mov	DWORD PTR $T3[ebp], eax
	lea	ecx, DWORD PTR $T3[ebp]
	push	ecx
	mov	ecx, DWORD PTR _this$[ebp]
	add	ecx, 4
	call	?push_back@?$vector@PAVFuzzyTerm@@V?$allocator@PAVFuzzyTerm@@@std@@@std@@QAEX$$QAPAVFuzzyTerm@@@Z ; std::vector<FuzzyTerm *,std::allocator<FuzzyTerm *> >::push_back

; 128  :    m_Terms.push_back(op4.Clone());

	mov	edx, DWORD PTR _op4$[ebp]
	mov	eax, DWORD PTR [edx]
	mov	esi, esp
	mov	ecx, DWORD PTR _op4$[ebp]
	mov	edx, DWORD PTR [eax+4]
	call	edx
	cmp	esi, esp
	call	__RTC_CheckEsp
	mov	DWORD PTR $T2[ebp], eax
	lea	eax, DWORD PTR $T2[ebp]
	push	eax
	mov	ecx, DWORD PTR _this$[ebp]
	add	ecx, 4
	call	?push_back@?$vector@PAVFuzzyTerm@@V?$allocator@PAVFuzzyTerm@@@std@@@std@@QAEX$$QAPAVFuzzyTerm@@@Z ; std::vector<FuzzyTerm *,std::allocator<FuzzyTerm *> >::push_back

; 129  : }

	mov	DWORD PTR __$EHRec$[ebp+8], -1
	mov	eax, DWORD PTR _this$[ebp]
	mov	ecx, DWORD PTR __$EHRec$[ebp]
	mov	DWORD PTR fs:0, ecx
	pop	ecx
	pop	esi
	add	esp, 32					; 00000020H
	cmp	ebp, esp
	call	__RTC_CheckEsp
	mov	esp, ebp
	pop	ebp
	ret	16					; 00000010H
_TEXT	ENDS
text$x	SEGMENT
__unwindfunclet$??0FzOR@@QAE@AAVFuzzyTerm@@000@Z$0:
	mov	ecx, DWORD PTR _this$[ebp]
	jmp	??1FuzzyTerm@@UAE@XZ			; FuzzyTerm::~FuzzyTerm
__unwindfunclet$??0FzOR@@QAE@AAVFuzzyTerm@@000@Z$1:
	mov	ecx, DWORD PTR _this$[ebp]
	add	ecx, 4
	jmp	??1?$vector@PAVFuzzyTerm@@V?$allocator@PAVFuzzyTerm@@@std@@@std@@QAE@XZ ; std::vector<FuzzyTerm *,std::allocator<FuzzyTerm *> >::~vector<FuzzyTerm *,std::allocator<FuzzyTerm *> >
__ehhandler$??0FzOR@@QAE@AAVFuzzyTerm@@000@Z:
	mov	edx, DWORD PTR [esp+8]
	lea	eax, DWORD PTR [edx+12]
	mov	ecx, DWORD PTR [edx-28]
	xor	ecx, eax
	call	@__security_check_cookie@4
	mov	eax, OFFSET __ehfuncinfo$??0FzOR@@QAE@AAVFuzzyTerm@@000@Z
	jmp	___CxxFrameHandler3
text$x	ENDS
??0FzOR@@QAE@AAVFuzzyTerm@@000@Z ENDP			; FzOR::FzOR
; Function compile flags: /Odtp /RTCsu
; File c:\users\maxime\videos\tp ia\vs2010\common\fuzzy\fuzzyoperators.cpp
_TEXT	SEGMENT
$T2 = -28						; size = 4
$T3 = -24						; size = 4
$T4 = -20						; size = 4
_this$ = -16						; size = 4
__$EHRec$ = -12						; size = 12
_op1$ = 8						; size = 4
_op2$ = 12						; size = 4
_op3$ = 16						; size = 4
??0FzOR@@QAE@AAVFuzzyTerm@@00@Z PROC			; FzOR::FzOR
; _this$ = ecx

; 116  : {

	push	ebp
	mov	ebp, esp
	push	-1
	push	__ehhandler$??0FzOR@@QAE@AAVFuzzyTerm@@00@Z
	mov	eax, DWORD PTR fs:0
	push	eax
	sub	esp, 16					; 00000010H
	push	esi
	mov	eax, -858993460				; ccccccccH
	mov	DWORD PTR [ebp-28], eax
	mov	DWORD PTR [ebp-24], eax
	mov	DWORD PTR [ebp-20], eax
	mov	DWORD PTR [ebp-16], eax
	mov	eax, DWORD PTR ___security_cookie
	xor	eax, ebp
	push	eax
	lea	eax, DWORD PTR __$EHRec$[ebp]
	mov	DWORD PTR fs:0, eax
	mov	DWORD PTR _this$[ebp], ecx
	mov	ecx, DWORD PTR _this$[ebp]
	call	??0FuzzyTerm@@QAE@XZ
	mov	DWORD PTR __$EHRec$[ebp+8], 0
	mov	eax, DWORD PTR _this$[ebp]
	mov	DWORD PTR [eax], OFFSET ??_7FzOR@@6B@
	mov	ecx, DWORD PTR _this$[ebp]
	add	ecx, 4
	call	??0?$vector@PAVFuzzyTerm@@V?$allocator@PAVFuzzyTerm@@@std@@@std@@QAE@XZ ; std::vector<FuzzyTerm *,std::allocator<FuzzyTerm *> >::vector<FuzzyTerm *,std::allocator<FuzzyTerm *> >
	mov	BYTE PTR __$EHRec$[ebp+8], 1

; 117  :    m_Terms.push_back(op1.Clone());

	mov	ecx, DWORD PTR _op1$[ebp]
	mov	edx, DWORD PTR [ecx]
	mov	esi, esp
	mov	ecx, DWORD PTR _op1$[ebp]
	mov	eax, DWORD PTR [edx+4]
	call	eax
	cmp	esi, esp
	call	__RTC_CheckEsp
	mov	DWORD PTR $T4[ebp], eax
	lea	ecx, DWORD PTR $T4[ebp]
	push	ecx
	mov	ecx, DWORD PTR _this$[ebp]
	add	ecx, 4
	call	?push_back@?$vector@PAVFuzzyTerm@@V?$allocator@PAVFuzzyTerm@@@std@@@std@@QAEX$$QAPAVFuzzyTerm@@@Z ; std::vector<FuzzyTerm *,std::allocator<FuzzyTerm *> >::push_back

; 118  :    m_Terms.push_back(op2.Clone());

	mov	edx, DWORD PTR _op2$[ebp]
	mov	eax, DWORD PTR [edx]
	mov	esi, esp
	mov	ecx, DWORD PTR _op2$[ebp]
	mov	edx, DWORD PTR [eax+4]
	call	edx
	cmp	esi, esp
	call	__RTC_CheckEsp
	mov	DWORD PTR $T3[ebp], eax
	lea	eax, DWORD PTR $T3[ebp]
	push	eax
	mov	ecx, DWORD PTR _this$[ebp]
	add	ecx, 4
	call	?push_back@?$vector@PAVFuzzyTerm@@V?$allocator@PAVFuzzyTerm@@@std@@@std@@QAEX$$QAPAVFuzzyTerm@@@Z ; std::vector<FuzzyTerm *,std::allocator<FuzzyTerm *> >::push_back

; 119  :    m_Terms.push_back(op3.Clone());

	mov	ecx, DWORD PTR _op3$[ebp]
	mov	edx, DWORD PTR [ecx]
	mov	esi, esp
	mov	ecx, DWORD PTR _op3$[ebp]
	mov	eax, DWORD PTR [edx+4]
	call	eax
	cmp	esi, esp
	call	__RTC_CheckEsp
	mov	DWORD PTR $T2[ebp], eax
	lea	ecx, DWORD PTR $T2[ebp]
	push	ecx
	mov	ecx, DWORD PTR _this$[ebp]
	add	ecx, 4
	call	?push_back@?$vector@PAVFuzzyTerm@@V?$allocator@PAVFuzzyTerm@@@std@@@std@@QAEX$$QAPAVFuzzyTerm@@@Z ; std::vector<FuzzyTerm *,std::allocator<FuzzyTerm *> >::push_back

; 120  : }

	mov	DWORD PTR __$EHRec$[ebp+8], -1
	mov	eax, DWORD PTR _this$[ebp]
	mov	ecx, DWORD PTR __$EHRec$[ebp]
	mov	DWORD PTR fs:0, ecx
	pop	ecx
	pop	esi
	add	esp, 28					; 0000001cH
	cmp	ebp, esp
	call	__RTC_CheckEsp
	mov	esp, ebp
	pop	ebp
	ret	12					; 0000000cH
_TEXT	ENDS
text$x	SEGMENT
__unwindfunclet$??0FzOR@@QAE@AAVFuzzyTerm@@00@Z$0:
	mov	ecx, DWORD PTR _this$[ebp]
	jmp	??1FuzzyTerm@@UAE@XZ			; FuzzyTerm::~FuzzyTerm
__unwindfunclet$??0FzOR@@QAE@AAVFuzzyTerm@@00@Z$1:
	mov	ecx, DWORD PTR _this$[ebp]
	add	ecx, 4
	jmp	??1?$vector@PAVFuzzyTerm@@V?$allocator@PAVFuzzyTerm@@@std@@@std@@QAE@XZ ; std::vector<FuzzyTerm *,std::allocator<FuzzyTerm *> >::~vector<FuzzyTerm *,std::allocator<FuzzyTerm *> >
__ehhandler$??0FzOR@@QAE@AAVFuzzyTerm@@00@Z:
	mov	edx, DWORD PTR [esp+8]
	lea	eax, DWORD PTR [edx+12]
	mov	ecx, DWORD PTR [edx-24]
	xor	ecx, eax
	call	@__security_check_cookie@4
	mov	eax, OFFSET __ehfuncinfo$??0FzOR@@QAE@AAVFuzzyTerm@@00@Z
	jmp	___CxxFrameHandler3
text$x	ENDS
??0FzOR@@QAE@AAVFuzzyTerm@@00@Z ENDP			; FzOR::FzOR
; Function compile flags: /Odtp /RTCsu
; File c:\users\maxime\videos\tp ia\vs2010\common\fuzzy\fuzzyoperators.cpp
_TEXT	SEGMENT
$T2 = -24						; size = 4
$T3 = -20						; size = 4
_this$ = -16						; size = 4
__$EHRec$ = -12						; size = 12
_op1$ = 8						; size = 4
_op2$ = 12						; size = 4
??0FzOR@@QAE@AAVFuzzyTerm@@0@Z PROC			; FzOR::FzOR
; _this$ = ecx

; 109  : {

	push	ebp
	mov	ebp, esp
	push	-1
	push	__ehhandler$??0FzOR@@QAE@AAVFuzzyTerm@@0@Z
	mov	eax, DWORD PTR fs:0
	push	eax
	sub	esp, 12					; 0000000cH
	push	esi
	mov	DWORD PTR [ebp-24], -858993460		; ccccccccH
	mov	DWORD PTR [ebp-20], -858993460		; ccccccccH
	mov	DWORD PTR [ebp-16], -858993460		; ccccccccH
	mov	eax, DWORD PTR ___security_cookie
	xor	eax, ebp
	push	eax
	lea	eax, DWORD PTR __$EHRec$[ebp]
	mov	DWORD PTR fs:0, eax
	mov	DWORD PTR _this$[ebp], ecx
	mov	ecx, DWORD PTR _this$[ebp]
	call	??0FuzzyTerm@@QAE@XZ
	mov	DWORD PTR __$EHRec$[ebp+8], 0
	mov	eax, DWORD PTR _this$[ebp]
	mov	DWORD PTR [eax], OFFSET ??_7FzOR@@6B@
	mov	ecx, DWORD PTR _this$[ebp]
	add	ecx, 4
	call	??0?$vector@PAVFuzzyTerm@@V?$allocator@PAVFuzzyTerm@@@std@@@std@@QAE@XZ ; std::vector<FuzzyTerm *,std::allocator<FuzzyTerm *> >::vector<FuzzyTerm *,std::allocator<FuzzyTerm *> >
	mov	BYTE PTR __$EHRec$[ebp+8], 1

; 110  :    m_Terms.push_back(op1.Clone());

	mov	ecx, DWORD PTR _op1$[ebp]
	mov	edx, DWORD PTR [ecx]
	mov	esi, esp
	mov	ecx, DWORD PTR _op1$[ebp]
	mov	eax, DWORD PTR [edx+4]
	call	eax
	cmp	esi, esp
	call	__RTC_CheckEsp
	mov	DWORD PTR $T3[ebp], eax
	lea	ecx, DWORD PTR $T3[ebp]
	push	ecx
	mov	ecx, DWORD PTR _this$[ebp]
	add	ecx, 4
	call	?push_back@?$vector@PAVFuzzyTerm@@V?$allocator@PAVFuzzyTerm@@@std@@@std@@QAEX$$QAPAVFuzzyTerm@@@Z ; std::vector<FuzzyTerm *,std::allocator<FuzzyTerm *> >::push_back

; 111  :    m_Terms.push_back(op2.Clone());

	mov	edx, DWORD PTR _op2$[ebp]
	mov	eax, DWORD PTR [edx]
	mov	esi, esp
	mov	ecx, DWORD PTR _op2$[ebp]
	mov	edx, DWORD PTR [eax+4]
	call	edx
	cmp	esi, esp
	call	__RTC_CheckEsp
	mov	DWORD PTR $T2[ebp], eax
	lea	eax, DWORD PTR $T2[ebp]
	push	eax
	mov	ecx, DWORD PTR _this$[ebp]
	add	ecx, 4
	call	?push_back@?$vector@PAVFuzzyTerm@@V?$allocator@PAVFuzzyTerm@@@std@@@std@@QAEX$$QAPAVFuzzyTerm@@@Z ; std::vector<FuzzyTerm *,std::allocator<FuzzyTerm *> >::push_back

; 112  : }

	mov	DWORD PTR __$EHRec$[ebp+8], -1
	mov	eax, DWORD PTR _this$[ebp]
	mov	ecx, DWORD PTR __$EHRec$[ebp]
	mov	DWORD PTR fs:0, ecx
	pop	ecx
	pop	esi
	add	esp, 24					; 00000018H
	cmp	ebp, esp
	call	__RTC_CheckEsp
	mov	esp, ebp
	pop	ebp
	ret	8
_TEXT	ENDS
text$x	SEGMENT
__unwindfunclet$??0FzOR@@QAE@AAVFuzzyTerm@@0@Z$0:
	mov	ecx, DWORD PTR _this$[ebp]
	jmp	??1FuzzyTerm@@UAE@XZ			; FuzzyTerm::~FuzzyTerm
__unwindfunclet$??0FzOR@@QAE@AAVFuzzyTerm@@0@Z$1:
	mov	ecx, DWORD PTR _this$[ebp]
	add	ecx, 4
	jmp	??1?$vector@PAVFuzzyTerm@@V?$allocator@PAVFuzzyTerm@@@std@@@std@@QAE@XZ ; std::vector<FuzzyTerm *,std::allocator<FuzzyTerm *> >::~vector<FuzzyTerm *,std::allocator<FuzzyTerm *> >
__ehhandler$??0FzOR@@QAE@AAVFuzzyTerm@@0@Z:
	mov	edx, DWORD PTR [esp+8]
	lea	eax, DWORD PTR [edx+12]
	mov	ecx, DWORD PTR [edx-20]
	xor	ecx, eax
	call	@__security_check_cookie@4
	mov	eax, OFFSET __ehfuncinfo$??0FzOR@@QAE@AAVFuzzyTerm@@0@Z
	jmp	___CxxFrameHandler3
text$x	ENDS
??0FzOR@@QAE@AAVFuzzyTerm@@0@Z ENDP			; FzOR::FzOR
; Function compile flags: /Odtp /RTCsu
; File c:\users\maxime\videos\tp ia\vs2010\common\fuzzy\fuzzyoperators.cpp
_TEXT	SEGMENT
tv146 = -88						; size = 4
tv158 = -84						; size = 4
tv160 = -80						; size = 4
tv156 = -76						; size = 4
tv86 = -72						; size = 4
$T2 = -68						; size = 4
$T3 = -64						; size = 12
$T4 = -49						; size = 1
$T5 = -48						; size = 12
_curTerm$ = -32						; size = 12
_this$ = -16						; size = 4
__$EHRec$ = -12						; size = 12
_fa$ = 8						; size = 4
??0FzOR@@QAE@ABV0@@Z PROC				; FzOR::FzOR
; _this$ = ecx

; 99   : {

	push	ebp
	mov	ebp, esp
	push	-1
	push	__ehhandler$??0FzOR@@QAE@ABV0@@Z
	mov	eax, DWORD PTR fs:0
	push	eax
	sub	esp, 76					; 0000004cH
	push	esi
	push	edi
	push	ecx
	lea	edi, DWORD PTR [ebp-88]
	mov	ecx, 19					; 00000013H
	mov	eax, -858993460				; ccccccccH
	rep stosd
	pop	ecx
	mov	eax, DWORD PTR ___security_cookie
	xor	eax, ebp
	push	eax
	lea	eax, DWORD PTR __$EHRec$[ebp]
	mov	DWORD PTR fs:0, eax
	mov	DWORD PTR _this$[ebp], ecx
	mov	ecx, DWORD PTR _this$[ebp]
	call	??0FuzzyTerm@@QAE@XZ
	mov	DWORD PTR __$EHRec$[ebp+8], 0
	mov	eax, DWORD PTR _this$[ebp]
	mov	DWORD PTR [eax], OFFSET ??_7FzOR@@6B@
	mov	ecx, DWORD PTR _this$[ebp]
	add	ecx, 4
	call	??0?$vector@PAVFuzzyTerm@@V?$allocator@PAVFuzzyTerm@@@std@@@std@@QAE@XZ ; std::vector<FuzzyTerm *,std::allocator<FuzzyTerm *> >::vector<FuzzyTerm *,std::allocator<FuzzyTerm *> >
	mov	BYTE PTR __$EHRec$[ebp+8], 1

; 100  :    std::vector<FuzzyTerm*>::const_iterator curTerm;

	lea	ecx, DWORD PTR _curTerm$[ebp]
	call	??0?$_Vector_const_iterator@V?$_Vector_val@U?$_Simple_types@PAVFuzzyTerm@@@std@@@std@@@std@@QAE@XZ ; std::_Vector_const_iterator<std::_Vector_val<std::_Simple_types<FuzzyTerm *> > >::_Vector_const_iterator<std::_Vector_val<std::_Simple_types<FuzzyTerm *> > >
	mov	BYTE PTR __$EHRec$[ebp+8], 2

; 101  :    for (curTerm = fa.m_Terms.begin(); curTerm != fa.m_Terms.end(); ++curTerm)

	lea	ecx, DWORD PTR $T5[ebp]
	push	ecx
	mov	ecx, DWORD PTR _fa$[ebp]
	add	ecx, 4
	call	?begin@?$vector@PAVFuzzyTerm@@V?$allocator@PAVFuzzyTerm@@@std@@@std@@QBE?AV?$_Vector_const_iterator@V?$_Vector_val@U?$_Simple_types@PAVFuzzyTerm@@@std@@@std@@@2@XZ ; std::vector<FuzzyTerm *,std::allocator<FuzzyTerm *> >::begin
	mov	DWORD PTR tv86[ebp], eax
	mov	edx, DWORD PTR tv86[ebp]
	mov	DWORD PTR tv156[ebp], edx
	mov	BYTE PTR __$EHRec$[ebp+8], 3
	mov	eax, DWORD PTR tv156[ebp]
	push	eax
	lea	ecx, DWORD PTR _curTerm$[ebp]
	call	??4?$_Vector_const_iterator@V?$_Vector_val@U?$_Simple_types@PAVFuzzyTerm@@@std@@@std@@@std@@QAEAAV01@ABV01@@Z
	mov	BYTE PTR __$EHRec$[ebp+8], 2
	lea	ecx, DWORD PTR $T5[ebp]
	call	??1?$_Vector_const_iterator@V?$_Vector_val@U?$_Simple_types@PAVFuzzyTerm@@@std@@@std@@@std@@QAE@XZ
	jmp	SHORT $LN3@FzOR
$LN2@FzOR:
	lea	ecx, DWORD PTR _curTerm$[ebp]
	call	??E?$_Vector_const_iterator@V?$_Vector_val@U?$_Simple_types@PAVFuzzyTerm@@@std@@@std@@@std@@QAEAAV01@XZ ; std::_Vector_const_iterator<std::_Vector_val<std::_Simple_types<FuzzyTerm *> > >::operator++
$LN3@FzOR:
	lea	ecx, DWORD PTR $T3[ebp]
	push	ecx
	mov	ecx, DWORD PTR _fa$[ebp]
	add	ecx, 4
	call	?end@?$vector@PAVFuzzyTerm@@V?$allocator@PAVFuzzyTerm@@@std@@@std@@QBE?AV?$_Vector_const_iterator@V?$_Vector_val@U?$_Simple_types@PAVFuzzyTerm@@@std@@@std@@@2@XZ ; std::vector<FuzzyTerm *,std::allocator<FuzzyTerm *> >::end
	mov	DWORD PTR tv160[ebp], eax
	mov	edx, DWORD PTR tv160[ebp]
	mov	DWORD PTR tv158[ebp], edx
	mov	BYTE PTR __$EHRec$[ebp+8], 4
	mov	eax, DWORD PTR tv158[ebp]
	push	eax
	lea	ecx, DWORD PTR _curTerm$[ebp]
	call	??9?$_Vector_const_iterator@V?$_Vector_val@U?$_Simple_types@PAVFuzzyTerm@@@std@@@std@@@std@@QBE_NABV01@@Z ; std::_Vector_const_iterator<std::_Vector_val<std::_Simple_types<FuzzyTerm *> > >::operator!=
	mov	BYTE PTR $T4[ebp], al
	mov	BYTE PTR __$EHRec$[ebp+8], 2
	lea	ecx, DWORD PTR $T3[ebp]
	call	??1?$_Vector_const_iterator@V?$_Vector_val@U?$_Simple_types@PAVFuzzyTerm@@@std@@@std@@@std@@QAE@XZ
	movzx	ecx, BYTE PTR $T4[ebp]
	test	ecx, ecx
	je	SHORT $LN1@FzOR

; 102  :    {
; 103  :      m_Terms.push_back((*curTerm)->Clone());

	lea	ecx, DWORD PTR _curTerm$[ebp]
	call	??D?$_Vector_const_iterator@V?$_Vector_val@U?$_Simple_types@PAVFuzzyTerm@@@std@@@std@@@std@@QBEABQAVFuzzyTerm@@XZ ; std::_Vector_const_iterator<std::_Vector_val<std::_Simple_types<FuzzyTerm *> > >::operator*
	mov	edx, DWORD PTR [eax]
	mov	DWORD PTR tv146[ebp], edx
	mov	eax, DWORD PTR tv146[ebp]
	mov	edx, DWORD PTR [eax]
	mov	esi, esp
	mov	ecx, DWORD PTR tv146[ebp]
	mov	eax, DWORD PTR [edx+4]
	call	eax
	cmp	esi, esp
	call	__RTC_CheckEsp
	mov	DWORD PTR $T2[ebp], eax
	lea	ecx, DWORD PTR $T2[ebp]
	push	ecx
	mov	ecx, DWORD PTR _this$[ebp]
	add	ecx, 4
	call	?push_back@?$vector@PAVFuzzyTerm@@V?$allocator@PAVFuzzyTerm@@@std@@@std@@QAEX$$QAPAVFuzzyTerm@@@Z ; std::vector<FuzzyTerm *,std::allocator<FuzzyTerm *> >::push_back

; 104  :    }

	jmp	SHORT $LN2@FzOR
$LN1@FzOR:

; 105  : }

	mov	BYTE PTR __$EHRec$[ebp+8], 1
	lea	ecx, DWORD PTR _curTerm$[ebp]
	call	??1?$_Vector_const_iterator@V?$_Vector_val@U?$_Simple_types@PAVFuzzyTerm@@@std@@@std@@@std@@QAE@XZ
	mov	DWORD PTR __$EHRec$[ebp+8], -1
	mov	eax, DWORD PTR _this$[ebp]
	push	edx
	mov	ecx, ebp
	push	eax
	lea	edx, DWORD PTR $LN14@FzOR
	call	@_RTC_CheckStackVars@8
	pop	eax
	pop	edx
	mov	ecx, DWORD PTR __$EHRec$[ebp]
	mov	DWORD PTR fs:0, ecx
	pop	ecx
	pop	edi
	pop	esi
	add	esp, 88					; 00000058H
	cmp	ebp, esp
	call	__RTC_CheckEsp
	mov	esp, ebp
	pop	ebp
	ret	4
	npad	2
$LN14@FzOR:
	DD	1
	DD	$LN13@FzOR
$LN13@FzOR:
	DD	-32					; ffffffe0H
	DD	12					; 0000000cH
	DD	$LN11@FzOR
$LN11@FzOR:
	DB	99					; 00000063H
	DB	117					; 00000075H
	DB	114					; 00000072H
	DB	84					; 00000054H
	DB	101					; 00000065H
	DB	114					; 00000072H
	DB	109					; 0000006dH
	DB	0
_TEXT	ENDS
text$x	SEGMENT
__unwindfunclet$??0FzOR@@QAE@ABV0@@Z$0:
	mov	ecx, DWORD PTR _this$[ebp]
	jmp	??1FuzzyTerm@@UAE@XZ			; FuzzyTerm::~FuzzyTerm
__unwindfunclet$??0FzOR@@QAE@ABV0@@Z$1:
	mov	ecx, DWORD PTR _this$[ebp]
	add	ecx, 4
	jmp	??1?$vector@PAVFuzzyTerm@@V?$allocator@PAVFuzzyTerm@@@std@@@std@@QAE@XZ ; std::vector<FuzzyTerm *,std::allocator<FuzzyTerm *> >::~vector<FuzzyTerm *,std::allocator<FuzzyTerm *> >
__unwindfunclet$??0FzOR@@QAE@ABV0@@Z$2:
	lea	ecx, DWORD PTR _curTerm$[ebp]
	jmp	??1?$_Vector_const_iterator@V?$_Vector_val@U?$_Simple_types@PAVFuzzyTerm@@@std@@@std@@@std@@QAE@XZ
__unwindfunclet$??0FzOR@@QAE@ABV0@@Z$3:
	lea	ecx, DWORD PTR $T5[ebp]
	jmp	??1?$_Vector_const_iterator@V?$_Vector_val@U?$_Simple_types@PAVFuzzyTerm@@@std@@@std@@@std@@QAE@XZ
__unwindfunclet$??0FzOR@@QAE@ABV0@@Z$4:
	lea	ecx, DWORD PTR $T3[ebp]
	jmp	??1?$_Vector_const_iterator@V?$_Vector_val@U?$_Simple_types@PAVFuzzyTerm@@@std@@@std@@@std@@QAE@XZ
__ehhandler$??0FzOR@@QAE@ABV0@@Z:
	mov	edx, DWORD PTR [esp+8]
	lea	eax, DWORD PTR [edx+12]
	mov	ecx, DWORD PTR [edx-88]
	xor	ecx, eax
	call	@__security_check_cookie@4
	mov	eax, OFFSET __ehfuncinfo$??0FzOR@@QAE@ABV0@@Z
	jmp	___CxxFrameHandler3
text$x	ENDS
??0FzOR@@QAE@ABV0@@Z ENDP				; FzOR::FzOR
; Function compile flags: /Odtp /RTCsu
; File c:\users\maxime\videos\tp ia\vs2010\common\fuzzy\fuzzyoperators.cpp
_TEXT	SEGMENT
tv147 = -92						; size = 4
tv155 = -88						; size = 4
tv159 = -84						; size = 4
tv153 = -80						; size = 4
tv77 = -76						; size = 4
$T2 = -72						; size = 4
$T3 = -68						; size = 4
$T4 = -64						; size = 12
$T5 = -49						; size = 1
$T6 = -48						; size = 12
_curTerm$ = -32						; size = 12
_this$ = -16						; size = 4
__$EHRec$ = -12						; size = 12
??1FzOR@@UAE@XZ PROC					; FzOR::~FzOR
; _this$ = ecx

; 133  : {

	push	ebp
	mov	ebp, esp
	push	-1
	push	__ehhandler$??1FzOR@@UAE@XZ
	mov	eax, DWORD PTR fs:0
	push	eax
	sub	esp, 80					; 00000050H
	push	esi
	push	edi
	push	ecx
	lea	edi, DWORD PTR [ebp-92]
	mov	ecx, 20					; 00000014H
	mov	eax, -858993460				; ccccccccH
	rep stosd
	pop	ecx
	mov	eax, DWORD PTR ___security_cookie
	xor	eax, ebp
	push	eax
	lea	eax, DWORD PTR __$EHRec$[ebp]
	mov	DWORD PTR fs:0, eax
	mov	DWORD PTR _this$[ebp], ecx
	mov	eax, DWORD PTR _this$[ebp]
	mov	DWORD PTR [eax], OFFSET ??_7FzOR@@6B@
	mov	DWORD PTR __$EHRec$[ebp+8], 1

; 134  :   std::vector<FuzzyTerm*>::iterator curTerm;

	lea	ecx, DWORD PTR _curTerm$[ebp]
	call	??0?$_Vector_iterator@V?$_Vector_val@U?$_Simple_types@PAVFuzzyTerm@@@std@@@std@@@std@@QAE@XZ ; std::_Vector_iterator<std::_Vector_val<std::_Simple_types<FuzzyTerm *> > >::_Vector_iterator<std::_Vector_val<std::_Simple_types<FuzzyTerm *> > >
	mov	BYTE PTR __$EHRec$[ebp+8], 2

; 135  :   for (curTerm = m_Terms.begin(); curTerm != m_Terms.end(); ++curTerm)

	lea	ecx, DWORD PTR $T6[ebp]
	push	ecx
	mov	ecx, DWORD PTR _this$[ebp]
	add	ecx, 4
	call	?begin@?$vector@PAVFuzzyTerm@@V?$allocator@PAVFuzzyTerm@@@std@@@std@@QAE?AV?$_Vector_iterator@V?$_Vector_val@U?$_Simple_types@PAVFuzzyTerm@@@std@@@std@@@2@XZ ; std::vector<FuzzyTerm *,std::allocator<FuzzyTerm *> >::begin
	mov	DWORD PTR tv77[ebp], eax
	mov	edx, DWORD PTR tv77[ebp]
	mov	DWORD PTR tv153[ebp], edx
	mov	BYTE PTR __$EHRec$[ebp+8], 3
	mov	eax, DWORD PTR tv153[ebp]
	push	eax
	lea	ecx, DWORD PTR _curTerm$[ebp]
	call	??4?$_Vector_iterator@V?$_Vector_val@U?$_Simple_types@PAVFuzzyTerm@@@std@@@std@@@std@@QAEAAV01@ABV01@@Z
	mov	BYTE PTR __$EHRec$[ebp+8], 2
	lea	ecx, DWORD PTR $T6[ebp]
	call	??1?$_Vector_iterator@V?$_Vector_val@U?$_Simple_types@PAVFuzzyTerm@@@std@@@std@@@std@@QAE@XZ
	jmp	SHORT $LN3@FzOR
$LN2@FzOR:
	lea	ecx, DWORD PTR _curTerm$[ebp]
	call	??E?$_Vector_iterator@V?$_Vector_val@U?$_Simple_types@PAVFuzzyTerm@@@std@@@std@@@std@@QAEAAV01@XZ ; std::_Vector_iterator<std::_Vector_val<std::_Simple_types<FuzzyTerm *> > >::operator++
$LN3@FzOR:
	lea	ecx, DWORD PTR $T4[ebp]
	push	ecx
	mov	ecx, DWORD PTR _this$[ebp]
	add	ecx, 4
	call	?end@?$vector@PAVFuzzyTerm@@V?$allocator@PAVFuzzyTerm@@@std@@@std@@QAE?AV?$_Vector_iterator@V?$_Vector_val@U?$_Simple_types@PAVFuzzyTerm@@@std@@@std@@@2@XZ ; std::vector<FuzzyTerm *,std::allocator<FuzzyTerm *> >::end
	mov	DWORD PTR tv159[ebp], eax
	mov	edx, DWORD PTR tv159[ebp]
	mov	DWORD PTR tv155[ebp], edx
	mov	BYTE PTR __$EHRec$[ebp+8], 4
	mov	eax, DWORD PTR tv155[ebp]
	push	eax
	lea	ecx, DWORD PTR _curTerm$[ebp]
	call	??9?$_Vector_const_iterator@V?$_Vector_val@U?$_Simple_types@PAVFuzzyTerm@@@std@@@std@@@std@@QBE_NABV01@@Z ; std::_Vector_const_iterator<std::_Vector_val<std::_Simple_types<FuzzyTerm *> > >::operator!=
	mov	BYTE PTR $T5[ebp], al
	mov	BYTE PTR __$EHRec$[ebp+8], 2
	lea	ecx, DWORD PTR $T4[ebp]
	call	??1?$_Vector_iterator@V?$_Vector_val@U?$_Simple_types@PAVFuzzyTerm@@@std@@@std@@@std@@QAE@XZ
	movzx	ecx, BYTE PTR $T5[ebp]
	test	ecx, ecx
	je	SHORT $LN1@FzOR

; 136  :   {
; 137  :     delete *curTerm;

	lea	ecx, DWORD PTR _curTerm$[ebp]
	call	??D?$_Vector_iterator@V?$_Vector_val@U?$_Simple_types@PAVFuzzyTerm@@@std@@@std@@@std@@QBEAAPAVFuzzyTerm@@XZ ; std::_Vector_iterator<std::_Vector_val<std::_Simple_types<FuzzyTerm *> > >::operator*
	mov	edx, DWORD PTR [eax]
	mov	DWORD PTR $T2[ebp], edx
	mov	eax, DWORD PTR $T2[ebp]
	mov	DWORD PTR $T3[ebp], eax
	cmp	DWORD PTR $T3[ebp], 0
	je	SHORT $LN6@FzOR
	mov	esi, esp
	push	1
	mov	ecx, DWORD PTR $T3[ebp]
	mov	edx, DWORD PTR [ecx]
	mov	ecx, DWORD PTR $T3[ebp]
	mov	eax, DWORD PTR [edx]
	call	eax
	cmp	esi, esp
	call	__RTC_CheckEsp
	mov	DWORD PTR tv147[ebp], eax
	jmp	SHORT $LN7@FzOR
$LN6@FzOR:
	mov	DWORD PTR tv147[ebp], 0
$LN7@FzOR:

; 138  :   }

	jmp	$LN2@FzOR
$LN1@FzOR:

; 139  : }

	mov	BYTE PTR __$EHRec$[ebp+8], 1
	lea	ecx, DWORD PTR _curTerm$[ebp]
	call	??1?$_Vector_iterator@V?$_Vector_val@U?$_Simple_types@PAVFuzzyTerm@@@std@@@std@@@std@@QAE@XZ
	mov	BYTE PTR __$EHRec$[ebp+8], 0
	mov	ecx, DWORD PTR _this$[ebp]
	add	ecx, 4
	call	??1?$vector@PAVFuzzyTerm@@V?$allocator@PAVFuzzyTerm@@@std@@@std@@QAE@XZ ; std::vector<FuzzyTerm *,std::allocator<FuzzyTerm *> >::~vector<FuzzyTerm *,std::allocator<FuzzyTerm *> >
	mov	DWORD PTR __$EHRec$[ebp+8], -1
	mov	ecx, DWORD PTR _this$[ebp]
	call	??1FuzzyTerm@@UAE@XZ			; FuzzyTerm::~FuzzyTerm
	push	edx
	mov	ecx, ebp
	push	eax
	lea	edx, DWORD PTR $LN16@FzOR
	call	@_RTC_CheckStackVars@8
	pop	eax
	pop	edx
	mov	ecx, DWORD PTR __$EHRec$[ebp]
	mov	DWORD PTR fs:0, ecx
	pop	ecx
	pop	edi
	pop	esi
	add	esp, 92					; 0000005cH
	cmp	ebp, esp
	call	__RTC_CheckEsp
	mov	esp, ebp
	pop	ebp
	ret	0
	npad	1
$LN16@FzOR:
	DD	1
	DD	$LN15@FzOR
$LN15@FzOR:
	DD	-32					; ffffffe0H
	DD	12					; 0000000cH
	DD	$LN13@FzOR
$LN13@FzOR:
	DB	99					; 00000063H
	DB	117					; 00000075H
	DB	114					; 00000072H
	DB	84					; 00000054H
	DB	101					; 00000065H
	DB	114					; 00000072H
	DB	109					; 0000006dH
	DB	0
_TEXT	ENDS
text$x	SEGMENT
__unwindfunclet$??1FzOR@@UAE@XZ$0:
	mov	ecx, DWORD PTR _this$[ebp]
	jmp	??1FuzzyTerm@@UAE@XZ			; FuzzyTerm::~FuzzyTerm
__unwindfunclet$??1FzOR@@UAE@XZ$1:
	mov	ecx, DWORD PTR _this$[ebp]
	add	ecx, 4
	jmp	??1?$vector@PAVFuzzyTerm@@V?$allocator@PAVFuzzyTerm@@@std@@@std@@QAE@XZ ; std::vector<FuzzyTerm *,std::allocator<FuzzyTerm *> >::~vector<FuzzyTerm *,std::allocator<FuzzyTerm *> >
__unwindfunclet$??1FzOR@@UAE@XZ$2:
	lea	ecx, DWORD PTR _curTerm$[ebp]
	jmp	??1?$_Vector_iterator@V?$_Vector_val@U?$_Simple_types@PAVFuzzyTerm@@@std@@@std@@@std@@QAE@XZ
__unwindfunclet$??1FzOR@@UAE@XZ$3:
	lea	ecx, DWORD PTR $T6[ebp]
	jmp	??1?$_Vector_iterator@V?$_Vector_val@U?$_Simple_types@PAVFuzzyTerm@@@std@@@std@@@std@@QAE@XZ
__unwindfunclet$??1FzOR@@UAE@XZ$4:
	lea	ecx, DWORD PTR $T4[ebp]
	jmp	??1?$_Vector_iterator@V?$_Vector_val@U?$_Simple_types@PAVFuzzyTerm@@@std@@@std@@@std@@QAE@XZ
__ehhandler$??1FzOR@@UAE@XZ:
	mov	edx, DWORD PTR [esp+8]
	lea	eax, DWORD PTR [edx+12]
	mov	ecx, DWORD PTR [edx-92]
	xor	ecx, eax
	call	@__security_check_cookie@4
	mov	eax, OFFSET __ehfuncinfo$??1FzOR@@UAE@XZ
	jmp	___CxxFrameHandler3
text$x	ENDS
??1FzOR@@UAE@XZ ENDP					; FzOR::~FzOR
; Function compile flags: /Odtp /RTCsu
;	COMDAT ??_GFzAND@@UAEPAXI@Z
_TEXT	SEGMENT
_this$ = -4						; size = 4
___flags$ = 8						; size = 4
??_GFzAND@@UAEPAXI@Z PROC				; FzAND::`scalar deleting destructor', COMDAT
; _this$ = ecx
	push	ebp
	mov	ebp, esp
	push	ecx
	mov	DWORD PTR [ebp-4], -858993460		; ccccccccH
	mov	DWORD PTR _this$[ebp], ecx
	mov	ecx, DWORD PTR _this$[ebp]
	call	??1FzAND@@UAE@XZ			; FzAND::~FzAND
	mov	eax, DWORD PTR ___flags$[ebp]
	and	eax, 1
	je	SHORT $LN1@scalar
	mov	ecx, DWORD PTR _this$[ebp]
	push	ecx
	call	??3@YAXPAX@Z				; operator delete
	add	esp, 4
$LN1@scalar:
	mov	eax, DWORD PTR _this$[ebp]
	add	esp, 4
	cmp	ebp, esp
	call	__RTC_CheckEsp
	mov	esp, ebp
	pop	ebp
	ret	4
??_GFzAND@@UAEPAXI@Z ENDP				; FzAND::`scalar deleting destructor'
_TEXT	ENDS
; Function compile flags: /Odtp /RTCsu
; File c:\users\maxime\videos\tp ia\vs2010\common\fuzzy\fuzzyoperators.cpp
_TEXT	SEGMENT
tv131 = -84						; size = 4
tv139 = -80						; size = 4
tv140 = -76						; size = 4
tv137 = -72						; size = 4
tv65 = -68						; size = 4
$T2 = -64						; size = 12
$T3 = -49						; size = 1
$T4 = -48						; size = 12
_curTerm$ = -32						; size = 12
_this$ = -16						; size = 4
__$EHRec$ = -12						; size = 12
_val$ = 8						; size = 8
?ORwithDOM@FzAND@@UAEXN@Z PROC				; FzAND::ORwithDOM
; _this$ = ecx

; 75   : {

	push	ebp
	mov	ebp, esp
	push	-1
	push	__ehhandler$?ORwithDOM@FzAND@@UAEXN@Z
	mov	eax, DWORD PTR fs:0
	push	eax
	sub	esp, 72					; 00000048H
	push	esi
	push	edi
	push	ecx
	lea	edi, DWORD PTR [ebp-84]
	mov	ecx, 18					; 00000012H
	mov	eax, -858993460				; ccccccccH
	rep stosd
	pop	ecx
	mov	eax, DWORD PTR ___security_cookie
	xor	eax, ebp
	push	eax
	lea	eax, DWORD PTR __$EHRec$[ebp]
	mov	DWORD PTR fs:0, eax
	mov	DWORD PTR _this$[ebp], ecx

; 76   :   std::vector<FuzzyTerm*>::iterator curTerm;

	lea	ecx, DWORD PTR _curTerm$[ebp]
	call	??0?$_Vector_iterator@V?$_Vector_val@U?$_Simple_types@PAVFuzzyTerm@@@std@@@std@@@std@@QAE@XZ ; std::_Vector_iterator<std::_Vector_val<std::_Simple_types<FuzzyTerm *> > >::_Vector_iterator<std::_Vector_val<std::_Simple_types<FuzzyTerm *> > >
	mov	DWORD PTR __$EHRec$[ebp+8], 0

; 77   :   for (curTerm = m_Terms.begin(); curTerm != m_Terms.end(); ++curTerm)

	lea	eax, DWORD PTR $T4[ebp]
	push	eax
	mov	ecx, DWORD PTR _this$[ebp]
	add	ecx, 4
	call	?begin@?$vector@PAVFuzzyTerm@@V?$allocator@PAVFuzzyTerm@@@std@@@std@@QAE?AV?$_Vector_iterator@V?$_Vector_val@U?$_Simple_types@PAVFuzzyTerm@@@std@@@std@@@2@XZ ; std::vector<FuzzyTerm *,std::allocator<FuzzyTerm *> >::begin
	mov	DWORD PTR tv65[ebp], eax
	mov	ecx, DWORD PTR tv65[ebp]
	mov	DWORD PTR tv137[ebp], ecx
	mov	BYTE PTR __$EHRec$[ebp+8], 1
	mov	edx, DWORD PTR tv137[ebp]
	push	edx
	lea	ecx, DWORD PTR _curTerm$[ebp]
	call	??4?$_Vector_iterator@V?$_Vector_val@U?$_Simple_types@PAVFuzzyTerm@@@std@@@std@@@std@@QAEAAV01@ABV01@@Z
	mov	BYTE PTR __$EHRec$[ebp+8], 0
	lea	ecx, DWORD PTR $T4[ebp]
	call	??1?$_Vector_iterator@V?$_Vector_val@U?$_Simple_types@PAVFuzzyTerm@@@std@@@std@@@std@@QAE@XZ
	jmp	SHORT $LN3@ORwithDOM
$LN2@ORwithDOM:
	lea	ecx, DWORD PTR _curTerm$[ebp]
	call	??E?$_Vector_iterator@V?$_Vector_val@U?$_Simple_types@PAVFuzzyTerm@@@std@@@std@@@std@@QAEAAV01@XZ ; std::_Vector_iterator<std::_Vector_val<std::_Simple_types<FuzzyTerm *> > >::operator++
$LN3@ORwithDOM:
	lea	eax, DWORD PTR $T2[ebp]
	push	eax
	mov	ecx, DWORD PTR _this$[ebp]
	add	ecx, 4
	call	?end@?$vector@PAVFuzzyTerm@@V?$allocator@PAVFuzzyTerm@@@std@@@std@@QAE?AV?$_Vector_iterator@V?$_Vector_val@U?$_Simple_types@PAVFuzzyTerm@@@std@@@std@@@2@XZ ; std::vector<FuzzyTerm *,std::allocator<FuzzyTerm *> >::end
	mov	DWORD PTR tv140[ebp], eax
	mov	ecx, DWORD PTR tv140[ebp]
	mov	DWORD PTR tv139[ebp], ecx
	mov	BYTE PTR __$EHRec$[ebp+8], 2
	mov	edx, DWORD PTR tv139[ebp]
	push	edx
	lea	ecx, DWORD PTR _curTerm$[ebp]
	call	??9?$_Vector_const_iterator@V?$_Vector_val@U?$_Simple_types@PAVFuzzyTerm@@@std@@@std@@@std@@QBE_NABV01@@Z ; std::_Vector_const_iterator<std::_Vector_val<std::_Simple_types<FuzzyTerm *> > >::operator!=
	mov	BYTE PTR $T3[ebp], al
	mov	BYTE PTR __$EHRec$[ebp+8], 0
	lea	ecx, DWORD PTR $T2[ebp]
	call	??1?$_Vector_iterator@V?$_Vector_val@U?$_Simple_types@PAVFuzzyTerm@@@std@@@std@@@std@@QAE@XZ
	movzx	eax, BYTE PTR $T3[ebp]
	test	eax, eax
	je	SHORT $LN1@ORwithDOM

; 78   :   {
; 79   :     (*curTerm)->ORwithDOM(val);

	lea	ecx, DWORD PTR _curTerm$[ebp]
	call	??D?$_Vector_iterator@V?$_Vector_val@U?$_Simple_types@PAVFuzzyTerm@@@std@@@std@@@std@@QBEAAPAVFuzzyTerm@@XZ ; std::_Vector_iterator<std::_Vector_val<std::_Simple_types<FuzzyTerm *> > >::operator*
	mov	ecx, DWORD PTR [eax]
	mov	DWORD PTR tv131[ebp], ecx
	mov	esi, esp
	sub	esp, 8
	movsd	xmm0, QWORD PTR _val$[ebp]
	movsd	QWORD PTR [esp], xmm0
	mov	edx, DWORD PTR tv131[ebp]
	mov	eax, DWORD PTR [edx]
	mov	ecx, DWORD PTR tv131[ebp]
	mov	edx, DWORD PTR [eax+16]
	call	edx
	cmp	esi, esp
	call	__RTC_CheckEsp

; 80   :   }

	jmp	SHORT $LN2@ORwithDOM
$LN1@ORwithDOM:

; 81   : }

	mov	DWORD PTR __$EHRec$[ebp+8], -1
	lea	ecx, DWORD PTR _curTerm$[ebp]
	call	??1?$_Vector_iterator@V?$_Vector_val@U?$_Simple_types@PAVFuzzyTerm@@@std@@@std@@@std@@QAE@XZ
	push	edx
	mov	ecx, ebp
	push	eax
	lea	edx, DWORD PTR $LN12@ORwithDOM
	call	@_RTC_CheckStackVars@8
	pop	eax
	pop	edx
	mov	ecx, DWORD PTR __$EHRec$[ebp]
	mov	DWORD PTR fs:0, ecx
	pop	ecx
	pop	edi
	pop	esi
	add	esp, 84					; 00000054H
	cmp	ebp, esp
	call	__RTC_CheckEsp
	mov	esp, ebp
	pop	ebp
	ret	8
	npad	2
$LN12@ORwithDOM:
	DD	1
	DD	$LN11@ORwithDOM
$LN11@ORwithDOM:
	DD	-32					; ffffffe0H
	DD	12					; 0000000cH
	DD	$LN9@ORwithDOM
$LN9@ORwithDOM:
	DB	99					; 00000063H
	DB	117					; 00000075H
	DB	114					; 00000072H
	DB	84					; 00000054H
	DB	101					; 00000065H
	DB	114					; 00000072H
	DB	109					; 0000006dH
	DB	0
_TEXT	ENDS
text$x	SEGMENT
__unwindfunclet$?ORwithDOM@FzAND@@UAEXN@Z$0:
	lea	ecx, DWORD PTR _curTerm$[ebp]
	jmp	??1?$_Vector_iterator@V?$_Vector_val@U?$_Simple_types@PAVFuzzyTerm@@@std@@@std@@@std@@QAE@XZ
__unwindfunclet$?ORwithDOM@FzAND@@UAEXN@Z$1:
	lea	ecx, DWORD PTR $T4[ebp]
	jmp	??1?$_Vector_iterator@V?$_Vector_val@U?$_Simple_types@PAVFuzzyTerm@@@std@@@std@@@std@@QAE@XZ
__unwindfunclet$?ORwithDOM@FzAND@@UAEXN@Z$2:
	lea	ecx, DWORD PTR $T2[ebp]
	jmp	??1?$_Vector_iterator@V?$_Vector_val@U?$_Simple_types@PAVFuzzyTerm@@@std@@@std@@@std@@QAE@XZ
__ehhandler$?ORwithDOM@FzAND@@UAEXN@Z:
	mov	edx, DWORD PTR [esp+8]
	lea	eax, DWORD PTR [edx+12]
	mov	ecx, DWORD PTR [edx-84]
	xor	ecx, eax
	call	@__security_check_cookie@4
	mov	eax, OFFSET __ehfuncinfo$?ORwithDOM@FzAND@@UAEXN@Z
	jmp	___CxxFrameHandler3
text$x	ENDS
?ORwithDOM@FzAND@@UAEXN@Z ENDP				; FzAND::ORwithDOM
; Function compile flags: /Odtp /RTCsu
; File c:\users\maxime\videos\tp ia\vs2010\common\fuzzy\fuzzyoperators.cpp
_TEXT	SEGMENT
tv131 = -84						; size = 4
tv138 = -80						; size = 4
tv139 = -76						; size = 4
tv136 = -72						; size = 4
tv65 = -68						; size = 4
$T2 = -64						; size = 12
$T3 = -49						; size = 1
$T4 = -48						; size = 12
_curTerm$ = -32						; size = 12
_this$ = -16						; size = 4
__$EHRec$ = -12						; size = 12
?ClearDOM@FzAND@@UAEXXZ PROC				; FzAND::ClearDOM
; _this$ = ecx

; 85   : {

	push	ebp
	mov	ebp, esp
	push	-1
	push	__ehhandler$?ClearDOM@FzAND@@UAEXXZ
	mov	eax, DWORD PTR fs:0
	push	eax
	sub	esp, 72					; 00000048H
	push	esi
	push	edi
	push	ecx
	lea	edi, DWORD PTR [ebp-84]
	mov	ecx, 18					; 00000012H
	mov	eax, -858993460				; ccccccccH
	rep stosd
	pop	ecx
	mov	eax, DWORD PTR ___security_cookie
	xor	eax, ebp
	push	eax
	lea	eax, DWORD PTR __$EHRec$[ebp]
	mov	DWORD PTR fs:0, eax
	mov	DWORD PTR _this$[ebp], ecx

; 86   :   std::vector<FuzzyTerm*>::iterator curTerm;

	lea	ecx, DWORD PTR _curTerm$[ebp]
	call	??0?$_Vector_iterator@V?$_Vector_val@U?$_Simple_types@PAVFuzzyTerm@@@std@@@std@@@std@@QAE@XZ ; std::_Vector_iterator<std::_Vector_val<std::_Simple_types<FuzzyTerm *> > >::_Vector_iterator<std::_Vector_val<std::_Simple_types<FuzzyTerm *> > >
	mov	DWORD PTR __$EHRec$[ebp+8], 0

; 87   :   for (curTerm = m_Terms.begin(); curTerm != m_Terms.end(); ++curTerm)

	lea	eax, DWORD PTR $T4[ebp]
	push	eax
	mov	ecx, DWORD PTR _this$[ebp]
	add	ecx, 4
	call	?begin@?$vector@PAVFuzzyTerm@@V?$allocator@PAVFuzzyTerm@@@std@@@std@@QAE?AV?$_Vector_iterator@V?$_Vector_val@U?$_Simple_types@PAVFuzzyTerm@@@std@@@std@@@2@XZ ; std::vector<FuzzyTerm *,std::allocator<FuzzyTerm *> >::begin
	mov	DWORD PTR tv65[ebp], eax
	mov	ecx, DWORD PTR tv65[ebp]
	mov	DWORD PTR tv136[ebp], ecx
	mov	BYTE PTR __$EHRec$[ebp+8], 1
	mov	edx, DWORD PTR tv136[ebp]
	push	edx
	lea	ecx, DWORD PTR _curTerm$[ebp]
	call	??4?$_Vector_iterator@V?$_Vector_val@U?$_Simple_types@PAVFuzzyTerm@@@std@@@std@@@std@@QAEAAV01@ABV01@@Z
	mov	BYTE PTR __$EHRec$[ebp+8], 0
	lea	ecx, DWORD PTR $T4[ebp]
	call	??1?$_Vector_iterator@V?$_Vector_val@U?$_Simple_types@PAVFuzzyTerm@@@std@@@std@@@std@@QAE@XZ
	jmp	SHORT $LN3@ClearDOM
$LN2@ClearDOM:
	lea	ecx, DWORD PTR _curTerm$[ebp]
	call	??E?$_Vector_iterator@V?$_Vector_val@U?$_Simple_types@PAVFuzzyTerm@@@std@@@std@@@std@@QAEAAV01@XZ ; std::_Vector_iterator<std::_Vector_val<std::_Simple_types<FuzzyTerm *> > >::operator++
$LN3@ClearDOM:
	lea	eax, DWORD PTR $T2[ebp]
	push	eax
	mov	ecx, DWORD PTR _this$[ebp]
	add	ecx, 4
	call	?end@?$vector@PAVFuzzyTerm@@V?$allocator@PAVFuzzyTerm@@@std@@@std@@QAE?AV?$_Vector_iterator@V?$_Vector_val@U?$_Simple_types@PAVFuzzyTerm@@@std@@@std@@@2@XZ ; std::vector<FuzzyTerm *,std::allocator<FuzzyTerm *> >::end
	mov	DWORD PTR tv139[ebp], eax
	mov	ecx, DWORD PTR tv139[ebp]
	mov	DWORD PTR tv138[ebp], ecx
	mov	BYTE PTR __$EHRec$[ebp+8], 2
	mov	edx, DWORD PTR tv138[ebp]
	push	edx
	lea	ecx, DWORD PTR _curTerm$[ebp]
	call	??9?$_Vector_const_iterator@V?$_Vector_val@U?$_Simple_types@PAVFuzzyTerm@@@std@@@std@@@std@@QBE_NABV01@@Z ; std::_Vector_const_iterator<std::_Vector_val<std::_Simple_types<FuzzyTerm *> > >::operator!=
	mov	BYTE PTR $T3[ebp], al
	mov	BYTE PTR __$EHRec$[ebp+8], 0
	lea	ecx, DWORD PTR $T2[ebp]
	call	??1?$_Vector_iterator@V?$_Vector_val@U?$_Simple_types@PAVFuzzyTerm@@@std@@@std@@@std@@QAE@XZ
	movzx	eax, BYTE PTR $T3[ebp]
	test	eax, eax
	je	SHORT $LN1@ClearDOM

; 88   :   {
; 89   :     (*curTerm)->ClearDOM();

	lea	ecx, DWORD PTR _curTerm$[ebp]
	call	??D?$_Vector_iterator@V?$_Vector_val@U?$_Simple_types@PAVFuzzyTerm@@@std@@@std@@@std@@QBEAAPAVFuzzyTerm@@XZ ; std::_Vector_iterator<std::_Vector_val<std::_Simple_types<FuzzyTerm *> > >::operator*
	mov	ecx, DWORD PTR [eax]
	mov	DWORD PTR tv131[ebp], ecx
	mov	edx, DWORD PTR tv131[ebp]
	mov	eax, DWORD PTR [edx]
	mov	esi, esp
	mov	ecx, DWORD PTR tv131[ebp]
	mov	edx, DWORD PTR [eax+12]
	call	edx
	cmp	esi, esp
	call	__RTC_CheckEsp

; 90   :   }

	jmp	SHORT $LN2@ClearDOM
$LN1@ClearDOM:

; 91   : }

	mov	DWORD PTR __$EHRec$[ebp+8], -1
	lea	ecx, DWORD PTR _curTerm$[ebp]
	call	??1?$_Vector_iterator@V?$_Vector_val@U?$_Simple_types@PAVFuzzyTerm@@@std@@@std@@@std@@QAE@XZ
	push	edx
	mov	ecx, ebp
	push	eax
	lea	edx, DWORD PTR $LN12@ClearDOM
	call	@_RTC_CheckStackVars@8
	pop	eax
	pop	edx
	mov	ecx, DWORD PTR __$EHRec$[ebp]
	mov	DWORD PTR fs:0, ecx
	pop	ecx
	pop	edi
	pop	esi
	add	esp, 84					; 00000054H
	cmp	ebp, esp
	call	__RTC_CheckEsp
	mov	esp, ebp
	pop	ebp
	ret	0
	npad	1
$LN12@ClearDOM:
	DD	1
	DD	$LN11@ClearDOM
$LN11@ClearDOM:
	DD	-32					; ffffffe0H
	DD	12					; 0000000cH
	DD	$LN9@ClearDOM
$LN9@ClearDOM:
	DB	99					; 00000063H
	DB	117					; 00000075H
	DB	114					; 00000072H
	DB	84					; 00000054H
	DB	101					; 00000065H
	DB	114					; 00000072H
	DB	109					; 0000006dH
	DB	0
_TEXT	ENDS
text$x	SEGMENT
__unwindfunclet$?ClearDOM@FzAND@@UAEXXZ$0:
	lea	ecx, DWORD PTR _curTerm$[ebp]
	jmp	??1?$_Vector_iterator@V?$_Vector_val@U?$_Simple_types@PAVFuzzyTerm@@@std@@@std@@@std@@QAE@XZ
__unwindfunclet$?ClearDOM@FzAND@@UAEXXZ$1:
	lea	ecx, DWORD PTR $T4[ebp]
	jmp	??1?$_Vector_iterator@V?$_Vector_val@U?$_Simple_types@PAVFuzzyTerm@@@std@@@std@@@std@@QAE@XZ
__unwindfunclet$?ClearDOM@FzAND@@UAEXXZ$2:
	lea	ecx, DWORD PTR $T2[ebp]
	jmp	??1?$_Vector_iterator@V?$_Vector_val@U?$_Simple_types@PAVFuzzyTerm@@@std@@@std@@@std@@QAE@XZ
__ehhandler$?ClearDOM@FzAND@@UAEXXZ:
	mov	edx, DWORD PTR [esp+8]
	lea	eax, DWORD PTR [edx+12]
	mov	ecx, DWORD PTR [edx-84]
	xor	ecx, eax
	call	@__security_check_cookie@4
	mov	eax, OFFSET __ehfuncinfo$?ClearDOM@FzAND@@UAEXXZ
	jmp	___CxxFrameHandler3
text$x	ENDS
?ClearDOM@FzAND@@UAEXXZ ENDP				; FzAND::ClearDOM
; Function compile flags: /Odtp /RTCsu
; File c:\users\maxime\videos\tp ia\vs2010\common\fuzzy\fuzzyoperators.cpp
_TEXT	SEGMENT
tv132 = -112						; size = 4
tv167 = -108						; size = 8
tv91 = -100						; size = 4
tv140 = -96						; size = 4
tv142 = -92						; size = 4
tv138 = -88						; size = 4
tv65 = -84						; size = 4
$T2 = -80						; size = 8
$T3 = -72						; size = 12
$T4 = -57						; size = 1
$T5 = -56						; size = 12
_curTerm$ = -40						; size = 12
_smallest$ = -24					; size = 8
_this$ = -16						; size = 4
__$EHRec$ = -12						; size = 12
?GetDOM@FzAND@@UBENXZ PROC				; FzAND::GetDOM
; _this$ = ecx

; 57   : {

	push	ebp
	mov	ebp, esp
	push	-1
	push	__ehhandler$?GetDOM@FzAND@@UBENXZ
	mov	eax, DWORD PTR fs:0
	push	eax
	sub	esp, 100				; 00000064H
	push	esi
	push	edi
	push	ecx
	lea	edi, DWORD PTR [ebp-112]
	mov	ecx, 25					; 00000019H
	mov	eax, -858993460				; ccccccccH
	rep stosd
	pop	ecx
	mov	eax, DWORD PTR ___security_cookie
	xor	eax, ebp
	push	eax
	lea	eax, DWORD PTR __$EHRec$[ebp]
	mov	DWORD PTR fs:0, eax
	mov	DWORD PTR _this$[ebp], ecx

; 58   :   double smallest = MaxDouble;

	movsd	xmm0, QWORD PTR _MaxDouble
	movsd	QWORD PTR _smallest$[ebp], xmm0

; 59   : 
; 60   :   std::vector<FuzzyTerm*>::const_iterator curTerm;

	lea	ecx, DWORD PTR _curTerm$[ebp]
	call	??0?$_Vector_const_iterator@V?$_Vector_val@U?$_Simple_types@PAVFuzzyTerm@@@std@@@std@@@std@@QAE@XZ ; std::_Vector_const_iterator<std::_Vector_val<std::_Simple_types<FuzzyTerm *> > >::_Vector_const_iterator<std::_Vector_val<std::_Simple_types<FuzzyTerm *> > >
	mov	DWORD PTR __$EHRec$[ebp+8], 0

; 61   :   for (curTerm = m_Terms.begin(); curTerm != m_Terms.end(); ++curTerm)

	lea	eax, DWORD PTR $T5[ebp]
	push	eax
	mov	ecx, DWORD PTR _this$[ebp]
	add	ecx, 4
	call	?begin@?$vector@PAVFuzzyTerm@@V?$allocator@PAVFuzzyTerm@@@std@@@std@@QBE?AV?$_Vector_const_iterator@V?$_Vector_val@U?$_Simple_types@PAVFuzzyTerm@@@std@@@std@@@2@XZ ; std::vector<FuzzyTerm *,std::allocator<FuzzyTerm *> >::begin
	mov	DWORD PTR tv65[ebp], eax
	mov	ecx, DWORD PTR tv65[ebp]
	mov	DWORD PTR tv138[ebp], ecx
	mov	BYTE PTR __$EHRec$[ebp+8], 1
	mov	edx, DWORD PTR tv138[ebp]
	push	edx
	lea	ecx, DWORD PTR _curTerm$[ebp]
	call	??4?$_Vector_const_iterator@V?$_Vector_val@U?$_Simple_types@PAVFuzzyTerm@@@std@@@std@@@std@@QAEAAV01@ABV01@@Z
	mov	BYTE PTR __$EHRec$[ebp+8], 0
	lea	ecx, DWORD PTR $T5[ebp]
	call	??1?$_Vector_const_iterator@V?$_Vector_val@U?$_Simple_types@PAVFuzzyTerm@@@std@@@std@@@std@@QAE@XZ
	jmp	SHORT $LN4@GetDOM
$LN3@GetDOM:
	lea	ecx, DWORD PTR _curTerm$[ebp]
	call	??E?$_Vector_const_iterator@V?$_Vector_val@U?$_Simple_types@PAVFuzzyTerm@@@std@@@std@@@std@@QAEAAV01@XZ ; std::_Vector_const_iterator<std::_Vector_val<std::_Simple_types<FuzzyTerm *> > >::operator++
$LN4@GetDOM:
	lea	eax, DWORD PTR $T3[ebp]
	push	eax
	mov	ecx, DWORD PTR _this$[ebp]
	add	ecx, 4
	call	?end@?$vector@PAVFuzzyTerm@@V?$allocator@PAVFuzzyTerm@@@std@@@std@@QBE?AV?$_Vector_const_iterator@V?$_Vector_val@U?$_Simple_types@PAVFuzzyTerm@@@std@@@std@@@2@XZ ; std::vector<FuzzyTerm *,std::allocator<FuzzyTerm *> >::end
	mov	DWORD PTR tv142[ebp], eax
	mov	ecx, DWORD PTR tv142[ebp]
	mov	DWORD PTR tv140[ebp], ecx
	mov	BYTE PTR __$EHRec$[ebp+8], 2
	mov	edx, DWORD PTR tv140[ebp]
	push	edx
	lea	ecx, DWORD PTR _curTerm$[ebp]
	call	??9?$_Vector_const_iterator@V?$_Vector_val@U?$_Simple_types@PAVFuzzyTerm@@@std@@@std@@@std@@QBE_NABV01@@Z ; std::_Vector_const_iterator<std::_Vector_val<std::_Simple_types<FuzzyTerm *> > >::operator!=
	mov	BYTE PTR $T4[ebp], al
	mov	BYTE PTR __$EHRec$[ebp+8], 0
	lea	ecx, DWORD PTR $T3[ebp]
	call	??1?$_Vector_const_iterator@V?$_Vector_val@U?$_Simple_types@PAVFuzzyTerm@@@std@@@std@@@std@@QAE@XZ
	movzx	eax, BYTE PTR $T4[ebp]
	test	eax, eax
	je	SHORT $LN2@GetDOM

; 62   :   {
; 63   :     if ((*curTerm)->GetDOM() < smallest)

	lea	ecx, DWORD PTR _curTerm$[ebp]
	call	??D?$_Vector_const_iterator@V?$_Vector_val@U?$_Simple_types@PAVFuzzyTerm@@@std@@@std@@@std@@QBEABQAVFuzzyTerm@@XZ ; std::_Vector_const_iterator<std::_Vector_val<std::_Simple_types<FuzzyTerm *> > >::operator*
	mov	ecx, DWORD PTR [eax]
	mov	DWORD PTR tv91[ebp], ecx
	mov	edx, DWORD PTR tv91[ebp]
	mov	eax, DWORD PTR [edx]
	mov	esi, esp
	mov	ecx, DWORD PTR tv91[ebp]
	mov	edx, DWORD PTR [eax+8]
	call	edx
	cmp	esi, esp
	call	__RTC_CheckEsp
	fstp	QWORD PTR tv167[ebp]
	movsd	xmm0, QWORD PTR _smallest$[ebp]
	comisd	xmm0, QWORD PTR tv167[ebp]
	jbe	SHORT $LN1@GetDOM

; 64   :     {
; 65   :       smallest = (*curTerm)->GetDOM();

	lea	ecx, DWORD PTR _curTerm$[ebp]
	call	??D?$_Vector_const_iterator@V?$_Vector_val@U?$_Simple_types@PAVFuzzyTerm@@@std@@@std@@@std@@QBEABQAVFuzzyTerm@@XZ ; std::_Vector_const_iterator<std::_Vector_val<std::_Simple_types<FuzzyTerm *> > >::operator*
	mov	eax, DWORD PTR [eax]
	mov	DWORD PTR tv132[ebp], eax
	mov	ecx, DWORD PTR tv132[ebp]
	mov	edx, DWORD PTR [ecx]
	mov	esi, esp
	mov	ecx, DWORD PTR tv132[ebp]
	mov	eax, DWORD PTR [edx+8]
	call	eax
	cmp	esi, esp
	call	__RTC_CheckEsp
	fstp	QWORD PTR _smallest$[ebp]
$LN1@GetDOM:

; 66   :     }
; 67   :   }

	jmp	$LN3@GetDOM
$LN2@GetDOM:

; 68   : 
; 69   :   return smallest;

	movsd	xmm0, QWORD PTR _smallest$[ebp]
	movsd	QWORD PTR $T2[ebp], xmm0
	mov	DWORD PTR __$EHRec$[ebp+8], -1
	lea	ecx, DWORD PTR _curTerm$[ebp]
	call	??1?$_Vector_const_iterator@V?$_Vector_val@U?$_Simple_types@PAVFuzzyTerm@@@std@@@std@@@std@@QAE@XZ
	fld	QWORD PTR $T2[ebp]

; 70   : }

	push	edx
	mov	ecx, ebp
	push	eax
	lea	edx, DWORD PTR $LN13@GetDOM
	call	@_RTC_CheckStackVars@8
	pop	eax
	pop	edx
	mov	ecx, DWORD PTR __$EHRec$[ebp]
	mov	DWORD PTR fs:0, ecx
	pop	ecx
	pop	edi
	pop	esi
	add	esp, 112				; 00000070H
	cmp	ebp, esp
	call	__RTC_CheckEsp
	mov	esp, ebp
	pop	ebp
	ret	0
	npad	3
$LN13@GetDOM:
	DD	1
	DD	$LN12@GetDOM
$LN12@GetDOM:
	DD	-40					; ffffffd8H
	DD	12					; 0000000cH
	DD	$LN10@GetDOM
$LN10@GetDOM:
	DB	99					; 00000063H
	DB	117					; 00000075H
	DB	114					; 00000072H
	DB	84					; 00000054H
	DB	101					; 00000065H
	DB	114					; 00000072H
	DB	109					; 0000006dH
	DB	0
_TEXT	ENDS
text$x	SEGMENT
__unwindfunclet$?GetDOM@FzAND@@UBENXZ$0:
	lea	ecx, DWORD PTR _curTerm$[ebp]
	jmp	??1?$_Vector_const_iterator@V?$_Vector_val@U?$_Simple_types@PAVFuzzyTerm@@@std@@@std@@@std@@QAE@XZ
__unwindfunclet$?GetDOM@FzAND@@UBENXZ$1:
	lea	ecx, DWORD PTR $T5[ebp]
	jmp	??1?$_Vector_const_iterator@V?$_Vector_val@U?$_Simple_types@PAVFuzzyTerm@@@std@@@std@@@std@@QAE@XZ
__unwindfunclet$?GetDOM@FzAND@@UBENXZ$2:
	lea	ecx, DWORD PTR $T3[ebp]
	jmp	??1?$_Vector_const_iterator@V?$_Vector_val@U?$_Simple_types@PAVFuzzyTerm@@@std@@@std@@@std@@QAE@XZ
__ehhandler$?GetDOM@FzAND@@UBENXZ:
	mov	edx, DWORD PTR [esp+8]
	lea	eax, DWORD PTR [edx+12]
	mov	ecx, DWORD PTR [edx-112]
	xor	ecx, eax
	call	@__security_check_cookie@4
	mov	eax, OFFSET __ehfuncinfo$?GetDOM@FzAND@@UBENXZ
	jmp	___CxxFrameHandler3
text$x	ENDS
?GetDOM@FzAND@@UBENXZ ENDP				; FzAND::GetDOM
; Function compile flags: /Odtp /RTCsu
; File c:\users\maxime\videos\tp ia\vs2010\common\fuzzy\fuzzyoperators.h
;	COMDAT ?Clone@FzAND@@UBEPAVFuzzyTerm@@XZ
_TEXT	SEGMENT
tv75 = -28						; size = 4
$T2 = -24						; size = 4
$T3 = -20						; size = 4
_this$ = -16						; size = 4
__$EHRec$ = -12						; size = 12
?Clone@FzAND@@UBEPAVFuzzyTerm@@XZ PROC			; FzAND::Clone, COMDAT
; _this$ = ecx

; 45   :   FuzzyTerm* Clone()const{return new FzAND(*this);}

	push	ebp
	mov	ebp, esp
	push	-1
	push	__ehhandler$?Clone@FzAND@@UBEPAVFuzzyTerm@@XZ
	mov	eax, DWORD PTR fs:0
	push	eax
	sub	esp, 16					; 00000010H
	mov	eax, -858993460				; ccccccccH
	mov	DWORD PTR [ebp-28], eax
	mov	DWORD PTR [ebp-24], eax
	mov	DWORD PTR [ebp-20], eax
	mov	DWORD PTR [ebp-16], eax
	mov	eax, DWORD PTR ___security_cookie
	xor	eax, ebp
	push	eax
	lea	eax, DWORD PTR __$EHRec$[ebp]
	mov	DWORD PTR fs:0, eax
	mov	DWORD PTR _this$[ebp], ecx
	push	20					; 00000014H
	call	??2@YAPAXI@Z				; operator new
	add	esp, 4
	mov	DWORD PTR $T2[ebp], eax
	mov	DWORD PTR __$EHRec$[ebp+8], 0
	cmp	DWORD PTR $T2[ebp], 0
	je	SHORT $LN3@Clone
	mov	eax, DWORD PTR _this$[ebp]
	push	eax
	mov	ecx, DWORD PTR $T2[ebp]
	call	??0FzAND@@QAE@ABV0@@Z			; FzAND::FzAND
	mov	DWORD PTR tv75[ebp], eax
	jmp	SHORT $LN4@Clone
$LN3@Clone:
	mov	DWORD PTR tv75[ebp], 0
$LN4@Clone:
	mov	ecx, DWORD PTR tv75[ebp]
	mov	DWORD PTR $T3[ebp], ecx
	mov	DWORD PTR __$EHRec$[ebp+8], -1
	mov	eax, DWORD PTR $T3[ebp]
	mov	ecx, DWORD PTR __$EHRec$[ebp]
	mov	DWORD PTR fs:0, ecx
	pop	ecx
	add	esp, 28					; 0000001cH
	cmp	ebp, esp
	call	__RTC_CheckEsp
	mov	esp, ebp
	pop	ebp
	ret	0
_TEXT	ENDS
;	COMDAT text$x
text$x	SEGMENT
__unwindfunclet$?Clone@FzAND@@UBEPAVFuzzyTerm@@XZ$0:
	mov	eax, DWORD PTR $T2[ebp]
	push	eax
	call	??3@YAXPAX@Z				; operator delete
	pop	ecx
	ret	0
__ehhandler$?Clone@FzAND@@UBEPAVFuzzyTerm@@XZ:
	mov	edx, DWORD PTR [esp+8]
	lea	eax, DWORD PTR [edx+12]
	mov	ecx, DWORD PTR [edx-20]
	xor	ecx, eax
	call	@__security_check_cookie@4
	mov	eax, OFFSET __ehfuncinfo$?Clone@FzAND@@UBEPAVFuzzyTerm@@XZ
	jmp	___CxxFrameHandler3
text$x	ENDS
?Clone@FzAND@@UBEPAVFuzzyTerm@@XZ ENDP			; FzAND::Clone
; Function compile flags: /Odtp /RTCsu
; File c:\users\maxime\videos\tp ia\vs2010\common\fuzzy\fuzzyoperators.cpp
_TEXT	SEGMENT
$T2 = -32						; size = 4
$T3 = -28						; size = 4
$T4 = -24						; size = 4
$T5 = -20						; size = 4
_this$ = -16						; size = 4
__$EHRec$ = -12						; size = 12
_op1$ = 8						; size = 4
_op2$ = 12						; size = 4
_op3$ = 16						; size = 4
_op4$ = 20						; size = 4
??0FzAND@@QAE@AAVFuzzyTerm@@000@Z PROC			; FzAND::FzAND
; _this$ = ecx

; 34   : {

	push	ebp
	mov	ebp, esp
	push	-1
	push	__ehhandler$??0FzAND@@QAE@AAVFuzzyTerm@@000@Z
	mov	eax, DWORD PTR fs:0
	push	eax
	sub	esp, 20					; 00000014H
	push	esi
	mov	eax, -858993460				; ccccccccH
	mov	DWORD PTR [ebp-32], eax
	mov	DWORD PTR [ebp-28], eax
	mov	DWORD PTR [ebp-24], eax
	mov	DWORD PTR [ebp-20], eax
	mov	DWORD PTR [ebp-16], eax
	mov	eax, DWORD PTR ___security_cookie
	xor	eax, ebp
	push	eax
	lea	eax, DWORD PTR __$EHRec$[ebp]
	mov	DWORD PTR fs:0, eax
	mov	DWORD PTR _this$[ebp], ecx
	mov	ecx, DWORD PTR _this$[ebp]
	call	??0FuzzyTerm@@QAE@XZ
	mov	DWORD PTR __$EHRec$[ebp+8], 0
	mov	eax, DWORD PTR _this$[ebp]
	mov	DWORD PTR [eax], OFFSET ??_7FzAND@@6B@
	mov	ecx, DWORD PTR _this$[ebp]
	add	ecx, 4
	call	??0?$vector@PAVFuzzyTerm@@V?$allocator@PAVFuzzyTerm@@@std@@@std@@QAE@XZ ; std::vector<FuzzyTerm *,std::allocator<FuzzyTerm *> >::vector<FuzzyTerm *,std::allocator<FuzzyTerm *> >
	mov	BYTE PTR __$EHRec$[ebp+8], 1

; 35   :    m_Terms.push_back(op1.Clone());

	mov	ecx, DWORD PTR _op1$[ebp]
	mov	edx, DWORD PTR [ecx]
	mov	esi, esp
	mov	ecx, DWORD PTR _op1$[ebp]
	mov	eax, DWORD PTR [edx+4]
	call	eax
	cmp	esi, esp
	call	__RTC_CheckEsp
	mov	DWORD PTR $T5[ebp], eax
	lea	ecx, DWORD PTR $T5[ebp]
	push	ecx
	mov	ecx, DWORD PTR _this$[ebp]
	add	ecx, 4
	call	?push_back@?$vector@PAVFuzzyTerm@@V?$allocator@PAVFuzzyTerm@@@std@@@std@@QAEX$$QAPAVFuzzyTerm@@@Z ; std::vector<FuzzyTerm *,std::allocator<FuzzyTerm *> >::push_back

; 36   :    m_Terms.push_back(op2.Clone());

	mov	edx, DWORD PTR _op2$[ebp]
	mov	eax, DWORD PTR [edx]
	mov	esi, esp
	mov	ecx, DWORD PTR _op2$[ebp]
	mov	edx, DWORD PTR [eax+4]
	call	edx
	cmp	esi, esp
	call	__RTC_CheckEsp
	mov	DWORD PTR $T4[ebp], eax
	lea	eax, DWORD PTR $T4[ebp]
	push	eax
	mov	ecx, DWORD PTR _this$[ebp]
	add	ecx, 4
	call	?push_back@?$vector@PAVFuzzyTerm@@V?$allocator@PAVFuzzyTerm@@@std@@@std@@QAEX$$QAPAVFuzzyTerm@@@Z ; std::vector<FuzzyTerm *,std::allocator<FuzzyTerm *> >::push_back

; 37   :    m_Terms.push_back(op3.Clone());

	mov	ecx, DWORD PTR _op3$[ebp]
	mov	edx, DWORD PTR [ecx]
	mov	esi, esp
	mov	ecx, DWORD PTR _op3$[ebp]
	mov	eax, DWORD PTR [edx+4]
	call	eax
	cmp	esi, esp
	call	__RTC_CheckEsp
	mov	DWORD PTR $T3[ebp], eax
	lea	ecx, DWORD PTR $T3[ebp]
	push	ecx
	mov	ecx, DWORD PTR _this$[ebp]
	add	ecx, 4
	call	?push_back@?$vector@PAVFuzzyTerm@@V?$allocator@PAVFuzzyTerm@@@std@@@std@@QAEX$$QAPAVFuzzyTerm@@@Z ; std::vector<FuzzyTerm *,std::allocator<FuzzyTerm *> >::push_back

; 38   :    m_Terms.push_back(op4.Clone());

	mov	edx, DWORD PTR _op4$[ebp]
	mov	eax, DWORD PTR [edx]
	mov	esi, esp
	mov	ecx, DWORD PTR _op4$[ebp]
	mov	edx, DWORD PTR [eax+4]
	call	edx
	cmp	esi, esp
	call	__RTC_CheckEsp
	mov	DWORD PTR $T2[ebp], eax
	lea	eax, DWORD PTR $T2[ebp]
	push	eax
	mov	ecx, DWORD PTR _this$[ebp]
	add	ecx, 4
	call	?push_back@?$vector@PAVFuzzyTerm@@V?$allocator@PAVFuzzyTerm@@@std@@@std@@QAEX$$QAPAVFuzzyTerm@@@Z ; std::vector<FuzzyTerm *,std::allocator<FuzzyTerm *> >::push_back

; 39   : }

	mov	DWORD PTR __$EHRec$[ebp+8], -1
	mov	eax, DWORD PTR _this$[ebp]
	mov	ecx, DWORD PTR __$EHRec$[ebp]
	mov	DWORD PTR fs:0, ecx
	pop	ecx
	pop	esi
	add	esp, 32					; 00000020H
	cmp	ebp, esp
	call	__RTC_CheckEsp
	mov	esp, ebp
	pop	ebp
	ret	16					; 00000010H
_TEXT	ENDS
text$x	SEGMENT
__unwindfunclet$??0FzAND@@QAE@AAVFuzzyTerm@@000@Z$0:
	mov	ecx, DWORD PTR _this$[ebp]
	jmp	??1FuzzyTerm@@UAE@XZ			; FuzzyTerm::~FuzzyTerm
__unwindfunclet$??0FzAND@@QAE@AAVFuzzyTerm@@000@Z$1:
	mov	ecx, DWORD PTR _this$[ebp]
	add	ecx, 4
	jmp	??1?$vector@PAVFuzzyTerm@@V?$allocator@PAVFuzzyTerm@@@std@@@std@@QAE@XZ ; std::vector<FuzzyTerm *,std::allocator<FuzzyTerm *> >::~vector<FuzzyTerm *,std::allocator<FuzzyTerm *> >
__ehhandler$??0FzAND@@QAE@AAVFuzzyTerm@@000@Z:
	mov	edx, DWORD PTR [esp+8]
	lea	eax, DWORD PTR [edx+12]
	mov	ecx, DWORD PTR [edx-28]
	xor	ecx, eax
	call	@__security_check_cookie@4
	mov	eax, OFFSET __ehfuncinfo$??0FzAND@@QAE@AAVFuzzyTerm@@000@Z
	jmp	___CxxFrameHandler3
text$x	ENDS
??0FzAND@@QAE@AAVFuzzyTerm@@000@Z ENDP			; FzAND::FzAND
; Function compile flags: /Odtp /RTCsu
; File c:\users\maxime\videos\tp ia\vs2010\common\fuzzy\fuzzyoperators.cpp
_TEXT	SEGMENT
$T2 = -28						; size = 4
$T3 = -24						; size = 4
$T4 = -20						; size = 4
_this$ = -16						; size = 4
__$EHRec$ = -12						; size = 12
_op1$ = 8						; size = 4
_op2$ = 12						; size = 4
_op3$ = 16						; size = 4
??0FzAND@@QAE@AAVFuzzyTerm@@00@Z PROC			; FzAND::FzAND
; _this$ = ecx

; 26   : {

	push	ebp
	mov	ebp, esp
	push	-1
	push	__ehhandler$??0FzAND@@QAE@AAVFuzzyTerm@@00@Z
	mov	eax, DWORD PTR fs:0
	push	eax
	sub	esp, 16					; 00000010H
	push	esi
	mov	eax, -858993460				; ccccccccH
	mov	DWORD PTR [ebp-28], eax
	mov	DWORD PTR [ebp-24], eax
	mov	DWORD PTR [ebp-20], eax
	mov	DWORD PTR [ebp-16], eax
	mov	eax, DWORD PTR ___security_cookie
	xor	eax, ebp
	push	eax
	lea	eax, DWORD PTR __$EHRec$[ebp]
	mov	DWORD PTR fs:0, eax
	mov	DWORD PTR _this$[ebp], ecx
	mov	ecx, DWORD PTR _this$[ebp]
	call	??0FuzzyTerm@@QAE@XZ
	mov	DWORD PTR __$EHRec$[ebp+8], 0
	mov	eax, DWORD PTR _this$[ebp]
	mov	DWORD PTR [eax], OFFSET ??_7FzAND@@6B@
	mov	ecx, DWORD PTR _this$[ebp]
	add	ecx, 4
	call	??0?$vector@PAVFuzzyTerm@@V?$allocator@PAVFuzzyTerm@@@std@@@std@@QAE@XZ ; std::vector<FuzzyTerm *,std::allocator<FuzzyTerm *> >::vector<FuzzyTerm *,std::allocator<FuzzyTerm *> >
	mov	BYTE PTR __$EHRec$[ebp+8], 1

; 27   :    m_Terms.push_back(op1.Clone());

	mov	ecx, DWORD PTR _op1$[ebp]
	mov	edx, DWORD PTR [ecx]
	mov	esi, esp
	mov	ecx, DWORD PTR _op1$[ebp]
	mov	eax, DWORD PTR [edx+4]
	call	eax
	cmp	esi, esp
	call	__RTC_CheckEsp
	mov	DWORD PTR $T4[ebp], eax
	lea	ecx, DWORD PTR $T4[ebp]
	push	ecx
	mov	ecx, DWORD PTR _this$[ebp]
	add	ecx, 4
	call	?push_back@?$vector@PAVFuzzyTerm@@V?$allocator@PAVFuzzyTerm@@@std@@@std@@QAEX$$QAPAVFuzzyTerm@@@Z ; std::vector<FuzzyTerm *,std::allocator<FuzzyTerm *> >::push_back

; 28   :    m_Terms.push_back(op2.Clone());

	mov	edx, DWORD PTR _op2$[ebp]
	mov	eax, DWORD PTR [edx]
	mov	esi, esp
	mov	ecx, DWORD PTR _op2$[ebp]
	mov	edx, DWORD PTR [eax+4]
	call	edx
	cmp	esi, esp
	call	__RTC_CheckEsp
	mov	DWORD PTR $T3[ebp], eax
	lea	eax, DWORD PTR $T3[ebp]
	push	eax
	mov	ecx, DWORD PTR _this$[ebp]
	add	ecx, 4
	call	?push_back@?$vector@PAVFuzzyTerm@@V?$allocator@PAVFuzzyTerm@@@std@@@std@@QAEX$$QAPAVFuzzyTerm@@@Z ; std::vector<FuzzyTerm *,std::allocator<FuzzyTerm *> >::push_back

; 29   :    m_Terms.push_back(op3.Clone());

	mov	ecx, DWORD PTR _op3$[ebp]
	mov	edx, DWORD PTR [ecx]
	mov	esi, esp
	mov	ecx, DWORD PTR _op3$[ebp]
	mov	eax, DWORD PTR [edx+4]
	call	eax
	cmp	esi, esp
	call	__RTC_CheckEsp
	mov	DWORD PTR $T2[ebp], eax
	lea	ecx, DWORD PTR $T2[ebp]
	push	ecx
	mov	ecx, DWORD PTR _this$[ebp]
	add	ecx, 4
	call	?push_back@?$vector@PAVFuzzyTerm@@V?$allocator@PAVFuzzyTerm@@@std@@@std@@QAEX$$QAPAVFuzzyTerm@@@Z ; std::vector<FuzzyTerm *,std::allocator<FuzzyTerm *> >::push_back

; 30   : }

	mov	DWORD PTR __$EHRec$[ebp+8], -1
	mov	eax, DWORD PTR _this$[ebp]
	mov	ecx, DWORD PTR __$EHRec$[ebp]
	mov	DWORD PTR fs:0, ecx
	pop	ecx
	pop	esi
	add	esp, 28					; 0000001cH
	cmp	ebp, esp
	call	__RTC_CheckEsp
	mov	esp, ebp
	pop	ebp
	ret	12					; 0000000cH
_TEXT	ENDS
text$x	SEGMENT
__unwindfunclet$??0FzAND@@QAE@AAVFuzzyTerm@@00@Z$0:
	mov	ecx, DWORD PTR _this$[ebp]
	jmp	??1FuzzyTerm@@UAE@XZ			; FuzzyTerm::~FuzzyTerm
__unwindfunclet$??0FzAND@@QAE@AAVFuzzyTerm@@00@Z$1:
	mov	ecx, DWORD PTR _this$[ebp]
	add	ecx, 4
	jmp	??1?$vector@PAVFuzzyTerm@@V?$allocator@PAVFuzzyTerm@@@std@@@std@@QAE@XZ ; std::vector<FuzzyTerm *,std::allocator<FuzzyTerm *> >::~vector<FuzzyTerm *,std::allocator<FuzzyTerm *> >
__ehhandler$??0FzAND@@QAE@AAVFuzzyTerm@@00@Z:
	mov	edx, DWORD PTR [esp+8]
	lea	eax, DWORD PTR [edx+12]
	mov	ecx, DWORD PTR [edx-24]
	xor	ecx, eax
	call	@__security_check_cookie@4
	mov	eax, OFFSET __ehfuncinfo$??0FzAND@@QAE@AAVFuzzyTerm@@00@Z
	jmp	___CxxFrameHandler3
text$x	ENDS
??0FzAND@@QAE@AAVFuzzyTerm@@00@Z ENDP			; FzAND::FzAND
; Function compile flags: /Odtp /RTCsu
; File c:\users\maxime\videos\tp ia\vs2010\common\fuzzy\fuzzyoperators.cpp
_TEXT	SEGMENT
$T2 = -24						; size = 4
$T3 = -20						; size = 4
_this$ = -16						; size = 4
__$EHRec$ = -12						; size = 12
_op1$ = 8						; size = 4
_op2$ = 12						; size = 4
??0FzAND@@QAE@AAVFuzzyTerm@@0@Z PROC			; FzAND::FzAND
; _this$ = ecx

; 19   : {

	push	ebp
	mov	ebp, esp
	push	-1
	push	__ehhandler$??0FzAND@@QAE@AAVFuzzyTerm@@0@Z
	mov	eax, DWORD PTR fs:0
	push	eax
	sub	esp, 12					; 0000000cH
	push	esi
	mov	DWORD PTR [ebp-24], -858993460		; ccccccccH
	mov	DWORD PTR [ebp-20], -858993460		; ccccccccH
	mov	DWORD PTR [ebp-16], -858993460		; ccccccccH
	mov	eax, DWORD PTR ___security_cookie
	xor	eax, ebp
	push	eax
	lea	eax, DWORD PTR __$EHRec$[ebp]
	mov	DWORD PTR fs:0, eax
	mov	DWORD PTR _this$[ebp], ecx
	mov	ecx, DWORD PTR _this$[ebp]
	call	??0FuzzyTerm@@QAE@XZ
	mov	DWORD PTR __$EHRec$[ebp+8], 0
	mov	eax, DWORD PTR _this$[ebp]
	mov	DWORD PTR [eax], OFFSET ??_7FzAND@@6B@
	mov	ecx, DWORD PTR _this$[ebp]
	add	ecx, 4
	call	??0?$vector@PAVFuzzyTerm@@V?$allocator@PAVFuzzyTerm@@@std@@@std@@QAE@XZ ; std::vector<FuzzyTerm *,std::allocator<FuzzyTerm *> >::vector<FuzzyTerm *,std::allocator<FuzzyTerm *> >
	mov	BYTE PTR __$EHRec$[ebp+8], 1

; 20   :    m_Terms.push_back(op1.Clone());

	mov	ecx, DWORD PTR _op1$[ebp]
	mov	edx, DWORD PTR [ecx]
	mov	esi, esp
	mov	ecx, DWORD PTR _op1$[ebp]
	mov	eax, DWORD PTR [edx+4]
	call	eax
	cmp	esi, esp
	call	__RTC_CheckEsp
	mov	DWORD PTR $T3[ebp], eax
	lea	ecx, DWORD PTR $T3[ebp]
	push	ecx
	mov	ecx, DWORD PTR _this$[ebp]
	add	ecx, 4
	call	?push_back@?$vector@PAVFuzzyTerm@@V?$allocator@PAVFuzzyTerm@@@std@@@std@@QAEX$$QAPAVFuzzyTerm@@@Z ; std::vector<FuzzyTerm *,std::allocator<FuzzyTerm *> >::push_back

; 21   :    m_Terms.push_back(op2.Clone());

	mov	edx, DWORD PTR _op2$[ebp]
	mov	eax, DWORD PTR [edx]
	mov	esi, esp
	mov	ecx, DWORD PTR _op2$[ebp]
	mov	edx, DWORD PTR [eax+4]
	call	edx
	cmp	esi, esp
	call	__RTC_CheckEsp
	mov	DWORD PTR $T2[ebp], eax
	lea	eax, DWORD PTR $T2[ebp]
	push	eax
	mov	ecx, DWORD PTR _this$[ebp]
	add	ecx, 4
	call	?push_back@?$vector@PAVFuzzyTerm@@V?$allocator@PAVFuzzyTerm@@@std@@@std@@QAEX$$QAPAVFuzzyTerm@@@Z ; std::vector<FuzzyTerm *,std::allocator<FuzzyTerm *> >::push_back

; 22   : }

	mov	DWORD PTR __$EHRec$[ebp+8], -1
	mov	eax, DWORD PTR _this$[ebp]
	mov	ecx, DWORD PTR __$EHRec$[ebp]
	mov	DWORD PTR fs:0, ecx
	pop	ecx
	pop	esi
	add	esp, 24					; 00000018H
	cmp	ebp, esp
	call	__RTC_CheckEsp
	mov	esp, ebp
	pop	ebp
	ret	8
_TEXT	ENDS
text$x	SEGMENT
__unwindfunclet$??0FzAND@@QAE@AAVFuzzyTerm@@0@Z$0:
	mov	ecx, DWORD PTR _this$[ebp]
	jmp	??1FuzzyTerm@@UAE@XZ			; FuzzyTerm::~FuzzyTerm
__unwindfunclet$??0FzAND@@QAE@AAVFuzzyTerm@@0@Z$1:
	mov	ecx, DWORD PTR _this$[ebp]
	add	ecx, 4
	jmp	??1?$vector@PAVFuzzyTerm@@V?$allocator@PAVFuzzyTerm@@@std@@@std@@QAE@XZ ; std::vector<FuzzyTerm *,std::allocator<FuzzyTerm *> >::~vector<FuzzyTerm *,std::allocator<FuzzyTerm *> >
__ehhandler$??0FzAND@@QAE@AAVFuzzyTerm@@0@Z:
	mov	edx, DWORD PTR [esp+8]
	lea	eax, DWORD PTR [edx+12]
	mov	ecx, DWORD PTR [edx-20]
	xor	ecx, eax
	call	@__security_check_cookie@4
	mov	eax, OFFSET __ehfuncinfo$??0FzAND@@QAE@AAVFuzzyTerm@@0@Z
	jmp	___CxxFrameHandler3
text$x	ENDS
??0FzAND@@QAE@AAVFuzzyTerm@@0@Z ENDP			; FzAND::FzAND
; Function compile flags: /Odtp /RTCsu
; File c:\users\maxime\videos\tp ia\vs2010\common\fuzzy\fuzzyoperators.cpp
_TEXT	SEGMENT
tv146 = -88						; size = 4
tv158 = -84						; size = 4
tv160 = -80						; size = 4
tv156 = -76						; size = 4
tv86 = -72						; size = 4
$T2 = -68						; size = 4
$T3 = -64						; size = 12
$T4 = -49						; size = 1
$T5 = -48						; size = 12
_curTerm$ = -32						; size = 12
_this$ = -16						; size = 4
__$EHRec$ = -12						; size = 12
_fa$ = 8						; size = 4
??0FzAND@@QAE@ABV0@@Z PROC				; FzAND::FzAND
; _this$ = ecx

; 9    : {

	push	ebp
	mov	ebp, esp
	push	-1
	push	__ehhandler$??0FzAND@@QAE@ABV0@@Z
	mov	eax, DWORD PTR fs:0
	push	eax
	sub	esp, 76					; 0000004cH
	push	esi
	push	edi
	push	ecx
	lea	edi, DWORD PTR [ebp-88]
	mov	ecx, 19					; 00000013H
	mov	eax, -858993460				; ccccccccH
	rep stosd
	pop	ecx
	mov	eax, DWORD PTR ___security_cookie
	xor	eax, ebp
	push	eax
	lea	eax, DWORD PTR __$EHRec$[ebp]
	mov	DWORD PTR fs:0, eax
	mov	DWORD PTR _this$[ebp], ecx
	mov	ecx, DWORD PTR _this$[ebp]
	call	??0FuzzyTerm@@QAE@XZ
	mov	DWORD PTR __$EHRec$[ebp+8], 0
	mov	eax, DWORD PTR _this$[ebp]
	mov	DWORD PTR [eax], OFFSET ??_7FzAND@@6B@
	mov	ecx, DWORD PTR _this$[ebp]
	add	ecx, 4
	call	??0?$vector@PAVFuzzyTerm@@V?$allocator@PAVFuzzyTerm@@@std@@@std@@QAE@XZ ; std::vector<FuzzyTerm *,std::allocator<FuzzyTerm *> >::vector<FuzzyTerm *,std::allocator<FuzzyTerm *> >
	mov	BYTE PTR __$EHRec$[ebp+8], 1

; 10   :    std::vector<FuzzyTerm*>::const_iterator curTerm;

	lea	ecx, DWORD PTR _curTerm$[ebp]
	call	??0?$_Vector_const_iterator@V?$_Vector_val@U?$_Simple_types@PAVFuzzyTerm@@@std@@@std@@@std@@QAE@XZ ; std::_Vector_const_iterator<std::_Vector_val<std::_Simple_types<FuzzyTerm *> > >::_Vector_const_iterator<std::_Vector_val<std::_Simple_types<FuzzyTerm *> > >
	mov	BYTE PTR __$EHRec$[ebp+8], 2

; 11   :    for (curTerm = fa.m_Terms.begin(); curTerm != fa.m_Terms.end(); ++curTerm)

	lea	ecx, DWORD PTR $T5[ebp]
	push	ecx
	mov	ecx, DWORD PTR _fa$[ebp]
	add	ecx, 4
	call	?begin@?$vector@PAVFuzzyTerm@@V?$allocator@PAVFuzzyTerm@@@std@@@std@@QBE?AV?$_Vector_const_iterator@V?$_Vector_val@U?$_Simple_types@PAVFuzzyTerm@@@std@@@std@@@2@XZ ; std::vector<FuzzyTerm *,std::allocator<FuzzyTerm *> >::begin
	mov	DWORD PTR tv86[ebp], eax
	mov	edx, DWORD PTR tv86[ebp]
	mov	DWORD PTR tv156[ebp], edx
	mov	BYTE PTR __$EHRec$[ebp+8], 3
	mov	eax, DWORD PTR tv156[ebp]
	push	eax
	lea	ecx, DWORD PTR _curTerm$[ebp]
	call	??4?$_Vector_const_iterator@V?$_Vector_val@U?$_Simple_types@PAVFuzzyTerm@@@std@@@std@@@std@@QAEAAV01@ABV01@@Z
	mov	BYTE PTR __$EHRec$[ebp+8], 2
	lea	ecx, DWORD PTR $T5[ebp]
	call	??1?$_Vector_const_iterator@V?$_Vector_val@U?$_Simple_types@PAVFuzzyTerm@@@std@@@std@@@std@@QAE@XZ
	jmp	SHORT $LN3@FzAND
$LN2@FzAND:
	lea	ecx, DWORD PTR _curTerm$[ebp]
	call	??E?$_Vector_const_iterator@V?$_Vector_val@U?$_Simple_types@PAVFuzzyTerm@@@std@@@std@@@std@@QAEAAV01@XZ ; std::_Vector_const_iterator<std::_Vector_val<std::_Simple_types<FuzzyTerm *> > >::operator++
$LN3@FzAND:
	lea	ecx, DWORD PTR $T3[ebp]
	push	ecx
	mov	ecx, DWORD PTR _fa$[ebp]
	add	ecx, 4
	call	?end@?$vector@PAVFuzzyTerm@@V?$allocator@PAVFuzzyTerm@@@std@@@std@@QBE?AV?$_Vector_const_iterator@V?$_Vector_val@U?$_Simple_types@PAVFuzzyTerm@@@std@@@std@@@2@XZ ; std::vector<FuzzyTerm *,std::allocator<FuzzyTerm *> >::end
	mov	DWORD PTR tv160[ebp], eax
	mov	edx, DWORD PTR tv160[ebp]
	mov	DWORD PTR tv158[ebp], edx
	mov	BYTE PTR __$EHRec$[ebp+8], 4
	mov	eax, DWORD PTR tv158[ebp]
	push	eax
	lea	ecx, DWORD PTR _curTerm$[ebp]
	call	??9?$_Vector_const_iterator@V?$_Vector_val@U?$_Simple_types@PAVFuzzyTerm@@@std@@@std@@@std@@QBE_NABV01@@Z ; std::_Vector_const_iterator<std::_Vector_val<std::_Simple_types<FuzzyTerm *> > >::operator!=
	mov	BYTE PTR $T4[ebp], al
	mov	BYTE PTR __$EHRec$[ebp+8], 2
	lea	ecx, DWORD PTR $T3[ebp]
	call	??1?$_Vector_const_iterator@V?$_Vector_val@U?$_Simple_types@PAVFuzzyTerm@@@std@@@std@@@std@@QAE@XZ
	movzx	ecx, BYTE PTR $T4[ebp]
	test	ecx, ecx
	je	SHORT $LN1@FzAND

; 12   :    {
; 13   :      m_Terms.push_back((*curTerm)->Clone());

	lea	ecx, DWORD PTR _curTerm$[ebp]
	call	??D?$_Vector_const_iterator@V?$_Vector_val@U?$_Simple_types@PAVFuzzyTerm@@@std@@@std@@@std@@QBEABQAVFuzzyTerm@@XZ ; std::_Vector_const_iterator<std::_Vector_val<std::_Simple_types<FuzzyTerm *> > >::operator*
	mov	edx, DWORD PTR [eax]
	mov	DWORD PTR tv146[ebp], edx
	mov	eax, DWORD PTR tv146[ebp]
	mov	edx, DWORD PTR [eax]
	mov	esi, esp
	mov	ecx, DWORD PTR tv146[ebp]
	mov	eax, DWORD PTR [edx+4]
	call	eax
	cmp	esi, esp
	call	__RTC_CheckEsp
	mov	DWORD PTR $T2[ebp], eax
	lea	ecx, DWORD PTR $T2[ebp]
	push	ecx
	mov	ecx, DWORD PTR _this$[ebp]
	add	ecx, 4
	call	?push_back@?$vector@PAVFuzzyTerm@@V?$allocator@PAVFuzzyTerm@@@std@@@std@@QAEX$$QAPAVFuzzyTerm@@@Z ; std::vector<FuzzyTerm *,std::allocator<FuzzyTerm *> >::push_back

; 14   :    }

	jmp	SHORT $LN2@FzAND
$LN1@FzAND:

; 15   : }

	mov	BYTE PTR __$EHRec$[ebp+8], 1
	lea	ecx, DWORD PTR _curTerm$[ebp]
	call	??1?$_Vector_const_iterator@V?$_Vector_val@U?$_Simple_types@PAVFuzzyTerm@@@std@@@std@@@std@@QAE@XZ
	mov	DWORD PTR __$EHRec$[ebp+8], -1
	mov	eax, DWORD PTR _this$[ebp]
	push	edx
	mov	ecx, ebp
	push	eax
	lea	edx, DWORD PTR $LN14@FzAND
	call	@_RTC_CheckStackVars@8
	pop	eax
	pop	edx
	mov	ecx, DWORD PTR __$EHRec$[ebp]
	mov	DWORD PTR fs:0, ecx
	pop	ecx
	pop	edi
	pop	esi
	add	esp, 88					; 00000058H
	cmp	ebp, esp
	call	__RTC_CheckEsp
	mov	esp, ebp
	pop	ebp
	ret	4
	npad	2
$LN14@FzAND:
	DD	1
	DD	$LN13@FzAND
$LN13@FzAND:
	DD	-32					; ffffffe0H
	DD	12					; 0000000cH
	DD	$LN11@FzAND
$LN11@FzAND:
	DB	99					; 00000063H
	DB	117					; 00000075H
	DB	114					; 00000072H
	DB	84					; 00000054H
	DB	101					; 00000065H
	DB	114					; 00000072H
	DB	109					; 0000006dH
	DB	0
_TEXT	ENDS
text$x	SEGMENT
__unwindfunclet$??0FzAND@@QAE@ABV0@@Z$0:
	mov	ecx, DWORD PTR _this$[ebp]
	jmp	??1FuzzyTerm@@UAE@XZ			; FuzzyTerm::~FuzzyTerm
__unwindfunclet$??0FzAND@@QAE@ABV0@@Z$1:
	mov	ecx, DWORD PTR _this$[ebp]
	add	ecx, 4
	jmp	??1?$vector@PAVFuzzyTerm@@V?$allocator@PAVFuzzyTerm@@@std@@@std@@QAE@XZ ; std::vector<FuzzyTerm *,std::allocator<FuzzyTerm *> >::~vector<FuzzyTerm *,std::allocator<FuzzyTerm *> >
__unwindfunclet$??0FzAND@@QAE@ABV0@@Z$2:
	lea	ecx, DWORD PTR _curTerm$[ebp]
	jmp	??1?$_Vector_const_iterator@V?$_Vector_val@U?$_Simple_types@PAVFuzzyTerm@@@std@@@std@@@std@@QAE@XZ
__unwindfunclet$??0FzAND@@QAE@ABV0@@Z$3:
	lea	ecx, DWORD PTR $T5[ebp]
	jmp	??1?$_Vector_const_iterator@V?$_Vector_val@U?$_Simple_types@PAVFuzzyTerm@@@std@@@std@@@std@@QAE@XZ
__unwindfunclet$??0FzAND@@QAE@ABV0@@Z$4:
	lea	ecx, DWORD PTR $T3[ebp]
	jmp	??1?$_Vector_const_iterator@V?$_Vector_val@U?$_Simple_types@PAVFuzzyTerm@@@std@@@std@@@std@@QAE@XZ
__ehhandler$??0FzAND@@QAE@ABV0@@Z:
	mov	edx, DWORD PTR [esp+8]
	lea	eax, DWORD PTR [edx+12]
	mov	ecx, DWORD PTR [edx-88]
	xor	ecx, eax
	call	@__security_check_cookie@4
	mov	eax, OFFSET __ehfuncinfo$??0FzAND@@QAE@ABV0@@Z
	jmp	___CxxFrameHandler3
text$x	ENDS
??0FzAND@@QAE@ABV0@@Z ENDP				; FzAND::FzAND
; Function compile flags: /Odtp /RTCsu
; File c:\users\maxime\videos\tp ia\vs2010\common\fuzzy\fuzzyoperators.cpp
_TEXT	SEGMENT
tv147 = -92						; size = 4
tv155 = -88						; size = 4
tv159 = -84						; size = 4
tv153 = -80						; size = 4
tv77 = -76						; size = 4
$T2 = -72						; size = 4
$T3 = -68						; size = 4
$T4 = -64						; size = 12
$T5 = -49						; size = 1
$T6 = -48						; size = 12
_curTerm$ = -32						; size = 12
_this$ = -16						; size = 4
__$EHRec$ = -12						; size = 12
??1FzAND@@UAE@XZ PROC					; FzAND::~FzAND
; _this$ = ecx

; 43   : {

	push	ebp
	mov	ebp, esp
	push	-1
	push	__ehhandler$??1FzAND@@UAE@XZ
	mov	eax, DWORD PTR fs:0
	push	eax
	sub	esp, 80					; 00000050H
	push	esi
	push	edi
	push	ecx
	lea	edi, DWORD PTR [ebp-92]
	mov	ecx, 20					; 00000014H
	mov	eax, -858993460				; ccccccccH
	rep stosd
	pop	ecx
	mov	eax, DWORD PTR ___security_cookie
	xor	eax, ebp
	push	eax
	lea	eax, DWORD PTR __$EHRec$[ebp]
	mov	DWORD PTR fs:0, eax
	mov	DWORD PTR _this$[ebp], ecx
	mov	eax, DWORD PTR _this$[ebp]
	mov	DWORD PTR [eax], OFFSET ??_7FzAND@@6B@
	mov	DWORD PTR __$EHRec$[ebp+8], 1

; 44   :   std::vector<FuzzyTerm*>::iterator curTerm;

	lea	ecx, DWORD PTR _curTerm$[ebp]
	call	??0?$_Vector_iterator@V?$_Vector_val@U?$_Simple_types@PAVFuzzyTerm@@@std@@@std@@@std@@QAE@XZ ; std::_Vector_iterator<std::_Vector_val<std::_Simple_types<FuzzyTerm *> > >::_Vector_iterator<std::_Vector_val<std::_Simple_types<FuzzyTerm *> > >
	mov	BYTE PTR __$EHRec$[ebp+8], 2

; 45   :   for (curTerm = m_Terms.begin(); curTerm != m_Terms.end(); ++curTerm)

	lea	ecx, DWORD PTR $T6[ebp]
	push	ecx
	mov	ecx, DWORD PTR _this$[ebp]
	add	ecx, 4
	call	?begin@?$vector@PAVFuzzyTerm@@V?$allocator@PAVFuzzyTerm@@@std@@@std@@QAE?AV?$_Vector_iterator@V?$_Vector_val@U?$_Simple_types@PAVFuzzyTerm@@@std@@@std@@@2@XZ ; std::vector<FuzzyTerm *,std::allocator<FuzzyTerm *> >::begin
	mov	DWORD PTR tv77[ebp], eax
	mov	edx, DWORD PTR tv77[ebp]
	mov	DWORD PTR tv153[ebp], edx
	mov	BYTE PTR __$EHRec$[ebp+8], 3
	mov	eax, DWORD PTR tv153[ebp]
	push	eax
	lea	ecx, DWORD PTR _curTerm$[ebp]
	call	??4?$_Vector_iterator@V?$_Vector_val@U?$_Simple_types@PAVFuzzyTerm@@@std@@@std@@@std@@QAEAAV01@ABV01@@Z
	mov	BYTE PTR __$EHRec$[ebp+8], 2
	lea	ecx, DWORD PTR $T6[ebp]
	call	??1?$_Vector_iterator@V?$_Vector_val@U?$_Simple_types@PAVFuzzyTerm@@@std@@@std@@@std@@QAE@XZ
	jmp	SHORT $LN3@FzAND
$LN2@FzAND:
	lea	ecx, DWORD PTR _curTerm$[ebp]
	call	??E?$_Vector_iterator@V?$_Vector_val@U?$_Simple_types@PAVFuzzyTerm@@@std@@@std@@@std@@QAEAAV01@XZ ; std::_Vector_iterator<std::_Vector_val<std::_Simple_types<FuzzyTerm *> > >::operator++
$LN3@FzAND:
	lea	ecx, DWORD PTR $T4[ebp]
	push	ecx
	mov	ecx, DWORD PTR _this$[ebp]
	add	ecx, 4
	call	?end@?$vector@PAVFuzzyTerm@@V?$allocator@PAVFuzzyTerm@@@std@@@std@@QAE?AV?$_Vector_iterator@V?$_Vector_val@U?$_Simple_types@PAVFuzzyTerm@@@std@@@std@@@2@XZ ; std::vector<FuzzyTerm *,std::allocator<FuzzyTerm *> >::end
	mov	DWORD PTR tv159[ebp], eax
	mov	edx, DWORD PTR tv159[ebp]
	mov	DWORD PTR tv155[ebp], edx
	mov	BYTE PTR __$EHRec$[ebp+8], 4
	mov	eax, DWORD PTR tv155[ebp]
	push	eax
	lea	ecx, DWORD PTR _curTerm$[ebp]
	call	??9?$_Vector_const_iterator@V?$_Vector_val@U?$_Simple_types@PAVFuzzyTerm@@@std@@@std@@@std@@QBE_NABV01@@Z ; std::_Vector_const_iterator<std::_Vector_val<std::_Simple_types<FuzzyTerm *> > >::operator!=
	mov	BYTE PTR $T5[ebp], al
	mov	BYTE PTR __$EHRec$[ebp+8], 2
	lea	ecx, DWORD PTR $T4[ebp]
	call	??1?$_Vector_iterator@V?$_Vector_val@U?$_Simple_types@PAVFuzzyTerm@@@std@@@std@@@std@@QAE@XZ
	movzx	ecx, BYTE PTR $T5[ebp]
	test	ecx, ecx
	je	SHORT $LN1@FzAND

; 46   :   {
; 47   :     delete *curTerm;

	lea	ecx, DWORD PTR _curTerm$[ebp]
	call	??D?$_Vector_iterator@V?$_Vector_val@U?$_Simple_types@PAVFuzzyTerm@@@std@@@std@@@std@@QBEAAPAVFuzzyTerm@@XZ ; std::_Vector_iterator<std::_Vector_val<std::_Simple_types<FuzzyTerm *> > >::operator*
	mov	edx, DWORD PTR [eax]
	mov	DWORD PTR $T2[ebp], edx
	mov	eax, DWORD PTR $T2[ebp]
	mov	DWORD PTR $T3[ebp], eax
	cmp	DWORD PTR $T3[ebp], 0
	je	SHORT $LN6@FzAND
	mov	esi, esp
	push	1
	mov	ecx, DWORD PTR $T3[ebp]
	mov	edx, DWORD PTR [ecx]
	mov	ecx, DWORD PTR $T3[ebp]
	mov	eax, DWORD PTR [edx]
	call	eax
	cmp	esi, esp
	call	__RTC_CheckEsp
	mov	DWORD PTR tv147[ebp], eax
	jmp	SHORT $LN7@FzAND
$LN6@FzAND:
	mov	DWORD PTR tv147[ebp], 0
$LN7@FzAND:

; 48   :   }

	jmp	$LN2@FzAND
$LN1@FzAND:

; 49   : }

	mov	BYTE PTR __$EHRec$[ebp+8], 1
	lea	ecx, DWORD PTR _curTerm$[ebp]
	call	??1?$_Vector_iterator@V?$_Vector_val@U?$_Simple_types@PAVFuzzyTerm@@@std@@@std@@@std@@QAE@XZ
	mov	BYTE PTR __$EHRec$[ebp+8], 0
	mov	ecx, DWORD PTR _this$[ebp]
	add	ecx, 4
	call	??1?$vector@PAVFuzzyTerm@@V?$allocator@PAVFuzzyTerm@@@std@@@std@@QAE@XZ ; std::vector<FuzzyTerm *,std::allocator<FuzzyTerm *> >::~vector<FuzzyTerm *,std::allocator<FuzzyTerm *> >
	mov	DWORD PTR __$EHRec$[ebp+8], -1
	mov	ecx, DWORD PTR _this$[ebp]
	call	??1FuzzyTerm@@UAE@XZ			; FuzzyTerm::~FuzzyTerm
	push	edx
	mov	ecx, ebp
	push	eax
	lea	edx, DWORD PTR $LN16@FzAND
	call	@_RTC_CheckStackVars@8
	pop	eax
	pop	edx
	mov	ecx, DWORD PTR __$EHRec$[ebp]
	mov	DWORD PTR fs:0, ecx
	pop	ecx
	pop	edi
	pop	esi
	add	esp, 92					; 0000005cH
	cmp	ebp, esp
	call	__RTC_CheckEsp
	mov	esp, ebp
	pop	ebp
	ret	0
	npad	1
$LN16@FzAND:
	DD	1
	DD	$LN15@FzAND
$LN15@FzAND:
	DD	-32					; ffffffe0H
	DD	12					; 0000000cH
	DD	$LN13@FzAND
$LN13@FzAND:
	DB	99					; 00000063H
	DB	117					; 00000075H
	DB	114					; 00000072H
	DB	84					; 00000054H
	DB	101					; 00000065H
	DB	114					; 00000072H
	DB	109					; 0000006dH
	DB	0
_TEXT	ENDS
text$x	SEGMENT
__unwindfunclet$??1FzAND@@UAE@XZ$0:
	mov	ecx, DWORD PTR _this$[ebp]
	jmp	??1FuzzyTerm@@UAE@XZ			; FuzzyTerm::~FuzzyTerm
__unwindfunclet$??1FzAND@@UAE@XZ$1:
	mov	ecx, DWORD PTR _this$[ebp]
	add	ecx, 4
	jmp	??1?$vector@PAVFuzzyTerm@@V?$allocator@PAVFuzzyTerm@@@std@@@std@@QAE@XZ ; std::vector<FuzzyTerm *,std::allocator<FuzzyTerm *> >::~vector<FuzzyTerm *,std::allocator<FuzzyTerm *> >
__unwindfunclet$??1FzAND@@UAE@XZ$2:
	lea	ecx, DWORD PTR _curTerm$[ebp]
	jmp	??1?$_Vector_iterator@V?$_Vector_val@U?$_Simple_types@PAVFuzzyTerm@@@std@@@std@@@std@@QAE@XZ
__unwindfunclet$??1FzAND@@UAE@XZ$3:
	lea	ecx, DWORD PTR $T6[ebp]
	jmp	??1?$_Vector_iterator@V?$_Vector_val@U?$_Simple_types@PAVFuzzyTerm@@@std@@@std@@@std@@QAE@XZ
__unwindfunclet$??1FzAND@@UAE@XZ$4:
	lea	ecx, DWORD PTR $T4[ebp]
	jmp	??1?$_Vector_iterator@V?$_Vector_val@U?$_Simple_types@PAVFuzzyTerm@@@std@@@std@@@std@@QAE@XZ
__ehhandler$??1FzAND@@UAE@XZ:
	mov	edx, DWORD PTR [esp+8]
	lea	eax, DWORD PTR [edx+12]
	mov	ecx, DWORD PTR [edx-92]
	xor	ecx, eax
	call	@__security_check_cookie@4
	mov	eax, OFFSET __ehfuncinfo$??1FzAND@@UAE@XZ
	jmp	___CxxFrameHandler3
text$x	ENDS
??1FzAND@@UAE@XZ ENDP					; FzAND::~FzAND
; Function compile flags: /Odtp /RTCsu
; File c:\program files (x86)\microsoft visual studio 12.0\vc\include\vector
;	COMDAT ?_Orphan_range@?$vector@PAVFuzzyTerm@@V?$allocator@PAVFuzzyTerm@@@std@@@std@@IBEXPAPAVFuzzyTerm@@0@Z
_TEXT	SEGMENT
__Pnext$ = -32						; size = 4
__Lock$ = -24						; size = 4
_this$ = -16						; size = 4
__$EHRec$ = -12						; size = 12
__First$ = 8						; size = 4
__Last$ = 12						; size = 4
?_Orphan_range@?$vector@PAVFuzzyTerm@@V?$allocator@PAVFuzzyTerm@@@std@@@std@@IBEXPAPAVFuzzyTerm@@0@Z PROC ; std::vector<FuzzyTerm *,std::allocator<FuzzyTerm *> >::_Orphan_range, COMDAT
; _this$ = ecx

; 1764 : 		{	// orphan iterators within specified (inclusive) range

	push	ebp
	mov	ebp, esp
	push	-1
	push	__ehhandler$?_Orphan_range@?$vector@PAVFuzzyTerm@@V?$allocator@PAVFuzzyTerm@@@std@@@std@@IBEXPAPAVFuzzyTerm@@0@Z
	mov	eax, DWORD PTR fs:0
	push	eax
	sub	esp, 20					; 00000014H
	mov	eax, -858993460				; ccccccccH
	mov	DWORD PTR [ebp-32], eax
	mov	DWORD PTR [ebp-28], eax
	mov	DWORD PTR [ebp-24], eax
	mov	DWORD PTR [ebp-20], eax
	mov	DWORD PTR [ebp-16], eax
	mov	eax, DWORD PTR ___security_cookie
	xor	eax, ebp
	push	eax
	lea	eax, DWORD PTR __$EHRec$[ebp]
	mov	DWORD PTR fs:0, eax
	mov	DWORD PTR _this$[ebp], ecx

; 1765 : 		_Lockit _Lock(_LOCK_DEBUG);

	push	3
	lea	ecx, DWORD PTR __Lock$[ebp]
	call	??0_Lockit@std@@QAE@H@Z			; std::_Lockit::_Lockit
	mov	DWORD PTR __$EHRec$[ebp+8], 0

; 1766 : 		const_iterator **_Pnext = (const_iterator **)this->_Getpfirst();

	mov	ecx, DWORD PTR _this$[ebp]
	call	?_Getpfirst@_Container_base12@std@@QBEPAPAU_Iterator_base12@2@XZ ; std::_Container_base12::_Getpfirst
	mov	DWORD PTR __Pnext$[ebp], eax

; 1767 : 		if (_Pnext != 0)

	cmp	DWORD PTR __Pnext$[ebp], 0
	je	SHORT $LN6@Orphan_ran
$LN5@Orphan_ran:

; 1768 : 			while (*_Pnext != 0)

	mov	eax, DWORD PTR __Pnext$[ebp]
	cmp	DWORD PTR [eax], 0
	je	SHORT $LN6@Orphan_ran

; 1769 : 				if ((*_Pnext)->_Ptr < _First || _Last < (*_Pnext)->_Ptr)

	mov	ecx, DWORD PTR __Pnext$[ebp]
	mov	edx, DWORD PTR [ecx]
	mov	eax, DWORD PTR [edx+8]
	cmp	eax, DWORD PTR __First$[ebp]
	jb	SHORT $LN2@Orphan_ran
	mov	ecx, DWORD PTR __Pnext$[ebp]
	mov	edx, DWORD PTR [ecx]
	mov	eax, DWORD PTR __Last$[ebp]
	cmp	eax, DWORD PTR [edx+8]
	jae	SHORT $LN3@Orphan_ran
$LN2@Orphan_ran:

; 1770 : 					_Pnext = (const_iterator **)(*_Pnext)->_Getpnext();

	mov	ecx, DWORD PTR __Pnext$[ebp]
	mov	ecx, DWORD PTR [ecx]
	call	?_Getpnext@_Iterator_base12@std@@QAEPAPAU12@XZ ; std::_Iterator_base12::_Getpnext
	mov	DWORD PTR __Pnext$[ebp], eax

; 1771 : 				else

	jmp	SHORT $LN1@Orphan_ran
$LN3@Orphan_ran:

; 1772 : 					{	// orphan the iterator
; 1773 : 					(*_Pnext)->_Clrcont();

	mov	edx, DWORD PTR __Pnext$[ebp]
	mov	ecx, DWORD PTR [edx]
	call	?_Clrcont@_Iterator_base12@std@@QAEXXZ	; std::_Iterator_base12::_Clrcont

; 1774 : 					*_Pnext = *(const_iterator **)(*_Pnext)->_Getpnext();

	mov	eax, DWORD PTR __Pnext$[ebp]
	mov	ecx, DWORD PTR [eax]
	call	?_Getpnext@_Iterator_base12@std@@QAEPAPAU12@XZ ; std::_Iterator_base12::_Getpnext
	mov	ecx, DWORD PTR __Pnext$[ebp]
	mov	edx, DWORD PTR [eax]
	mov	DWORD PTR [ecx], edx
$LN1@Orphan_ran:

; 1775 : 					}

	jmp	SHORT $LN5@Orphan_ran
$LN6@Orphan_ran:

; 1776 : 		}

	mov	DWORD PTR __$EHRec$[ebp+8], -1
	lea	ecx, DWORD PTR __Lock$[ebp]
	call	??1_Lockit@std@@QAE@XZ			; std::_Lockit::~_Lockit
	push	edx
	mov	ecx, ebp
	push	eax
	lea	edx, DWORD PTR $LN13@Orphan_ran
	call	@_RTC_CheckStackVars@8
	pop	eax
	pop	edx
	mov	ecx, DWORD PTR __$EHRec$[ebp]
	mov	DWORD PTR fs:0, ecx
	pop	ecx
	add	esp, 32					; 00000020H
	cmp	ebp, esp
	call	__RTC_CheckEsp
	mov	esp, ebp
	pop	ebp
	ret	8
	npad	1
$LN13@Orphan_ran:
	DD	1
	DD	$LN12@Orphan_ran
$LN12@Orphan_ran:
	DD	-24					; ffffffe8H
	DD	4
	DD	$LN10@Orphan_ran
$LN10@Orphan_ran:
	DB	95					; 0000005fH
	DB	76					; 0000004cH
	DB	111					; 0000006fH
	DB	99					; 00000063H
	DB	107					; 0000006bH
	DB	0
_TEXT	ENDS
;	COMDAT text$x
text$x	SEGMENT
__unwindfunclet$?_Orphan_range@?$vector@PAVFuzzyTerm@@V?$allocator@PAVFuzzyTerm@@@std@@@std@@IBEXPAPAVFuzzyTerm@@0@Z$0:
	lea	ecx, DWORD PTR __Lock$[ebp]
	jmp	??1_Lockit@std@@QAE@XZ			; std::_Lockit::~_Lockit
__ehhandler$?_Orphan_range@?$vector@PAVFuzzyTerm@@V?$allocator@PAVFuzzyTerm@@@std@@@std@@IBEXPAPAVFuzzyTerm@@0@Z:
	mov	edx, DWORD PTR [esp+8]
	lea	eax, DWORD PTR [edx+12]
	mov	ecx, DWORD PTR [edx-24]
	xor	ecx, eax
	call	@__security_check_cookie@4
	mov	eax, OFFSET __ehfuncinfo$?_Orphan_range@?$vector@PAVFuzzyTerm@@V?$allocator@PAVFuzzyTerm@@@std@@@std@@IBEXPAPAVFuzzyTerm@@0@Z
	jmp	___CxxFrameHandler3
text$x	ENDS
?_Orphan_range@?$vector@PAVFuzzyTerm@@V?$allocator@PAVFuzzyTerm@@@std@@@std@@IBEXPAPAVFuzzyTerm@@0@Z ENDP ; std::vector<FuzzyTerm *,std::allocator<FuzzyTerm *> >::_Orphan_range
; Function compile flags: /Odtp /RTCsu
; File c:\program files (x86)\microsoft visual studio 12.0\vc\include\vector
;	COMDAT ?_Xlen@?$vector@PAVFuzzyTerm@@V?$allocator@PAVFuzzyTerm@@@std@@@std@@IBEXXZ
_TEXT	SEGMENT
_this$ = -4						; size = 4
?_Xlen@?$vector@PAVFuzzyTerm@@V?$allocator@PAVFuzzyTerm@@@std@@@std@@IBEXXZ PROC ; std::vector<FuzzyTerm *,std::allocator<FuzzyTerm *> >::_Xlen, COMDAT
; _this$ = ecx

; 1753 : 		{	// report a length_error

	push	ebp
	mov	ebp, esp
	push	ecx
	mov	DWORD PTR [ebp-4], -858993460		; ccccccccH
	mov	DWORD PTR _this$[ebp], ecx

; 1754 : 		_Xlength_error("vector<T> too long");

	push	OFFSET ??_C@_0BD@OLBABOEK@vector?$DMT?$DO?5too?5long?$AA@
	call	?_Xlength_error@std@@YAXPBD@Z		; std::_Xlength_error
$LN2@Xlen:

; 1755 : 		}

	add	esp, 4
	cmp	ebp, esp
	call	__RTC_CheckEsp
	mov	esp, ebp
	pop	ebp
	ret	0
?_Xlen@?$vector@PAVFuzzyTerm@@V?$allocator@PAVFuzzyTerm@@@std@@@std@@IBEXXZ ENDP ; std::vector<FuzzyTerm *,std::allocator<FuzzyTerm *> >::_Xlen
_TEXT	ENDS
; Function compile flags: /Odtp /RTCsu
; File c:\program files (x86)\microsoft visual studio 12.0\vc\include\vector
;	COMDAT ?_Tidy@?$vector@PAVFuzzyTerm@@V?$allocator@PAVFuzzyTerm@@@std@@@std@@IAEXXZ
_TEXT	SEGMENT
$T1 = -5						; size = 1
_this$ = -4						; size = 4
?_Tidy@?$vector@PAVFuzzyTerm@@V?$allocator@PAVFuzzyTerm@@@std@@@std@@IAEXXZ PROC ; std::vector<FuzzyTerm *,std::allocator<FuzzyTerm *> >::_Tidy, COMDAT
; _this$ = ecx

; 1622 : 		{	// free all storage

	push	ebp
	mov	ebp, esp
	sub	esp, 8
	mov	DWORD PTR [ebp-8], -858993460		; ccccccccH
	mov	DWORD PTR [ebp-4], -858993460		; ccccccccH
	mov	DWORD PTR _this$[ebp], ecx

; 1623 : 		if (this->_Myfirst != pointer())

	mov	eax, DWORD PTR _this$[ebp]
	cmp	DWORD PTR [eax+4], 0
	je	SHORT $LN2@Tidy

; 1624 : 			{	// something to free, destroy and deallocate it
; 1625 : 			this->_Orphan_all();

	mov	ecx, DWORD PTR _this$[ebp]
	call	?_Orphan_all@_Container_base12@std@@QAEXXZ ; std::_Container_base12::_Orphan_all

; 1626 : 			_Destroy(this->_Myfirst, this->_Mylast);

	mov	ecx, DWORD PTR _this$[ebp]
	mov	edx, DWORD PTR [ecx+8]
	push	edx
	mov	eax, DWORD PTR _this$[ebp]
	mov	ecx, DWORD PTR [eax+4]
	push	ecx
	mov	ecx, DWORD PTR _this$[ebp]
	call	?_Destroy@?$vector@PAVFuzzyTerm@@V?$allocator@PAVFuzzyTerm@@@std@@@std@@IAEXPAPAVFuzzyTerm@@0@Z ; std::vector<FuzzyTerm *,std::allocator<FuzzyTerm *> >::_Destroy

; 1627 : 			this->_Getal().deallocate(this->_Myfirst,
; 1628 : 				this->_Myend - this->_Myfirst);

	mov	edx, DWORD PTR _this$[ebp]
	mov	eax, DWORD PTR _this$[ebp]
	mov	ecx, DWORD PTR [edx+12]
	sub	ecx, DWORD PTR [eax+4]
	sar	ecx, 2
	push	ecx
	mov	edx, DWORD PTR _this$[ebp]
	mov	eax, DWORD PTR [edx+4]
	push	eax
	lea	ecx, DWORD PTR $T1[ebp]
	push	ecx
	mov	ecx, DWORD PTR _this$[ebp]
	call	?_Getal@?$_Vector_alloc@$0A@U?$_Vec_base_types@PAVFuzzyTerm@@V?$allocator@PAVFuzzyTerm@@@std@@@std@@@std@@QBE?AU?$_Wrap_alloc@V?$allocator@PAVFuzzyTerm@@@std@@@2@XZ ; std::_Vector_alloc<0,std::_Vec_base_types<FuzzyTerm *,std::allocator<FuzzyTerm *> > >::_Getal
	mov	ecx, eax
	call	?deallocate@?$_Wrap_alloc@V?$allocator@PAVFuzzyTerm@@@std@@@std@@QAEXPAPAVFuzzyTerm@@I@Z ; std::_Wrap_alloc<std::allocator<FuzzyTerm *> >::deallocate

; 1629 : 			this->_Myfirst = pointer();

	mov	edx, DWORD PTR _this$[ebp]
	mov	DWORD PTR [edx+4], 0

; 1630 : 			this->_Mylast = pointer();

	mov	eax, DWORD PTR _this$[ebp]
	mov	DWORD PTR [eax+8], 0

; 1631 : 			this->_Myend = pointer();

	mov	ecx, DWORD PTR _this$[ebp]
	mov	DWORD PTR [ecx+12], 0
$LN2@Tidy:

; 1632 : 			}
; 1633 : 		}

	add	esp, 8
	cmp	ebp, esp
	call	__RTC_CheckEsp
	mov	esp, ebp
	pop	ebp
	ret	0
?_Tidy@?$vector@PAVFuzzyTerm@@V?$allocator@PAVFuzzyTerm@@@std@@@std@@IAEXXZ ENDP ; std::vector<FuzzyTerm *,std::allocator<FuzzyTerm *> >::_Tidy
_TEXT	ENDS
; Function compile flags: /Odtp /RTCsu
; File c:\program files (x86)\microsoft visual studio 12.0\vc\include\vector
;	COMDAT ?_Reserve@?$vector@PAVFuzzyTerm@@V?$allocator@PAVFuzzyTerm@@@std@@@std@@IAEXI@Z
_TEXT	SEGMENT
_this$ = -4						; size = 4
__Count$ = 8						; size = 4
?_Reserve@?$vector@PAVFuzzyTerm@@V?$allocator@PAVFuzzyTerm@@@std@@@std@@IAEXI@Z PROC ; std::vector<FuzzyTerm *,std::allocator<FuzzyTerm *> >::_Reserve, COMDAT
; _this$ = ecx

; 1612 : 		{	// ensure room for _Count new elements, grow exponentially

	push	ebp
	mov	ebp, esp
	push	ecx
	push	esi
	mov	DWORD PTR [ebp-4], -858993460		; ccccccccH
	mov	DWORD PTR _this$[ebp], ecx

; 1613 : 		if (_Unused_capacity() < _Count)

	mov	ecx, DWORD PTR _this$[ebp]
	call	?_Unused_capacity@?$vector@PAVFuzzyTerm@@V?$allocator@PAVFuzzyTerm@@@std@@@std@@QBEIXZ ; std::vector<FuzzyTerm *,std::allocator<FuzzyTerm *> >::_Unused_capacity
	cmp	eax, DWORD PTR __Count$[ebp]
	jae	SHORT $LN4@Reserve

; 1614 : 			{	// need more room, try to get it
; 1615 : 			if (max_size() - size() < _Count)

	mov	ecx, DWORD PTR _this$[ebp]
	call	?max_size@?$vector@PAVFuzzyTerm@@V?$allocator@PAVFuzzyTerm@@@std@@@std@@QBEIXZ ; std::vector<FuzzyTerm *,std::allocator<FuzzyTerm *> >::max_size
	mov	esi, eax
	mov	ecx, DWORD PTR _this$[ebp]
	call	?size@?$vector@PAVFuzzyTerm@@V?$allocator@PAVFuzzyTerm@@@std@@@std@@QBEIXZ ; std::vector<FuzzyTerm *,std::allocator<FuzzyTerm *> >::size
	sub	esi, eax
	cmp	esi, DWORD PTR __Count$[ebp]
	jae	SHORT $LN1@Reserve

; 1616 : 				_Xlen();

	mov	ecx, DWORD PTR _this$[ebp]
	call	?_Xlen@?$vector@PAVFuzzyTerm@@V?$allocator@PAVFuzzyTerm@@@std@@@std@@IBEXXZ ; std::vector<FuzzyTerm *,std::allocator<FuzzyTerm *> >::_Xlen
$LN1@Reserve:

; 1617 : 			_Reallocate(_Grow_to(size() + _Count));

	mov	ecx, DWORD PTR _this$[ebp]
	call	?size@?$vector@PAVFuzzyTerm@@V?$allocator@PAVFuzzyTerm@@@std@@@std@@QBEIXZ ; std::vector<FuzzyTerm *,std::allocator<FuzzyTerm *> >::size
	add	eax, DWORD PTR __Count$[ebp]
	push	eax
	mov	ecx, DWORD PTR _this$[ebp]
	call	?_Grow_to@?$vector@PAVFuzzyTerm@@V?$allocator@PAVFuzzyTerm@@@std@@@std@@IBEII@Z ; std::vector<FuzzyTerm *,std::allocator<FuzzyTerm *> >::_Grow_to
	push	eax
	mov	ecx, DWORD PTR _this$[ebp]
	call	?_Reallocate@?$vector@PAVFuzzyTerm@@V?$allocator@PAVFuzzyTerm@@@std@@@std@@IAEXI@Z ; std::vector<FuzzyTerm *,std::allocator<FuzzyTerm *> >::_Reallocate
$LN4@Reserve:

; 1618 : 			}
; 1619 : 		}

	pop	esi
	add	esp, 4
	cmp	ebp, esp
	call	__RTC_CheckEsp
	mov	esp, ebp
	pop	ebp
	ret	4
?_Reserve@?$vector@PAVFuzzyTerm@@V?$allocator@PAVFuzzyTerm@@@std@@@std@@IAEXI@Z ENDP ; std::vector<FuzzyTerm *,std::allocator<FuzzyTerm *> >::_Reserve
_TEXT	ENDS
; Function compile flags: /Odtp /RTCsu
; File c:\program files (x86)\microsoft visual studio 12.0\vc\include\vector
;	COMDAT ?_Reallocate@?$vector@PAVFuzzyTerm@@V?$allocator@PAVFuzzyTerm@@@std@@@std@@IAEXI@Z
_TEXT	SEGMENT
$T2 = -31						; size = 1
$T3 = -30						; size = 1
$T4 = -29						; size = 1
__Size$ = -28						; size = 4
__Ptr$ = -24						; size = 4
_this$ = -20						; size = 4
__$EHRec$ = -16						; size = 16
__Count$ = 8						; size = 4
?_Reallocate@?$vector@PAVFuzzyTerm@@V?$allocator@PAVFuzzyTerm@@@std@@@std@@IAEXI@Z PROC ; std::vector<FuzzyTerm *,std::allocator<FuzzyTerm *> >::_Reallocate, COMDAT
; _this$ = ecx

; 1587 : 		{	// move to array of exactly _Count elements

	push	ebp
	mov	ebp, esp
	push	-1
	push	__ehhandler$?_Reallocate@?$vector@PAVFuzzyTerm@@V?$allocator@PAVFuzzyTerm@@@std@@@std@@IAEXI@Z
	mov	eax, DWORD PTR fs:0
	push	eax
	push	ecx
	sub	esp, 16					; 00000010H
	push	ebx
	push	esi
	push	edi
	mov	eax, -858993460				; ccccccccH
	mov	DWORD PTR [ebp-32], eax
	mov	DWORD PTR [ebp-28], eax
	mov	DWORD PTR [ebp-24], eax
	mov	DWORD PTR [ebp-20], eax
	mov	eax, DWORD PTR ___security_cookie
	xor	eax, ebp
	push	eax
	lea	eax, DWORD PTR __$EHRec$[ebp+4]
	mov	DWORD PTR fs:0, eax
	mov	DWORD PTR __$EHRec$[ebp], esp
	mov	DWORD PTR _this$[ebp], ecx

; 1588 : 		pointer _Ptr = this->_Getal().allocate(_Count);

	mov	eax, DWORD PTR __Count$[ebp]
	push	eax
	lea	ecx, DWORD PTR $T4[ebp]
	push	ecx
	mov	ecx, DWORD PTR _this$[ebp]
	call	?_Getal@?$_Vector_alloc@$0A@U?$_Vec_base_types@PAVFuzzyTerm@@V?$allocator@PAVFuzzyTerm@@@std@@@std@@@std@@QBE?AU?$_Wrap_alloc@V?$allocator@PAVFuzzyTerm@@@std@@@2@XZ ; std::_Vector_alloc<0,std::_Vec_base_types<FuzzyTerm *,std::allocator<FuzzyTerm *> > >::_Getal
	mov	ecx, eax
	call	?allocate@?$_Wrap_alloc@V?$allocator@PAVFuzzyTerm@@@std@@@std@@QAEPAPAVFuzzyTerm@@I@Z ; std::_Wrap_alloc<std::allocator<FuzzyTerm *> >::allocate
	mov	DWORD PTR __Ptr$[ebp], eax

; 1589 : 
; 1590 : 		_TRY_BEGIN

	mov	DWORD PTR __$EHRec$[ebp+12], 0

; 1591 : 		_Umove(this->_Myfirst, this->_Mylast, _Ptr);

	mov	edx, DWORD PTR __Ptr$[ebp]
	push	edx
	mov	eax, DWORD PTR _this$[ebp]
	mov	ecx, DWORD PTR [eax+8]
	push	ecx
	mov	edx, DWORD PTR _this$[ebp]
	mov	eax, DWORD PTR [edx+4]
	push	eax
	mov	ecx, DWORD PTR _this$[ebp]
	call	??$_Umove@PAPAVFuzzyTerm@@@?$vector@PAVFuzzyTerm@@V?$allocator@PAVFuzzyTerm@@@std@@@std@@IAEPAPAVFuzzyTerm@@PAPAV2@00@Z ; std::vector<FuzzyTerm *,std::allocator<FuzzyTerm *> >::_Umove<FuzzyTerm * *>
	jmp	SHORT $LN5@Reallocate
__catch$?_Reallocate@?$vector@PAVFuzzyTerm@@V?$allocator@PAVFuzzyTerm@@@std@@@std@@IAEXI@Z$0:

; 1592 : 		_CATCH_ALL
; 1593 : 		this->_Getal().deallocate(_Ptr, _Count);

	mov	ecx, DWORD PTR __Count$[ebp]
	push	ecx
	mov	edx, DWORD PTR __Ptr$[ebp]
	push	edx
	lea	eax, DWORD PTR $T3[ebp]
	push	eax
	mov	ecx, DWORD PTR _this$[ebp]
	call	?_Getal@?$_Vector_alloc@$0A@U?$_Vec_base_types@PAVFuzzyTerm@@V?$allocator@PAVFuzzyTerm@@@std@@@std@@@std@@QBE?AU?$_Wrap_alloc@V?$allocator@PAVFuzzyTerm@@@std@@@2@XZ ; std::_Vector_alloc<0,std::_Vec_base_types<FuzzyTerm *,std::allocator<FuzzyTerm *> > >::_Getal
	mov	ecx, eax
	call	?deallocate@?$_Wrap_alloc@V?$allocator@PAVFuzzyTerm@@@std@@@std@@QAEXPAPAVFuzzyTerm@@I@Z ; std::_Wrap_alloc<std::allocator<FuzzyTerm *> >::deallocate

; 1594 : 		_RERAISE;

	push	0
	push	0
	call	__CxxThrowException@8

; 1595 : 		_CATCH_END

	mov	eax, $LN8@Reallocate
	ret	0
$LN5@Reallocate:
	mov	DWORD PTR __$EHRec$[ebp+12], -1
	jmp	SHORT __tryend$?_Reallocate@?$vector@PAVFuzzyTerm@@V?$allocator@PAVFuzzyTerm@@@std@@@std@@IAEXI@Z$1
$LN8@Reallocate:
	mov	DWORD PTR __$EHRec$[ebp+12], -1
__tryend$?_Reallocate@?$vector@PAVFuzzyTerm@@V?$allocator@PAVFuzzyTerm@@@std@@@std@@IAEXI@Z$1:

; 1596 : 
; 1597 : 		size_type _Size = size();

	mov	ecx, DWORD PTR _this$[ebp]
	call	?size@?$vector@PAVFuzzyTerm@@V?$allocator@PAVFuzzyTerm@@@std@@@std@@QBEIXZ ; std::vector<FuzzyTerm *,std::allocator<FuzzyTerm *> >::size
	mov	DWORD PTR __Size$[ebp], eax

; 1598 : 		if (this->_Myfirst != pointer())

	mov	ecx, DWORD PTR _this$[ebp]
	cmp	DWORD PTR [ecx+4], 0
	je	SHORT $LN1@Reallocate

; 1599 : 			{	// destroy and deallocate old array
; 1600 : 			_Destroy(this->_Myfirst, this->_Mylast);

	mov	edx, DWORD PTR _this$[ebp]
	mov	eax, DWORD PTR [edx+8]
	push	eax
	mov	ecx, DWORD PTR _this$[ebp]
	mov	edx, DWORD PTR [ecx+4]
	push	edx
	mov	ecx, DWORD PTR _this$[ebp]
	call	?_Destroy@?$vector@PAVFuzzyTerm@@V?$allocator@PAVFuzzyTerm@@@std@@@std@@IAEXPAPAVFuzzyTerm@@0@Z ; std::vector<FuzzyTerm *,std::allocator<FuzzyTerm *> >::_Destroy

; 1601 : 			this->_Getal().deallocate(this->_Myfirst,
; 1602 : 				this->_Myend - this->_Myfirst);

	mov	eax, DWORD PTR _this$[ebp]
	mov	ecx, DWORD PTR _this$[ebp]
	mov	edx, DWORD PTR [eax+12]
	sub	edx, DWORD PTR [ecx+4]
	sar	edx, 2
	push	edx
	mov	eax, DWORD PTR _this$[ebp]
	mov	ecx, DWORD PTR [eax+4]
	push	ecx
	lea	edx, DWORD PTR $T2[ebp]
	push	edx
	mov	ecx, DWORD PTR _this$[ebp]
	call	?_Getal@?$_Vector_alloc@$0A@U?$_Vec_base_types@PAVFuzzyTerm@@V?$allocator@PAVFuzzyTerm@@@std@@@std@@@std@@QBE?AU?$_Wrap_alloc@V?$allocator@PAVFuzzyTerm@@@std@@@2@XZ ; std::_Vector_alloc<0,std::_Vec_base_types<FuzzyTerm *,std::allocator<FuzzyTerm *> > >::_Getal
	mov	ecx, eax
	call	?deallocate@?$_Wrap_alloc@V?$allocator@PAVFuzzyTerm@@@std@@@std@@QAEXPAPAVFuzzyTerm@@I@Z ; std::_Wrap_alloc<std::allocator<FuzzyTerm *> >::deallocate
$LN1@Reallocate:

; 1603 : 			}
; 1604 : 
; 1605 : 		this->_Orphan_all();

	mov	ecx, DWORD PTR _this$[ebp]
	call	?_Orphan_all@_Container_base12@std@@QAEXXZ ; std::_Container_base12::_Orphan_all

; 1606 : 		this->_Myend = _Ptr + _Count;

	mov	eax, DWORD PTR __Count$[ebp]
	mov	ecx, DWORD PTR __Ptr$[ebp]
	lea	edx, DWORD PTR [ecx+eax*4]
	mov	eax, DWORD PTR _this$[ebp]
	mov	DWORD PTR [eax+12], edx

; 1607 : 		this->_Mylast = _Ptr + _Size;

	mov	ecx, DWORD PTR __Size$[ebp]
	mov	edx, DWORD PTR __Ptr$[ebp]
	lea	eax, DWORD PTR [edx+ecx*4]
	mov	ecx, DWORD PTR _this$[ebp]
	mov	DWORD PTR [ecx+8], eax

; 1608 : 		this->_Myfirst = _Ptr;

	mov	edx, DWORD PTR _this$[ebp]
	mov	eax, DWORD PTR __Ptr$[ebp]
	mov	DWORD PTR [edx+4], eax
$LN4@Reallocate:

; 1609 : 		}

	mov	ecx, DWORD PTR __$EHRec$[ebp+4]
	mov	DWORD PTR fs:0, ecx
	pop	ecx
	pop	edi
	pop	esi
	pop	ebx
	add	esp, 32					; 00000020H
	cmp	ebp, esp
	call	__RTC_CheckEsp
	mov	esp, ebp
	pop	ebp
	ret	4
_TEXT	ENDS
;	COMDAT text$x
text$x	SEGMENT
__ehhandler$?_Reallocate@?$vector@PAVFuzzyTerm@@V?$allocator@PAVFuzzyTerm@@@std@@@std@@IAEXI@Z:
	mov	edx, DWORD PTR [esp+8]
	lea	eax, DWORD PTR [edx+12]
	mov	ecx, DWORD PTR [edx-36]
	xor	ecx, eax
	call	@__security_check_cookie@4
	mov	eax, OFFSET __ehfuncinfo$?_Reallocate@?$vector@PAVFuzzyTerm@@V?$allocator@PAVFuzzyTerm@@@std@@@std@@IAEXI@Z
	jmp	___CxxFrameHandler3
text$x	ENDS
?_Reallocate@?$vector@PAVFuzzyTerm@@V?$allocator@PAVFuzzyTerm@@@std@@@std@@IAEXI@Z ENDP ; std::vector<FuzzyTerm *,std::allocator<FuzzyTerm *> >::_Reallocate
; Function compile flags: /Odtp /RTCsu
; File c:\program files (x86)\microsoft visual studio 12.0\vc\include\vector
;	COMDAT ?_Inside@?$vector@PAVFuzzyTerm@@V?$allocator@PAVFuzzyTerm@@@std@@@std@@IBE_NPBQAVFuzzyTerm@@@Z
_TEXT	SEGMENT
tv76 = -8						; size = 4
_this$ = -4						; size = 4
__Ptr$ = 8						; size = 4
?_Inside@?$vector@PAVFuzzyTerm@@V?$allocator@PAVFuzzyTerm@@@std@@@std@@IBE_NPBQAVFuzzyTerm@@@Z PROC ; std::vector<FuzzyTerm *,std::allocator<FuzzyTerm *> >::_Inside, COMDAT
; _this$ = ecx

; 1582 : 		{	// test if _Ptr points inside vector

	push	ebp
	mov	ebp, esp
	sub	esp, 8
	mov	DWORD PTR [ebp-8], -858993460		; ccccccccH
	mov	DWORD PTR [ebp-4], -858993460		; ccccccccH
	mov	DWORD PTR _this$[ebp], ecx

; 1583 : 		return (_Ptr < this->_Mylast && this->_Myfirst <= _Ptr);

	mov	eax, DWORD PTR _this$[ebp]
	mov	ecx, DWORD PTR __Ptr$[ebp]
	cmp	ecx, DWORD PTR [eax+8]
	jae	SHORT $LN3@Inside
	mov	edx, DWORD PTR _this$[ebp]
	mov	eax, DWORD PTR [edx+4]
	cmp	eax, DWORD PTR __Ptr$[ebp]
	ja	SHORT $LN3@Inside
	mov	DWORD PTR tv76[ebp], 1
	jmp	SHORT $LN4@Inside
$LN3@Inside:
	mov	DWORD PTR tv76[ebp], 0
$LN4@Inside:
	mov	al, BYTE PTR tv76[ebp]

; 1584 : 		}

	mov	esp, ebp
	pop	ebp
	ret	4
?_Inside@?$vector@PAVFuzzyTerm@@V?$allocator@PAVFuzzyTerm@@@std@@@std@@IBE_NPBQAVFuzzyTerm@@@Z ENDP ; std::vector<FuzzyTerm *,std::allocator<FuzzyTerm *> >::_Inside
_TEXT	ENDS
; Function compile flags: /Odtp /RTCsu
; File c:\program files (x86)\microsoft visual studio 12.0\vc\include\vector
;	COMDAT ?_Grow_to@?$vector@PAVFuzzyTerm@@V?$allocator@PAVFuzzyTerm@@@std@@@std@@IBEII@Z
_TEXT	SEGMENT
tv73 = -12						; size = 4
__Capacity$ = -8					; size = 4
_this$ = -4						; size = 4
__Count$ = 8						; size = 4
?_Grow_to@?$vector@PAVFuzzyTerm@@V?$allocator@PAVFuzzyTerm@@@std@@@std@@IBEII@Z PROC ; std::vector<FuzzyTerm *,std::allocator<FuzzyTerm *> >::_Grow_to, COMDAT
; _this$ = ecx

; 1571 : 		{	// grow by 50% or at least to _Count

	push	ebp
	mov	ebp, esp
	sub	esp, 12					; 0000000cH
	mov	DWORD PTR [ebp-12], -858993460		; ccccccccH
	mov	DWORD PTR [ebp-8], -858993460		; ccccccccH
	mov	DWORD PTR [ebp-4], -858993460		; ccccccccH
	mov	DWORD PTR _this$[ebp], ecx

; 1572 : 		size_type _Capacity = capacity();

	mov	ecx, DWORD PTR _this$[ebp]
	call	?capacity@?$vector@PAVFuzzyTerm@@V?$allocator@PAVFuzzyTerm@@@std@@@std@@QBEIXZ ; std::vector<FuzzyTerm *,std::allocator<FuzzyTerm *> >::capacity
	mov	DWORD PTR __Capacity$[ebp], eax

; 1573 : 
; 1574 : 		_Capacity = max_size() - _Capacity / 2 < _Capacity
; 1575 : 			? 0 : _Capacity + _Capacity / 2;	// try to grow by 50%

	mov	ecx, DWORD PTR _this$[ebp]
	call	?max_size@?$vector@PAVFuzzyTerm@@V?$allocator@PAVFuzzyTerm@@@std@@@std@@QBEIXZ ; std::vector<FuzzyTerm *,std::allocator<FuzzyTerm *> >::max_size
	mov	ecx, DWORD PTR __Capacity$[ebp]
	shr	ecx, 1
	sub	eax, ecx
	cmp	eax, DWORD PTR __Capacity$[ebp]
	jae	SHORT $LN4@Grow_to
	mov	DWORD PTR tv73[ebp], 0
	jmp	SHORT $LN5@Grow_to
$LN4@Grow_to:
	mov	edx, DWORD PTR __Capacity$[ebp]
	shr	edx, 1
	add	edx, DWORD PTR __Capacity$[ebp]
	mov	DWORD PTR tv73[ebp], edx
$LN5@Grow_to:
	mov	eax, DWORD PTR tv73[ebp]
	mov	DWORD PTR __Capacity$[ebp], eax

; 1576 : 		if (_Capacity < _Count)

	mov	ecx, DWORD PTR __Capacity$[ebp]
	cmp	ecx, DWORD PTR __Count$[ebp]
	jae	SHORT $LN1@Grow_to

; 1577 : 			_Capacity = _Count;

	mov	edx, DWORD PTR __Count$[ebp]
	mov	DWORD PTR __Capacity$[ebp], edx
$LN1@Grow_to:

; 1578 : 		return (_Capacity);

	mov	eax, DWORD PTR __Capacity$[ebp]

; 1579 : 		}

	add	esp, 12					; 0000000cH
	cmp	ebp, esp
	call	__RTC_CheckEsp
	mov	esp, ebp
	pop	ebp
	ret	4
?_Grow_to@?$vector@PAVFuzzyTerm@@V?$allocator@PAVFuzzyTerm@@@std@@@std@@IBEII@Z ENDP ; std::vector<FuzzyTerm *,std::allocator<FuzzyTerm *> >::_Grow_to
_TEXT	ENDS
; Function compile flags: /Odtp /RTCsu
; File c:\program files (x86)\microsoft visual studio 12.0\vc\include\vector
;	COMDAT ?_Destroy@?$vector@PAVFuzzyTerm@@V?$allocator@PAVFuzzyTerm@@@std@@@std@@IAEXPAPAVFuzzyTerm@@0@Z
_TEXT	SEGMENT
__Alval$ = -9						; size = 1
_this$ = -4						; size = 4
__First$ = 8						; size = 4
__Last$ = 12						; size = 4
?_Destroy@?$vector@PAVFuzzyTerm@@V?$allocator@PAVFuzzyTerm@@@std@@@std@@IAEXPAPAVFuzzyTerm@@0@Z PROC ; std::vector<FuzzyTerm *,std::allocator<FuzzyTerm *> >::_Destroy, COMDAT
; _this$ = ecx

; 1565 : 		{	// destroy [_First, _Last) using allocator

	push	ebp
	mov	ebp, esp
	sub	esp, 16					; 00000010H
	mov	eax, -858993460				; ccccccccH
	mov	DWORD PTR [ebp-16], eax
	mov	DWORD PTR [ebp-12], eax
	mov	DWORD PTR [ebp-8], eax
	mov	DWORD PTR [ebp-4], eax
	mov	DWORD PTR _this$[ebp], ecx

; 1566 : 		_Alty _Alval(this->_Getal());

	lea	eax, DWORD PTR __Alval$[ebp]
	push	eax
	mov	ecx, DWORD PTR _this$[ebp]
	call	?_Getal@?$_Vector_alloc@$0A@U?$_Vec_base_types@PAVFuzzyTerm@@V?$allocator@PAVFuzzyTerm@@@std@@@std@@@std@@QBE?AU?$_Wrap_alloc@V?$allocator@PAVFuzzyTerm@@@std@@@2@XZ ; std::_Vector_alloc<0,std::_Vec_base_types<FuzzyTerm *,std::allocator<FuzzyTerm *> > >::_Getal

; 1567 : 		_Destroy_range(_First, _Last, _Alval);

	lea	ecx, DWORD PTR __Alval$[ebp]
	push	ecx
	mov	edx, DWORD PTR __Last$[ebp]
	push	edx
	mov	eax, DWORD PTR __First$[ebp]
	push	eax
	call	??$_Destroy_range@U?$_Wrap_alloc@V?$allocator@PAVFuzzyTerm@@@std@@@std@@@std@@YAXPAPAVFuzzyTerm@@0AAU?$_Wrap_alloc@V?$allocator@PAVFuzzyTerm@@@std@@@0@@Z ; std::_Destroy_range<std::_Wrap_alloc<std::allocator<FuzzyTerm *> > >
	add	esp, 12					; 0000000cH

; 1568 : 		}

	push	edx
	mov	ecx, ebp
	push	eax
	lea	edx, DWORD PTR $LN5@Destroy
	call	@_RTC_CheckStackVars@8
	pop	eax
	pop	edx
	add	esp, 16					; 00000010H
	cmp	ebp, esp
	call	__RTC_CheckEsp
	mov	esp, ebp
	pop	ebp
	ret	8
	npad	1
$LN5@Destroy:
	DD	1
	DD	$LN4@Destroy
$LN4@Destroy:
	DD	-9					; fffffff7H
	DD	1
	DD	$LN3@Destroy
$LN3@Destroy:
	DB	95					; 0000005fH
	DB	65					; 00000041H
	DB	108					; 0000006cH
	DB	118					; 00000076H
	DB	97					; 00000061H
	DB	108					; 0000006cH
	DB	0
?_Destroy@?$vector@PAVFuzzyTerm@@V?$allocator@PAVFuzzyTerm@@@std@@@std@@IAEXPAPAVFuzzyTerm@@0@Z ENDP ; std::vector<FuzzyTerm *,std::allocator<FuzzyTerm *> >::_Destroy
_TEXT	ENDS
; Function compile flags: /Odtp /RTCsu
; File c:\program files (x86)\microsoft visual studio 12.0\vc\include\vector
;	COMDAT ?max_size@?$vector@PAVFuzzyTerm@@V?$allocator@PAVFuzzyTerm@@@std@@@std@@QBEIXZ
_TEXT	SEGMENT
$T1 = -5						; size = 1
_this$ = -4						; size = 4
?max_size@?$vector@PAVFuzzyTerm@@V?$allocator@PAVFuzzyTerm@@@std@@@std@@QBEIXZ PROC ; std::vector<FuzzyTerm *,std::allocator<FuzzyTerm *> >::max_size, COMDAT
; _this$ = ecx

; 1152 : 		{	// return maximum possible length of sequence

	push	ebp
	mov	ebp, esp
	sub	esp, 8
	mov	DWORD PTR [ebp-8], -858993460		; ccccccccH
	mov	DWORD PTR [ebp-4], -858993460		; ccccccccH
	mov	DWORD PTR _this$[ebp], ecx

; 1153 : 		return (this->_Getal().max_size());

	lea	eax, DWORD PTR $T1[ebp]
	push	eax
	mov	ecx, DWORD PTR _this$[ebp]
	call	?_Getal@?$_Vector_alloc@$0A@U?$_Vec_base_types@PAVFuzzyTerm@@V?$allocator@PAVFuzzyTerm@@@std@@@std@@@std@@QBE?AU?$_Wrap_alloc@V?$allocator@PAVFuzzyTerm@@@std@@@2@XZ ; std::_Vector_alloc<0,std::_Vec_base_types<FuzzyTerm *,std::allocator<FuzzyTerm *> > >::_Getal
	mov	ecx, eax
	call	?max_size@?$_Wrap_alloc@V?$allocator@PAVFuzzyTerm@@@std@@@std@@QBEIXZ ; std::_Wrap_alloc<std::allocator<FuzzyTerm *> >::max_size

; 1154 : 		}

	add	esp, 8
	cmp	ebp, esp
	call	__RTC_CheckEsp
	mov	esp, ebp
	pop	ebp
	ret	0
?max_size@?$vector@PAVFuzzyTerm@@V?$allocator@PAVFuzzyTerm@@@std@@@std@@QBEIXZ ENDP ; std::vector<FuzzyTerm *,std::allocator<FuzzyTerm *> >::max_size
_TEXT	ENDS
; Function compile flags: /Odtp /RTCsu
; File c:\program files (x86)\microsoft visual studio 12.0\vc\include\vector
;	COMDAT ?size@?$vector@PAVFuzzyTerm@@V?$allocator@PAVFuzzyTerm@@@std@@@std@@QBEIXZ
_TEXT	SEGMENT
_this$ = -4						; size = 4
?size@?$vector@PAVFuzzyTerm@@V?$allocator@PAVFuzzyTerm@@@std@@@std@@QBEIXZ PROC ; std::vector<FuzzyTerm *,std::allocator<FuzzyTerm *> >::size, COMDAT
; _this$ = ecx

; 1147 : 		{	// return length of sequence

	push	ebp
	mov	ebp, esp
	push	ecx
	mov	DWORD PTR [ebp-4], -858993460		; ccccccccH
	mov	DWORD PTR _this$[ebp], ecx

; 1148 : 		return (this->_Mylast - this->_Myfirst);

	mov	eax, DWORD PTR _this$[ebp]
	mov	ecx, DWORD PTR _this$[ebp]
	mov	eax, DWORD PTR [eax+8]
	sub	eax, DWORD PTR [ecx+4]
	sar	eax, 2

; 1149 : 		}

	mov	esp, ebp
	pop	ebp
	ret	0
?size@?$vector@PAVFuzzyTerm@@V?$allocator@PAVFuzzyTerm@@@std@@@std@@QBEIXZ ENDP ; std::vector<FuzzyTerm *,std::allocator<FuzzyTerm *> >::size
_TEXT	ENDS
; Function compile flags: /Odtp /RTCsu
; File c:\program files (x86)\microsoft visual studio 12.0\vc\include\vector
;	COMDAT ?end@?$vector@PAVFuzzyTerm@@V?$allocator@PAVFuzzyTerm@@@std@@@std@@QBE?AV?$_Vector_const_iterator@V?$_Vector_val@U?$_Simple_types@PAVFuzzyTerm@@@std@@@std@@@2@XZ
_TEXT	SEGMENT
_this$ = -4						; size = 4
___$ReturnUdt$ = 8					; size = 4
?end@?$vector@PAVFuzzyTerm@@V?$allocator@PAVFuzzyTerm@@@std@@@std@@QBE?AV?$_Vector_const_iterator@V?$_Vector_val@U?$_Simple_types@PAVFuzzyTerm@@@std@@@std@@@2@XZ PROC ; std::vector<FuzzyTerm *,std::allocator<FuzzyTerm *> >::end, COMDAT
; _this$ = ecx

; 1039 : 		{	// return iterator for end of nonmutable sequence

	push	ebp
	mov	ebp, esp
	push	ecx
	mov	DWORD PTR [ebp-4], -858993460		; ccccccccH
	mov	DWORD PTR _this$[ebp], ecx

; 1040 : 		return (const_iterator(this->_Mylast, this));

	mov	eax, DWORD PTR _this$[ebp]
	push	eax
	mov	ecx, DWORD PTR _this$[ebp]
	mov	edx, DWORD PTR [ecx+8]
	push	edx
	mov	ecx, DWORD PTR ___$ReturnUdt$[ebp]
	call	??0?$_Vector_const_iterator@V?$_Vector_val@U?$_Simple_types@PAVFuzzyTerm@@@std@@@std@@@std@@QAE@PAPAVFuzzyTerm@@PBU_Container_base12@1@@Z ; std::_Vector_const_iterator<std::_Vector_val<std::_Simple_types<FuzzyTerm *> > >::_Vector_const_iterator<std::_Vector_val<std::_Simple_types<FuzzyTerm *> > >
	mov	eax, DWORD PTR ___$ReturnUdt$[ebp]

; 1041 : 		}

	add	esp, 4
	cmp	ebp, esp
	call	__RTC_CheckEsp
	mov	esp, ebp
	pop	ebp
	ret	4
?end@?$vector@PAVFuzzyTerm@@V?$allocator@PAVFuzzyTerm@@@std@@@std@@QBE?AV?$_Vector_const_iterator@V?$_Vector_val@U?$_Simple_types@PAVFuzzyTerm@@@std@@@std@@@2@XZ ENDP ; std::vector<FuzzyTerm *,std::allocator<FuzzyTerm *> >::end
_TEXT	ENDS
; Function compile flags: /Odtp /RTCsu
; File c:\program files (x86)\microsoft visual studio 12.0\vc\include\vector
;	COMDAT ?end@?$vector@PAVFuzzyTerm@@V?$allocator@PAVFuzzyTerm@@@std@@@std@@QAE?AV?$_Vector_iterator@V?$_Vector_val@U?$_Simple_types@PAVFuzzyTerm@@@std@@@std@@@2@XZ
_TEXT	SEGMENT
_this$ = -4						; size = 4
___$ReturnUdt$ = 8					; size = 4
?end@?$vector@PAVFuzzyTerm@@V?$allocator@PAVFuzzyTerm@@@std@@@std@@QAE?AV?$_Vector_iterator@V?$_Vector_val@U?$_Simple_types@PAVFuzzyTerm@@@std@@@std@@@2@XZ PROC ; std::vector<FuzzyTerm *,std::allocator<FuzzyTerm *> >::end, COMDAT
; _this$ = ecx

; 1034 : 		{	// return iterator for end of mutable sequence

	push	ebp
	mov	ebp, esp
	push	ecx
	mov	DWORD PTR [ebp-4], -858993460		; ccccccccH
	mov	DWORD PTR _this$[ebp], ecx

; 1035 : 		return (iterator(this->_Mylast, this));

	mov	eax, DWORD PTR _this$[ebp]
	push	eax
	mov	ecx, DWORD PTR _this$[ebp]
	mov	edx, DWORD PTR [ecx+8]
	push	edx
	mov	ecx, DWORD PTR ___$ReturnUdt$[ebp]
	call	??0?$_Vector_iterator@V?$_Vector_val@U?$_Simple_types@PAVFuzzyTerm@@@std@@@std@@@std@@QAE@PAPAVFuzzyTerm@@PBU_Container_base12@1@@Z ; std::_Vector_iterator<std::_Vector_val<std::_Simple_types<FuzzyTerm *> > >::_Vector_iterator<std::_Vector_val<std::_Simple_types<FuzzyTerm *> > >
	mov	eax, DWORD PTR ___$ReturnUdt$[ebp]

; 1036 : 		}

	add	esp, 4
	cmp	ebp, esp
	call	__RTC_CheckEsp
	mov	esp, ebp
	pop	ebp
	ret	4
?end@?$vector@PAVFuzzyTerm@@V?$allocator@PAVFuzzyTerm@@@std@@@std@@QAE?AV?$_Vector_iterator@V?$_Vector_val@U?$_Simple_types@PAVFuzzyTerm@@@std@@@std@@@2@XZ ENDP ; std::vector<FuzzyTerm *,std::allocator<FuzzyTerm *> >::end
_TEXT	ENDS
; Function compile flags: /Odtp /RTCsu
; File c:\program files (x86)\microsoft visual studio 12.0\vc\include\vector
;	COMDAT ?begin@?$vector@PAVFuzzyTerm@@V?$allocator@PAVFuzzyTerm@@@std@@@std@@QBE?AV?$_Vector_const_iterator@V?$_Vector_val@U?$_Simple_types@PAVFuzzyTerm@@@std@@@std@@@2@XZ
_TEXT	SEGMENT
_this$ = -4						; size = 4
___$ReturnUdt$ = 8					; size = 4
?begin@?$vector@PAVFuzzyTerm@@V?$allocator@PAVFuzzyTerm@@@std@@@std@@QBE?AV?$_Vector_const_iterator@V?$_Vector_val@U?$_Simple_types@PAVFuzzyTerm@@@std@@@std@@@2@XZ PROC ; std::vector<FuzzyTerm *,std::allocator<FuzzyTerm *> >::begin, COMDAT
; _this$ = ecx

; 1029 : 		{	// return iterator for beginning of nonmutable sequence

	push	ebp
	mov	ebp, esp
	push	ecx
	mov	DWORD PTR [ebp-4], -858993460		; ccccccccH
	mov	DWORD PTR _this$[ebp], ecx

; 1030 : 		return (const_iterator(this->_Myfirst, this));

	mov	eax, DWORD PTR _this$[ebp]
	push	eax
	mov	ecx, DWORD PTR _this$[ebp]
	mov	edx, DWORD PTR [ecx+4]
	push	edx
	mov	ecx, DWORD PTR ___$ReturnUdt$[ebp]
	call	??0?$_Vector_const_iterator@V?$_Vector_val@U?$_Simple_types@PAVFuzzyTerm@@@std@@@std@@@std@@QAE@PAPAVFuzzyTerm@@PBU_Container_base12@1@@Z ; std::_Vector_const_iterator<std::_Vector_val<std::_Simple_types<FuzzyTerm *> > >::_Vector_const_iterator<std::_Vector_val<std::_Simple_types<FuzzyTerm *> > >
	mov	eax, DWORD PTR ___$ReturnUdt$[ebp]

; 1031 : 		}

	add	esp, 4
	cmp	ebp, esp
	call	__RTC_CheckEsp
	mov	esp, ebp
	pop	ebp
	ret	4
?begin@?$vector@PAVFuzzyTerm@@V?$allocator@PAVFuzzyTerm@@@std@@@std@@QBE?AV?$_Vector_const_iterator@V?$_Vector_val@U?$_Simple_types@PAVFuzzyTerm@@@std@@@std@@@2@XZ ENDP ; std::vector<FuzzyTerm *,std::allocator<FuzzyTerm *> >::begin
_TEXT	ENDS
; Function compile flags: /Odtp /RTCsu
; File c:\program files (x86)\microsoft visual studio 12.0\vc\include\vector
;	COMDAT ?begin@?$vector@PAVFuzzyTerm@@V?$allocator@PAVFuzzyTerm@@@std@@@std@@QAE?AV?$_Vector_iterator@V?$_Vector_val@U?$_Simple_types@PAVFuzzyTerm@@@std@@@std@@@2@XZ
_TEXT	SEGMENT
_this$ = -4						; size = 4
___$ReturnUdt$ = 8					; size = 4
?begin@?$vector@PAVFuzzyTerm@@V?$allocator@PAVFuzzyTerm@@@std@@@std@@QAE?AV?$_Vector_iterator@V?$_Vector_val@U?$_Simple_types@PAVFuzzyTerm@@@std@@@std@@@2@XZ PROC ; std::vector<FuzzyTerm *,std::allocator<FuzzyTerm *> >::begin, COMDAT
; _this$ = ecx

; 1024 : 		{	// return iterator for beginning of mutable sequence

	push	ebp
	mov	ebp, esp
	push	ecx
	mov	DWORD PTR [ebp-4], -858993460		; ccccccccH
	mov	DWORD PTR _this$[ebp], ecx

; 1025 : 		return (iterator(this->_Myfirst, this));

	mov	eax, DWORD PTR _this$[ebp]
	push	eax
	mov	ecx, DWORD PTR _this$[ebp]
	mov	edx, DWORD PTR [ecx+4]
	push	edx
	mov	ecx, DWORD PTR ___$ReturnUdt$[ebp]
	call	??0?$_Vector_iterator@V?$_Vector_val@U?$_Simple_types@PAVFuzzyTerm@@@std@@@std@@@std@@QAE@PAPAVFuzzyTerm@@PBU_Container_base12@1@@Z ; std::_Vector_iterator<std::_Vector_val<std::_Simple_types<FuzzyTerm *> > >::_Vector_iterator<std::_Vector_val<std::_Simple_types<FuzzyTerm *> > >
	mov	eax, DWORD PTR ___$ReturnUdt$[ebp]

; 1026 : 		}

	add	esp, 4
	cmp	ebp, esp
	call	__RTC_CheckEsp
	mov	esp, ebp
	pop	ebp
	ret	4
?begin@?$vector@PAVFuzzyTerm@@V?$allocator@PAVFuzzyTerm@@@std@@@std@@QAE?AV?$_Vector_iterator@V?$_Vector_val@U?$_Simple_types@PAVFuzzyTerm@@@std@@@std@@@2@XZ ENDP ; std::vector<FuzzyTerm *,std::allocator<FuzzyTerm *> >::begin
_TEXT	ENDS
; Function compile flags: /Odtp /RTCsu
; File c:\program files (x86)\microsoft visual studio 12.0\vc\include\vector
;	COMDAT ?_Unused_capacity@?$vector@PAVFuzzyTerm@@V?$allocator@PAVFuzzyTerm@@@std@@@std@@QBEIXZ
_TEXT	SEGMENT
_this$ = -4						; size = 4
?_Unused_capacity@?$vector@PAVFuzzyTerm@@V?$allocator@PAVFuzzyTerm@@@std@@@std@@QBEIXZ PROC ; std::vector<FuzzyTerm *,std::allocator<FuzzyTerm *> >::_Unused_capacity, COMDAT
; _this$ = ecx

; 1014 : 		{	// micro-optimization for capacity() - size()

	push	ebp
	mov	ebp, esp
	push	ecx
	mov	DWORD PTR [ebp-4], -858993460		; ccccccccH
	mov	DWORD PTR _this$[ebp], ecx

; 1015 : 		return (this->_Myend - this->_Mylast);

	mov	eax, DWORD PTR _this$[ebp]
	mov	ecx, DWORD PTR _this$[ebp]
	mov	eax, DWORD PTR [eax+12]
	sub	eax, DWORD PTR [ecx+8]
	sar	eax, 2

; 1016 : 		}

	mov	esp, ebp
	pop	ebp
	ret	0
?_Unused_capacity@?$vector@PAVFuzzyTerm@@V?$allocator@PAVFuzzyTerm@@@std@@@std@@QBEIXZ ENDP ; std::vector<FuzzyTerm *,std::allocator<FuzzyTerm *> >::_Unused_capacity
_TEXT	ENDS
; Function compile flags: /Odtp /RTCsu
; File c:\program files (x86)\microsoft visual studio 12.0\vc\include\vector
;	COMDAT ?capacity@?$vector@PAVFuzzyTerm@@V?$allocator@PAVFuzzyTerm@@@std@@@std@@QBEIXZ
_TEXT	SEGMENT
_this$ = -4						; size = 4
?capacity@?$vector@PAVFuzzyTerm@@V?$allocator@PAVFuzzyTerm@@@std@@@std@@QBEIXZ PROC ; std::vector<FuzzyTerm *,std::allocator<FuzzyTerm *> >::capacity, COMDAT
; _this$ = ecx

; 1009 : 		{	// return current length of allocated storage

	push	ebp
	mov	ebp, esp
	push	ecx
	mov	DWORD PTR [ebp-4], -858993460		; ccccccccH
	mov	DWORD PTR _this$[ebp], ecx

; 1010 : 		return (this->_Myend - this->_Myfirst);

	mov	eax, DWORD PTR _this$[ebp]
	mov	ecx, DWORD PTR _this$[ebp]
	mov	eax, DWORD PTR [eax+12]
	sub	eax, DWORD PTR [ecx+4]
	sar	eax, 2

; 1011 : 		}

	mov	esp, ebp
	pop	ebp
	ret	0
?capacity@?$vector@PAVFuzzyTerm@@V?$allocator@PAVFuzzyTerm@@@std@@@std@@QBEIXZ ENDP ; std::vector<FuzzyTerm *,std::allocator<FuzzyTerm *> >::capacity
_TEXT	ENDS
; Function compile flags: /Odtp /RTCsu
; File c:\program files (x86)\microsoft visual studio 12.0\vc\include\vector
;	COMDAT ??1?$vector@PAVFuzzyTerm@@V?$allocator@PAVFuzzyTerm@@@std@@@std@@QAE@XZ
_TEXT	SEGMENT
_this$ = -4						; size = 4
??1?$vector@PAVFuzzyTerm@@V?$allocator@PAVFuzzyTerm@@@std@@@std@@QAE@XZ PROC ; std::vector<FuzzyTerm *,std::allocator<FuzzyTerm *> >::~vector<FuzzyTerm *,std::allocator<FuzzyTerm *> >, COMDAT
; _this$ = ecx

; 944  : 		{	// destroy the object

	push	ebp
	mov	ebp, esp
	push	ecx
	mov	DWORD PTR [ebp-4], -858993460		; ccccccccH
	mov	DWORD PTR _this$[ebp], ecx

; 945  : 		_Tidy();

	mov	ecx, DWORD PTR _this$[ebp]
	call	?_Tidy@?$vector@PAVFuzzyTerm@@V?$allocator@PAVFuzzyTerm@@@std@@@std@@IAEXXZ ; std::vector<FuzzyTerm *,std::allocator<FuzzyTerm *> >::_Tidy

; 946  : 		}

	mov	ecx, DWORD PTR _this$[ebp]
	call	??1?$_Vector_alloc@$0A@U?$_Vec_base_types@PAVFuzzyTerm@@V?$allocator@PAVFuzzyTerm@@@std@@@std@@@std@@QAE@XZ ; std::_Vector_alloc<0,std::_Vec_base_types<FuzzyTerm *,std::allocator<FuzzyTerm *> > >::~_Vector_alloc<0,std::_Vec_base_types<FuzzyTerm *,std::allocator<FuzzyTerm *> > >
	add	esp, 4
	cmp	ebp, esp
	call	__RTC_CheckEsp
	mov	esp, ebp
	pop	ebp
	ret	0
??1?$vector@PAVFuzzyTerm@@V?$allocator@PAVFuzzyTerm@@@std@@@std@@QAE@XZ ENDP ; std::vector<FuzzyTerm *,std::allocator<FuzzyTerm *> >::~vector<FuzzyTerm *,std::allocator<FuzzyTerm *> >
_TEXT	ENDS
; Function compile flags: /Odtp /RTCsu
; File c:\program files (x86)\microsoft visual studio 12.0\vc\include\vector
;	COMDAT ?push_back@?$vector@PAVFuzzyTerm@@V?$allocator@PAVFuzzyTerm@@@std@@@std@@QAEX$$QAPAVFuzzyTerm@@@Z
_TEXT	SEGMENT
$T1 = -10						; size = 1
$T2 = -9						; size = 1
__Idx$3 = -8						; size = 4
_this$ = -4						; size = 4
__Val$ = 8						; size = 4
?push_back@?$vector@PAVFuzzyTerm@@V?$allocator@PAVFuzzyTerm@@@std@@@std@@QAEX$$QAPAVFuzzyTerm@@@Z PROC ; std::vector<FuzzyTerm *,std::allocator<FuzzyTerm *> >::push_back, COMDAT
; _this$ = ecx

; 865  : 		{	// insert by moving into element at end

	push	ebp
	mov	ebp, esp
	sub	esp, 12					; 0000000cH
	mov	DWORD PTR [ebp-12], -858993460		; ccccccccH
	mov	DWORD PTR [ebp-8], -858993460		; ccccccccH
	mov	DWORD PTR [ebp-4], -858993460		; ccccccccH
	mov	DWORD PTR _this$[ebp], ecx

; 866  : 		if (_Inside(_STD addressof(_Val)))

	mov	eax, DWORD PTR __Val$[ebp]
	push	eax
	call	??$addressof@PAVFuzzyTerm@@@std@@YAPAPAVFuzzyTerm@@AAPAV1@@Z ; std::addressof<FuzzyTerm *>
	add	esp, 4
	push	eax
	mov	ecx, DWORD PTR _this$[ebp]
	call	?_Inside@?$vector@PAVFuzzyTerm@@V?$allocator@PAVFuzzyTerm@@@std@@@std@@IBE_NPBQAVFuzzyTerm@@@Z ; std::vector<FuzzyTerm *,std::allocator<FuzzyTerm *> >::_Inside
	movzx	ecx, al
	test	ecx, ecx
	je	$LN4@push_back

; 867  : 			{	// push back an element
; 868  : 			size_type _Idx = _STD addressof(_Val) - this->_Myfirst;

	mov	edx, DWORD PTR __Val$[ebp]
	push	edx
	call	??$addressof@PAVFuzzyTerm@@@std@@YAPAPAVFuzzyTerm@@AAPAV1@@Z ; std::addressof<FuzzyTerm *>
	add	esp, 4
	mov	ecx, DWORD PTR _this$[ebp]
	sub	eax, DWORD PTR [ecx+4]
	sar	eax, 2
	mov	DWORD PTR __Idx$3[ebp], eax

; 869  : 			if (this->_Mylast == this->_Myend)

	mov	edx, DWORD PTR _this$[ebp]
	mov	eax, DWORD PTR _this$[ebp]
	mov	ecx, DWORD PTR [edx+8]
	cmp	ecx, DWORD PTR [eax+12]
	jne	SHORT $LN3@push_back

; 870  : 				_Reserve(1);

	push	1
	mov	ecx, DWORD PTR _this$[ebp]
	call	?_Reserve@?$vector@PAVFuzzyTerm@@V?$allocator@PAVFuzzyTerm@@@std@@@std@@IAEXI@Z ; std::vector<FuzzyTerm *,std::allocator<FuzzyTerm *> >::_Reserve
$LN3@push_back:

; 871  : 			_Orphan_range(this->_Mylast, this->_Mylast);

	mov	edx, DWORD PTR _this$[ebp]
	mov	eax, DWORD PTR [edx+8]
	push	eax
	mov	ecx, DWORD PTR _this$[ebp]
	mov	edx, DWORD PTR [ecx+8]
	push	edx
	mov	ecx, DWORD PTR _this$[ebp]
	call	?_Orphan_range@?$vector@PAVFuzzyTerm@@V?$allocator@PAVFuzzyTerm@@@std@@@std@@IBEXPAPAVFuzzyTerm@@0@Z ; std::vector<FuzzyTerm *,std::allocator<FuzzyTerm *> >::_Orphan_range

; 872  : 			this->_Getal().construct(this->_Mylast,
; 873  : 				_STD forward<value_type>(this->_Myfirst[_Idx]));

	mov	eax, DWORD PTR _this$[ebp]
	mov	ecx, DWORD PTR [eax+4]
	mov	edx, DWORD PTR __Idx$3[ebp]
	lea	eax, DWORD PTR [ecx+edx*4]
	push	eax
	call	??$forward@PAVFuzzyTerm@@@std@@YA$$QAPAVFuzzyTerm@@AAPAV1@@Z ; std::forward<FuzzyTerm *>
	add	esp, 4
	push	eax
	mov	ecx, DWORD PTR _this$[ebp]
	mov	edx, DWORD PTR [ecx+8]
	push	edx
	lea	eax, DWORD PTR $T2[ebp]
	push	eax
	mov	ecx, DWORD PTR _this$[ebp]
	call	?_Getal@?$_Vector_alloc@$0A@U?$_Vec_base_types@PAVFuzzyTerm@@V?$allocator@PAVFuzzyTerm@@@std@@@std@@@std@@QBE?AU?$_Wrap_alloc@V?$allocator@PAVFuzzyTerm@@@std@@@2@XZ ; std::_Vector_alloc<0,std::_Vec_base_types<FuzzyTerm *,std::allocator<FuzzyTerm *> > >::_Getal
	mov	ecx, eax
	call	??$construct@PAVFuzzyTerm@@PAV1@@?$_Wrap_alloc@V?$allocator@PAVFuzzyTerm@@@std@@@std@@QAEXPAPAVFuzzyTerm@@$$QAPAV2@@Z ; std::_Wrap_alloc<std::allocator<FuzzyTerm *> >::construct<FuzzyTerm *,FuzzyTerm *>

; 874  : 			++this->_Mylast;

	mov	ecx, DWORD PTR _this$[ebp]
	mov	edx, DWORD PTR [ecx+8]
	add	edx, 4
	mov	eax, DWORD PTR _this$[ebp]
	mov	DWORD PTR [eax+8], edx

; 875  : 			}
; 876  : 		else

	jmp	SHORT $LN5@push_back
$LN4@push_back:

; 877  : 			{	// push back a non-element
; 878  : 			if (this->_Mylast == this->_Myend)

	mov	ecx, DWORD PTR _this$[ebp]
	mov	edx, DWORD PTR _this$[ebp]
	mov	eax, DWORD PTR [ecx+8]
	cmp	eax, DWORD PTR [edx+12]
	jne	SHORT $LN1@push_back

; 879  : 				_Reserve(1);

	push	1
	mov	ecx, DWORD PTR _this$[ebp]
	call	?_Reserve@?$vector@PAVFuzzyTerm@@V?$allocator@PAVFuzzyTerm@@@std@@@std@@IAEXI@Z ; std::vector<FuzzyTerm *,std::allocator<FuzzyTerm *> >::_Reserve
$LN1@push_back:

; 880  : 			_Orphan_range(this->_Mylast, this->_Mylast);

	mov	ecx, DWORD PTR _this$[ebp]
	mov	edx, DWORD PTR [ecx+8]
	push	edx
	mov	eax, DWORD PTR _this$[ebp]
	mov	ecx, DWORD PTR [eax+8]
	push	ecx
	mov	ecx, DWORD PTR _this$[ebp]
	call	?_Orphan_range@?$vector@PAVFuzzyTerm@@V?$allocator@PAVFuzzyTerm@@@std@@@std@@IBEXPAPAVFuzzyTerm@@0@Z ; std::vector<FuzzyTerm *,std::allocator<FuzzyTerm *> >::_Orphan_range

; 881  : 			this->_Getal().construct(this->_Mylast,
; 882  : 				_STD forward<value_type>(_Val));

	mov	edx, DWORD PTR __Val$[ebp]
	push	edx
	call	??$forward@PAVFuzzyTerm@@@std@@YA$$QAPAVFuzzyTerm@@AAPAV1@@Z ; std::forward<FuzzyTerm *>
	add	esp, 4
	push	eax
	mov	eax, DWORD PTR _this$[ebp]
	mov	ecx, DWORD PTR [eax+8]
	push	ecx
	lea	edx, DWORD PTR $T1[ebp]
	push	edx
	mov	ecx, DWORD PTR _this$[ebp]
	call	?_Getal@?$_Vector_alloc@$0A@U?$_Vec_base_types@PAVFuzzyTerm@@V?$allocator@PAVFuzzyTerm@@@std@@@std@@@std@@QBE?AU?$_Wrap_alloc@V?$allocator@PAVFuzzyTerm@@@std@@@2@XZ ; std::_Vector_alloc<0,std::_Vec_base_types<FuzzyTerm *,std::allocator<FuzzyTerm *> > >::_Getal
	mov	ecx, eax
	call	??$construct@PAVFuzzyTerm@@PAV1@@?$_Wrap_alloc@V?$allocator@PAVFuzzyTerm@@@std@@@std@@QAEXPAPAVFuzzyTerm@@$$QAPAV2@@Z ; std::_Wrap_alloc<std::allocator<FuzzyTerm *> >::construct<FuzzyTerm *,FuzzyTerm *>

; 883  : 			++this->_Mylast;

	mov	eax, DWORD PTR _this$[ebp]
	mov	ecx, DWORD PTR [eax+8]
	add	ecx, 4
	mov	edx, DWORD PTR _this$[ebp]
	mov	DWORD PTR [edx+8], ecx
$LN5@push_back:

; 884  : 			}
; 885  : 		}

	add	esp, 12					; 0000000cH
	cmp	ebp, esp
	call	__RTC_CheckEsp
	mov	esp, ebp
	pop	ebp
	ret	4
?push_back@?$vector@PAVFuzzyTerm@@V?$allocator@PAVFuzzyTerm@@@std@@@std@@QAEX$$QAPAVFuzzyTerm@@@Z ENDP ; std::vector<FuzzyTerm *,std::allocator<FuzzyTerm *> >::push_back
_TEXT	ENDS
; Function compile flags: /Odtp /RTCsu
; File c:\program files (x86)\microsoft visual studio 12.0\vc\include\vector
;	COMDAT ??0?$vector@PAVFuzzyTerm@@V?$allocator@PAVFuzzyTerm@@@std@@@std@@QAE@XZ
_TEXT	SEGMENT
$T1 = -5						; size = 1
_this$ = -4						; size = 4
??0?$vector@PAVFuzzyTerm@@V?$allocator@PAVFuzzyTerm@@@std@@@std@@QAE@XZ PROC ; std::vector<FuzzyTerm *,std::allocator<FuzzyTerm *> >::vector<FuzzyTerm *,std::allocator<FuzzyTerm *> >, COMDAT
; _this$ = ecx

; 680  : 		{	// construct empty vector

	push	ebp
	mov	ebp, esp
	sub	esp, 8
	mov	DWORD PTR [ebp-8], -858993460		; ccccccccH
	mov	DWORD PTR [ebp-4], -858993460		; ccccccccH
	mov	DWORD PTR _this$[ebp], ecx
	lea	ecx, DWORD PTR $T1[ebp]
	call	??0?$allocator@PAVFuzzyTerm@@@std@@QAE@XZ ; std::allocator<FuzzyTerm *>::allocator<FuzzyTerm *>
	push	eax
	mov	ecx, DWORD PTR _this$[ebp]
	call	??0?$_Vector_alloc@$0A@U?$_Vec_base_types@PAVFuzzyTerm@@V?$allocator@PAVFuzzyTerm@@@std@@@std@@@std@@QAE@ABV?$allocator@PAVFuzzyTerm@@@1@@Z ; std::_Vector_alloc<0,std::_Vec_base_types<FuzzyTerm *,std::allocator<FuzzyTerm *> > >::_Vector_alloc<0,std::_Vec_base_types<FuzzyTerm *,std::allocator<FuzzyTerm *> > >

; 681  : 		}

	mov	eax, DWORD PTR _this$[ebp]
	add	esp, 8
	cmp	ebp, esp
	call	__RTC_CheckEsp
	mov	esp, ebp
	pop	ebp
	ret	0
??0?$vector@PAVFuzzyTerm@@V?$allocator@PAVFuzzyTerm@@@std@@@std@@QAE@XZ ENDP ; std::vector<FuzzyTerm *,std::allocator<FuzzyTerm *> >::vector<FuzzyTerm *,std::allocator<FuzzyTerm *> >
_TEXT	ENDS
; Function compile flags: /Odtp /RTCsu
; File c:\program files (x86)\microsoft visual studio 12.0\vc\include\vector
;	COMDAT ?_Getal@?$_Vector_alloc@$0A@U?$_Vec_base_types@PAVFuzzyTerm@@V?$allocator@PAVFuzzyTerm@@@std@@@std@@@std@@QBE?AU?$_Wrap_alloc@V?$allocator@PAVFuzzyTerm@@@std@@@2@XZ
_TEXT	SEGMENT
_this$ = -4						; size = 4
___$ReturnUdt$ = 8					; size = 4
?_Getal@?$_Vector_alloc@$0A@U?$_Vec_base_types@PAVFuzzyTerm@@V?$allocator@PAVFuzzyTerm@@@std@@@std@@@std@@QBE?AU?$_Wrap_alloc@V?$allocator@PAVFuzzyTerm@@@std@@@2@XZ PROC ; std::_Vector_alloc<0,std::_Vec_base_types<FuzzyTerm *,std::allocator<FuzzyTerm *> > >::_Getal, COMDAT
; _this$ = ecx

; 641  : 		{	// get reference to allocator

	push	ebp
	mov	ebp, esp
	push	ecx
	mov	DWORD PTR [ebp-4], -858993460		; ccccccccH
	mov	DWORD PTR _this$[ebp], ecx

; 642  : 		return (_Alty());

	mov	ecx, DWORD PTR ___$ReturnUdt$[ebp]
	call	??0?$_Wrap_alloc@V?$allocator@PAVFuzzyTerm@@@std@@@std@@QAE@XZ ; std::_Wrap_alloc<std::allocator<FuzzyTerm *> >::_Wrap_alloc<std::allocator<FuzzyTerm *> >
	mov	eax, DWORD PTR ___$ReturnUdt$[ebp]

; 643  : 		}

	add	esp, 4
	cmp	ebp, esp
	call	__RTC_CheckEsp
	mov	esp, ebp
	pop	ebp
	ret	4
?_Getal@?$_Vector_alloc@$0A@U?$_Vec_base_types@PAVFuzzyTerm@@V?$allocator@PAVFuzzyTerm@@@std@@@std@@@std@@QBE?AU?$_Wrap_alloc@V?$allocator@PAVFuzzyTerm@@@std@@@2@XZ ENDP ; std::_Vector_alloc<0,std::_Vec_base_types<FuzzyTerm *,std::allocator<FuzzyTerm *> > >::_Getal
_TEXT	ENDS
; Function compile flags: /Odtp /RTCsu
; File c:\program files (x86)\microsoft visual studio 12.0\vc\include\vector
;	COMDAT ?_Free_proxy@?$_Vector_alloc@$0A@U?$_Vec_base_types@PAVFuzzyTerm@@V?$allocator@PAVFuzzyTerm@@@std@@@std@@@std@@QAEXXZ
_TEXT	SEGMENT
__Alproxy$ = -9						; size = 1
_this$ = -4						; size = 4
?_Free_proxy@?$_Vector_alloc@$0A@U?$_Vec_base_types@PAVFuzzyTerm@@V?$allocator@PAVFuzzyTerm@@@std@@@std@@@std@@QAEXXZ PROC ; std::_Vector_alloc<0,std::_Vec_base_types<FuzzyTerm *,std::allocator<FuzzyTerm *> > >::_Free_proxy, COMDAT
; _this$ = ecx

; 630  : 		{	// destroy proxy

	push	ebp
	mov	ebp, esp
	sub	esp, 16					; 00000010H
	mov	eax, -858993460				; ccccccccH
	mov	DWORD PTR [ebp-16], eax
	mov	DWORD PTR [ebp-12], eax
	mov	DWORD PTR [ebp-8], eax
	mov	DWORD PTR [ebp-4], eax
	mov	DWORD PTR _this$[ebp], ecx

; 631  : 		typename _Alty::template rebind<_Container_proxy>::other
; 632  : 			_Alproxy;

	lea	ecx, DWORD PTR __Alproxy$[ebp]
	call	??0?$_Wrap_alloc@V?$allocator@U_Container_proxy@std@@@std@@@std@@QAE@XZ ; std::_Wrap_alloc<std::allocator<std::_Container_proxy> >::_Wrap_alloc<std::allocator<std::_Container_proxy> >

; 633  : 		this->_Orphan_all();

	mov	ecx, DWORD PTR _this$[ebp]
	call	?_Orphan_all@_Container_base12@std@@QAEXXZ ; std::_Container_base12::_Orphan_all

; 634  : 		_Alproxy.destroy(this->_Myproxy);

	mov	eax, DWORD PTR _this$[ebp]
	mov	ecx, DWORD PTR [eax]
	push	ecx
	lea	ecx, DWORD PTR __Alproxy$[ebp]
	call	??$destroy@U_Container_proxy@std@@@?$_Wrap_alloc@V?$allocator@U_Container_proxy@std@@@std@@@std@@QAEXPAU_Container_proxy@1@@Z ; std::_Wrap_alloc<std::allocator<std::_Container_proxy> >::destroy<std::_Container_proxy>

; 635  : 		_Alproxy.deallocate(this->_Myproxy, 1);

	push	1
	mov	edx, DWORD PTR _this$[ebp]
	mov	eax, DWORD PTR [edx]
	push	eax
	lea	ecx, DWORD PTR __Alproxy$[ebp]
	call	?deallocate@?$_Wrap_alloc@V?$allocator@U_Container_proxy@std@@@std@@@std@@QAEXPAU_Container_proxy@2@I@Z ; std::_Wrap_alloc<std::allocator<std::_Container_proxy> >::deallocate

; 636  : 		this->_Myproxy = 0;

	mov	ecx, DWORD PTR _this$[ebp]
	mov	DWORD PTR [ecx], 0

; 637  : 		}

	push	edx
	mov	ecx, ebp
	push	eax
	lea	edx, DWORD PTR $LN5@Free_proxy
	call	@_RTC_CheckStackVars@8
	pop	eax
	pop	edx
	add	esp, 16					; 00000010H
	cmp	ebp, esp
	call	__RTC_CheckEsp
	mov	esp, ebp
	pop	ebp
	ret	0
$LN5@Free_proxy:
	DD	1
	DD	$LN4@Free_proxy
$LN4@Free_proxy:
	DD	-9					; fffffff7H
	DD	1
	DD	$LN3@Free_proxy
$LN3@Free_proxy:
	DB	95					; 0000005fH
	DB	65					; 00000041H
	DB	108					; 0000006cH
	DB	112					; 00000070H
	DB	114					; 00000072H
	DB	111					; 0000006fH
	DB	120					; 00000078H
	DB	121					; 00000079H
	DB	0
?_Free_proxy@?$_Vector_alloc@$0A@U?$_Vec_base_types@PAVFuzzyTerm@@V?$allocator@PAVFuzzyTerm@@@std@@@std@@@std@@QAEXXZ ENDP ; std::_Vector_alloc<0,std::_Vec_base_types<FuzzyTerm *,std::allocator<FuzzyTerm *> > >::_Free_proxy
_TEXT	ENDS
; Function compile flags: /Odtp /RTCsu
; File c:\program files (x86)\microsoft visual studio 12.0\vc\include\vector
;	COMDAT ?_Alloc_proxy@?$_Vector_alloc@$0A@U?$_Vec_base_types@PAVFuzzyTerm@@V?$allocator@PAVFuzzyTerm@@@std@@@std@@@std@@QAEXXZ
_TEXT	SEGMENT
$T1 = -24						; size = 8
__Alproxy$ = -9						; size = 1
_this$ = -4						; size = 4
?_Alloc_proxy@?$_Vector_alloc@$0A@U?$_Vec_base_types@PAVFuzzyTerm@@V?$allocator@PAVFuzzyTerm@@@std@@@std@@@std@@QAEXXZ PROC ; std::_Vector_alloc<0,std::_Vec_base_types<FuzzyTerm *,std::allocator<FuzzyTerm *> > >::_Alloc_proxy, COMDAT
; _this$ = ecx

; 621  : 		{	// construct proxy from _Alval

	push	ebp
	mov	ebp, esp
	sub	esp, 24					; 00000018H
	mov	eax, -858993460				; ccccccccH
	mov	DWORD PTR [ebp-24], eax
	mov	DWORD PTR [ebp-20], eax
	mov	DWORD PTR [ebp-16], eax
	mov	DWORD PTR [ebp-12], eax
	mov	DWORD PTR [ebp-8], eax
	mov	DWORD PTR [ebp-4], eax
	mov	DWORD PTR _this$[ebp], ecx

; 622  : 		typename _Alty::template rebind<_Container_proxy>::other
; 623  : 			_Alproxy;

	lea	ecx, DWORD PTR __Alproxy$[ebp]
	call	??0?$_Wrap_alloc@V?$allocator@U_Container_proxy@std@@@std@@@std@@QAE@XZ ; std::_Wrap_alloc<std::allocator<std::_Container_proxy> >::_Wrap_alloc<std::allocator<std::_Container_proxy> >

; 624  : 		this->_Myproxy = _Alproxy.allocate(1);

	push	1
	lea	ecx, DWORD PTR __Alproxy$[ebp]
	call	?allocate@?$_Wrap_alloc@V?$allocator@U_Container_proxy@std@@@std@@@std@@QAEPAU_Container_proxy@2@I@Z ; std::_Wrap_alloc<std::allocator<std::_Container_proxy> >::allocate
	mov	ecx, DWORD PTR _this$[ebp]
	mov	DWORD PTR [ecx], eax

; 625  : 		_Alproxy.construct(this->_Myproxy, _Container_proxy());

	lea	ecx, DWORD PTR $T1[ebp]
	call	??0_Container_proxy@std@@QAE@XZ		; std::_Container_proxy::_Container_proxy
	push	eax
	mov	edx, DWORD PTR _this$[ebp]
	mov	eax, DWORD PTR [edx]
	push	eax
	lea	ecx, DWORD PTR __Alproxy$[ebp]
	call	??$construct@U_Container_proxy@std@@U12@@?$_Wrap_alloc@V?$allocator@U_Container_proxy@std@@@std@@@std@@QAEXPAU_Container_proxy@1@$$QAU21@@Z ; std::_Wrap_alloc<std::allocator<std::_Container_proxy> >::construct<std::_Container_proxy,std::_Container_proxy>

; 626  : 		this->_Myproxy->_Mycont = this;

	mov	ecx, DWORD PTR _this$[ebp]
	mov	edx, DWORD PTR [ecx]
	mov	eax, DWORD PTR _this$[ebp]
	mov	DWORD PTR [edx], eax

; 627  : 		}

	push	edx
	mov	ecx, ebp
	push	eax
	lea	edx, DWORD PTR $LN5@Alloc_prox
	call	@_RTC_CheckStackVars@8
	pop	eax
	pop	edx
	add	esp, 24					; 00000018H
	cmp	ebp, esp
	call	__RTC_CheckEsp
	mov	esp, ebp
	pop	ebp
	ret	0
	npad	1
$LN5@Alloc_prox:
	DD	1
	DD	$LN4@Alloc_prox
$LN4@Alloc_prox:
	DD	-9					; fffffff7H
	DD	1
	DD	$LN3@Alloc_prox
$LN3@Alloc_prox:
	DB	95					; 0000005fH
	DB	65					; 00000041H
	DB	108					; 0000006cH
	DB	112					; 00000070H
	DB	114					; 00000072H
	DB	111					; 0000006fH
	DB	120					; 00000078H
	DB	121					; 00000079H
	DB	0
?_Alloc_proxy@?$_Vector_alloc@$0A@U?$_Vec_base_types@PAVFuzzyTerm@@V?$allocator@PAVFuzzyTerm@@@std@@@std@@@std@@QAEXXZ ENDP ; std::_Vector_alloc<0,std::_Vec_base_types<FuzzyTerm *,std::allocator<FuzzyTerm *> > >::_Alloc_proxy
_TEXT	ENDS
; Function compile flags: /Odtp /RTCsu
; File c:\program files (x86)\microsoft visual studio 12.0\vc\include\vector
;	COMDAT ??1?$_Vector_alloc@$0A@U?$_Vec_base_types@PAVFuzzyTerm@@V?$allocator@PAVFuzzyTerm@@@std@@@std@@@std@@QAE@XZ
_TEXT	SEGMENT
_this$ = -4						; size = 4
??1?$_Vector_alloc@$0A@U?$_Vec_base_types@PAVFuzzyTerm@@V?$allocator@PAVFuzzyTerm@@@std@@@std@@@std@@QAE@XZ PROC ; std::_Vector_alloc<0,std::_Vec_base_types<FuzzyTerm *,std::allocator<FuzzyTerm *> > >::~_Vector_alloc<0,std::_Vec_base_types<FuzzyTerm *,std::allocator<FuzzyTerm *> > >, COMDAT
; _this$ = ecx

; 607  : 		{	// destroy proxy

	push	ebp
	mov	ebp, esp
	push	ecx
	mov	DWORD PTR [ebp-4], -858993460		; ccccccccH
	mov	DWORD PTR _this$[ebp], ecx

; 608  : 		_Free_proxy();

	mov	ecx, DWORD PTR _this$[ebp]
	call	?_Free_proxy@?$_Vector_alloc@$0A@U?$_Vec_base_types@PAVFuzzyTerm@@V?$allocator@PAVFuzzyTerm@@@std@@@std@@@std@@QAEXXZ ; std::_Vector_alloc<0,std::_Vec_base_types<FuzzyTerm *,std::allocator<FuzzyTerm *> > >::_Free_proxy

; 609  : 		}

	mov	ecx, DWORD PTR _this$[ebp]
	call	??1?$_Vector_val@U?$_Simple_types@PAVFuzzyTerm@@@std@@@std@@QAE@XZ
	add	esp, 4
	cmp	ebp, esp
	call	__RTC_CheckEsp
	mov	esp, ebp
	pop	ebp
	ret	0
??1?$_Vector_alloc@$0A@U?$_Vec_base_types@PAVFuzzyTerm@@V?$allocator@PAVFuzzyTerm@@@std@@@std@@@std@@QAE@XZ ENDP ; std::_Vector_alloc<0,std::_Vec_base_types<FuzzyTerm *,std::allocator<FuzzyTerm *> > >::~_Vector_alloc<0,std::_Vec_base_types<FuzzyTerm *,std::allocator<FuzzyTerm *> > >
_TEXT	ENDS
; Function compile flags: /Odtp /RTCsu
; File c:\program files (x86)\microsoft visual studio 12.0\vc\include\vector
;	COMDAT ??0?$_Vector_alloc@$0A@U?$_Vec_base_types@PAVFuzzyTerm@@V?$allocator@PAVFuzzyTerm@@@std@@@std@@@std@@QAE@ABV?$allocator@PAVFuzzyTerm@@@1@@Z
_TEXT	SEGMENT
_this$ = -16						; size = 4
__$EHRec$ = -12						; size = 12
___formal$ = 8						; size = 4
??0?$_Vector_alloc@$0A@U?$_Vec_base_types@PAVFuzzyTerm@@V?$allocator@PAVFuzzyTerm@@@std@@@std@@@std@@QAE@ABV?$allocator@PAVFuzzyTerm@@@1@@Z PROC ; std::_Vector_alloc<0,std::_Vec_base_types<FuzzyTerm *,std::allocator<FuzzyTerm *> > >::_Vector_alloc<0,std::_Vec_base_types<FuzzyTerm *,std::allocator<FuzzyTerm *> > >, COMDAT
; _this$ = ecx

; 601  : 	_Vector_alloc(const _Alloc& = _Alloc())

	push	ebp
	mov	ebp, esp
	push	-1
	push	__ehhandler$??0?$_Vector_alloc@$0A@U?$_Vec_base_types@PAVFuzzyTerm@@V?$allocator@PAVFuzzyTerm@@@std@@@std@@@std@@QAE@ABV?$allocator@PAVFuzzyTerm@@@1@@Z
	mov	eax, DWORD PTR fs:0
	push	eax
	push	ecx
	mov	DWORD PTR [ebp-16], -858993460		; ccccccccH
	mov	eax, DWORD PTR ___security_cookie
	xor	eax, ebp
	push	eax
	lea	eax, DWORD PTR __$EHRec$[ebp]
	mov	DWORD PTR fs:0, eax
	mov	DWORD PTR _this$[ebp], ecx
	mov	ecx, DWORD PTR _this$[ebp]
	call	??0?$_Vector_val@U?$_Simple_types@PAVFuzzyTerm@@@std@@@std@@QAE@XZ ; std::_Vector_val<std::_Simple_types<FuzzyTerm *> >::_Vector_val<std::_Simple_types<FuzzyTerm *> >
	mov	DWORD PTR __$EHRec$[ebp+8], 0

; 602  : 		{	// construct allocator from _Al
; 603  : 		_Alloc_proxy();

	mov	ecx, DWORD PTR _this$[ebp]
	call	?_Alloc_proxy@?$_Vector_alloc@$0A@U?$_Vec_base_types@PAVFuzzyTerm@@V?$allocator@PAVFuzzyTerm@@@std@@@std@@@std@@QAEXXZ ; std::_Vector_alloc<0,std::_Vec_base_types<FuzzyTerm *,std::allocator<FuzzyTerm *> > >::_Alloc_proxy

; 604  : 		}

	mov	DWORD PTR __$EHRec$[ebp+8], -1
	mov	eax, DWORD PTR _this$[ebp]
	mov	ecx, DWORD PTR __$EHRec$[ebp]
	mov	DWORD PTR fs:0, ecx
	pop	ecx
	add	esp, 16					; 00000010H
	cmp	ebp, esp
	call	__RTC_CheckEsp
	mov	esp, ebp
	pop	ebp
	ret	4
_TEXT	ENDS
;	COMDAT text$x
text$x	SEGMENT
__unwindfunclet$??0?$_Vector_alloc@$0A@U?$_Vec_base_types@PAVFuzzyTerm@@V?$allocator@PAVFuzzyTerm@@@std@@@std@@@std@@QAE@ABV?$allocator@PAVFuzzyTerm@@@1@@Z$0:
	mov	ecx, DWORD PTR _this$[ebp]
	jmp	??1?$_Vector_val@U?$_Simple_types@PAVFuzzyTerm@@@std@@@std@@QAE@XZ
__ehhandler$??0?$_Vector_alloc@$0A@U?$_Vec_base_types@PAVFuzzyTerm@@V?$allocator@PAVFuzzyTerm@@@std@@@std@@@std@@QAE@ABV?$allocator@PAVFuzzyTerm@@@1@@Z:
	mov	edx, DWORD PTR [esp+8]
	lea	eax, DWORD PTR [edx+12]
	mov	ecx, DWORD PTR [edx-8]
	xor	ecx, eax
	call	@__security_check_cookie@4
	mov	eax, OFFSET __ehfuncinfo$??0?$_Vector_alloc@$0A@U?$_Vec_base_types@PAVFuzzyTerm@@V?$allocator@PAVFuzzyTerm@@@std@@@std@@@std@@QAE@ABV?$allocator@PAVFuzzyTerm@@@1@@Z
	jmp	___CxxFrameHandler3
text$x	ENDS
??0?$_Vector_alloc@$0A@U?$_Vec_base_types@PAVFuzzyTerm@@V?$allocator@PAVFuzzyTerm@@@std@@@std@@@std@@QAE@ABV?$allocator@PAVFuzzyTerm@@@1@@Z ENDP ; std::_Vector_alloc<0,std::_Vec_base_types<FuzzyTerm *,std::allocator<FuzzyTerm *> > >::_Vector_alloc<0,std::_Vec_base_types<FuzzyTerm *,std::allocator<FuzzyTerm *> > >
; Function compile flags: /Odtp /RTCsu
;	COMDAT ??1?$_Vector_val@U?$_Simple_types@PAVFuzzyTerm@@@std@@@std@@QAE@XZ
_TEXT	SEGMENT
_this$ = -4						; size = 4
??1?$_Vector_val@U?$_Simple_types@PAVFuzzyTerm@@@std@@@std@@QAE@XZ PROC ; std::_Vector_val<std::_Simple_types<FuzzyTerm *> >::~_Vector_val<std::_Simple_types<FuzzyTerm *> >, COMDAT
; _this$ = ecx
	push	ebp
	mov	ebp, esp
	push	ecx
	mov	DWORD PTR [ebp-4], -858993460		; ccccccccH
	mov	DWORD PTR _this$[ebp], ecx
	mov	ecx, DWORD PTR _this$[ebp]
	call	??1_Container_base12@std@@QAE@XZ	; std::_Container_base12::~_Container_base12
	add	esp, 4
	cmp	ebp, esp
	call	__RTC_CheckEsp
	mov	esp, ebp
	pop	ebp
	ret	0
??1?$_Vector_val@U?$_Simple_types@PAVFuzzyTerm@@@std@@@std@@QAE@XZ ENDP ; std::_Vector_val<std::_Simple_types<FuzzyTerm *> >::~_Vector_val<std::_Simple_types<FuzzyTerm *> >
_TEXT	ENDS
; Function compile flags: /Odtp /RTCsu
; File c:\program files (x86)\microsoft visual studio 12.0\vc\include\vector
;	COMDAT ??0?$_Vector_val@U?$_Simple_types@PAVFuzzyTerm@@@std@@@std@@QAE@XZ
_TEXT	SEGMENT
_this$ = -4						; size = 4
??0?$_Vector_val@U?$_Simple_types@PAVFuzzyTerm@@@std@@@std@@QAE@XZ PROC ; std::_Vector_val<std::_Simple_types<FuzzyTerm *> >::_Vector_val<std::_Simple_types<FuzzyTerm *> >, COMDAT
; _this$ = ecx

; 480  : 	_Vector_val()

	push	ebp
	mov	ebp, esp
	push	ecx
	mov	DWORD PTR [ebp-4], -858993460		; ccccccccH
	mov	DWORD PTR _this$[ebp], ecx
	mov	ecx, DWORD PTR _this$[ebp]
	call	??0_Container_base12@std@@QAE@XZ	; std::_Container_base12::_Container_base12

; 481  : 		{	// initialize values
; 482  : 		_Myfirst = pointer();

	mov	eax, DWORD PTR _this$[ebp]
	mov	DWORD PTR [eax+4], 0

; 483  : 		_Mylast = pointer();

	mov	ecx, DWORD PTR _this$[ebp]
	mov	DWORD PTR [ecx+8], 0

; 484  : 		_Myend = pointer();

	mov	edx, DWORD PTR _this$[ebp]
	mov	DWORD PTR [edx+12], 0

; 485  : 		}

	mov	eax, DWORD PTR _this$[ebp]
	add	esp, 4
	cmp	ebp, esp
	call	__RTC_CheckEsp
	mov	esp, ebp
	pop	ebp
	ret	0
??0?$_Vector_val@U?$_Simple_types@PAVFuzzyTerm@@@std@@@std@@QAE@XZ ENDP ; std::_Vector_val<std::_Simple_types<FuzzyTerm *> >::_Vector_val<std::_Simple_types<FuzzyTerm *> >
_TEXT	ENDS
; Function compile flags: /Odtp /RTCsu
; File c:\program files (x86)\microsoft visual studio 12.0\vc\include\xmemory0
;	COMDAT ?max_size@?$_Wrap_alloc@V?$allocator@PAVFuzzyTerm@@@std@@@std@@QBEIXZ
_TEXT	SEGMENT
_this$ = -4						; size = 4
?max_size@?$_Wrap_alloc@V?$allocator@PAVFuzzyTerm@@@std@@@std@@QBEIXZ PROC ; std::_Wrap_alloc<std::allocator<FuzzyTerm *> >::max_size, COMDAT
; _this$ = ecx

; 883  : 		{	// get maximum size

	push	ebp
	mov	ebp, esp
	push	ecx
	mov	DWORD PTR [ebp-4], -858993460		; ccccccccH
	mov	DWORD PTR _this$[ebp], ecx

; 884  : 		return (_Mytraits::max_size(*this));

	mov	eax, DWORD PTR _this$[ebp]
	push	eax
	call	?max_size@?$allocator_traits@V?$allocator@PAVFuzzyTerm@@@std@@@std@@SAIABV?$allocator@PAVFuzzyTerm@@@2@@Z ; std::allocator_traits<std::allocator<FuzzyTerm *> >::max_size
	add	esp, 4

; 885  : 		}

	add	esp, 4
	cmp	ebp, esp
	call	__RTC_CheckEsp
	mov	esp, ebp
	pop	ebp
	ret	0
?max_size@?$_Wrap_alloc@V?$allocator@PAVFuzzyTerm@@@std@@@std@@QBEIXZ ENDP ; std::_Wrap_alloc<std::allocator<FuzzyTerm *> >::max_size
_TEXT	ENDS
; Function compile flags: /Odtp /RTCsu
; File c:\program files (x86)\microsoft visual studio 12.0\vc\include\xmemory0
;	COMDAT ?deallocate@?$_Wrap_alloc@V?$allocator@PAVFuzzyTerm@@@std@@@std@@QAEXPAPAVFuzzyTerm@@I@Z
_TEXT	SEGMENT
_this$ = -4						; size = 4
__Ptr$ = 8						; size = 4
__Count$ = 12						; size = 4
?deallocate@?$_Wrap_alloc@V?$allocator@PAVFuzzyTerm@@@std@@@std@@QAEXPAPAVFuzzyTerm@@I@Z PROC ; std::_Wrap_alloc<std::allocator<FuzzyTerm *> >::deallocate, COMDAT
; _this$ = ecx

; 857  : 		{	// deallocate object at _Ptr, ignore size

	push	ebp
	mov	ebp, esp
	push	ecx
	mov	DWORD PTR [ebp-4], -858993460		; ccccccccH
	mov	DWORD PTR _this$[ebp], ecx

; 858  : 		_Mybase::deallocate(_Ptr, _Count);

	mov	eax, DWORD PTR __Count$[ebp]
	push	eax
	mov	ecx, DWORD PTR __Ptr$[ebp]
	push	ecx
	mov	ecx, DWORD PTR _this$[ebp]
	call	?deallocate@?$allocator@PAVFuzzyTerm@@@std@@QAEXPAPAVFuzzyTerm@@I@Z ; std::allocator<FuzzyTerm *>::deallocate

; 859  : 		}

	add	esp, 4
	cmp	ebp, esp
	call	__RTC_CheckEsp
	mov	esp, ebp
	pop	ebp
	ret	8
?deallocate@?$_Wrap_alloc@V?$allocator@PAVFuzzyTerm@@@std@@@std@@QAEXPAPAVFuzzyTerm@@I@Z ENDP ; std::_Wrap_alloc<std::allocator<FuzzyTerm *> >::deallocate
_TEXT	ENDS
; Function compile flags: /Odtp /RTCsu
; File c:\program files (x86)\microsoft visual studio 12.0\vc\include\xmemory0
;	COMDAT ?allocate@?$_Wrap_alloc@V?$allocator@PAVFuzzyTerm@@@std@@@std@@QAEPAPAVFuzzyTerm@@I@Z
_TEXT	SEGMENT
_this$ = -4						; size = 4
__Count$ = 8						; size = 4
?allocate@?$_Wrap_alloc@V?$allocator@PAVFuzzyTerm@@@std@@@std@@QAEPAPAVFuzzyTerm@@I@Z PROC ; std::_Wrap_alloc<std::allocator<FuzzyTerm *> >::allocate, COMDAT
; _this$ = ecx

; 846  : 		{	// allocate array of _Count elements

	push	ebp
	mov	ebp, esp
	push	ecx
	mov	DWORD PTR [ebp-4], -858993460		; ccccccccH
	mov	DWORD PTR _this$[ebp], ecx

; 847  : 		return (_Mybase::allocate(_Count));

	mov	eax, DWORD PTR __Count$[ebp]
	push	eax
	mov	ecx, DWORD PTR _this$[ebp]
	call	?allocate@?$allocator@PAVFuzzyTerm@@@std@@QAEPAPAVFuzzyTerm@@I@Z ; std::allocator<FuzzyTerm *>::allocate

; 848  : 		}

	add	esp, 4
	cmp	ebp, esp
	call	__RTC_CheckEsp
	mov	esp, ebp
	pop	ebp
	ret	4
?allocate@?$_Wrap_alloc@V?$allocator@PAVFuzzyTerm@@@std@@@std@@QAEPAPAVFuzzyTerm@@I@Z ENDP ; std::_Wrap_alloc<std::allocator<FuzzyTerm *> >::allocate
_TEXT	ENDS
; Function compile flags: /Odtp /RTCsu
; File c:\program files (x86)\microsoft visual studio 12.0\vc\include\xmemory0
;	COMDAT ??0?$_Wrap_alloc@V?$allocator@PAVFuzzyTerm@@@std@@@std@@QAE@XZ
_TEXT	SEGMENT
_this$ = -4						; size = 4
??0?$_Wrap_alloc@V?$allocator@PAVFuzzyTerm@@@std@@@std@@QAE@XZ PROC ; std::_Wrap_alloc<std::allocator<FuzzyTerm *> >::_Wrap_alloc<std::allocator<FuzzyTerm *> >, COMDAT
; _this$ = ecx

; 801  : 		{	// construct default allocator (do nothing)

	push	ebp
	mov	ebp, esp
	push	ecx
	mov	DWORD PTR [ebp-4], -858993460		; ccccccccH
	mov	DWORD PTR _this$[ebp], ecx
	mov	ecx, DWORD PTR _this$[ebp]
	call	??0?$allocator@PAVFuzzyTerm@@@std@@QAE@XZ ; std::allocator<FuzzyTerm *>::allocator<FuzzyTerm *>

; 802  : 		}

	mov	eax, DWORD PTR _this$[ebp]
	add	esp, 4
	cmp	ebp, esp
	call	__RTC_CheckEsp
	mov	esp, ebp
	pop	ebp
	ret	0
??0?$_Wrap_alloc@V?$allocator@PAVFuzzyTerm@@@std@@@std@@QAE@XZ ENDP ; std::_Wrap_alloc<std::allocator<FuzzyTerm *> >::_Wrap_alloc<std::allocator<FuzzyTerm *> >
_TEXT	ENDS
; Function compile flags: /Odtp /RTCsu
; File c:\program files (x86)\microsoft visual studio 12.0\vc\include\xmemory0
;	COMDAT ?max_size@?$allocator_traits@V?$allocator@PAVFuzzyTerm@@@std@@@std@@SAIABV?$allocator@PAVFuzzyTerm@@@2@@Z
_TEXT	SEGMENT
__Al$ = 8						; size = 4
?max_size@?$allocator_traits@V?$allocator@PAVFuzzyTerm@@@std@@@std@@SAIABV?$allocator@PAVFuzzyTerm@@@2@@Z PROC ; std::allocator_traits<std::allocator<FuzzyTerm *> >::max_size, COMDAT

; 734  : 		{	// get maximum size

	push	ebp
	mov	ebp, esp

; 735  : 		return (_Al.max_size());

	mov	ecx, DWORD PTR __Al$[ebp]
	call	?max_size@?$allocator@PAVFuzzyTerm@@@std@@QBEIXZ ; std::allocator<FuzzyTerm *>::max_size

; 736  : 		}

	cmp	ebp, esp
	call	__RTC_CheckEsp
	pop	ebp
	ret	0
?max_size@?$allocator_traits@V?$allocator@PAVFuzzyTerm@@@std@@@std@@SAIABV?$allocator@PAVFuzzyTerm@@@2@@Z ENDP ; std::allocator_traits<std::allocator<FuzzyTerm *> >::max_size
_TEXT	ENDS
; Function compile flags: /Odtp /RTCsu
; File c:\program files (x86)\microsoft visual studio 12.0\vc\include\xmemory0
;	COMDAT ?max_size@?$allocator@PAVFuzzyTerm@@@std@@QBEIXZ
_TEXT	SEGMENT
_this$ = -4						; size = 4
?max_size@?$allocator@PAVFuzzyTerm@@@std@@QBEIXZ PROC	; std::allocator<FuzzyTerm *>::max_size, COMDAT
; _this$ = ecx

; 611  : 		{	// estimate maximum array size

	push	ebp
	mov	ebp, esp
	push	ecx
	mov	DWORD PTR [ebp-4], -858993460		; ccccccccH
	mov	DWORD PTR _this$[ebp], ecx

; 612  : 		return ((size_t)(-1) / sizeof (_Ty));

	mov	eax, 1073741823				; 3fffffffH

; 613  : 		}

	mov	esp, ebp
	pop	ebp
	ret	0
?max_size@?$allocator@PAVFuzzyTerm@@@std@@QBEIXZ ENDP	; std::allocator<FuzzyTerm *>::max_size
_TEXT	ENDS
; Function compile flags: /Odtp /RTCsu
; File c:\program files (x86)\microsoft visual studio 12.0\vc\include\xmemory0
;	COMDAT ?allocate@?$allocator@PAVFuzzyTerm@@@std@@QAEPAPAVFuzzyTerm@@I@Z
_TEXT	SEGMENT
_this$ = -4						; size = 4
__Count$ = 8						; size = 4
?allocate@?$allocator@PAVFuzzyTerm@@@std@@QAEPAPAVFuzzyTerm@@I@Z PROC ; std::allocator<FuzzyTerm *>::allocate, COMDAT
; _this$ = ecx

; 577  : 		{	// allocate array of _Count elements

	push	ebp
	mov	ebp, esp
	push	ecx
	mov	DWORD PTR [ebp-4], -858993460		; ccccccccH
	mov	DWORD PTR _this$[ebp], ecx

; 578  : 		return (_Allocate(_Count, (pointer)0));

	push	0
	mov	eax, DWORD PTR __Count$[ebp]
	push	eax
	call	??$_Allocate@PAVFuzzyTerm@@@std@@YAPAPAVFuzzyTerm@@IPAPAV1@@Z ; std::_Allocate<FuzzyTerm *>
	add	esp, 8

; 579  : 		}

	add	esp, 4
	cmp	ebp, esp
	call	__RTC_CheckEsp
	mov	esp, ebp
	pop	ebp
	ret	4
?allocate@?$allocator@PAVFuzzyTerm@@@std@@QAEPAPAVFuzzyTerm@@I@Z ENDP ; std::allocator<FuzzyTerm *>::allocate
_TEXT	ENDS
; Function compile flags: /Odtp /RTCsu
; File c:\program files (x86)\microsoft visual studio 12.0\vc\include\xmemory0
;	COMDAT ?deallocate@?$allocator@PAVFuzzyTerm@@@std@@QAEXPAPAVFuzzyTerm@@I@Z
_TEXT	SEGMENT
_this$ = -4						; size = 4
__Ptr$ = 8						; size = 4
___formal$ = 12						; size = 4
?deallocate@?$allocator@PAVFuzzyTerm@@@std@@QAEXPAPAVFuzzyTerm@@I@Z PROC ; std::allocator<FuzzyTerm *>::deallocate, COMDAT
; _this$ = ecx

; 572  : 		{	// deallocate object at _Ptr, ignore size

	push	ebp
	mov	ebp, esp
	push	ecx
	mov	DWORD PTR [ebp-4], -858993460		; ccccccccH
	mov	DWORD PTR _this$[ebp], ecx

; 573  : 		::operator delete(_Ptr);

	mov	eax, DWORD PTR __Ptr$[ebp]
	push	eax
	call	??3@YAXPAX@Z				; operator delete
	add	esp, 4

; 574  : 		}

	add	esp, 4
	cmp	ebp, esp
	call	__RTC_CheckEsp
	mov	esp, ebp
	pop	ebp
	ret	8
?deallocate@?$allocator@PAVFuzzyTerm@@@std@@QAEXPAPAVFuzzyTerm@@I@Z ENDP ; std::allocator<FuzzyTerm *>::deallocate
_TEXT	ENDS
; Function compile flags: /Odtp /RTCsu
; File c:\program files (x86)\microsoft visual studio 12.0\vc\include\xmemory0
;	COMDAT ??0?$allocator@PAVFuzzyTerm@@@std@@QAE@XZ
_TEXT	SEGMENT
_this$ = -4						; size = 4
??0?$allocator@PAVFuzzyTerm@@@std@@QAE@XZ PROC		; std::allocator<FuzzyTerm *>::allocator<FuzzyTerm *>, COMDAT
; _this$ = ecx

; 552  : 	allocator() _THROW0()

	push	ebp
	mov	ebp, esp
	push	ecx
	mov	DWORD PTR [ebp-4], -858993460		; ccccccccH
	mov	DWORD PTR _this$[ebp], ecx

; 553  : 		{	// construct default allocator (do nothing)
; 554  : 		}

	mov	eax, DWORD PTR _this$[ebp]
	mov	esp, ebp
	pop	ebp
	ret	0
??0?$allocator@PAVFuzzyTerm@@@std@@QAE@XZ ENDP		; std::allocator<FuzzyTerm *>::allocator<FuzzyTerm *>
_TEXT	ENDS
; Function compile flags: /Odtp /RTCsu
;	COMDAT ??_GFuzzyTerm@@UAEPAXI@Z
_TEXT	SEGMENT
_this$ = -4						; size = 4
___flags$ = 8						; size = 4
??_GFuzzyTerm@@UAEPAXI@Z PROC				; FuzzyTerm::`scalar deleting destructor', COMDAT
; _this$ = ecx
	push	ebp
	mov	ebp, esp
	push	ecx
	mov	DWORD PTR [ebp-4], -858993460		; ccccccccH
	mov	DWORD PTR _this$[ebp], ecx
	mov	ecx, DWORD PTR _this$[ebp]
	call	??1FuzzyTerm@@UAE@XZ			; FuzzyTerm::~FuzzyTerm
	mov	eax, DWORD PTR ___flags$[ebp]
	and	eax, 1
	je	SHORT $LN1@scalar
	mov	ecx, DWORD PTR _this$[ebp]
	push	ecx
	call	??3@YAXPAX@Z				; operator delete
	add	esp, 4
$LN1@scalar:
	mov	eax, DWORD PTR _this$[ebp]
	add	esp, 4
	cmp	ebp, esp
	call	__RTC_CheckEsp
	mov	esp, ebp
	pop	ebp
	ret	4
??_GFuzzyTerm@@UAEPAXI@Z ENDP				; FuzzyTerm::`scalar deleting destructor'
_TEXT	ENDS
; Function compile flags: /Odtp /RTCsu
;	COMDAT ??0FuzzyTerm@@QAE@XZ
_TEXT	SEGMENT
_this$ = -4						; size = 4
??0FuzzyTerm@@QAE@XZ PROC				; FuzzyTerm::FuzzyTerm, COMDAT
; _this$ = ecx
	push	ebp
	mov	ebp, esp
	push	ecx
	mov	DWORD PTR [ebp-4], -858993460		; ccccccccH
	mov	DWORD PTR _this$[ebp], ecx
	mov	eax, DWORD PTR _this$[ebp]
	mov	DWORD PTR [eax], OFFSET ??_7FuzzyTerm@@6B@
	mov	eax, DWORD PTR _this$[ebp]
	mov	esp, ebp
	pop	ebp
	ret	0
??0FuzzyTerm@@QAE@XZ ENDP				; FuzzyTerm::FuzzyTerm
_TEXT	ENDS
; Function compile flags: /Odtp /RTCsu
; File c:\users\maxime\videos\tp ia\vs2010\common\fuzzy\fuzzyterm.h
;	COMDAT ??1FuzzyTerm@@UAE@XZ
_TEXT	SEGMENT
_this$ = -4						; size = 4
??1FuzzyTerm@@UAE@XZ PROC				; FuzzyTerm::~FuzzyTerm, COMDAT
; _this$ = ecx

; 17   :   virtual ~FuzzyTerm(){}

	push	ebp
	mov	ebp, esp
	push	ecx
	mov	DWORD PTR [ebp-4], -858993460		; ccccccccH
	mov	DWORD PTR _this$[ebp], ecx
	mov	eax, DWORD PTR _this$[ebp]
	mov	DWORD PTR [eax], OFFSET ??_7FuzzyTerm@@6B@
	mov	esp, ebp
	pop	ebp
	ret	0
??1FuzzyTerm@@UAE@XZ ENDP				; FuzzyTerm::~FuzzyTerm
_TEXT	ENDS
; Function compile flags: /Odtp /RTCsu
; File c:\users\maxime\videos\tp ia\vs2010\common\misc\utils.h
;	COMDAT ??__EQuarterPi@@YAXXZ
text$di	SEGMENT
??__EQuarterPi@@YAXXZ PROC				; `dynamic initializer for 'QuarterPi'', COMDAT

; 32   : const double   QuarterPi = Pi / 4;

	push	ebp
	mov	ebp, esp
	movsd	xmm0, QWORD PTR _Pi
	divsd	xmm0, QWORD PTR __real@4010000000000000
	movsd	QWORD PTR _QuarterPi, xmm0
	pop	ebp
	ret	0
??__EQuarterPi@@YAXXZ ENDP				; `dynamic initializer for 'QuarterPi''
text$di	ENDS
; Function compile flags: /Odtp /RTCsu
; File c:\users\maxime\videos\tp ia\vs2010\common\misc\utils.h
;	COMDAT ??__EHalfPi@@YAXXZ
text$di	SEGMENT
??__EHalfPi@@YAXXZ PROC					; `dynamic initializer for 'HalfPi'', COMDAT

; 31   : const double   HalfPi    = Pi / 2;

	push	ebp
	mov	ebp, esp
	movsd	xmm0, QWORD PTR _Pi
	divsd	xmm0, QWORD PTR __real@4000000000000000
	movsd	QWORD PTR _HalfPi, xmm0
	pop	ebp
	ret	0
??__EHalfPi@@YAXXZ ENDP					; `dynamic initializer for 'HalfPi''
text$di	ENDS
; Function compile flags: /Odtp /RTCsu
; File c:\users\maxime\videos\tp ia\vs2010\common\misc\utils.h
;	COMDAT ??__ETwoPi@@YAXXZ
text$di	SEGMENT
??__ETwoPi@@YAXXZ PROC					; `dynamic initializer for 'TwoPi'', COMDAT

; 30   : const double   TwoPi     = Pi * 2;

	push	ebp
	mov	ebp, esp
	movsd	xmm0, QWORD PTR _Pi
	mulsd	xmm0, QWORD PTR __real@4000000000000000
	movsd	QWORD PTR _TwoPi, xmm0
	pop	ebp
	ret	0
??__ETwoPi@@YAXXZ ENDP					; `dynamic initializer for 'TwoPi''
text$di	ENDS
; Function compile flags: /Odtp /RTCsu
; File c:\users\maxime\videos\tp ia\vs2010\common\misc\utils.h
;	COMDAT ??__EMinFloat@@YAXXZ
text$di	SEGMENT
??__EMinFloat@@YAXXZ PROC				; `dynamic initializer for 'MinFloat'', COMDAT

; 27   : const float   MinFloat  = (std::numeric_limits<float>::min)();

	push	ebp
	mov	ebp, esp
	call	?min@?$numeric_limits@M@std@@SAMXZ	; std::numeric_limits<float>::min
	fstp	DWORD PTR _MinFloat
	cmp	ebp, esp
	call	__RTC_CheckEsp
	pop	ebp
	ret	0
??__EMinFloat@@YAXXZ ENDP				; `dynamic initializer for 'MinFloat''
text$di	ENDS
; Function compile flags: /Odtp /RTCsu
; File c:\users\maxime\videos\tp ia\vs2010\common\misc\utils.h
;	COMDAT ??__EMaxFloat@@YAXXZ
text$di	SEGMENT
??__EMaxFloat@@YAXXZ PROC				; `dynamic initializer for 'MaxFloat'', COMDAT

; 26   : const float   MaxFloat  = (std::numeric_limits<float>::max)();

	push	ebp
	mov	ebp, esp
	call	?max@?$numeric_limits@M@std@@SAMXZ	; std::numeric_limits<float>::max
	fstp	DWORD PTR _MaxFloat
	cmp	ebp, esp
	call	__RTC_CheckEsp
	pop	ebp
	ret	0
??__EMaxFloat@@YAXXZ ENDP				; `dynamic initializer for 'MaxFloat''
text$di	ENDS
; Function compile flags: /Odtp /RTCsu
; File c:\users\maxime\videos\tp ia\vs2010\common\misc\utils.h
;	COMDAT ??__EMinDouble@@YAXXZ
text$di	SEGMENT
??__EMinDouble@@YAXXZ PROC				; `dynamic initializer for 'MinDouble'', COMDAT

; 25   : const double  MinDouble = (std::numeric_limits<double>::min)();

	push	ebp
	mov	ebp, esp
	call	?min@?$numeric_limits@N@std@@SANXZ	; std::numeric_limits<double>::min
	fstp	QWORD PTR _MinDouble
	cmp	ebp, esp
	call	__RTC_CheckEsp
	pop	ebp
	ret	0
??__EMinDouble@@YAXXZ ENDP				; `dynamic initializer for 'MinDouble''
text$di	ENDS
; Function compile flags: /Odtp /RTCsu
; File c:\users\maxime\videos\tp ia\vs2010\common\misc\utils.h
;	COMDAT ??__EMaxDouble@@YAXXZ
text$di	SEGMENT
??__EMaxDouble@@YAXXZ PROC				; `dynamic initializer for 'MaxDouble'', COMDAT

; 24   : const double  MaxDouble = (std::numeric_limits<double>::max)();

	push	ebp
	mov	ebp, esp
	call	?max@?$numeric_limits@N@std@@SANXZ	; std::numeric_limits<double>::max
	fstp	QWORD PTR _MaxDouble
	cmp	ebp, esp
	call	__RTC_CheckEsp
	pop	ebp
	ret	0
??__EMaxDouble@@YAXXZ ENDP				; `dynamic initializer for 'MaxDouble''
text$di	ENDS
; Function compile flags: /Odtp /RTCsu
; File c:\users\maxime\videos\tp ia\vs2010\common\misc\utils.h
;	COMDAT ??__EMaxInt@@YAXXZ
text$di	SEGMENT
??__EMaxInt@@YAXXZ PROC					; `dynamic initializer for 'MaxInt'', COMDAT

; 23   : const int     MaxInt    = (std::numeric_limits<int>::max)();

	push	ebp
	mov	ebp, esp
	call	?max@?$numeric_limits@H@std@@SAHXZ	; std::numeric_limits<int>::max
	mov	DWORD PTR _MaxInt, eax
	cmp	ebp, esp
	call	__RTC_CheckEsp
	pop	ebp
	ret	0
??__EMaxInt@@YAXXZ ENDP					; `dynamic initializer for 'MaxInt''
text$di	ENDS
; Function compile flags: /Odtp /RTCsu
;	COMDAT ??_G_System_error_category@std@@UAEPAXI@Z
_TEXT	SEGMENT
_this$ = -4						; size = 4
___flags$ = 8						; size = 4
??_G_System_error_category@std@@UAEPAXI@Z PROC		; std::_System_error_category::`scalar deleting destructor', COMDAT
; _this$ = ecx
	push	ebp
	mov	ebp, esp
	push	ecx
	mov	DWORD PTR [ebp-4], -858993460		; ccccccccH
	mov	DWORD PTR _this$[ebp], ecx
	mov	ecx, DWORD PTR _this$[ebp]
	call	??1_System_error_category@std@@UAE@XZ
	mov	eax, DWORD PTR ___flags$[ebp]
	and	eax, 1
	je	SHORT $LN1@scalar
	mov	ecx, DWORD PTR _this$[ebp]
	push	ecx
	call	??3@YAXPAX@Z				; operator delete
	add	esp, 4
$LN1@scalar:
	mov	eax, DWORD PTR _this$[ebp]
	add	esp, 4
	cmp	ebp, esp
	call	__RTC_CheckEsp
	mov	esp, ebp
	pop	ebp
	ret	4
??_G_System_error_category@std@@UAEPAXI@Z ENDP		; std::_System_error_category::`scalar deleting destructor'
_TEXT	ENDS
; Function compile flags: /Odtp /RTCsu
;	COMDAT ??1_System_error_category@std@@UAE@XZ
_TEXT	SEGMENT
_this$ = -4						; size = 4
??1_System_error_category@std@@UAE@XZ PROC		; std::_System_error_category::~_System_error_category, COMDAT
; _this$ = ecx
	push	ebp
	mov	ebp, esp
	push	ecx
	mov	DWORD PTR [ebp-4], -858993460		; ccccccccH
	mov	DWORD PTR _this$[ebp], ecx
	mov	ecx, DWORD PTR _this$[ebp]
	call	??1_Generic_error_category@std@@UAE@XZ
	add	esp, 4
	cmp	ebp, esp
	call	__RTC_CheckEsp
	mov	esp, ebp
	pop	ebp
	ret	0
??1_System_error_category@std@@UAE@XZ ENDP		; std::_System_error_category::~_System_error_category
_TEXT	ENDS
; Function compile flags: /Odtp /RTCsu
; File c:\program files (x86)\microsoft visual studio 12.0\vc\include\system_error
;	COMDAT ?default_error_condition@_System_error_category@std@@UBE?AVerror_condition@2@H@Z
_TEXT	SEGMENT
_this$ = -4						; size = 4
___$ReturnUdt$ = 8					; size = 4
__Errval$ = 12						; size = 4
?default_error_condition@_System_error_category@std@@UBE?AVerror_condition@2@H@Z PROC ; std::_System_error_category::default_error_condition, COMDAT
; _this$ = ecx

; 614  : 		{	// make error_condition for error code (generic if possible)

	push	ebp
	mov	ebp, esp
	push	ecx
	mov	DWORD PTR [ebp-4], -858993460		; ccccccccH
	mov	DWORD PTR _this$[ebp], ecx

; 615  : 		if (_Syserror_map(_Errval))

	mov	eax, DWORD PTR __Errval$[ebp]
	push	eax
	call	?_Syserror_map@std@@YAPBDH@Z		; std::_Syserror_map
	add	esp, 4
	test	eax, eax
	je	SHORT $LN2@default_er

; 616  : 			return (error_condition(_Errval, generic_category()));

	call	?generic_category@std@@YAABVerror_category@1@XZ ; std::generic_category
	push	eax
	mov	ecx, DWORD PTR __Errval$[ebp]
	push	ecx
	mov	ecx, DWORD PTR ___$ReturnUdt$[ebp]
	call	??0error_condition@std@@QAE@HABVerror_category@1@@Z ; std::error_condition::error_condition
	mov	eax, DWORD PTR ___$ReturnUdt$[ebp]
	jmp	SHORT $LN3@default_er

; 617  : 		else

	jmp	SHORT $LN3@default_er
$LN2@default_er:

; 618  : 			return (error_condition(_Errval, system_category()));

	call	?system_category@std@@YAABVerror_category@1@XZ ; std::system_category
	push	eax
	mov	edx, DWORD PTR __Errval$[ebp]
	push	edx
	mov	ecx, DWORD PTR ___$ReturnUdt$[ebp]
	call	??0error_condition@std@@QAE@HABVerror_category@1@@Z ; std::error_condition::error_condition
	mov	eax, DWORD PTR ___$ReturnUdt$[ebp]
$LN3@default_er:

; 619  : 		}

	add	esp, 4
	cmp	ebp, esp
	call	__RTC_CheckEsp
	mov	esp, ebp
	pop	ebp
	ret	8
?default_error_condition@_System_error_category@std@@UBE?AVerror_condition@2@H@Z ENDP ; std::_System_error_category::default_error_condition
_TEXT	ENDS
; Function compile flags: /Odtp /RTCsu
; File c:\program files (x86)\microsoft visual studio 12.0\vc\include\system_error
;	COMDAT ?message@_System_error_category@std@@UBE?AV?$basic_string@DU?$char_traits@D@std@@V?$allocator@D@2@@2@H@Z
_TEXT	SEGMENT
tv69 = -16						; size = 4
$T1 = -12						; size = 4
__Name$ = -8						; size = 4
_this$ = -4						; size = 4
___$ReturnUdt$ = 8					; size = 4
__Errcode$ = 12						; size = 4
?message@_System_error_category@std@@UBE?AV?$basic_string@DU?$char_traits@D@std@@V?$allocator@D@2@@2@H@Z PROC ; std::_System_error_category::message, COMDAT
; _this$ = ecx

; 607  : 		{	// convert to name of error

	push	ebp
	mov	ebp, esp
	sub	esp, 16					; 00000010H
	mov	eax, -858993460				; ccccccccH
	mov	DWORD PTR [ebp-16], eax
	mov	DWORD PTR [ebp-12], eax
	mov	DWORD PTR [ebp-8], eax
	mov	DWORD PTR [ebp-4], eax
	mov	DWORD PTR _this$[ebp], ecx
	mov	DWORD PTR $T1[ebp], 0

; 608  : 		const char *_Name = _Winerror_map(_Errcode);

	mov	eax, DWORD PTR __Errcode$[ebp]
	push	eax
	call	?_Winerror_map@std@@YAPBDH@Z		; std::_Winerror_map
	add	esp, 4
	mov	DWORD PTR __Name$[ebp], eax

; 609  : 		return (string(_Name != 0 ? _Name : "unknown error"));

	cmp	DWORD PTR __Name$[ebp], 0
	je	SHORT $LN3@message
	mov	ecx, DWORD PTR __Name$[ebp]
	mov	DWORD PTR tv69[ebp], ecx
	jmp	SHORT $LN4@message
$LN3@message:
	mov	DWORD PTR tv69[ebp], OFFSET ??_C@_0O@BFJCFAAK@unknown?5error?$AA@
$LN4@message:
	mov	edx, DWORD PTR tv69[ebp]
	push	edx
	mov	ecx, DWORD PTR ___$ReturnUdt$[ebp]
	call	??0?$basic_string@DU?$char_traits@D@std@@V?$allocator@D@2@@std@@QAE@PBD@Z ; std::basic_string<char,std::char_traits<char>,std::allocator<char> >::basic_string<char,std::char_traits<char>,std::allocator<char> >
	mov	eax, DWORD PTR $T1[ebp]
	or	eax, 1
	mov	DWORD PTR $T1[ebp], eax
	mov	eax, DWORD PTR ___$ReturnUdt$[ebp]

; 610  : 		}

	add	esp, 16					; 00000010H
	cmp	ebp, esp
	call	__RTC_CheckEsp
	mov	esp, ebp
	pop	ebp
	ret	8
?message@_System_error_category@std@@UBE?AV?$basic_string@DU?$char_traits@D@std@@V?$allocator@D@2@@2@H@Z ENDP ; std::_System_error_category::message
_TEXT	ENDS
; Function compile flags: /Odtp /RTCsu
; File c:\program files (x86)\microsoft visual studio 12.0\vc\include\system_error
;	COMDAT ?name@_System_error_category@std@@UBEPBDXZ
_TEXT	SEGMENT
_this$ = -4						; size = 4
?name@_System_error_category@std@@UBEPBDXZ PROC		; std::_System_error_category::name, COMDAT
; _this$ = ecx

; 602  : 		{	// get name of category

	push	ebp
	mov	ebp, esp
	push	ecx
	mov	DWORD PTR [ebp-4], -858993460		; ccccccccH
	mov	DWORD PTR _this$[ebp], ecx

; 603  : 		return ("system");

	mov	eax, OFFSET ??_C@_06FHFOAHML@system?$AA@

; 604  : 		}

	mov	esp, ebp
	pop	ebp
	ret	0
?name@_System_error_category@std@@UBEPBDXZ ENDP		; std::_System_error_category::name
_TEXT	ENDS
; Function compile flags: /Odtp /RTCsu
; File c:\program files (x86)\microsoft visual studio 12.0\vc\include\system_error
;	COMDAT ??0_System_error_category@std@@QAE@XZ
_TEXT	SEGMENT
_this$ = -4						; size = 4
??0_System_error_category@std@@QAE@XZ PROC		; std::_System_error_category::_System_error_category, COMDAT
; _this$ = ecx

; 597  : 	_System_error_category()

	push	ebp
	mov	ebp, esp
	push	ecx
	mov	DWORD PTR [ebp-4], -858993460		; ccccccccH
	mov	DWORD PTR _this$[ebp], ecx
	mov	ecx, DWORD PTR _this$[ebp]
	call	??0_Generic_error_category@std@@QAE@XZ	; std::_Generic_error_category::_Generic_error_category
	mov	eax, DWORD PTR _this$[ebp]
	mov	DWORD PTR [eax], OFFSET ??_7_System_error_category@std@@6B@

; 598  : 		{	// default constructor
; 599  : 		}

	mov	eax, DWORD PTR _this$[ebp]
	add	esp, 4
	cmp	ebp, esp
	call	__RTC_CheckEsp
	mov	esp, ebp
	pop	ebp
	ret	0
??0_System_error_category@std@@QAE@XZ ENDP		; std::_System_error_category::_System_error_category
_TEXT	ENDS
; Function compile flags: /Odtp /RTCsu
;	COMDAT ??_G_Iostream_error_category@std@@UAEPAXI@Z
_TEXT	SEGMENT
_this$ = -4						; size = 4
___flags$ = 8						; size = 4
??_G_Iostream_error_category@std@@UAEPAXI@Z PROC	; std::_Iostream_error_category::`scalar deleting destructor', COMDAT
; _this$ = ecx
	push	ebp
	mov	ebp, esp
	push	ecx
	mov	DWORD PTR [ebp-4], -858993460		; ccccccccH
	mov	DWORD PTR _this$[ebp], ecx
	mov	ecx, DWORD PTR _this$[ebp]
	call	??1_Iostream_error_category@std@@UAE@XZ
	mov	eax, DWORD PTR ___flags$[ebp]
	and	eax, 1
	je	SHORT $LN1@scalar
	mov	ecx, DWORD PTR _this$[ebp]
	push	ecx
	call	??3@YAXPAX@Z				; operator delete
	add	esp, 4
$LN1@scalar:
	mov	eax, DWORD PTR _this$[ebp]
	add	esp, 4
	cmp	ebp, esp
	call	__RTC_CheckEsp
	mov	esp, ebp
	pop	ebp
	ret	4
??_G_Iostream_error_category@std@@UAEPAXI@Z ENDP	; std::_Iostream_error_category::`scalar deleting destructor'
_TEXT	ENDS
; Function compile flags: /Odtp /RTCsu
;	COMDAT ??1_Iostream_error_category@std@@UAE@XZ
_TEXT	SEGMENT
_this$ = -4						; size = 4
??1_Iostream_error_category@std@@UAE@XZ PROC		; std::_Iostream_error_category::~_Iostream_error_category, COMDAT
; _this$ = ecx
	push	ebp
	mov	ebp, esp
	push	ecx
	mov	DWORD PTR [ebp-4], -858993460		; ccccccccH
	mov	DWORD PTR _this$[ebp], ecx
	mov	ecx, DWORD PTR _this$[ebp]
	call	??1_Generic_error_category@std@@UAE@XZ
	add	esp, 4
	cmp	ebp, esp
	call	__RTC_CheckEsp
	mov	esp, ebp
	pop	ebp
	ret	0
??1_Iostream_error_category@std@@UAE@XZ ENDP		; std::_Iostream_error_category::~_Iostream_error_category
_TEXT	ENDS
; Function compile flags: /Odtp /RTCsu
; File c:\program files (x86)\microsoft visual studio 12.0\vc\include\system_error
;	COMDAT ?message@_Iostream_error_category@std@@UBE?AV?$basic_string@DU?$char_traits@D@std@@V?$allocator@D@2@@2@H@Z
_TEXT	SEGMENT
$T1 = -8						; size = 4
_this$ = -4						; size = 4
___$ReturnUdt$ = 8					; size = 4
__Errcode$ = 12						; size = 4
?message@_Iostream_error_category@std@@UBE?AV?$basic_string@DU?$char_traits@D@std@@V?$allocator@D@2@@2@H@Z PROC ; std::_Iostream_error_category::message, COMDAT
; _this$ = ecx

; 584  : 		{	// convert to name of error

	push	ebp
	mov	ebp, esp
	sub	esp, 8
	mov	DWORD PTR [ebp-8], -858993460		; ccccccccH
	mov	DWORD PTR [ebp-4], -858993460		; ccccccccH
	mov	DWORD PTR _this$[ebp], ecx
	mov	DWORD PTR $T1[ebp], 0

; 585  : 		if (_Errcode == (int)io_errc::stream)

	cmp	DWORD PTR __Errcode$[ebp], 1
	jne	SHORT $LN2@message

; 586  : 			return ("iostream stream error");

	push	OFFSET ??_C@_0BG@PADBLCHM@iostream?5stream?5error?$AA@
	mov	ecx, DWORD PTR ___$ReturnUdt$[ebp]
	call	??0?$basic_string@DU?$char_traits@D@std@@V?$allocator@D@2@@std@@QAE@PBD@Z ; std::basic_string<char,std::char_traits<char>,std::allocator<char> >::basic_string<char,std::char_traits<char>,std::allocator<char> >
	mov	eax, DWORD PTR $T1[ebp]
	or	eax, 1
	mov	DWORD PTR $T1[ebp], eax
	mov	eax, DWORD PTR ___$ReturnUdt$[ebp]
	jmp	SHORT $LN3@message

; 587  : 		else

	jmp	SHORT $LN3@message
$LN2@message:

; 588  : 			return (_Generic_error_category::message(_Errcode));

	mov	ecx, DWORD PTR __Errcode$[ebp]
	push	ecx
	mov	edx, DWORD PTR ___$ReturnUdt$[ebp]
	push	edx
	mov	ecx, DWORD PTR _this$[ebp]
	call	?message@_Generic_error_category@std@@UBE?AV?$basic_string@DU?$char_traits@D@std@@V?$allocator@D@2@@2@H@Z ; std::_Generic_error_category::message
	mov	eax, DWORD PTR $T1[ebp]
	or	eax, 1
	mov	DWORD PTR $T1[ebp], eax
	mov	eax, DWORD PTR ___$ReturnUdt$[ebp]
$LN3@message:

; 589  : 		}

	add	esp, 8
	cmp	ebp, esp
	call	__RTC_CheckEsp
	mov	esp, ebp
	pop	ebp
	ret	8
?message@_Iostream_error_category@std@@UBE?AV?$basic_string@DU?$char_traits@D@std@@V?$allocator@D@2@@2@H@Z ENDP ; std::_Iostream_error_category::message
_TEXT	ENDS
; Function compile flags: /Odtp /RTCsu
; File c:\program files (x86)\microsoft visual studio 12.0\vc\include\system_error
;	COMDAT ?name@_Iostream_error_category@std@@UBEPBDXZ
_TEXT	SEGMENT
_this$ = -4						; size = 4
?name@_Iostream_error_category@std@@UBEPBDXZ PROC	; std::_Iostream_error_category::name, COMDAT
; _this$ = ecx

; 579  : 		{	// get name of category

	push	ebp
	mov	ebp, esp
	push	ecx
	mov	DWORD PTR [ebp-4], -858993460		; ccccccccH
	mov	DWORD PTR _this$[ebp], ecx

; 580  : 		return ("iostream");

	mov	eax, OFFSET ??_C@_08LLGCOLLL@iostream?$AA@

; 581  : 		}

	mov	esp, ebp
	pop	ebp
	ret	0
?name@_Iostream_error_category@std@@UBEPBDXZ ENDP	; std::_Iostream_error_category::name
_TEXT	ENDS
; Function compile flags: /Odtp /RTCsu
; File c:\program files (x86)\microsoft visual studio 12.0\vc\include\system_error
;	COMDAT ??0_Iostream_error_category@std@@QAE@XZ
_TEXT	SEGMENT
_this$ = -4						; size = 4
??0_Iostream_error_category@std@@QAE@XZ PROC		; std::_Iostream_error_category::_Iostream_error_category, COMDAT
; _this$ = ecx

; 574  : 	_Iostream_error_category()

	push	ebp
	mov	ebp, esp
	push	ecx
	mov	DWORD PTR [ebp-4], -858993460		; ccccccccH
	mov	DWORD PTR _this$[ebp], ecx
	mov	ecx, DWORD PTR _this$[ebp]
	call	??0_Generic_error_category@std@@QAE@XZ	; std::_Generic_error_category::_Generic_error_category
	mov	eax, DWORD PTR _this$[ebp]
	mov	DWORD PTR [eax], OFFSET ??_7_Iostream_error_category@std@@6B@

; 575  : 		{	// default constructor
; 576  : 		}

	mov	eax, DWORD PTR _this$[ebp]
	add	esp, 4
	cmp	ebp, esp
	call	__RTC_CheckEsp
	mov	esp, ebp
	pop	ebp
	ret	0
??0_Iostream_error_category@std@@QAE@XZ ENDP		; std::_Iostream_error_category::_Iostream_error_category
_TEXT	ENDS
; Function compile flags: /Odtp /RTCsu
;	COMDAT ??_G_Generic_error_category@std@@UAEPAXI@Z
_TEXT	SEGMENT
_this$ = -4						; size = 4
___flags$ = 8						; size = 4
??_G_Generic_error_category@std@@UAEPAXI@Z PROC		; std::_Generic_error_category::`scalar deleting destructor', COMDAT
; _this$ = ecx
	push	ebp
	mov	ebp, esp
	push	ecx
	mov	DWORD PTR [ebp-4], -858993460		; ccccccccH
	mov	DWORD PTR _this$[ebp], ecx
	mov	ecx, DWORD PTR _this$[ebp]
	call	??1_Generic_error_category@std@@UAE@XZ
	mov	eax, DWORD PTR ___flags$[ebp]
	and	eax, 1
	je	SHORT $LN1@scalar
	mov	ecx, DWORD PTR _this$[ebp]
	push	ecx
	call	??3@YAXPAX@Z				; operator delete
	add	esp, 4
$LN1@scalar:
	mov	eax, DWORD PTR _this$[ebp]
	add	esp, 4
	cmp	ebp, esp
	call	__RTC_CheckEsp
	mov	esp, ebp
	pop	ebp
	ret	4
??_G_Generic_error_category@std@@UAEPAXI@Z ENDP		; std::_Generic_error_category::`scalar deleting destructor'
_TEXT	ENDS
; Function compile flags: /Odtp /RTCsu
;	COMDAT ??1_Generic_error_category@std@@UAE@XZ
_TEXT	SEGMENT
_this$ = -4						; size = 4
??1_Generic_error_category@std@@UAE@XZ PROC		; std::_Generic_error_category::~_Generic_error_category, COMDAT
; _this$ = ecx
	push	ebp
	mov	ebp, esp
	push	ecx
	mov	DWORD PTR [ebp-4], -858993460		; ccccccccH
	mov	DWORD PTR _this$[ebp], ecx
	mov	ecx, DWORD PTR _this$[ebp]
	call	??1error_category@std@@UAE@XZ		; std::error_category::~error_category
	add	esp, 4
	cmp	ebp, esp
	call	__RTC_CheckEsp
	mov	esp, ebp
	pop	ebp
	ret	0
??1_Generic_error_category@std@@UAE@XZ ENDP		; std::_Generic_error_category::~_Generic_error_category
_TEXT	ENDS
; Function compile flags: /Odtp /RTCsu
; File c:\program files (x86)\microsoft visual studio 12.0\vc\include\system_error
;	COMDAT ?message@_Generic_error_category@std@@UBE?AV?$basic_string@DU?$char_traits@D@std@@V?$allocator@D@2@@2@H@Z
_TEXT	SEGMENT
tv69 = -16						; size = 4
$T1 = -12						; size = 4
__Name$ = -8						; size = 4
_this$ = -4						; size = 4
___$ReturnUdt$ = 8					; size = 4
__Errcode$ = 12						; size = 4
?message@_Generic_error_category@std@@UBE?AV?$basic_string@DU?$char_traits@D@std@@V?$allocator@D@2@@2@H@Z PROC ; std::_Generic_error_category::message, COMDAT
; _this$ = ecx

; 563  : 		{	// convert to name of error

	push	ebp
	mov	ebp, esp
	sub	esp, 16					; 00000010H
	mov	eax, -858993460				; ccccccccH
	mov	DWORD PTR [ebp-16], eax
	mov	DWORD PTR [ebp-12], eax
	mov	DWORD PTR [ebp-8], eax
	mov	DWORD PTR [ebp-4], eax
	mov	DWORD PTR _this$[ebp], ecx
	mov	DWORD PTR $T1[ebp], 0

; 564  : 		const char *_Name = _Syserror_map(_Errcode);

	mov	eax, DWORD PTR __Errcode$[ebp]
	push	eax
	call	?_Syserror_map@std@@YAPBDH@Z		; std::_Syserror_map
	add	esp, 4
	mov	DWORD PTR __Name$[ebp], eax

; 565  : 		return (string(_Name != 0 ? _Name : "unknown error"));

	cmp	DWORD PTR __Name$[ebp], 0
	je	SHORT $LN3@message
	mov	ecx, DWORD PTR __Name$[ebp]
	mov	DWORD PTR tv69[ebp], ecx
	jmp	SHORT $LN4@message
$LN3@message:
	mov	DWORD PTR tv69[ebp], OFFSET ??_C@_0O@BFJCFAAK@unknown?5error?$AA@
$LN4@message:
	mov	edx, DWORD PTR tv69[ebp]
	push	edx
	mov	ecx, DWORD PTR ___$ReturnUdt$[ebp]
	call	??0?$basic_string@DU?$char_traits@D@std@@V?$allocator@D@2@@std@@QAE@PBD@Z ; std::basic_string<char,std::char_traits<char>,std::allocator<char> >::basic_string<char,std::char_traits<char>,std::allocator<char> >
	mov	eax, DWORD PTR $T1[ebp]
	or	eax, 1
	mov	DWORD PTR $T1[ebp], eax
	mov	eax, DWORD PTR ___$ReturnUdt$[ebp]

; 566  : 		}

	add	esp, 16					; 00000010H
	cmp	ebp, esp
	call	__RTC_CheckEsp
	mov	esp, ebp
	pop	ebp
	ret	8
?message@_Generic_error_category@std@@UBE?AV?$basic_string@DU?$char_traits@D@std@@V?$allocator@D@2@@2@H@Z ENDP ; std::_Generic_error_category::message
_TEXT	ENDS
; Function compile flags: /Odtp /RTCsu
; File c:\program files (x86)\microsoft visual studio 12.0\vc\include\system_error
;	COMDAT ?name@_Generic_error_category@std@@UBEPBDXZ
_TEXT	SEGMENT
_this$ = -4						; size = 4
?name@_Generic_error_category@std@@UBEPBDXZ PROC	; std::_Generic_error_category::name, COMDAT
; _this$ = ecx

; 558  : 		{	// get name of category

	push	ebp
	mov	ebp, esp
	push	ecx
	mov	DWORD PTR [ebp-4], -858993460		; ccccccccH
	mov	DWORD PTR _this$[ebp], ecx

; 559  : 		return ("generic");

	mov	eax, OFFSET ??_C@_07DCLBNMLN@generic?$AA@

; 560  : 		}

	mov	esp, ebp
	pop	ebp
	ret	0
?name@_Generic_error_category@std@@UBEPBDXZ ENDP	; std::_Generic_error_category::name
_TEXT	ENDS
; Function compile flags: /Odtp /RTCsu
; File c:\program files (x86)\microsoft visual studio 12.0\vc\include\system_error
;	COMDAT ??0_Generic_error_category@std@@QAE@XZ
_TEXT	SEGMENT
_this$ = -4						; size = 4
??0_Generic_error_category@std@@QAE@XZ PROC		; std::_Generic_error_category::_Generic_error_category, COMDAT
; _this$ = ecx

; 553  : 	_Generic_error_category()

	push	ebp
	mov	ebp, esp
	push	ecx
	mov	DWORD PTR [ebp-4], -858993460		; ccccccccH
	mov	DWORD PTR _this$[ebp], ecx
	mov	ecx, DWORD PTR _this$[ebp]
	call	??0error_category@std@@QAE@XZ		; std::error_category::error_category
	mov	eax, DWORD PTR _this$[ebp]
	mov	DWORD PTR [eax], OFFSET ??_7_Generic_error_category@std@@6B@

; 554  : 		{	// default constructor
; 555  : 		}

	mov	eax, DWORD PTR _this$[ebp]
	add	esp, 4
	cmp	ebp, esp
	call	__RTC_CheckEsp
	mov	esp, ebp
	pop	ebp
	ret	0
??0_Generic_error_category@std@@QAE@XZ ENDP		; std::_Generic_error_category::_Generic_error_category
_TEXT	ENDS
; Function compile flags: /Odtp /RTCsu
; File c:\program files (x86)\microsoft visual studio 12.0\vc\include\system_error
;	COMDAT ??8error_condition@std@@QBE_NABV01@@Z
_TEXT	SEGMENT
tv78 = -8						; size = 4
_this$ = -4						; size = 4
__Right$ = 8						; size = 4
??8error_condition@std@@QBE_NABV01@@Z PROC		; std::error_condition::operator==, COMDAT
; _this$ = ecx

; 352  : 		{	// test if *this == _Right

	push	ebp
	mov	ebp, esp
	sub	esp, 8
	push	esi
	mov	DWORD PTR [ebp-8], -858993460		; ccccccccH
	mov	DWORD PTR [ebp-4], -858993460		; ccccccccH
	mov	DWORD PTR _this$[ebp], ecx

; 353  : 		return (category() == _Right.category()
; 354  : 			&& value() == _Right.value());

	mov	ecx, DWORD PTR __Right$[ebp]
	call	?category@error_condition@std@@QBEABVerror_category@2@XZ ; std::error_condition::category
	push	eax
	mov	ecx, DWORD PTR _this$[ebp]
	call	?category@error_condition@std@@QBEABVerror_category@2@XZ ; std::error_condition::category
	mov	ecx, eax
	call	??8error_category@std@@QBE_NABV01@@Z	; std::error_category::operator==
	movzx	eax, al
	test	eax, eax
	je	SHORT $LN3@operator
	mov	ecx, DWORD PTR _this$[ebp]
	call	?value@error_condition@std@@QBEHXZ	; std::error_condition::value
	mov	esi, eax
	mov	ecx, DWORD PTR __Right$[ebp]
	call	?value@error_condition@std@@QBEHXZ	; std::error_condition::value
	cmp	esi, eax
	jne	SHORT $LN3@operator
	mov	DWORD PTR tv78[ebp], 1
	jmp	SHORT $LN4@operator
$LN3@operator:
	mov	DWORD PTR tv78[ebp], 0
$LN4@operator:
	mov	al, BYTE PTR tv78[ebp]

; 355  : 		}

	pop	esi
	add	esp, 8
	cmp	ebp, esp
	call	__RTC_CheckEsp
	mov	esp, ebp
	pop	ebp
	ret	4
??8error_condition@std@@QBE_NABV01@@Z ENDP		; std::error_condition::operator==
_TEXT	ENDS
; Function compile flags: /Odtp /RTCsu
; File c:\program files (x86)\microsoft visual studio 12.0\vc\include\system_error
;	COMDAT ?category@error_condition@std@@QBEABVerror_category@2@XZ
_TEXT	SEGMENT
_this$ = -4						; size = 4
?category@error_condition@std@@QBEABVerror_category@2@XZ PROC ; std::error_condition::category, COMDAT
; _this$ = ecx

; 337  : 		{	// get category

	push	ebp
	mov	ebp, esp
	push	ecx
	mov	DWORD PTR [ebp-4], -858993460		; ccccccccH
	mov	DWORD PTR _this$[ebp], ecx

; 338  : 		return (*_Mycat);

	mov	eax, DWORD PTR _this$[ebp]
	mov	eax, DWORD PTR [eax+4]

; 339  : 		}

	mov	esp, ebp
	pop	ebp
	ret	0
?category@error_condition@std@@QBEABVerror_category@2@XZ ENDP ; std::error_condition::category
_TEXT	ENDS
; Function compile flags: /Odtp /RTCsu
; File c:\program files (x86)\microsoft visual studio 12.0\vc\include\system_error
;	COMDAT ?value@error_condition@std@@QBEHXZ
_TEXT	SEGMENT
_this$ = -4						; size = 4
?value@error_condition@std@@QBEHXZ PROC			; std::error_condition::value, COMDAT
; _this$ = ecx

; 332  : 		{	// get error code

	push	ebp
	mov	ebp, esp
	push	ecx
	mov	DWORD PTR [ebp-4], -858993460		; ccccccccH
	mov	DWORD PTR _this$[ebp], ecx

; 333  : 		return (_Myval);

	mov	eax, DWORD PTR _this$[ebp]
	mov	eax, DWORD PTR [eax]

; 334  : 		}

	mov	esp, ebp
	pop	ebp
	ret	0
?value@error_condition@std@@QBEHXZ ENDP			; std::error_condition::value
_TEXT	ENDS
; Function compile flags: /Odtp /RTCsu
; File c:\program files (x86)\microsoft visual studio 12.0\vc\include\system_error
;	COMDAT ??0error_condition@std@@QAE@HABVerror_category@1@@Z
_TEXT	SEGMENT
_this$ = -4						; size = 4
__Val$ = 8						; size = 4
__Cat$ = 12						; size = 4
??0error_condition@std@@QAE@HABVerror_category@1@@Z PROC ; std::error_condition::error_condition, COMDAT
; _this$ = ecx

; 299  : 		{	// construct from error code and category

	push	ebp
	mov	ebp, esp
	push	ecx
	mov	DWORD PTR [ebp-4], -858993460		; ccccccccH
	mov	DWORD PTR _this$[ebp], ecx
	mov	eax, DWORD PTR _this$[ebp]
	mov	ecx, DWORD PTR __Val$[ebp]
	mov	DWORD PTR [eax], ecx
	mov	edx, DWORD PTR _this$[ebp]
	mov	eax, DWORD PTR __Cat$[ebp]
	mov	DWORD PTR [edx+4], eax

; 300  : 		}

	mov	eax, DWORD PTR _this$[ebp]
	mov	esp, ebp
	pop	ebp
	ret	8
??0error_condition@std@@QAE@HABVerror_category@1@@Z ENDP ; std::error_condition::error_condition
_TEXT	ENDS
; Function compile flags: /Odtp /RTCsu
; File c:\program files (x86)\microsoft visual studio 12.0\vc\include\system_error
;	COMDAT ?category@error_code@std@@QBEABVerror_category@2@XZ
_TEXT	SEGMENT
_this$ = -4						; size = 4
?category@error_code@std@@QBEABVerror_category@2@XZ PROC ; std::error_code::category, COMDAT
; _this$ = ecx

; 246  : 		{	// get category

	push	ebp
	mov	ebp, esp
	push	ecx
	mov	DWORD PTR [ebp-4], -858993460		; ccccccccH
	mov	DWORD PTR _this$[ebp], ecx

; 247  : 		return (*_Mycat);

	mov	eax, DWORD PTR _this$[ebp]
	mov	eax, DWORD PTR [eax+4]

; 248  : 		}

	mov	esp, ebp
	pop	ebp
	ret	0
?category@error_code@std@@QBEABVerror_category@2@XZ ENDP ; std::error_code::category
_TEXT	ENDS
; Function compile flags: /Odtp /RTCsu
; File c:\program files (x86)\microsoft visual studio 12.0\vc\include\system_error
;	COMDAT ?value@error_code@std@@QBEHXZ
_TEXT	SEGMENT
_this$ = -4						; size = 4
?value@error_code@std@@QBEHXZ PROC			; std::error_code::value, COMDAT
; _this$ = ecx

; 241  : 		{	// get error code

	push	ebp
	mov	ebp, esp
	push	ecx
	mov	DWORD PTR [ebp-4], -858993460		; ccccccccH
	mov	DWORD PTR _this$[ebp], ecx

; 242  : 		return (_Myval);

	mov	eax, DWORD PTR _this$[ebp]
	mov	eax, DWORD PTR [eax]

; 243  : 		}

	mov	esp, ebp
	pop	ebp
	ret	0
?value@error_code@std@@QBEHXZ ENDP			; std::error_code::value
_TEXT	ENDS
; Function compile flags: /Odtp /RTCsu
;	COMDAT ??_Gerror_category@std@@UAEPAXI@Z
_TEXT	SEGMENT
_this$ = -4						; size = 4
___flags$ = 8						; size = 4
??_Gerror_category@std@@UAEPAXI@Z PROC			; std::error_category::`scalar deleting destructor', COMDAT
; _this$ = ecx
	push	ebp
	mov	ebp, esp
	push	ecx
	mov	DWORD PTR [ebp-4], -858993460		; ccccccccH
	mov	DWORD PTR _this$[ebp], ecx
	mov	ecx, DWORD PTR _this$[ebp]
	call	??1error_category@std@@UAE@XZ		; std::error_category::~error_category
	mov	eax, DWORD PTR ___flags$[ebp]
	and	eax, 1
	je	SHORT $LN1@scalar
	mov	ecx, DWORD PTR _this$[ebp]
	push	ecx
	call	??3@YAXPAX@Z				; operator delete
	add	esp, 4
$LN1@scalar:
	mov	eax, DWORD PTR _this$[ebp]
	add	esp, 4
	cmp	ebp, esp
	call	__RTC_CheckEsp
	mov	esp, ebp
	pop	ebp
	ret	4
??_Gerror_category@std@@UAEPAXI@Z ENDP			; std::error_category::`scalar deleting destructor'
_TEXT	ENDS
; Function compile flags: /Odtp /RTCsu
; File c:\program files (x86)\microsoft visual studio 12.0\vc\include\system_error
;	COMDAT ??8error_category@std@@QBE_NABV01@@Z
_TEXT	SEGMENT
tv65 = -8						; size = 4
_this$ = -4						; size = 4
__Right$ = 8						; size = 4
??8error_category@std@@QBE_NABV01@@Z PROC		; std::error_category::operator==, COMDAT
; _this$ = ecx

; 176  : 		{	// compare categories for equality

	push	ebp
	mov	ebp, esp
	sub	esp, 8
	mov	DWORD PTR [ebp-8], -858993460		; ccccccccH
	mov	DWORD PTR [ebp-4], -858993460		; ccccccccH
	mov	DWORD PTR _this$[ebp], ecx

; 177  : 		return (this == &_Right);

	mov	eax, DWORD PTR _this$[ebp]
	cmp	eax, DWORD PTR __Right$[ebp]
	jne	SHORT $LN3@operator
	mov	DWORD PTR tv65[ebp], 1
	jmp	SHORT $LN4@operator
$LN3@operator:
	mov	DWORD PTR tv65[ebp], 0
$LN4@operator:
	mov	al, BYTE PTR tv65[ebp]

; 178  : 		}

	mov	esp, ebp
	pop	ebp
	ret	4
??8error_category@std@@QBE_NABV01@@Z ENDP		; std::error_category::operator==
_TEXT	ENDS
; Function compile flags: /Odtp /RTCsu
; File c:\program files (x86)\microsoft visual studio 12.0\vc\include\system_error
;	COMDAT ?equivalent@error_category@std@@UBE_NABVerror_code@2@H@Z
_TEXT	SEGMENT
tv74 = -8						; size = 4
_this$ = -4						; size = 4
__Code$ = 8						; size = 4
__Errval$ = 12						; size = 4
?equivalent@error_category@std@@UBE_NABVerror_code@2@H@Z PROC ; std::error_category::equivalent, COMDAT
; _this$ = ecx

; 391  : 	{	// test if conditions same for this category

	push	ebp
	mov	ebp, esp
	sub	esp, 8
	mov	DWORD PTR [ebp-8], -858993460		; ccccccccH
	mov	DWORD PTR [ebp-4], -858993460		; ccccccccH
	mov	DWORD PTR _this$[ebp], ecx

; 392  : 	return (*this == _Code.category() && _Code.value() == _Errval);

	mov	ecx, DWORD PTR __Code$[ebp]
	call	?category@error_code@std@@QBEABVerror_category@2@XZ ; std::error_code::category
	push	eax
	mov	ecx, DWORD PTR _this$[ebp]
	call	??8error_category@std@@QBE_NABV01@@Z	; std::error_category::operator==
	movzx	eax, al
	test	eax, eax
	je	SHORT $LN3@equivalent
	mov	ecx, DWORD PTR __Code$[ebp]
	call	?value@error_code@std@@QBEHXZ		; std::error_code::value
	cmp	eax, DWORD PTR __Errval$[ebp]
	jne	SHORT $LN3@equivalent
	mov	DWORD PTR tv74[ebp], 1
	jmp	SHORT $LN4@equivalent
$LN3@equivalent:
	mov	DWORD PTR tv74[ebp], 0
$LN4@equivalent:
	mov	al, BYTE PTR tv74[ebp]

; 393  : 	}

	add	esp, 8
	cmp	ebp, esp
	call	__RTC_CheckEsp
	mov	esp, ebp
	pop	ebp
	ret	8
?equivalent@error_category@std@@UBE_NABVerror_code@2@H@Z ENDP ; std::error_category::equivalent
_TEXT	ENDS
; Function compile flags: /Odtp /RTCsu
; File c:\program files (x86)\microsoft visual studio 12.0\vc\include\system_error
;	COMDAT ?equivalent@error_category@std@@UBE_NHABVerror_condition@2@@Z
_TEXT	SEGMENT
$T1 = -12						; size = 8
_this$ = -4						; size = 4
__Errval$ = 8						; size = 4
__Cond$ = 12						; size = 4
?equivalent@error_category@std@@UBE_NHABVerror_condition@2@@Z PROC ; std::error_category::equivalent, COMDAT
; _this$ = ecx

; 384  : 	{	// test if error code same condition

	push	ebp
	mov	ebp, esp
	sub	esp, 12					; 0000000cH
	push	esi
	mov	DWORD PTR [ebp-12], -858993460		; ccccccccH
	mov	DWORD PTR [ebp-8], -858993460		; ccccccccH
	mov	DWORD PTR [ebp-4], -858993460		; ccccccccH
	mov	DWORD PTR _this$[ebp], ecx

; 385  : 	return (default_error_condition(_Errval) == _Cond);

	mov	eax, DWORD PTR __Cond$[ebp]
	push	eax
	mov	esi, esp
	mov	ecx, DWORD PTR __Errval$[ebp]
	push	ecx
	lea	edx, DWORD PTR $T1[ebp]
	push	edx
	mov	eax, DWORD PTR _this$[ebp]
	mov	edx, DWORD PTR [eax]
	mov	ecx, DWORD PTR _this$[ebp]
	mov	eax, DWORD PTR [edx+12]
	call	eax
	cmp	esi, esp
	call	__RTC_CheckEsp
	mov	ecx, eax
	call	??8error_condition@std@@QBE_NABV01@@Z	; std::error_condition::operator==

; 386  : 	}

	pop	esi
	add	esp, 12					; 0000000cH
	cmp	ebp, esp
	call	__RTC_CheckEsp
	mov	esp, ebp
	pop	ebp
	ret	8
?equivalent@error_category@std@@UBE_NHABVerror_condition@2@@Z ENDP ; std::error_category::equivalent
_TEXT	ENDS
; Function compile flags: /Odtp /RTCsu
; File c:\program files (x86)\microsoft visual studio 12.0\vc\include\system_error
;	COMDAT ?default_error_condition@error_category@std@@UBE?AVerror_condition@2@H@Z
_TEXT	SEGMENT
_this$ = -4						; size = 4
___$ReturnUdt$ = 8					; size = 4
__Errval$ = 12						; size = 4
?default_error_condition@error_category@std@@UBE?AVerror_condition@2@H@Z PROC ; std::error_category::default_error_condition, COMDAT
; _this$ = ecx

; 377  : 	{	// make error_condition for error code

	push	ebp
	mov	ebp, esp
	push	ecx
	mov	DWORD PTR [ebp-4], -858993460		; ccccccccH
	mov	DWORD PTR _this$[ebp], ecx

; 378  : 	return (error_condition(_Errval, *this));

	mov	eax, DWORD PTR _this$[ebp]
	push	eax
	mov	ecx, DWORD PTR __Errval$[ebp]
	push	ecx
	mov	ecx, DWORD PTR ___$ReturnUdt$[ebp]
	call	??0error_condition@std@@QAE@HABVerror_category@1@@Z ; std::error_condition::error_condition
	mov	eax, DWORD PTR ___$ReturnUdt$[ebp]

; 379  : 	}

	add	esp, 4
	cmp	ebp, esp
	call	__RTC_CheckEsp
	mov	esp, ebp
	pop	ebp
	ret	8
?default_error_condition@error_category@std@@UBE?AVerror_condition@2@H@Z ENDP ; std::error_category::default_error_condition
_TEXT	ENDS
; Function compile flags: /Odtp /RTCsu
; File c:\program files (x86)\microsoft visual studio 12.0\vc\include\system_error
;	COMDAT ??1error_category@std@@UAE@XZ
_TEXT	SEGMENT
_this$ = -4						; size = 4
??1error_category@std@@UAE@XZ PROC			; std::error_category::~error_category, COMDAT
; _this$ = ecx

; 159  : 		{	// destroy the object

	push	ebp
	mov	ebp, esp
	push	ecx
	mov	DWORD PTR [ebp-4], -858993460		; ccccccccH
	mov	DWORD PTR _this$[ebp], ecx
	mov	eax, DWORD PTR _this$[ebp]
	mov	DWORD PTR [eax], OFFSET ??_7error_category@std@@6B@

; 160  : 		}

	mov	esp, ebp
	pop	ebp
	ret	0
??1error_category@std@@UAE@XZ ENDP			; std::error_category::~error_category
_TEXT	ENDS
; Function compile flags: /Odtp /RTCsu
; File c:\program files (x86)\microsoft visual studio 12.0\vc\include\system_error
;	COMDAT ??0error_category@std@@QAE@XZ
_TEXT	SEGMENT
_this$ = -4						; size = 4
??0error_category@std@@QAE@XZ PROC			; std::error_category::error_category, COMDAT
; _this$ = ecx

; 154  : 	error_category()

	push	ebp
	mov	ebp, esp
	push	ecx
	mov	DWORD PTR [ebp-4], -858993460		; ccccccccH
	mov	DWORD PTR _this$[ebp], ecx
	mov	eax, DWORD PTR _this$[ebp]
	mov	DWORD PTR [eax], OFFSET ??_7error_category@std@@6B@

; 155  : 		{	// default constructor
; 156  : 		}

	mov	eax, DWORD PTR _this$[ebp]
	mov	esp, ebp
	pop	ebp
	ret	0
??0error_category@std@@QAE@XZ ENDP			; std::error_category::error_category
_TEXT	ENDS
; Function compile flags: /Odtp /RTCsu
; File c:\program files (x86)\microsoft visual studio 12.0\vc\include\system_error
;	COMDAT ?system_category@std@@YAABVerror_category@1@XZ
_TEXT	SEGMENT
?system_category@std@@YAABVerror_category@1@XZ PROC	; std::system_category, COMDAT

; 652  : 	{	// get system_category

	push	ebp
	mov	ebp, esp

; 653  : 	return (_Error_objects<int>::_System_object);

	mov	eax, OFFSET ?_System_object@?$_Error_objects@H@std@@2V_System_error_category@2@A ; std::_Error_objects<int>::_System_object

; 654  : 	}

	pop	ebp
	ret	0
?system_category@std@@YAABVerror_category@1@XZ ENDP	; std::system_category
_TEXT	ENDS
; Function compile flags: /Odtp /RTCsu
; File c:\program files (x86)\microsoft visual studio 12.0\vc\include\system_error
;	COMDAT ?generic_category@std@@YAABVerror_category@1@XZ
_TEXT	SEGMENT
?generic_category@std@@YAABVerror_category@1@XZ PROC	; std::generic_category, COMDAT

; 642  : 	{	// get generic_category

	push	ebp
	mov	ebp, esp

; 643  : 	return (_Error_objects<int>::_Generic_object);

	mov	eax, OFFSET ?_Generic_object@?$_Error_objects@H@std@@2V_Generic_error_category@2@A ; std::_Error_objects<int>::_Generic_object

; 644  : 	}

	pop	ebp
	ret	0
?generic_category@std@@YAABVerror_category@1@XZ ENDP	; std::generic_category
_TEXT	ENDS
; Function compile flags: /Odtp /RTCsu
; File c:\program files (x86)\microsoft visual studio 12.0\vc\include\xutility
;	COMDAT ??$_Debug_pointer@D@std@@YAXPBDPB_WI@Z
_TEXT	SEGMENT
__First$ = 8						; size = 4
__File$ = 12						; size = 4
__Line$ = 16						; size = 4
??$_Debug_pointer@D@std@@YAXPBDPB_WI@Z PROC		; std::_Debug_pointer<char>, COMDAT

; 545  : 	{	// test iterator for non-singularity, const pointers

	push	ebp
	mov	ebp, esp

; 546  : 	if (_First == 0)

	cmp	DWORD PTR __First$[ebp], 0
	jne	SHORT $LN2@Debug_poin

; 547  : 		_DEBUG_ERROR2("invalid null pointer", _File, _Line);

	mov	eax, DWORD PTR __Line$[ebp]
	push	eax
	mov	ecx, DWORD PTR __File$[ebp]
	push	ecx
	push	OFFSET ??_C@_1CK@EOPGIILJ@?$AAi?$AAn?$AAv?$AAa?$AAl?$AAi?$AAd?$AA?5?$AAn?$AAu?$AAl?$AAl?$AA?5?$AAp?$AAo?$AAi?$AAn?$AAt?$AAe?$AAr?$AA?$AA@
	call	?_Debug_message@std@@YAXPB_W0I@Z	; std::_Debug_message
	add	esp, 12					; 0000000cH
$LN2@Debug_poin:

; 548  : 	}

	cmp	ebp, esp
	call	__RTC_CheckEsp
	pop	ebp
	ret	0
??$_Debug_pointer@D@std@@YAXPBDPB_WI@Z ENDP		; std::_Debug_pointer<char>
_TEXT	ENDS
; Function compile flags: /Odtp /RTCsu
; File c:\program files (x86)\microsoft visual studio 12.0\vc\include\xlocale
;	COMDAT ??0id@locale@std@@QAE@I@Z
_TEXT	SEGMENT
_this$ = -4						; size = 4
__Val$ = 8						; size = 4
??0id@locale@std@@QAE@I@Z PROC				; std::locale::id::id, COMDAT
; _this$ = ecx

; 74   : 			{	// construct with specified stamp value

	push	ebp
	mov	ebp, esp
	push	ecx
	mov	DWORD PTR [ebp-4], -858993460		; ccccccccH
	mov	DWORD PTR _this$[ebp], ecx
	mov	eax, DWORD PTR _this$[ebp]
	mov	ecx, DWORD PTR __Val$[ebp]
	mov	DWORD PTR [eax], ecx

; 75   : 			}

	mov	eax, DWORD PTR _this$[ebp]
	mov	esp, ebp
	pop	ebp
	ret	4
??0id@locale@std@@QAE@I@Z ENDP				; std::locale::id::id
_TEXT	ENDS
; Function compile flags: /Odtp /RTCsu
; File c:\program files (x86)\microsoft visual studio 12.0\vc\include\xstring
;	COMDAT ?_Xran@?$basic_string@DU?$char_traits@D@std@@V?$allocator@D@2@@std@@QBEXXZ
_TEXT	SEGMENT
_this$ = -4						; size = 4
?_Xran@?$basic_string@DU?$char_traits@D@std@@V?$allocator@D@2@@std@@QBEXXZ PROC ; std::basic_string<char,std::char_traits<char>,std::allocator<char> >::_Xran, COMDAT
; _this$ = ecx

; 2294 : 		{	// report an out_of_range error

	push	ebp
	mov	ebp, esp
	push	ecx
	mov	DWORD PTR [ebp-4], -858993460		; ccccccccH
	mov	DWORD PTR _this$[ebp], ecx

; 2295 : 		_Xout_of_range("invalid string position");

	push	OFFSET ??_C@_0BI@CFPLBAOH@invalid?5string?5position?$AA@
	call	?_Xout_of_range@std@@YAXPBD@Z		; std::_Xout_of_range
$LN2@Xran:

; 2296 : 		}

	add	esp, 4
	cmp	ebp, esp
	call	__RTC_CheckEsp
	mov	esp, ebp
	pop	ebp
	ret	0
?_Xran@?$basic_string@DU?$char_traits@D@std@@V?$allocator@D@2@@std@@QBEXXZ ENDP ; std::basic_string<char,std::char_traits<char>,std::allocator<char> >::_Xran
_TEXT	ENDS
; Function compile flags: /Odtp /RTCsu
; File c:\program files (x86)\microsoft visual studio 12.0\vc\include\xstring
;	COMDAT ?_Xlen@?$basic_string@DU?$char_traits@D@std@@V?$allocator@D@2@@std@@QBEXXZ
_TEXT	SEGMENT
_this$ = -4						; size = 4
?_Xlen@?$basic_string@DU?$char_traits@D@std@@V?$allocator@D@2@@std@@QBEXXZ PROC ; std::basic_string<char,std::char_traits<char>,std::allocator<char> >::_Xlen, COMDAT
; _this$ = ecx

; 2289 : 		{	// report a length_error

	push	ebp
	mov	ebp, esp
	push	ecx
	mov	DWORD PTR [ebp-4], -858993460		; ccccccccH
	mov	DWORD PTR _this$[ebp], ecx

; 2290 : 		_Xlength_error("string too long");

	push	OFFSET ??_C@_0BA@JFNIOLAK@string?5too?5long?$AA@
	call	?_Xlength_error@std@@YAXPBD@Z		; std::_Xlength_error
$LN2@Xlen:

; 2291 : 		}

	add	esp, 4
	cmp	ebp, esp
	call	__RTC_CheckEsp
	mov	esp, ebp
	pop	ebp
	ret	0
?_Xlen@?$basic_string@DU?$char_traits@D@std@@V?$allocator@D@2@@std@@QBEXXZ ENDP ; std::basic_string<char,std::char_traits<char>,std::allocator<char> >::_Xlen
_TEXT	ENDS
; Function compile flags: /Odtp /RTCsu
; File c:\program files (x86)\microsoft visual studio 12.0\vc\include\xstring
;	COMDAT ?_Tidy@?$basic_string@DU?$char_traits@D@std@@V?$allocator@D@2@@std@@QAEX_NI@Z
_TEXT	SEGMENT
$T1 = -10						; size = 1
$T2 = -9						; size = 1
__Ptr$3 = -8						; size = 4
_this$ = -4						; size = 4
__Built$ = 8						; size = 1
__Newsize$ = 12						; size = 4
?_Tidy@?$basic_string@DU?$char_traits@D@std@@V?$allocator@D@2@@std@@QAEX_NI@Z PROC ; std::basic_string<char,std::char_traits<char>,std::allocator<char> >::_Tidy, COMDAT
; _this$ = ecx

; 2272 : 		{	// initialize buffer, deallocating any storage

	push	ebp
	mov	ebp, esp
	sub	esp, 12					; 0000000cH
	mov	DWORD PTR [ebp-12], -858993460		; ccccccccH
	mov	DWORD PTR [ebp-8], -858993460		; ccccccccH
	mov	DWORD PTR [ebp-4], -858993460		; ccccccccH
	mov	DWORD PTR _this$[ebp], ecx

; 2273 : 		if (!_Built)

	movzx	eax, BYTE PTR __Built$[ebp]
	test	eax, eax
	jne	SHORT $LN4@Tidy
	jmp	SHORT $LN3@Tidy
$LN4@Tidy:

; 2274 : 			;
; 2275 : 		else if (this->_BUF_SIZE <= this->_Myres)

	mov	ecx, DWORD PTR _this$[ebp]
	cmp	DWORD PTR [ecx+24], 16			; 00000010H
	jb	SHORT $LN3@Tidy

; 2276 : 			{	// copy any leftovers to small buffer and deallocate
; 2277 : 			pointer _Ptr = this->_Bx._Ptr;

	mov	edx, DWORD PTR _this$[ebp]
	mov	eax, DWORD PTR [edx+4]
	mov	DWORD PTR __Ptr$3[ebp], eax

; 2278 : 			this->_Getal().destroy(&this->_Bx._Ptr);

	mov	ecx, DWORD PTR _this$[ebp]
	add	ecx, 4
	push	ecx
	lea	edx, DWORD PTR $T2[ebp]
	push	edx
	mov	ecx, DWORD PTR _this$[ebp]
	call	?_Getal@?$_String_alloc@$0A@U?$_String_base_types@DV?$allocator@D@std@@@std@@@std@@QBE?AU?$_Wrap_alloc@V?$allocator@D@std@@@2@XZ ; std::_String_alloc<0,std::_String_base_types<char,std::allocator<char> > >::_Getal
	mov	ecx, eax
	call	??$destroy@PAD@?$_Wrap_alloc@V?$allocator@D@std@@@std@@QAEXPAPAD@Z ; std::_Wrap_alloc<std::allocator<char> >::destroy<char *>

; 2279 : 			if (0 < _Newsize)

	cmp	DWORD PTR __Newsize$[ebp], 0
	jbe	SHORT $LN1@Tidy

; 2280 : 				_Traits::copy(this->_Bx._Buf,
; 2281 : 					_STD addressof(*_Ptr), _Newsize);

	mov	eax, DWORD PTR __Newsize$[ebp]
	push	eax
	mov	ecx, DWORD PTR __Ptr$3[ebp]
	push	ecx
	call	??$addressof@D@std@@YAPADAAD@Z		; std::addressof<char>
	add	esp, 4
	push	eax
	mov	edx, DWORD PTR _this$[ebp]
	add	edx, 4
	push	edx
	call	?copy@?$char_traits@D@std@@SAPADPADPBDI@Z ; std::char_traits<char>::copy
	add	esp, 12					; 0000000cH
$LN1@Tidy:

; 2282 : 			this->_Getal().deallocate(_Ptr, this->_Myres + 1);

	mov	eax, DWORD PTR _this$[ebp]
	mov	ecx, DWORD PTR [eax+24]
	add	ecx, 1
	push	ecx
	mov	edx, DWORD PTR __Ptr$3[ebp]
	push	edx
	lea	eax, DWORD PTR $T1[ebp]
	push	eax
	mov	ecx, DWORD PTR _this$[ebp]
	call	?_Getal@?$_String_alloc@$0A@U?$_String_base_types@DV?$allocator@D@std@@@std@@@std@@QBE?AU?$_Wrap_alloc@V?$allocator@D@std@@@2@XZ ; std::_String_alloc<0,std::_String_base_types<char,std::allocator<char> > >::_Getal
	mov	ecx, eax
	call	?deallocate@?$_Wrap_alloc@V?$allocator@D@std@@@std@@QAEXPADI@Z ; std::_Wrap_alloc<std::allocator<char> >::deallocate
$LN3@Tidy:

; 2283 : 			}
; 2284 : 		this->_Myres = this->_BUF_SIZE - 1;

	mov	ecx, DWORD PTR _this$[ebp]
	mov	DWORD PTR [ecx+24], 15			; 0000000fH

; 2285 : 		_Eos(_Newsize);

	mov	edx, DWORD PTR __Newsize$[ebp]
	push	edx
	mov	ecx, DWORD PTR _this$[ebp]
	call	?_Eos@?$basic_string@DU?$char_traits@D@std@@V?$allocator@D@2@@std@@QAEXI@Z ; std::basic_string<char,std::char_traits<char>,std::allocator<char> >::_Eos

; 2286 : 		}

	add	esp, 12					; 0000000cH
	cmp	ebp, esp
	call	__RTC_CheckEsp
	mov	esp, ebp
	pop	ebp
	ret	8
?_Tidy@?$basic_string@DU?$char_traits@D@std@@V?$allocator@D@2@@std@@QAEX_NI@Z ENDP ; std::basic_string<char,std::char_traits<char>,std::allocator<char> >::_Tidy
_TEXT	ENDS
; Function compile flags: /Odtp /RTCsu
; File c:\program files (x86)\microsoft visual studio 12.0\vc\include\xstring
;	COMDAT ?_Inside@?$basic_string@DU?$char_traits@D@std@@V?$allocator@D@2@@std@@QAE_NPBD@Z
_TEXT	SEGMENT
_this$ = -4						; size = 4
__Ptr$ = 8						; size = 4
?_Inside@?$basic_string@DU?$char_traits@D@std@@V?$allocator@D@2@@std@@QAE_NPBD@Z PROC ; std::basic_string<char,std::char_traits<char>,std::allocator<char> >::_Inside, COMDAT
; _this$ = ecx

; 2256 : 		{	// test if _Ptr points inside string

	push	ebp
	mov	ebp, esp
	push	ecx
	mov	DWORD PTR [ebp-4], -858993460		; ccccccccH
	mov	DWORD PTR _this$[ebp], ecx

; 2257 : 		if (_Ptr == 0 || _Ptr < this->_Myptr()
; 2258 : 			|| this->_Myptr() + this->_Mysize <= _Ptr)

	cmp	DWORD PTR __Ptr$[ebp], 0
	je	SHORT $LN2@Inside
	mov	ecx, DWORD PTR _this$[ebp]
	call	?_Myptr@?$_String_val@U?$_Simple_types@D@std@@@std@@QAEPADXZ ; std::_String_val<std::_Simple_types<char> >::_Myptr
	cmp	DWORD PTR __Ptr$[ebp], eax
	jb	SHORT $LN2@Inside
	mov	ecx, DWORD PTR _this$[ebp]
	call	?_Myptr@?$_String_val@U?$_Simple_types@D@std@@@std@@QAEPADXZ ; std::_String_val<std::_Simple_types<char> >::_Myptr
	mov	ecx, DWORD PTR _this$[ebp]
	add	eax, DWORD PTR [ecx+20]
	cmp	eax, DWORD PTR __Ptr$[ebp]
	ja	SHORT $LN3@Inside
$LN2@Inside:

; 2259 : 			return (false);	// don't ask

	xor	al, al
	jmp	SHORT $LN4@Inside

; 2260 : 		else

	jmp	SHORT $LN4@Inside
$LN3@Inside:

; 2261 : 			return (true);

	mov	al, 1
$LN4@Inside:

; 2262 : 		}

	add	esp, 4
	cmp	ebp, esp
	call	__RTC_CheckEsp
	mov	esp, ebp
	pop	ebp
	ret	4
?_Inside@?$basic_string@DU?$char_traits@D@std@@V?$allocator@D@2@@std@@QAE_NPBD@Z ENDP ; std::basic_string<char,std::char_traits<char>,std::allocator<char> >::_Inside
_TEXT	ENDS
; Function compile flags: /Odtp /RTCsu
; File c:\program files (x86)\microsoft visual studio 12.0\vc\include\xstring
;	COMDAT ?_Grow@?$basic_string@DU?$char_traits@D@std@@V?$allocator@D@2@@std@@QAE_NI_N@Z
_TEXT	SEGMENT
tv136 = -12						; size = 4
tv129 = -8						; size = 4
_this$ = -4						; size = 4
__Newsize$ = 8						; size = 4
__Trim$ = 12						; size = 1
?_Grow@?$basic_string@DU?$char_traits@D@std@@V?$allocator@D@2@@std@@QAE_NI_N@Z PROC ; std::basic_string<char,std::char_traits<char>,std::allocator<char> >::_Grow, COMDAT
; _this$ = ecx

; 2242 : 		{	// ensure buffer is big enough, trim to size if _Trim is true

	push	ebp
	mov	ebp, esp
	sub	esp, 12					; 0000000cH
	mov	DWORD PTR [ebp-12], -858993460		; ccccccccH
	mov	DWORD PTR [ebp-8], -858993460		; ccccccccH
	mov	DWORD PTR [ebp-4], -858993460		; ccccccccH
	mov	DWORD PTR _this$[ebp], ecx

; 2243 : 		if (max_size() < _Newsize)

	mov	ecx, DWORD PTR _this$[ebp]
	call	?max_size@?$basic_string@DU?$char_traits@D@std@@V?$allocator@D@2@@std@@QBEIXZ ; std::basic_string<char,std::char_traits<char>,std::allocator<char> >::max_size
	cmp	eax, DWORD PTR __Newsize$[ebp]
	jae	SHORT $LN6@Grow

; 2244 : 			_Xlen();	// result too long

	mov	ecx, DWORD PTR _this$[ebp]
	call	?_Xlen@?$basic_string@DU?$char_traits@D@std@@V?$allocator@D@2@@std@@QBEXXZ ; std::basic_string<char,std::char_traits<char>,std::allocator<char> >::_Xlen
$LN6@Grow:

; 2245 : 		if (this->_Myres < _Newsize)

	mov	eax, DWORD PTR _this$[ebp]
	mov	ecx, DWORD PTR [eax+24]
	cmp	ecx, DWORD PTR __Newsize$[ebp]
	jae	SHORT $LN5@Grow

; 2246 : 			_Copy(_Newsize, this->_Mysize);	// reallocate to grow

	mov	edx, DWORD PTR _this$[ebp]
	mov	eax, DWORD PTR [edx+20]
	push	eax
	mov	ecx, DWORD PTR __Newsize$[ebp]
	push	ecx
	mov	ecx, DWORD PTR _this$[ebp]
	call	?_Copy@?$basic_string@DU?$char_traits@D@std@@V?$allocator@D@2@@std@@QAEXII@Z ; std::basic_string<char,std::char_traits<char>,std::allocator<char> >::_Copy
	jmp	SHORT $LN4@Grow
$LN5@Grow:

; 2247 : 		else if (_Trim && _Newsize < this->_BUF_SIZE)

	movzx	edx, BYTE PTR __Trim$[ebp]
	test	edx, edx
	je	SHORT $LN3@Grow
	cmp	DWORD PTR __Newsize$[ebp], 16		; 00000010H
	jae	SHORT $LN3@Grow

; 2248 : 			_Tidy(true,	// copy and deallocate if trimming to small string
; 2249 : 				_Newsize < this->_Mysize ? _Newsize : this->_Mysize);

	mov	eax, DWORD PTR _this$[ebp]
	mov	ecx, DWORD PTR __Newsize$[ebp]
	cmp	ecx, DWORD PTR [eax+20]
	jae	SHORT $LN9@Grow
	mov	edx, DWORD PTR __Newsize$[ebp]
	mov	DWORD PTR tv129[ebp], edx
	jmp	SHORT $LN10@Grow
$LN9@Grow:
	mov	eax, DWORD PTR _this$[ebp]
	mov	ecx, DWORD PTR [eax+20]
	mov	DWORD PTR tv129[ebp], ecx
$LN10@Grow:
	mov	edx, DWORD PTR tv129[ebp]
	push	edx
	push	1
	mov	ecx, DWORD PTR _this$[ebp]
	call	?_Tidy@?$basic_string@DU?$char_traits@D@std@@V?$allocator@D@2@@std@@QAEX_NI@Z ; std::basic_string<char,std::char_traits<char>,std::allocator<char> >::_Tidy
	jmp	SHORT $LN4@Grow
$LN3@Grow:

; 2250 : 		else if (_Newsize == 0)

	cmp	DWORD PTR __Newsize$[ebp], 0
	jne	SHORT $LN4@Grow

; 2251 : 			_Eos(0);	// new size is zero, just null terminate

	push	0
	mov	ecx, DWORD PTR _this$[ebp]
	call	?_Eos@?$basic_string@DU?$char_traits@D@std@@V?$allocator@D@2@@std@@QAEXI@Z ; std::basic_string<char,std::char_traits<char>,std::allocator<char> >::_Eos
$LN4@Grow:

; 2252 : 		return (0 < _Newsize);	// return true only if more work to do

	cmp	DWORD PTR __Newsize$[ebp], 0
	jbe	SHORT $LN11@Grow
	mov	DWORD PTR tv136[ebp], 1
	jmp	SHORT $LN12@Grow
$LN11@Grow:
	mov	DWORD PTR tv136[ebp], 0
$LN12@Grow:
	mov	al, BYTE PTR tv136[ebp]
$LN8@Grow:

; 2253 : 		}

	add	esp, 12					; 0000000cH
	cmp	ebp, esp
	call	__RTC_CheckEsp
	mov	esp, ebp
	pop	ebp
	ret	8
?_Grow@?$basic_string@DU?$char_traits@D@std@@V?$allocator@D@2@@std@@QAE_NI_N@Z ENDP ; std::basic_string<char,std::char_traits<char>,std::allocator<char> >::_Grow
_TEXT	ENDS
; Function compile flags: /Odtp /RTCsu
; File c:\program files (x86)\microsoft visual studio 12.0\vc\include\xstring
;	COMDAT ?_Eos@?$basic_string@DU?$char_traits@D@std@@V?$allocator@D@2@@std@@QAEXI@Z
_TEXT	SEGMENT
$T1 = -5						; size = 1
_this$ = -4						; size = 4
__Newsize$ = 8						; size = 4
?_Eos@?$basic_string@DU?$char_traits@D@std@@V?$allocator@D@2@@std@@QAEXI@Z PROC ; std::basic_string<char,std::char_traits<char>,std::allocator<char> >::_Eos, COMDAT
; _this$ = ecx

; 2236 : 		{	// set new length and null terminator

	push	ebp
	mov	ebp, esp
	sub	esp, 8
	mov	DWORD PTR [ebp-8], -858993460		; ccccccccH
	mov	DWORD PTR [ebp-4], -858993460		; ccccccccH
	mov	DWORD PTR _this$[ebp], ecx

; 2237 : 		_Traits::assign(this->_Myptr()[this->_Mysize = _Newsize], _Elem());

	mov	BYTE PTR $T1[ebp], 0
	mov	eax, DWORD PTR _this$[ebp]
	mov	ecx, DWORD PTR __Newsize$[ebp]
	mov	DWORD PTR [eax+20], ecx
	lea	edx, DWORD PTR $T1[ebp]
	push	edx
	mov	ecx, DWORD PTR _this$[ebp]
	call	?_Myptr@?$_String_val@U?$_Simple_types@D@std@@@std@@QAEPADXZ ; std::_String_val<std::_Simple_types<char> >::_Myptr
	add	eax, DWORD PTR __Newsize$[ebp]
	push	eax
	call	?assign@?$char_traits@D@std@@SAXAADABD@Z ; std::char_traits<char>::assign
	add	esp, 8

; 2238 : 		}

	add	esp, 8
	cmp	ebp, esp
	call	__RTC_CheckEsp
	mov	esp, ebp
	pop	ebp
	ret	4
?_Eos@?$basic_string@DU?$char_traits@D@std@@V?$allocator@D@2@@std@@QAEXI@Z ENDP ; std::basic_string<char,std::char_traits<char>,std::allocator<char> >::_Eos
_TEXT	ENDS
; Function compile flags: /Odtp /RTCsu
; File c:\program files (x86)\microsoft visual studio 12.0\vc\include\xstring
;	COMDAT ?_Copy@?$basic_string@DU?$char_traits@D@std@@V?$allocator@D@2@@std@@QAEXII@Z
_TEXT	SEGMENT
tv205 = -56						; size = 4
tv204 = -52						; size = 4
tv203 = -48						; size = 4
tv202 = -44						; size = 4
$T2 = -39						; size = 1
$T3 = -38						; size = 1
$T4 = -37						; size = 1
__Ptr$ = -32						; size = 4
__Newres$ = -24						; size = 4
_this$ = -20						; size = 4
__$EHRec$ = -16						; size = 16
__Newsize$ = 8						; size = 4
__Oldlen$ = 12						; size = 4
?_Copy@?$basic_string@DU?$char_traits@D@std@@V?$allocator@D@2@@std@@QAEXII@Z PROC ; std::basic_string<char,std::char_traits<char>,std::allocator<char> >::_Copy, COMDAT
; _this$ = ecx

; 2201 : 		{	// copy _Oldlen elements to newly allocated buffer

	push	ebp
	mov	ebp, esp
	push	-1
	push	__ehhandler$?_Copy@?$basic_string@DU?$char_traits@D@std@@V?$allocator@D@2@@std@@QAEXII@Z
	mov	eax, DWORD PTR fs:0
	push	eax
	push	ecx
	sub	esp, 40					; 00000028H
	push	ebx
	push	esi
	push	edi
	push	ecx
	lea	edi, DWORD PTR [ebp-56]
	mov	ecx, 10					; 0000000aH
	mov	eax, -858993460				; ccccccccH
	rep stosd
	pop	ecx
	mov	eax, DWORD PTR ___security_cookie
	xor	eax, ebp
	push	eax
	lea	eax, DWORD PTR __$EHRec$[ebp+4]
	mov	DWORD PTR fs:0, eax
	mov	DWORD PTR __$EHRec$[ebp], esp
	mov	DWORD PTR _this$[ebp], ecx

; 2202 : 		size_type _Newres = _Newsize | this->_ALLOC_MASK;

	mov	eax, DWORD PTR __Newsize$[ebp]
	or	eax, 15					; 0000000fH
	mov	DWORD PTR __Newres$[ebp], eax

; 2203 : 		if (max_size() < _Newres)

	mov	ecx, DWORD PTR _this$[ebp]
	call	?max_size@?$basic_string@DU?$char_traits@D@std@@V?$allocator@D@2@@std@@QBEIXZ ; std::basic_string<char,std::char_traits<char>,std::allocator<char> >::max_size
	cmp	eax, DWORD PTR __Newres$[ebp]
	jae	SHORT $LN9@Copy

; 2204 : 			_Newres = _Newsize;	// undo roundup if too big

	mov	ecx, DWORD PTR __Newsize$[ebp]
	mov	DWORD PTR __Newres$[ebp], ecx
	jmp	SHORT $LN8@Copy
$LN9@Copy:

; 2205 : 		else if (this->_Myres / 2 <= _Newres / 3)

	mov	eax, DWORD PTR __Newres$[ebp]
	xor	edx, edx
	mov	ecx, 3
	div	ecx
	mov	edx, DWORD PTR _this$[ebp]
	mov	ecx, DWORD PTR [edx+24]
	shr	ecx, 1
	cmp	ecx, eax
	ja	SHORT $LN7@Copy
	jmp	SHORT $LN8@Copy
$LN7@Copy:

; 2206 : 			;
; 2207 : 		else if (this->_Myres <= max_size() - this->_Myres / 2)

	mov	edx, DWORD PTR _this$[ebp]
	mov	esi, DWORD PTR [edx+24]
	shr	esi, 1
	mov	ecx, DWORD PTR _this$[ebp]
	call	?max_size@?$basic_string@DU?$char_traits@D@std@@V?$allocator@D@2@@std@@QBEIXZ ; std::basic_string<char,std::char_traits<char>,std::allocator<char> >::max_size
	sub	eax, esi
	mov	ecx, DWORD PTR _this$[ebp]
	cmp	DWORD PTR [ecx+24], eax
	ja	SHORT $LN5@Copy

; 2208 : 			_Newres = this->_Myres
; 2209 : 				+ this->_Myres / 2;	// grow exponentially if possible

	mov	edx, DWORD PTR _this$[ebp]
	mov	eax, DWORD PTR [edx+24]
	shr	eax, 1
	mov	ecx, DWORD PTR _this$[ebp]
	add	eax, DWORD PTR [ecx+24]
	mov	DWORD PTR __Newres$[ebp], eax

; 2210 : 		else

	jmp	SHORT $LN8@Copy
$LN5@Copy:

; 2211 : 			_Newres = max_size();	// settle for max_size()

	mov	ecx, DWORD PTR _this$[ebp]
	call	?max_size@?$basic_string@DU?$char_traits@D@std@@V?$allocator@D@2@@std@@QBEIXZ ; std::basic_string<char,std::char_traits<char>,std::allocator<char> >::max_size
	mov	DWORD PTR __Newres$[ebp], eax
$LN8@Copy:

; 2212 : 
; 2213 : 		_Elem *_Ptr;
; 2214 : 		_TRY_BEGIN

	mov	DWORD PTR __$EHRec$[ebp+12], 0

; 2215 : 			_Ptr = this->_Getal().allocate(_Newres + 1);

	lea	edx, DWORD PTR $T4[ebp]
	push	edx
	mov	ecx, DWORD PTR _this$[ebp]
	call	?_Getal@?$_String_alloc@$0A@U?$_String_base_types@DV?$allocator@D@std@@@std@@@std@@QBE?AU?$_Wrap_alloc@V?$allocator@D@std@@@2@XZ ; std::_String_alloc<0,std::_String_base_types<char,std::allocator<char> > >::_Getal
	mov	DWORD PTR tv202[ebp], eax
	mov	eax, DWORD PTR __Newres$[ebp]
	add	eax, 1
	push	eax
	mov	ecx, DWORD PTR tv202[ebp]
	call	?allocate@?$_Wrap_alloc@V?$allocator@D@std@@@std@@QAEPADI@Z ; std::_Wrap_alloc<std::allocator<char> >::allocate
	mov	DWORD PTR tv203[ebp], eax
	mov	ecx, DWORD PTR tv203[ebp]
	mov	DWORD PTR __Ptr$[ebp], ecx
	jmp	SHORT $LN12@Copy
__catch$?_Copy@?$basic_string@DU?$char_traits@D@std@@V?$allocator@D@2@@std@@QAEXII@Z$0:

; 2216 : 		_CATCH_ALL

	mov	DWORD PTR __$EHRec$[ebp], esp

; 2217 : 			_Newres = _Newsize;	// allocation failed, undo roundup and retry

	mov	edx, DWORD PTR __Newsize$[ebp]
	mov	DWORD PTR __Newres$[ebp], edx

; 2218 : 			_TRY_BEGIN

	mov	BYTE PTR __$EHRec$[ebp+12], 2

; 2219 : 				_Ptr = this->_Getal().allocate(_Newres + 1);

	lea	eax, DWORD PTR $T3[ebp]
	push	eax
	mov	ecx, DWORD PTR _this$[ebp]
	call	?_Getal@?$_String_alloc@$0A@U?$_String_base_types@DV?$allocator@D@std@@@std@@@std@@QBE?AU?$_Wrap_alloc@V?$allocator@D@std@@@2@XZ ; std::_String_alloc<0,std::_String_base_types<char,std::allocator<char> > >::_Getal
	mov	DWORD PTR tv204[ebp], eax
	mov	ecx, DWORD PTR __Newres$[ebp]
	add	ecx, 1
	push	ecx
	mov	ecx, DWORD PTR tv204[ebp]
	call	?allocate@?$_Wrap_alloc@V?$allocator@D@std@@@std@@QAEPADI@Z ; std::_Wrap_alloc<std::allocator<char> >::allocate
	mov	DWORD PTR tv205[ebp], eax
	mov	edx, DWORD PTR tv205[ebp]
	mov	DWORD PTR __Ptr$[ebp], edx
	jmp	SHORT $LN14@Copy
__catch$?_Copy@?$basic_string@DU?$char_traits@D@std@@V?$allocator@D@2@@std@@QAEXII@Z$1:

; 2220 : 			_CATCH_ALL
; 2221 : 			_Tidy(true);	// failed again, discard storage and reraise

	push	0
	push	1
	mov	ecx, DWORD PTR _this$[ebp]
	call	?_Tidy@?$basic_string@DU?$char_traits@D@std@@V?$allocator@D@2@@std@@QAEX_NI@Z ; std::basic_string<char,std::char_traits<char>,std::allocator<char> >::_Tidy

; 2222 : 			_RERAISE;

	push	0
	push	0
	call	__CxxThrowException@8

; 2223 : 			_CATCH_END

	mov	eax, $LN17@Copy
	ret	0
$LN14@Copy:
	mov	DWORD PTR __$EHRec$[ebp+12], 1
	jmp	SHORT __tryend$?_Copy@?$basic_string@DU?$char_traits@D@std@@V?$allocator@D@2@@std@@QAEXII@Z$2
$LN17@Copy:
	mov	DWORD PTR __$EHRec$[ebp+12], 1
__tryend$?_Copy@?$basic_string@DU?$char_traits@D@std@@V?$allocator@D@2@@std@@QAEXII@Z$2:

; 2224 : 		_CATCH_END

	mov	eax, $LN19@Copy
	ret	0
$LN12@Copy:
	mov	DWORD PTR __$EHRec$[ebp+12], -1
	jmp	SHORT __tryend$?_Copy@?$basic_string@DU?$char_traits@D@std@@V?$allocator@D@2@@std@@QAEXII@Z$3
$LN19@Copy:
	mov	DWORD PTR __$EHRec$[ebp+12], -1
__tryend$?_Copy@?$basic_string@DU?$char_traits@D@std@@V?$allocator@D@2@@std@@QAEXII@Z$3:

; 2225 : 
; 2226 : 		if (0 < _Oldlen)

	cmp	DWORD PTR __Oldlen$[ebp], 0
	jbe	SHORT $LN1@Copy

; 2227 : 			_Traits::copy(_Ptr, this->_Myptr(),
; 2228 : 				_Oldlen);	// copy existing elements

	mov	eax, DWORD PTR __Oldlen$[ebp]
	push	eax
	mov	ecx, DWORD PTR _this$[ebp]
	call	?_Myptr@?$_String_val@U?$_Simple_types@D@std@@@std@@QAEPADXZ ; std::_String_val<std::_Simple_types<char> >::_Myptr
	push	eax
	mov	ecx, DWORD PTR __Ptr$[ebp]
	push	ecx
	call	?copy@?$char_traits@D@std@@SAPADPADPBDI@Z ; std::char_traits<char>::copy
	add	esp, 12					; 0000000cH
$LN1@Copy:

; 2229 : 		_Tidy(true);

	push	0
	push	1
	mov	ecx, DWORD PTR _this$[ebp]
	call	?_Tidy@?$basic_string@DU?$char_traits@D@std@@V?$allocator@D@2@@std@@QAEX_NI@Z ; std::basic_string<char,std::char_traits<char>,std::allocator<char> >::_Tidy

; 2230 : 		this->_Getal().construct(&this->_Bx._Ptr, _Ptr);

	lea	edx, DWORD PTR __Ptr$[ebp]
	push	edx
	mov	eax, DWORD PTR _this$[ebp]
	add	eax, 4
	push	eax
	lea	ecx, DWORD PTR $T2[ebp]
	push	ecx
	mov	ecx, DWORD PTR _this$[ebp]
	call	?_Getal@?$_String_alloc@$0A@U?$_String_base_types@DV?$allocator@D@std@@@std@@@std@@QBE?AU?$_Wrap_alloc@V?$allocator@D@std@@@2@XZ ; std::_String_alloc<0,std::_String_base_types<char,std::allocator<char> > >::_Getal
	mov	ecx, eax
	call	??$construct@PADAAPAD@?$_Wrap_alloc@V?$allocator@D@std@@@std@@QAEXPAPADAAPAD@Z ; std::_Wrap_alloc<std::allocator<char> >::construct<char *,char * &>

; 2231 : 		this->_Myres = _Newres;

	mov	edx, DWORD PTR _this$[ebp]
	mov	eax, DWORD PTR __Newres$[ebp]
	mov	DWORD PTR [edx+24], eax

; 2232 : 		_Eos(_Oldlen);

	mov	ecx, DWORD PTR __Oldlen$[ebp]
	push	ecx
	mov	ecx, DWORD PTR _this$[ebp]
	call	?_Eos@?$basic_string@DU?$char_traits@D@std@@V?$allocator@D@2@@std@@QAEXI@Z ; std::basic_string<char,std::char_traits<char>,std::allocator<char> >::_Eos
$LN11@Copy:

; 2233 : 		}

	push	edx
	mov	ecx, ebp
	push	eax
	lea	edx, DWORD PTR $LN23@Copy
	call	@_RTC_CheckStackVars@8
	pop	eax
	pop	edx
	mov	ecx, DWORD PTR __$EHRec$[ebp+4]
	mov	DWORD PTR fs:0, ecx
	pop	ecx
	pop	edi
	pop	esi
	pop	ebx
	add	esp, 56					; 00000038H
	cmp	ebp, esp
	call	__RTC_CheckEsp
	mov	esp, ebp
	pop	ebp
	ret	8
$LN23@Copy:
	DD	1
	DD	$LN22@Copy
$LN22@Copy:
	DD	-32					; ffffffe0H
	DD	4
	DD	$LN20@Copy
$LN20@Copy:
	DB	95					; 0000005fH
	DB	80					; 00000050H
	DB	116					; 00000074H
	DB	114					; 00000072H
	DB	0
_TEXT	ENDS
;	COMDAT text$x
text$x	SEGMENT
__ehhandler$?_Copy@?$basic_string@DU?$char_traits@D@std@@V?$allocator@D@2@@std@@QAEXII@Z:
	mov	edx, DWORD PTR [esp+8]
	lea	eax, DWORD PTR [edx+12]
	mov	ecx, DWORD PTR [edx-60]
	xor	ecx, eax
	call	@__security_check_cookie@4
	mov	eax, OFFSET __ehfuncinfo$?_Copy@?$basic_string@DU?$char_traits@D@std@@V?$allocator@D@2@@std@@QAEXII@Z
	jmp	___CxxFrameHandler3
text$x	ENDS
?_Copy@?$basic_string@DU?$char_traits@D@std@@V?$allocator@D@2@@std@@QAEXII@Z ENDP ; std::basic_string<char,std::char_traits<char>,std::allocator<char> >::_Copy
; Function compile flags: /Odtp /RTCsu
; File c:\program files (x86)\microsoft visual studio 12.0\vc\include\xstring
;	COMDAT ?max_size@?$basic_string@DU?$char_traits@D@std@@V?$allocator@D@2@@std@@QBEIXZ
_TEXT	SEGMENT
tv75 = -16						; size = 4
$T1 = -9						; size = 1
__Num$ = -8						; size = 4
_this$ = -4						; size = 4
?max_size@?$basic_string@DU?$char_traits@D@std@@V?$allocator@D@2@@std@@QBEIXZ PROC ; std::basic_string<char,std::char_traits<char>,std::allocator<char> >::max_size, COMDAT
; _this$ = ecx

; 1758 : 		{	// return maximum possible length of sequence

	push	ebp
	mov	ebp, esp
	sub	esp, 16					; 00000010H
	mov	eax, -858993460				; ccccccccH
	mov	DWORD PTR [ebp-16], eax
	mov	DWORD PTR [ebp-12], eax
	mov	DWORD PTR [ebp-8], eax
	mov	DWORD PTR [ebp-4], eax
	mov	DWORD PTR _this$[ebp], ecx

; 1759 : 		size_type _Num = this->_Getal().max_size();

	lea	eax, DWORD PTR $T1[ebp]
	push	eax
	mov	ecx, DWORD PTR _this$[ebp]
	call	?_Getal@?$_String_alloc@$0A@U?$_String_base_types@DV?$allocator@D@std@@@std@@@std@@QBE?AU?$_Wrap_alloc@V?$allocator@D@std@@@2@XZ ; std::_String_alloc<0,std::_String_base_types<char,std::allocator<char> > >::_Getal
	mov	ecx, eax
	call	?max_size@?$_Wrap_alloc@V?$allocator@D@std@@@std@@QBEIXZ ; std::_Wrap_alloc<std::allocator<char> >::max_size
	mov	DWORD PTR __Num$[ebp], eax

; 1760 : 		return (_Num <= 1 ? 1 : _Num - 1);

	cmp	DWORD PTR __Num$[ebp], 1
	ja	SHORT $LN3@max_size
	mov	DWORD PTR tv75[ebp], 1
	jmp	SHORT $LN4@max_size
$LN3@max_size:
	mov	ecx, DWORD PTR __Num$[ebp]
	sub	ecx, 1
	mov	DWORD PTR tv75[ebp], ecx
$LN4@max_size:
	mov	eax, DWORD PTR tv75[ebp]

; 1761 : 		}

	add	esp, 16					; 00000010H
	cmp	ebp, esp
	call	__RTC_CheckEsp
	mov	esp, ebp
	pop	ebp
	ret	0
?max_size@?$basic_string@DU?$char_traits@D@std@@V?$allocator@D@2@@std@@QBEIXZ ENDP ; std::basic_string<char,std::char_traits<char>,std::allocator<char> >::max_size
_TEXT	ENDS
; Function compile flags: /Odtp /RTCsu
; File c:\program files (x86)\microsoft visual studio 12.0\vc\include\xstring
;	COMDAT ?size@?$basic_string@DU?$char_traits@D@std@@V?$allocator@D@2@@std@@QBEIXZ
_TEXT	SEGMENT
_this$ = -4						; size = 4
?size@?$basic_string@DU?$char_traits@D@std@@V?$allocator@D@2@@std@@QBEIXZ PROC ; std::basic_string<char,std::char_traits<char>,std::allocator<char> >::size, COMDAT
; _this$ = ecx

; 1753 : 		{	// return length of sequence

	push	ebp
	mov	ebp, esp
	push	ecx
	mov	DWORD PTR [ebp-4], -858993460		; ccccccccH
	mov	DWORD PTR _this$[ebp], ecx

; 1754 : 		return (this->_Mysize);

	mov	eax, DWORD PTR _this$[ebp]
	mov	eax, DWORD PTR [eax+20]

; 1755 : 		}

	mov	esp, ebp
	pop	ebp
	ret	0
?size@?$basic_string@DU?$char_traits@D@std@@V?$allocator@D@2@@std@@QBEIXZ ENDP ; std::basic_string<char,std::char_traits<char>,std::allocator<char> >::size
_TEXT	ENDS
; Function compile flags: /Odtp /RTCsu
; File c:\program files (x86)\microsoft visual studio 12.0\vc\include\xstring
;	COMDAT ?erase@?$basic_string@DU?$char_traits@D@std@@V?$allocator@D@2@@std@@QAEAAV12@II@Z
_TEXT	SEGMENT
__Newsize$1 = -12					; size = 4
__Ptr$2 = -8						; size = 4
_this$ = -4						; size = 4
__Off$ = 8						; size = 4
__Count$ = 12						; size = 4
?erase@?$basic_string@DU?$char_traits@D@std@@V?$allocator@D@2@@std@@QAEAAV12@II@Z PROC ; std::basic_string<char,std::char_traits<char>,std::allocator<char> >::erase, COMDAT
; _this$ = ecx

; 1342 : 		{	// erase elements [_Off, _Off + _Count)

	push	ebp
	mov	ebp, esp
	sub	esp, 12					; 0000000cH
	mov	DWORD PTR [ebp-12], -858993460		; ccccccccH
	mov	DWORD PTR [ebp-8], -858993460		; ccccccccH
	mov	DWORD PTR [ebp-4], -858993460		; ccccccccH
	mov	DWORD PTR _this$[ebp], ecx

; 1343 : 		if (this->_Mysize < _Off)

	mov	eax, DWORD PTR _this$[ebp]
	mov	ecx, DWORD PTR [eax+20]
	cmp	ecx, DWORD PTR __Off$[ebp]
	jae	SHORT $LN4@erase

; 1344 : 			_Xran();	// _Off off end

	mov	ecx, DWORD PTR _this$[ebp]
	call	?_Xran@?$basic_string@DU?$char_traits@D@std@@V?$allocator@D@2@@std@@QBEXXZ ; std::basic_string<char,std::char_traits<char>,std::allocator<char> >::_Xran
$LN4@erase:

; 1345 : 		if (this->_Mysize - _Off <= _Count)

	mov	edx, DWORD PTR _this$[ebp]
	mov	eax, DWORD PTR [edx+20]
	sub	eax, DWORD PTR __Off$[ebp]
	cmp	eax, DWORD PTR __Count$[ebp]
	ja	SHORT $LN3@erase

; 1346 : 			_Eos(_Off);	// erase elements [_Off, ...)

	mov	ecx, DWORD PTR __Off$[ebp]
	push	ecx
	mov	ecx, DWORD PTR _this$[ebp]
	call	?_Eos@?$basic_string@DU?$char_traits@D@std@@V?$allocator@D@2@@std@@QAEXI@Z ; std::basic_string<char,std::char_traits<char>,std::allocator<char> >::_Eos
	jmp	SHORT $LN2@erase
$LN3@erase:

; 1347 : 		else if (0 < _Count)

	cmp	DWORD PTR __Count$[ebp], 0
	jbe	SHORT $LN2@erase

; 1348 : 			{	// move elements down
; 1349 : 			value_type *_Ptr = this->_Myptr() + _Off;

	mov	ecx, DWORD PTR _this$[ebp]
	call	?_Myptr@?$_String_val@U?$_Simple_types@D@std@@@std@@QAEPADXZ ; std::_String_val<std::_Simple_types<char> >::_Myptr
	add	eax, DWORD PTR __Off$[ebp]
	mov	DWORD PTR __Ptr$2[ebp], eax

; 1350 : 			size_type _Newsize = this->_Mysize - _Count;

	mov	edx, DWORD PTR _this$[ebp]
	mov	eax, DWORD PTR [edx+20]
	sub	eax, DWORD PTR __Count$[ebp]
	mov	DWORD PTR __Newsize$1[ebp], eax

; 1351 : 			_Traits::move(_Ptr, _Ptr + _Count, _Newsize - _Off);

	mov	ecx, DWORD PTR __Newsize$1[ebp]
	sub	ecx, DWORD PTR __Off$[ebp]
	push	ecx
	mov	edx, DWORD PTR __Ptr$2[ebp]
	add	edx, DWORD PTR __Count$[ebp]
	push	edx
	mov	eax, DWORD PTR __Ptr$2[ebp]
	push	eax
	call	?move@?$char_traits@D@std@@SAPADPADPBDI@Z ; std::char_traits<char>::move
	add	esp, 12					; 0000000cH

; 1352 : 			_Eos(_Newsize);

	mov	ecx, DWORD PTR __Newsize$1[ebp]
	push	ecx
	mov	ecx, DWORD PTR _this$[ebp]
	call	?_Eos@?$basic_string@DU?$char_traits@D@std@@V?$allocator@D@2@@std@@QAEXI@Z ; std::basic_string<char,std::char_traits<char>,std::allocator<char> >::_Eos
$LN2@erase:

; 1353 : 			}
; 1354 : 		return (*this);

	mov	eax, DWORD PTR _this$[ebp]
$LN6@erase:

; 1355 : 		}

	add	esp, 12					; 0000000cH
	cmp	ebp, esp
	call	__RTC_CheckEsp
	mov	esp, ebp
	pop	ebp
	ret	8
?erase@?$basic_string@DU?$char_traits@D@std@@V?$allocator@D@2@@std@@QAEAAV12@II@Z ENDP ; std::basic_string<char,std::char_traits<char>,std::allocator<char> >::erase
_TEXT	ENDS
; Function compile flags: /Odtp /RTCsu
; File c:\program files (x86)\microsoft visual studio 12.0\vc\include\xstring
;	COMDAT ?erase@?$basic_string@DU?$char_traits@D@std@@V?$allocator@D@2@@std@@QAEAAV12@I@Z
_TEXT	SEGMENT
_this$ = -4						; size = 4
__Off$ = 8						; size = 4
?erase@?$basic_string@DU?$char_traits@D@std@@V?$allocator@D@2@@std@@QAEAAV12@I@Z PROC ; std::basic_string<char,std::char_traits<char>,std::allocator<char> >::erase, COMDAT
; _this$ = ecx

; 1334 : 		{	// erase elements [_Off, ...)

	push	ebp
	mov	ebp, esp
	push	ecx
	mov	DWORD PTR [ebp-4], -858993460		; ccccccccH
	mov	DWORD PTR _this$[ebp], ecx

; 1335 : 		if (this->_Mysize < _Off)

	mov	eax, DWORD PTR _this$[ebp]
	mov	ecx, DWORD PTR [eax+20]
	cmp	ecx, DWORD PTR __Off$[ebp]
	jae	SHORT $LN1@erase

; 1336 : 			_Xran();	// _Off off end

	mov	ecx, DWORD PTR _this$[ebp]
	call	?_Xran@?$basic_string@DU?$char_traits@D@std@@V?$allocator@D@2@@std@@QBEXXZ ; std::basic_string<char,std::char_traits<char>,std::allocator<char> >::_Xran
$LN1@erase:

; 1337 : 		_Eos(_Off);

	mov	edx, DWORD PTR __Off$[ebp]
	push	edx
	mov	ecx, DWORD PTR _this$[ebp]
	call	?_Eos@?$basic_string@DU?$char_traits@D@std@@V?$allocator@D@2@@std@@QAEXI@Z ; std::basic_string<char,std::char_traits<char>,std::allocator<char> >::_Eos

; 1338 : 		return (*this);

	mov	eax, DWORD PTR _this$[ebp]
$LN3@erase:

; 1339 : 		}

	add	esp, 4
	cmp	ebp, esp
	call	__RTC_CheckEsp
	mov	esp, ebp
	pop	ebp
	ret	4
?erase@?$basic_string@DU?$char_traits@D@std@@V?$allocator@D@2@@std@@QAEAAV12@I@Z ENDP ; std::basic_string<char,std::char_traits<char>,std::allocator<char> >::erase
_TEXT	ENDS
; Function compile flags: /Odtp /RTCsu
; File c:\program files (x86)\microsoft visual studio 12.0\vc\include\xstring
;	COMDAT ?assign@?$basic_string@DU?$char_traits@D@std@@V?$allocator@D@2@@std@@QAEAAV12@PBD@Z
_TEXT	SEGMENT
_this$ = -4						; size = 4
__Ptr$ = 8						; size = 4
?assign@?$basic_string@DU?$char_traits@D@std@@V?$allocator@D@2@@std@@QAEAAV12@PBD@Z PROC ; std::basic_string<char,std::char_traits<char>,std::allocator<char> >::assign, COMDAT
; _this$ = ecx

; 1167 : 		{	// assign [_Ptr, <null>)

	push	ebp
	mov	ebp, esp
	push	ecx
	mov	DWORD PTR [ebp-4], -858993460		; ccccccccH
	mov	DWORD PTR _this$[ebp], ecx

; 1168 : 		_DEBUG_POINTER(_Ptr);

	push	1168					; 00000490H
	push	OFFSET ??_C@_1IO@FEAPGJBD@?$AAC?$AA?3?$AA?2?$AAP?$AAr?$AAo?$AAg?$AAr?$AAa?$AAm?$AA?5?$AAF?$AAi?$AAl?$AAe?$AAs?$AA?5?$AA?$CI?$AAx?$AA8?$AA6?$AA?$CJ?$AA?2?$AAM?$AAi?$AAc?$AAr?$AAo?$AAs?$AAo?$AAf?$AAt@
	mov	eax, DWORD PTR __Ptr$[ebp]
	push	eax
	call	??$_Debug_pointer@D@std@@YAXPBDPB_WI@Z	; std::_Debug_pointer<char>
	add	esp, 12					; 0000000cH

; 1169 : 		return (assign(_Ptr, _Traits::length(_Ptr)));

	mov	ecx, DWORD PTR __Ptr$[ebp]
	push	ecx
	call	?length@?$char_traits@D@std@@SAIPBD@Z	; std::char_traits<char>::length
	add	esp, 4
	push	eax
	mov	edx, DWORD PTR __Ptr$[ebp]
	push	edx
	mov	ecx, DWORD PTR _this$[ebp]
	call	?assign@?$basic_string@DU?$char_traits@D@std@@V?$allocator@D@2@@std@@QAEAAV12@PBDI@Z ; std::basic_string<char,std::char_traits<char>,std::allocator<char> >::assign

; 1170 : 		}

	add	esp, 4
	cmp	ebp, esp
	call	__RTC_CheckEsp
	mov	esp, ebp
	pop	ebp
	ret	4
?assign@?$basic_string@DU?$char_traits@D@std@@V?$allocator@D@2@@std@@QAEAAV12@PBD@Z ENDP ; std::basic_string<char,std::char_traits<char>,std::allocator<char> >::assign
_TEXT	ENDS
; Function compile flags: /Odtp /RTCsu
; File c:\program files (x86)\microsoft visual studio 12.0\vc\include\xstring
;	COMDAT ?assign@?$basic_string@DU?$char_traits@D@std@@V?$allocator@D@2@@std@@QAEAAV12@PBDI@Z
_TEXT	SEGMENT
_this$ = -4						; size = 4
__Ptr$ = 8						; size = 4
__Count$ = 12						; size = 4
?assign@?$basic_string@DU?$char_traits@D@std@@V?$allocator@D@2@@std@@QAEAAV12@PBDI@Z PROC ; std::basic_string<char,std::char_traits<char>,std::allocator<char> >::assign, COMDAT
; _this$ = ecx

; 1148 : 		{	// assign [_Ptr, _Ptr + _Count)

	push	ebp
	mov	ebp, esp
	push	ecx
	mov	DWORD PTR [ebp-4], -858993460		; ccccccccH
	mov	DWORD PTR _this$[ebp], ecx

; 1149 :  #if _ITERATOR_DEBUG_LEVEL == 2
; 1150 : 		if (_Count != 0)

	cmp	DWORD PTR __Count$[ebp], 0
	je	SHORT $LN3@assign

; 1151 : 			_DEBUG_POINTER(_Ptr);

	push	1151					; 0000047fH
	push	OFFSET ??_C@_1IO@FEAPGJBD@?$AAC?$AA?3?$AA?2?$AAP?$AAr?$AAo?$AAg?$AAr?$AAa?$AAm?$AA?5?$AAF?$AAi?$AAl?$AAe?$AAs?$AA?5?$AA?$CI?$AAx?$AA8?$AA6?$AA?$CJ?$AA?2?$AAM?$AAi?$AAc?$AAr?$AAo?$AAs?$AAo?$AAf?$AAt@
	mov	eax, DWORD PTR __Ptr$[ebp]
	push	eax
	call	??$_Debug_pointer@D@std@@YAXPBDPB_WI@Z	; std::_Debug_pointer<char>
	add	esp, 12					; 0000000cH
$LN3@assign:

; 1152 :  #endif /* _ITERATOR_DEBUG_LEVEL == 2 */
; 1153 : 
; 1154 : 		if (_Inside(_Ptr))

	mov	ecx, DWORD PTR __Ptr$[ebp]
	push	ecx
	mov	ecx, DWORD PTR _this$[ebp]
	call	?_Inside@?$basic_string@DU?$char_traits@D@std@@V?$allocator@D@2@@std@@QAE_NPBD@Z ; std::basic_string<char,std::char_traits<char>,std::allocator<char> >::_Inside
	movzx	edx, al
	test	edx, edx
	je	SHORT $LN2@assign

; 1155 : 			return (assign(*this,
; 1156 : 				_Ptr - this->_Myptr(), _Count));	// substring

	mov	eax, DWORD PTR __Count$[ebp]
	push	eax
	mov	ecx, DWORD PTR _this$[ebp]
	call	?_Myptr@?$_String_val@U?$_Simple_types@D@std@@@std@@QAEPADXZ ; std::_String_val<std::_Simple_types<char> >::_Myptr
	mov	ecx, DWORD PTR __Ptr$[ebp]
	sub	ecx, eax
	push	ecx
	mov	edx, DWORD PTR _this$[ebp]
	push	edx
	mov	ecx, DWORD PTR _this$[ebp]
	call	?assign@?$basic_string@DU?$char_traits@D@std@@V?$allocator@D@2@@std@@QAEAAV12@ABV12@II@Z ; std::basic_string<char,std::char_traits<char>,std::allocator<char> >::assign
	jmp	SHORT $LN4@assign
$LN2@assign:

; 1157 : 
; 1158 : 		if (_Grow(_Count))

	push	0
	mov	eax, DWORD PTR __Count$[ebp]
	push	eax
	mov	ecx, DWORD PTR _this$[ebp]
	call	?_Grow@?$basic_string@DU?$char_traits@D@std@@V?$allocator@D@2@@std@@QAE_NI_N@Z ; std::basic_string<char,std::char_traits<char>,std::allocator<char> >::_Grow
	movzx	ecx, al
	test	ecx, ecx
	je	SHORT $LN1@assign

; 1159 : 			{	// make room and assign new stuff
; 1160 : 			_Traits::copy(this->_Myptr(), _Ptr, _Count);

	mov	edx, DWORD PTR __Count$[ebp]
	push	edx
	mov	eax, DWORD PTR __Ptr$[ebp]
	push	eax
	mov	ecx, DWORD PTR _this$[ebp]
	call	?_Myptr@?$_String_val@U?$_Simple_types@D@std@@@std@@QAEPADXZ ; std::_String_val<std::_Simple_types<char> >::_Myptr
	push	eax
	call	?copy@?$char_traits@D@std@@SAPADPADPBDI@Z ; std::char_traits<char>::copy
	add	esp, 12					; 0000000cH

; 1161 : 			_Eos(_Count);

	mov	ecx, DWORD PTR __Count$[ebp]
	push	ecx
	mov	ecx, DWORD PTR _this$[ebp]
	call	?_Eos@?$basic_string@DU?$char_traits@D@std@@V?$allocator@D@2@@std@@QAEXI@Z ; std::basic_string<char,std::char_traits<char>,std::allocator<char> >::_Eos
$LN1@assign:

; 1162 : 			}
; 1163 : 		return (*this);

	mov	eax, DWORD PTR _this$[ebp]
$LN4@assign:

; 1164 : 		}

	add	esp, 4
	cmp	ebp, esp
	call	__RTC_CheckEsp
	mov	esp, ebp
	pop	ebp
	ret	8
?assign@?$basic_string@DU?$char_traits@D@std@@V?$allocator@D@2@@std@@QAEAAV12@PBDI@Z ENDP ; std::basic_string<char,std::char_traits<char>,std::allocator<char> >::assign
_TEXT	ENDS
; Function compile flags: /Odtp /RTCsu
; File c:\program files (x86)\microsoft visual studio 12.0\vc\include\xstring
;	COMDAT ?assign@?$basic_string@DU?$char_traits@D@std@@V?$allocator@D@2@@std@@QAEAAV12@ABV12@II@Z
_TEXT	SEGMENT
__Num$ = -8						; size = 4
_this$ = -4						; size = 4
__Right$ = 8						; size = 4
__Roff$ = 12						; size = 4
__Count$ = 16						; size = 4
?assign@?$basic_string@DU?$char_traits@D@std@@V?$allocator@D@2@@std@@QAEAAV12@ABV12@II@Z PROC ; std::basic_string<char,std::char_traits<char>,std::allocator<char> >::assign, COMDAT
; _this$ = ecx

; 1129 : 		{	// assign _Right [_Roff, _Roff + _Count)

	push	ebp
	mov	ebp, esp
	sub	esp, 8
	mov	DWORD PTR [ebp-8], -858993460		; ccccccccH
	mov	DWORD PTR [ebp-4], -858993460		; ccccccccH
	mov	DWORD PTR _this$[ebp], ecx

; 1130 : 		if (_Right.size() < _Roff)

	mov	ecx, DWORD PTR __Right$[ebp]
	call	?size@?$basic_string@DU?$char_traits@D@std@@V?$allocator@D@2@@std@@QBEIXZ ; std::basic_string<char,std::char_traits<char>,std::allocator<char> >::size
	cmp	eax, DWORD PTR __Roff$[ebp]
	jae	SHORT $LN5@assign

; 1131 : 			_Xran();	// _Roff off end

	mov	ecx, DWORD PTR _this$[ebp]
	call	?_Xran@?$basic_string@DU?$char_traits@D@std@@V?$allocator@D@2@@std@@QBEXXZ ; std::basic_string<char,std::char_traits<char>,std::allocator<char> >::_Xran
$LN5@assign:

; 1132 : 		size_type _Num = _Right.size() - _Roff;

	mov	ecx, DWORD PTR __Right$[ebp]
	call	?size@?$basic_string@DU?$char_traits@D@std@@V?$allocator@D@2@@std@@QBEIXZ ; std::basic_string<char,std::char_traits<char>,std::allocator<char> >::size
	sub	eax, DWORD PTR __Roff$[ebp]
	mov	DWORD PTR __Num$[ebp], eax

; 1133 : 		if (_Count < _Num)

	mov	eax, DWORD PTR __Count$[ebp]
	cmp	eax, DWORD PTR __Num$[ebp]
	jae	SHORT $LN4@assign

; 1134 : 			_Num = _Count;	// trim _Num to size

	mov	ecx, DWORD PTR __Count$[ebp]
	mov	DWORD PTR __Num$[ebp], ecx
$LN4@assign:

; 1135 : 
; 1136 : 		if (this == &_Right)

	mov	edx, DWORD PTR _this$[ebp]
	cmp	edx, DWORD PTR __Right$[ebp]
	jne	SHORT $LN3@assign

; 1137 : 			erase((size_type)(_Roff + _Num)), erase(0, _Roff);	// substring

	mov	eax, DWORD PTR __Roff$[ebp]
	add	eax, DWORD PTR __Num$[ebp]
	push	eax
	mov	ecx, DWORD PTR _this$[ebp]
	call	?erase@?$basic_string@DU?$char_traits@D@std@@V?$allocator@D@2@@std@@QAEAAV12@I@Z ; std::basic_string<char,std::char_traits<char>,std::allocator<char> >::erase
	mov	ecx, DWORD PTR __Roff$[ebp]
	push	ecx
	push	0
	mov	ecx, DWORD PTR _this$[ebp]
	call	?erase@?$basic_string@DU?$char_traits@D@std@@V?$allocator@D@2@@std@@QAEAAV12@II@Z ; std::basic_string<char,std::char_traits<char>,std::allocator<char> >::erase
	jmp	SHORT $LN2@assign
$LN3@assign:

; 1138 : 		else if (_Grow(_Num))

	push	0
	mov	edx, DWORD PTR __Num$[ebp]
	push	edx
	mov	ecx, DWORD PTR _this$[ebp]
	call	?_Grow@?$basic_string@DU?$char_traits@D@std@@V?$allocator@D@2@@std@@QAE_NI_N@Z ; std::basic_string<char,std::char_traits<char>,std::allocator<char> >::_Grow
	movzx	eax, al
	test	eax, eax
	je	SHORT $LN2@assign

; 1139 : 			{	// make room and assign new stuff
; 1140 : 			_Traits::copy(this->_Myptr(),
; 1141 : 				_Right._Myptr() + _Roff, _Num);

	mov	ecx, DWORD PTR __Num$[ebp]
	push	ecx
	mov	ecx, DWORD PTR __Right$[ebp]
	call	?_Myptr@?$_String_val@U?$_Simple_types@D@std@@@std@@QBEPBDXZ ; std::_String_val<std::_Simple_types<char> >::_Myptr
	add	eax, DWORD PTR __Roff$[ebp]
	push	eax
	mov	ecx, DWORD PTR _this$[ebp]
	call	?_Myptr@?$_String_val@U?$_Simple_types@D@std@@@std@@QAEPADXZ ; std::_String_val<std::_Simple_types<char> >::_Myptr
	push	eax
	call	?copy@?$char_traits@D@std@@SAPADPADPBDI@Z ; std::char_traits<char>::copy
	add	esp, 12					; 0000000cH

; 1142 : 			_Eos(_Num);

	mov	edx, DWORD PTR __Num$[ebp]
	push	edx
	mov	ecx, DWORD PTR _this$[ebp]
	call	?_Eos@?$basic_string@DU?$char_traits@D@std@@V?$allocator@D@2@@std@@QAEXI@Z ; std::basic_string<char,std::char_traits<char>,std::allocator<char> >::_Eos
$LN2@assign:

; 1143 : 			}
; 1144 : 		return (*this);

	mov	eax, DWORD PTR _this$[ebp]
$LN7@assign:

; 1145 : 		}

	add	esp, 8
	cmp	ebp, esp
	call	__RTC_CheckEsp
	mov	esp, ebp
	pop	ebp
	ret	12					; 0000000cH
?assign@?$basic_string@DU?$char_traits@D@std@@V?$allocator@D@2@@std@@QAEAAV12@ABV12@II@Z ENDP ; std::basic_string<char,std::char_traits<char>,std::allocator<char> >::assign
_TEXT	ENDS
; Function compile flags: /Odtp /RTCsu
; File c:\program files (x86)\microsoft visual studio 12.0\vc\include\xstring
;	COMDAT ??0?$basic_string@DU?$char_traits@D@std@@V?$allocator@D@2@@std@@QAE@PBD@Z
_TEXT	SEGMENT
$T2 = -17						; size = 1
_this$ = -16						; size = 4
__$EHRec$ = -12						; size = 12
__Ptr$ = 8						; size = 4
??0?$basic_string@DU?$char_traits@D@std@@V?$allocator@D@2@@std@@QAE@PBD@Z PROC ; std::basic_string<char,std::char_traits<char>,std::allocator<char> >::basic_string<char,std::char_traits<char>,std::allocator<char> >, COMDAT
; _this$ = ecx

; 780  : 		{	// construct from [_Ptr, <null>)

	push	ebp
	mov	ebp, esp
	push	-1
	push	__ehhandler$??0?$basic_string@DU?$char_traits@D@std@@V?$allocator@D@2@@std@@QAE@PBD@Z
	mov	eax, DWORD PTR fs:0
	push	eax
	sub	esp, 8
	mov	DWORD PTR [ebp-20], -858993460		; ccccccccH
	mov	DWORD PTR [ebp-16], -858993460		; ccccccccH
	mov	eax, DWORD PTR ___security_cookie
	xor	eax, ebp
	push	eax
	lea	eax, DWORD PTR __$EHRec$[ebp]
	mov	DWORD PTR fs:0, eax
	mov	DWORD PTR _this$[ebp], ecx
	lea	ecx, DWORD PTR $T2[ebp]
	call	??0?$allocator@D@std@@QAE@XZ		; std::allocator<char>::allocator<char>
	push	eax
	mov	ecx, DWORD PTR _this$[ebp]
	call	??0?$_String_alloc@$0A@U?$_String_base_types@DV?$allocator@D@std@@@std@@@std@@QAE@ABV?$allocator@D@1@@Z ; std::_String_alloc<0,std::_String_base_types<char,std::allocator<char> > >::_String_alloc<0,std::_String_base_types<char,std::allocator<char> > >
	mov	DWORD PTR __$EHRec$[ebp+8], 0

; 781  : 		_Tidy();

	push	0
	push	0
	mov	ecx, DWORD PTR _this$[ebp]
	call	?_Tidy@?$basic_string@DU?$char_traits@D@std@@V?$allocator@D@2@@std@@QAEX_NI@Z ; std::basic_string<char,std::char_traits<char>,std::allocator<char> >::_Tidy

; 782  : 		assign(_Ptr);

	mov	eax, DWORD PTR __Ptr$[ebp]
	push	eax
	mov	ecx, DWORD PTR _this$[ebp]
	call	?assign@?$basic_string@DU?$char_traits@D@std@@V?$allocator@D@2@@std@@QAEAAV12@PBD@Z ; std::basic_string<char,std::char_traits<char>,std::allocator<char> >::assign

; 783  : 		}

	mov	DWORD PTR __$EHRec$[ebp+8], -1
	mov	eax, DWORD PTR _this$[ebp]
	mov	ecx, DWORD PTR __$EHRec$[ebp]
	mov	DWORD PTR fs:0, ecx
	pop	ecx
	add	esp, 20					; 00000014H
	cmp	ebp, esp
	call	__RTC_CheckEsp
	mov	esp, ebp
	pop	ebp
	ret	4
_TEXT	ENDS
;	COMDAT text$x
text$x	SEGMENT
__unwindfunclet$??0?$basic_string@DU?$char_traits@D@std@@V?$allocator@D@2@@std@@QAE@PBD@Z$0:
	mov	ecx, DWORD PTR _this$[ebp]
	jmp	??1?$_String_alloc@$0A@U?$_String_base_types@DV?$allocator@D@std@@@std@@@std@@QAE@XZ ; std::_String_alloc<0,std::_String_base_types<char,std::allocator<char> > >::~_String_alloc<0,std::_String_base_types<char,std::allocator<char> > >
__ehhandler$??0?$basic_string@DU?$char_traits@D@std@@V?$allocator@D@2@@std@@QAE@PBD@Z:
	mov	edx, DWORD PTR [esp+8]
	lea	eax, DWORD PTR [edx+12]
	mov	ecx, DWORD PTR [edx-12]
	xor	ecx, eax
	call	@__security_check_cookie@4
	mov	eax, OFFSET __ehfuncinfo$??0?$basic_string@DU?$char_traits@D@std@@V?$allocator@D@2@@std@@QAE@PBD@Z
	jmp	___CxxFrameHandler3
text$x	ENDS
??0?$basic_string@DU?$char_traits@D@std@@V?$allocator@D@2@@std@@QAE@PBD@Z ENDP ; std::basic_string<char,std::char_traits<char>,std::allocator<char> >::basic_string<char,std::char_traits<char>,std::allocator<char> >
; Function compile flags: /Odtp /RTCsu
; File c:\program files (x86)\microsoft visual studio 12.0\vc\include\xstring
;	COMDAT ?_Getal@?$_String_alloc@$0A@U?$_String_base_types@DV?$allocator@D@std@@@std@@@std@@QBE?AU?$_Wrap_alloc@V?$allocator@D@std@@@2@XZ
_TEXT	SEGMENT
_this$ = -4						; size = 4
___$ReturnUdt$ = 8					; size = 4
?_Getal@?$_String_alloc@$0A@U?$_String_base_types@DV?$allocator@D@std@@@std@@@std@@QBE?AU?$_Wrap_alloc@V?$allocator@D@std@@@2@XZ PROC ; std::_String_alloc<0,std::_String_base_types<char,std::allocator<char> > >::_Getal, COMDAT
; _this$ = ecx

; 683  : 		{	// get reference to allocator

	push	ebp
	mov	ebp, esp
	push	ecx
	mov	DWORD PTR [ebp-4], -858993460		; ccccccccH
	mov	DWORD PTR _this$[ebp], ecx

; 684  : 		return (_Alty());

	mov	ecx, DWORD PTR ___$ReturnUdt$[ebp]
	call	??0?$_Wrap_alloc@V?$allocator@D@std@@@std@@QAE@XZ ; std::_Wrap_alloc<std::allocator<char> >::_Wrap_alloc<std::allocator<char> >
	mov	eax, DWORD PTR ___$ReturnUdt$[ebp]

; 685  : 		}

	add	esp, 4
	cmp	ebp, esp
	call	__RTC_CheckEsp
	mov	esp, ebp
	pop	ebp
	ret	4
?_Getal@?$_String_alloc@$0A@U?$_String_base_types@DV?$allocator@D@std@@@std@@@std@@QBE?AU?$_Wrap_alloc@V?$allocator@D@std@@@2@XZ ENDP ; std::_String_alloc<0,std::_String_base_types<char,std::allocator<char> > >::_Getal
_TEXT	ENDS
; Function compile flags: /Odtp /RTCsu
; File c:\program files (x86)\microsoft visual studio 12.0\vc\include\xstring
;	COMDAT ?_Free_proxy@?$_String_alloc@$0A@U?$_String_base_types@DV?$allocator@D@std@@@std@@@std@@QAEXXZ
_TEXT	SEGMENT
__Alproxy$ = -9						; size = 1
_this$ = -4						; size = 4
?_Free_proxy@?$_String_alloc@$0A@U?$_String_base_types@DV?$allocator@D@std@@@std@@@std@@QAEXXZ PROC ; std::_String_alloc<0,std::_String_base_types<char,std::allocator<char> > >::_Free_proxy, COMDAT
; _this$ = ecx

; 672  : 		{	// destroy proxy

	push	ebp
	mov	ebp, esp
	sub	esp, 16					; 00000010H
	mov	eax, -858993460				; ccccccccH
	mov	DWORD PTR [ebp-16], eax
	mov	DWORD PTR [ebp-12], eax
	mov	DWORD PTR [ebp-8], eax
	mov	DWORD PTR [ebp-4], eax
	mov	DWORD PTR _this$[ebp], ecx

; 673  : 		typename _Alloc::template rebind<_Container_proxy>::other
; 674  : 			_Alproxy;

	lea	ecx, DWORD PTR __Alproxy$[ebp]
	call	??0?$allocator@U_Container_proxy@std@@@std@@QAE@XZ ; std::allocator<std::_Container_proxy>::allocator<std::_Container_proxy>

; 675  : 		this->_Orphan_all();

	mov	ecx, DWORD PTR _this$[ebp]
	call	?_Orphan_all@_Container_base12@std@@QAEXXZ ; std::_Container_base12::_Orphan_all

; 676  : 		_Alproxy.destroy(this->_Myproxy);

	mov	eax, DWORD PTR _this$[ebp]
	mov	ecx, DWORD PTR [eax]
	push	ecx
	lea	ecx, DWORD PTR __Alproxy$[ebp]
	call	??$destroy@U_Container_proxy@std@@@?$allocator@U_Container_proxy@std@@@std@@QAEXPAU_Container_proxy@1@@Z ; std::allocator<std::_Container_proxy>::destroy<std::_Container_proxy>

; 677  : 		_Alproxy.deallocate(this->_Myproxy, 1);

	push	1
	mov	edx, DWORD PTR _this$[ebp]
	mov	eax, DWORD PTR [edx]
	push	eax
	lea	ecx, DWORD PTR __Alproxy$[ebp]
	call	?deallocate@?$allocator@U_Container_proxy@std@@@std@@QAEXPAU_Container_proxy@2@I@Z ; std::allocator<std::_Container_proxy>::deallocate

; 678  : 		this->_Myproxy = 0;

	mov	ecx, DWORD PTR _this$[ebp]
	mov	DWORD PTR [ecx], 0

; 679  : 		}

	push	edx
	mov	ecx, ebp
	push	eax
	lea	edx, DWORD PTR $LN5@Free_proxy
	call	@_RTC_CheckStackVars@8
	pop	eax
	pop	edx
	add	esp, 16					; 00000010H
	cmp	ebp, esp
	call	__RTC_CheckEsp
	mov	esp, ebp
	pop	ebp
	ret	0
$LN5@Free_proxy:
	DD	1
	DD	$LN4@Free_proxy
$LN4@Free_proxy:
	DD	-9					; fffffff7H
	DD	1
	DD	$LN3@Free_proxy
$LN3@Free_proxy:
	DB	95					; 0000005fH
	DB	65					; 00000041H
	DB	108					; 0000006cH
	DB	112					; 00000070H
	DB	114					; 00000072H
	DB	111					; 0000006fH
	DB	120					; 00000078H
	DB	121					; 00000079H
	DB	0
?_Free_proxy@?$_String_alloc@$0A@U?$_String_base_types@DV?$allocator@D@std@@@std@@@std@@QAEXXZ ENDP ; std::_String_alloc<0,std::_String_base_types<char,std::allocator<char> > >::_Free_proxy
_TEXT	ENDS
; Function compile flags: /Odtp /RTCsu
; File c:\program files (x86)\microsoft visual studio 12.0\vc\include\xstring
;	COMDAT ?_Alloc_proxy@?$_String_alloc@$0A@U?$_String_base_types@DV?$allocator@D@std@@@std@@@std@@QAEXXZ
_TEXT	SEGMENT
$T1 = -24						; size = 8
__Alproxy$ = -9						; size = 1
_this$ = -4						; size = 4
?_Alloc_proxy@?$_String_alloc@$0A@U?$_String_base_types@DV?$allocator@D@std@@@std@@@std@@QAEXXZ PROC ; std::_String_alloc<0,std::_String_base_types<char,std::allocator<char> > >::_Alloc_proxy, COMDAT
; _this$ = ecx

; 663  : 		{	// construct proxy from _Alval

	push	ebp
	mov	ebp, esp
	sub	esp, 24					; 00000018H
	mov	eax, -858993460				; ccccccccH
	mov	DWORD PTR [ebp-24], eax
	mov	DWORD PTR [ebp-20], eax
	mov	DWORD PTR [ebp-16], eax
	mov	DWORD PTR [ebp-12], eax
	mov	DWORD PTR [ebp-8], eax
	mov	DWORD PTR [ebp-4], eax
	mov	DWORD PTR _this$[ebp], ecx

; 664  : 		typename _Alloc::template rebind<_Container_proxy>::other
; 665  : 			_Alproxy;

	lea	ecx, DWORD PTR __Alproxy$[ebp]
	call	??0?$allocator@U_Container_proxy@std@@@std@@QAE@XZ ; std::allocator<std::_Container_proxy>::allocator<std::_Container_proxy>

; 666  : 		this->_Myproxy = _Alproxy.allocate(1);

	push	1
	lea	ecx, DWORD PTR __Alproxy$[ebp]
	call	?allocate@?$allocator@U_Container_proxy@std@@@std@@QAEPAU_Container_proxy@2@I@Z ; std::allocator<std::_Container_proxy>::allocate
	mov	ecx, DWORD PTR _this$[ebp]
	mov	DWORD PTR [ecx], eax

; 667  : 		_Alproxy.construct(this->_Myproxy, _Container_proxy());

	lea	ecx, DWORD PTR $T1[ebp]
	call	??0_Container_proxy@std@@QAE@XZ		; std::_Container_proxy::_Container_proxy
	push	eax
	mov	edx, DWORD PTR _this$[ebp]
	mov	eax, DWORD PTR [edx]
	push	eax
	lea	ecx, DWORD PTR __Alproxy$[ebp]
	call	??$construct@U_Container_proxy@std@@U12@@?$allocator@U_Container_proxy@std@@@std@@QAEXPAU_Container_proxy@1@$$QAU21@@Z ; std::allocator<std::_Container_proxy>::construct<std::_Container_proxy,std::_Container_proxy>

; 668  : 		this->_Myproxy->_Mycont = this;

	mov	ecx, DWORD PTR _this$[ebp]
	mov	edx, DWORD PTR [ecx]
	mov	eax, DWORD PTR _this$[ebp]
	mov	DWORD PTR [edx], eax

; 669  : 		}

	push	edx
	mov	ecx, ebp
	push	eax
	lea	edx, DWORD PTR $LN5@Alloc_prox
	call	@_RTC_CheckStackVars@8
	pop	eax
	pop	edx
	add	esp, 24					; 00000018H
	cmp	ebp, esp
	call	__RTC_CheckEsp
	mov	esp, ebp
	pop	ebp
	ret	0
	npad	1
$LN5@Alloc_prox:
	DD	1
	DD	$LN4@Alloc_prox
$LN4@Alloc_prox:
	DD	-9					; fffffff7H
	DD	1
	DD	$LN3@Alloc_prox
$LN3@Alloc_prox:
	DB	95					; 0000005fH
	DB	65					; 00000041H
	DB	108					; 0000006cH
	DB	112					; 00000070H
	DB	114					; 00000072H
	DB	111					; 0000006fH
	DB	120					; 00000078H
	DB	121					; 00000079H
	DB	0
?_Alloc_proxy@?$_String_alloc@$0A@U?$_String_base_types@DV?$allocator@D@std@@@std@@@std@@QAEXXZ ENDP ; std::_String_alloc<0,std::_String_base_types<char,std::allocator<char> > >::_Alloc_proxy
_TEXT	ENDS
; Function compile flags: /Odtp /RTCsu
; File c:\program files (x86)\microsoft visual studio 12.0\vc\include\xstring
;	COMDAT ??1?$_String_alloc@$0A@U?$_String_base_types@DV?$allocator@D@std@@@std@@@std@@QAE@XZ
_TEXT	SEGMENT
_this$ = -4						; size = 4
??1?$_String_alloc@$0A@U?$_String_base_types@DV?$allocator@D@std@@@std@@@std@@QAE@XZ PROC ; std::_String_alloc<0,std::_String_base_types<char,std::allocator<char> > >::~_String_alloc<0,std::_String_base_types<char,std::allocator<char> > >, COMDAT
; _this$ = ecx

; 649  : 		{	// destroy the object

	push	ebp
	mov	ebp, esp
	push	ecx
	mov	DWORD PTR [ebp-4], -858993460		; ccccccccH
	mov	DWORD PTR _this$[ebp], ecx

; 650  : 		_Free_proxy();

	mov	ecx, DWORD PTR _this$[ebp]
	call	?_Free_proxy@?$_String_alloc@$0A@U?$_String_base_types@DV?$allocator@D@std@@@std@@@std@@QAEXXZ ; std::_String_alloc<0,std::_String_base_types<char,std::allocator<char> > >::_Free_proxy

; 651  : 		}

	mov	ecx, DWORD PTR _this$[ebp]
	call	??1?$_String_val@U?$_Simple_types@D@std@@@std@@QAE@XZ
	add	esp, 4
	cmp	ebp, esp
	call	__RTC_CheckEsp
	mov	esp, ebp
	pop	ebp
	ret	0
??1?$_String_alloc@$0A@U?$_String_base_types@DV?$allocator@D@std@@@std@@@std@@QAE@XZ ENDP ; std::_String_alloc<0,std::_String_base_types<char,std::allocator<char> > >::~_String_alloc<0,std::_String_base_types<char,std::allocator<char> > >
_TEXT	ENDS
; Function compile flags: /Odtp /RTCsu
; File c:\program files (x86)\microsoft visual studio 12.0\vc\include\xstring
;	COMDAT ??0?$_String_alloc@$0A@U?$_String_base_types@DV?$allocator@D@std@@@std@@@std@@QAE@ABV?$allocator@D@1@@Z
_TEXT	SEGMENT
_this$ = -16						; size = 4
__$EHRec$ = -12						; size = 12
___formal$ = 8						; size = 4
??0?$_String_alloc@$0A@U?$_String_base_types@DV?$allocator@D@std@@@std@@@std@@QAE@ABV?$allocator@D@1@@Z PROC ; std::_String_alloc<0,std::_String_base_types<char,std::allocator<char> > >::_String_alloc<0,std::_String_base_types<char,std::allocator<char> > >, COMDAT
; _this$ = ecx

; 643  : 	_String_alloc(const _Alloc& = _Alloc())

	push	ebp
	mov	ebp, esp
	push	-1
	push	__ehhandler$??0?$_String_alloc@$0A@U?$_String_base_types@DV?$allocator@D@std@@@std@@@std@@QAE@ABV?$allocator@D@1@@Z
	mov	eax, DWORD PTR fs:0
	push	eax
	push	ecx
	mov	DWORD PTR [ebp-16], -858993460		; ccccccccH
	mov	eax, DWORD PTR ___security_cookie
	xor	eax, ebp
	push	eax
	lea	eax, DWORD PTR __$EHRec$[ebp]
	mov	DWORD PTR fs:0, eax
	mov	DWORD PTR _this$[ebp], ecx
	mov	ecx, DWORD PTR _this$[ebp]
	call	??0?$_String_val@U?$_Simple_types@D@std@@@std@@QAE@XZ ; std::_String_val<std::_Simple_types<char> >::_String_val<std::_Simple_types<char> >
	mov	DWORD PTR __$EHRec$[ebp+8], 0

; 644  : 		{	// construct allocator from _Al
; 645  : 		_Alloc_proxy();

	mov	ecx, DWORD PTR _this$[ebp]
	call	?_Alloc_proxy@?$_String_alloc@$0A@U?$_String_base_types@DV?$allocator@D@std@@@std@@@std@@QAEXXZ ; std::_String_alloc<0,std::_String_base_types<char,std::allocator<char> > >::_Alloc_proxy

; 646  : 		}

	mov	DWORD PTR __$EHRec$[ebp+8], -1
	mov	eax, DWORD PTR _this$[ebp]
	mov	ecx, DWORD PTR __$EHRec$[ebp]
	mov	DWORD PTR fs:0, ecx
	pop	ecx
	add	esp, 16					; 00000010H
	cmp	ebp, esp
	call	__RTC_CheckEsp
	mov	esp, ebp
	pop	ebp
	ret	4
_TEXT	ENDS
;	COMDAT text$x
text$x	SEGMENT
__unwindfunclet$??0?$_String_alloc@$0A@U?$_String_base_types@DV?$allocator@D@std@@@std@@@std@@QAE@ABV?$allocator@D@1@@Z$0:
	mov	ecx, DWORD PTR _this$[ebp]
	jmp	??1?$_String_val@U?$_Simple_types@D@std@@@std@@QAE@XZ
__ehhandler$??0?$_String_alloc@$0A@U?$_String_base_types@DV?$allocator@D@std@@@std@@@std@@QAE@ABV?$allocator@D@1@@Z:
	mov	edx, DWORD PTR [esp+8]
	lea	eax, DWORD PTR [edx+12]
	mov	ecx, DWORD PTR [edx-8]
	xor	ecx, eax
	call	@__security_check_cookie@4
	mov	eax, OFFSET __ehfuncinfo$??0?$_String_alloc@$0A@U?$_String_base_types@DV?$allocator@D@std@@@std@@@std@@QAE@ABV?$allocator@D@1@@Z
	jmp	___CxxFrameHandler3
text$x	ENDS
??0?$_String_alloc@$0A@U?$_String_base_types@DV?$allocator@D@std@@@std@@@std@@QAE@ABV?$allocator@D@1@@Z ENDP ; std::_String_alloc<0,std::_String_base_types<char,std::allocator<char> > >::_String_alloc<0,std::_String_base_types<char,std::allocator<char> > >
; Function compile flags: /Odtp /RTCsu
;	COMDAT ??1?$_String_val@U?$_Simple_types@D@std@@@std@@QAE@XZ
_TEXT	SEGMENT
_this$ = -4						; size = 4
??1?$_String_val@U?$_Simple_types@D@std@@@std@@QAE@XZ PROC ; std::_String_val<std::_Simple_types<char> >::~_String_val<std::_Simple_types<char> >, COMDAT
; _this$ = ecx
	push	ebp
	mov	ebp, esp
	push	ecx
	mov	DWORD PTR [ebp-4], -858993460		; ccccccccH
	mov	DWORD PTR _this$[ebp], ecx
	mov	ecx, DWORD PTR _this$[ebp]
	call	??1_Container_base12@std@@QAE@XZ	; std::_Container_base12::~_Container_base12
	add	esp, 4
	cmp	ebp, esp
	call	__RTC_CheckEsp
	mov	esp, ebp
	pop	ebp
	ret	0
??1?$_String_val@U?$_Simple_types@D@std@@@std@@QAE@XZ ENDP ; std::_String_val<std::_Simple_types<char> >::~_String_val<std::_Simple_types<char> >
_TEXT	ENDS
; Function compile flags: /Odtp /RTCsu
; File c:\program files (x86)\microsoft visual studio 12.0\vc\include\xstring
;	COMDAT ?_Myptr@?$_String_val@U?$_Simple_types@D@std@@@std@@QBEPBDXZ
_TEXT	SEGMENT
tv72 = -8						; size = 4
_this$ = -4						; size = 4
?_Myptr@?$_String_val@U?$_Simple_types@D@std@@@std@@QBEPBDXZ PROC ; std::_String_val<std::_Simple_types<char> >::_Myptr, COMDAT
; _this$ = ecx

; 517  : 		{	// determine current pointer to buffer for nonmutable string

	push	ebp
	mov	ebp, esp
	sub	esp, 8
	mov	DWORD PTR [ebp-8], -858993460		; ccccccccH
	mov	DWORD PTR [ebp-4], -858993460		; ccccccccH
	mov	DWORD PTR _this$[ebp], ecx

; 518  : 		return (this->_BUF_SIZE <= this->_Myres
; 519  : 			? _STD addressof(*this->_Bx._Ptr)
; 520  : 			: this->_Bx._Buf);

	mov	eax, DWORD PTR _this$[ebp]
	cmp	DWORD PTR [eax+24], 16			; 00000010H
	jb	SHORT $LN3@Myptr
	mov	ecx, DWORD PTR _this$[ebp]
	mov	edx, DWORD PTR [ecx+4]
	push	edx
	call	??$addressof@D@std@@YAPADAAD@Z		; std::addressof<char>
	add	esp, 4
	mov	DWORD PTR tv72[ebp], eax
	jmp	SHORT $LN4@Myptr
$LN3@Myptr:
	mov	eax, DWORD PTR _this$[ebp]
	add	eax, 4
	mov	DWORD PTR tv72[ebp], eax
$LN4@Myptr:
	mov	eax, DWORD PTR tv72[ebp]

; 521  : 		}

	add	esp, 8
	cmp	ebp, esp
	call	__RTC_CheckEsp
	mov	esp, ebp
	pop	ebp
	ret	0
?_Myptr@?$_String_val@U?$_Simple_types@D@std@@@std@@QBEPBDXZ ENDP ; std::_String_val<std::_Simple_types<char> >::_Myptr
_TEXT	ENDS
; Function compile flags: /Odtp /RTCsu
; File c:\program files (x86)\microsoft visual studio 12.0\vc\include\xstring
;	COMDAT ?_Myptr@?$_String_val@U?$_Simple_types@D@std@@@std@@QAEPADXZ
_TEXT	SEGMENT
tv72 = -8						; size = 4
_this$ = -4						; size = 4
?_Myptr@?$_String_val@U?$_Simple_types@D@std@@@std@@QAEPADXZ PROC ; std::_String_val<std::_Simple_types<char> >::_Myptr, COMDAT
; _this$ = ecx

; 510  : 		{	// determine current pointer to buffer for mutable string

	push	ebp
	mov	ebp, esp
	sub	esp, 8
	mov	DWORD PTR [ebp-8], -858993460		; ccccccccH
	mov	DWORD PTR [ebp-4], -858993460		; ccccccccH
	mov	DWORD PTR _this$[ebp], ecx

; 511  : 		return (this->_BUF_SIZE <= this->_Myres
; 512  : 			? _STD addressof(*this->_Bx._Ptr)
; 513  : 			: this->_Bx._Buf);

	mov	eax, DWORD PTR _this$[ebp]
	cmp	DWORD PTR [eax+24], 16			; 00000010H
	jb	SHORT $LN3@Myptr
	mov	ecx, DWORD PTR _this$[ebp]
	mov	edx, DWORD PTR [ecx+4]
	push	edx
	call	??$addressof@D@std@@YAPADAAD@Z		; std::addressof<char>
	add	esp, 4
	mov	DWORD PTR tv72[ebp], eax
	jmp	SHORT $LN4@Myptr
$LN3@Myptr:
	mov	eax, DWORD PTR _this$[ebp]
	add	eax, 4
	mov	DWORD PTR tv72[ebp], eax
$LN4@Myptr:
	mov	eax, DWORD PTR tv72[ebp]

; 514  : 		}

	add	esp, 8
	cmp	ebp, esp
	call	__RTC_CheckEsp
	mov	esp, ebp
	pop	ebp
	ret	0
?_Myptr@?$_String_val@U?$_Simple_types@D@std@@@std@@QAEPADXZ ENDP ; std::_String_val<std::_Simple_types<char> >::_Myptr
_TEXT	ENDS
; Function compile flags: /Odtp /RTCsu
; File c:\program files (x86)\microsoft visual studio 12.0\vc\include\xstring
;	COMDAT ??0?$_String_val@U?$_Simple_types@D@std@@@std@@QAE@XZ
_TEXT	SEGMENT
_this$ = -4						; size = 4
??0?$_String_val@U?$_Simple_types@D@std@@@std@@QAE@XZ PROC ; std::_String_val<std::_Simple_types<char> >::_String_val<std::_Simple_types<char> >, COMDAT
; _this$ = ecx

; 492  : 	_String_val()

	push	ebp
	mov	ebp, esp
	push	ecx
	mov	DWORD PTR [ebp-4], -858993460		; ccccccccH
	mov	DWORD PTR _this$[ebp], ecx
	mov	ecx, DWORD PTR _this$[ebp]
	call	??0_Container_base12@std@@QAE@XZ	; std::_Container_base12::_Container_base12

; 493  : 		{	// initialize values
; 494  : 		_Mysize = 0;

	mov	eax, DWORD PTR _this$[ebp]
	mov	DWORD PTR [eax+20], 0

; 495  : 		_Myres = 0;

	mov	ecx, DWORD PTR _this$[ebp]
	mov	DWORD PTR [ecx+24], 0

; 496  : 		}

	mov	eax, DWORD PTR _this$[ebp]
	add	esp, 4
	cmp	ebp, esp
	call	__RTC_CheckEsp
	mov	esp, ebp
	pop	ebp
	ret	0
??0?$_String_val@U?$_Simple_types@D@std@@@std@@QAE@XZ ENDP ; std::_String_val<std::_Simple_types<char> >::_String_val<std::_Simple_types<char> >
_TEXT	ENDS
; Function compile flags: /Odtp /RTCsu
; File c:\program files (x86)\microsoft visual studio 12.0\vc\include\xmemory0
;	COMDAT ?max_size@?$_Wrap_alloc@V?$allocator@D@std@@@std@@QBEIXZ
_TEXT	SEGMENT
_this$ = -4						; size = 4
?max_size@?$_Wrap_alloc@V?$allocator@D@std@@@std@@QBEIXZ PROC ; std::_Wrap_alloc<std::allocator<char> >::max_size, COMDAT
; _this$ = ecx

; 883  : 		{	// get maximum size

	push	ebp
	mov	ebp, esp
	push	ecx
	mov	DWORD PTR [ebp-4], -858993460		; ccccccccH
	mov	DWORD PTR _this$[ebp], ecx

; 884  : 		return (_Mytraits::max_size(*this));

	mov	eax, DWORD PTR _this$[ebp]
	push	eax
	call	?max_size@?$allocator_traits@V?$allocator@D@std@@@std@@SAIABV?$allocator@D@2@@Z ; std::allocator_traits<std::allocator<char> >::max_size
	add	esp, 4

; 885  : 		}

	add	esp, 4
	cmp	ebp, esp
	call	__RTC_CheckEsp
	mov	esp, ebp
	pop	ebp
	ret	0
?max_size@?$_Wrap_alloc@V?$allocator@D@std@@@std@@QBEIXZ ENDP ; std::_Wrap_alloc<std::allocator<char> >::max_size
_TEXT	ENDS
; Function compile flags: /Odtp /RTCsu
; File c:\program files (x86)\microsoft visual studio 12.0\vc\include\xmemory0
;	COMDAT ?deallocate@?$_Wrap_alloc@V?$allocator@D@std@@@std@@QAEXPADI@Z
_TEXT	SEGMENT
_this$ = -4						; size = 4
__Ptr$ = 8						; size = 4
__Count$ = 12						; size = 4
?deallocate@?$_Wrap_alloc@V?$allocator@D@std@@@std@@QAEXPADI@Z PROC ; std::_Wrap_alloc<std::allocator<char> >::deallocate, COMDAT
; _this$ = ecx

; 857  : 		{	// deallocate object at _Ptr, ignore size

	push	ebp
	mov	ebp, esp
	push	ecx
	mov	DWORD PTR [ebp-4], -858993460		; ccccccccH
	mov	DWORD PTR _this$[ebp], ecx

; 858  : 		_Mybase::deallocate(_Ptr, _Count);

	mov	eax, DWORD PTR __Count$[ebp]
	push	eax
	mov	ecx, DWORD PTR __Ptr$[ebp]
	push	ecx
	mov	ecx, DWORD PTR _this$[ebp]
	call	?deallocate@?$allocator@D@std@@QAEXPADI@Z ; std::allocator<char>::deallocate

; 859  : 		}

	add	esp, 4
	cmp	ebp, esp
	call	__RTC_CheckEsp
	mov	esp, ebp
	pop	ebp
	ret	8
?deallocate@?$_Wrap_alloc@V?$allocator@D@std@@@std@@QAEXPADI@Z ENDP ; std::_Wrap_alloc<std::allocator<char> >::deallocate
_TEXT	ENDS
; Function compile flags: /Odtp /RTCsu
; File c:\program files (x86)\microsoft visual studio 12.0\vc\include\xmemory0
;	COMDAT ?allocate@?$_Wrap_alloc@V?$allocator@D@std@@@std@@QAEPADI@Z
_TEXT	SEGMENT
_this$ = -4						; size = 4
__Count$ = 8						; size = 4
?allocate@?$_Wrap_alloc@V?$allocator@D@std@@@std@@QAEPADI@Z PROC ; std::_Wrap_alloc<std::allocator<char> >::allocate, COMDAT
; _this$ = ecx

; 846  : 		{	// allocate array of _Count elements

	push	ebp
	mov	ebp, esp
	push	ecx
	mov	DWORD PTR [ebp-4], -858993460		; ccccccccH
	mov	DWORD PTR _this$[ebp], ecx

; 847  : 		return (_Mybase::allocate(_Count));

	mov	eax, DWORD PTR __Count$[ebp]
	push	eax
	mov	ecx, DWORD PTR _this$[ebp]
	call	?allocate@?$allocator@D@std@@QAEPADI@Z	; std::allocator<char>::allocate

; 848  : 		}

	add	esp, 4
	cmp	ebp, esp
	call	__RTC_CheckEsp
	mov	esp, ebp
	pop	ebp
	ret	4
?allocate@?$_Wrap_alloc@V?$allocator@D@std@@@std@@QAEPADI@Z ENDP ; std::_Wrap_alloc<std::allocator<char> >::allocate
_TEXT	ENDS
; Function compile flags: /Odtp /RTCsu
; File c:\program files (x86)\microsoft visual studio 12.0\vc\include\xmemory0
;	COMDAT ??0?$_Wrap_alloc@V?$allocator@D@std@@@std@@QAE@XZ
_TEXT	SEGMENT
_this$ = -4						; size = 4
??0?$_Wrap_alloc@V?$allocator@D@std@@@std@@QAE@XZ PROC	; std::_Wrap_alloc<std::allocator<char> >::_Wrap_alloc<std::allocator<char> >, COMDAT
; _this$ = ecx

; 801  : 		{	// construct default allocator (do nothing)

	push	ebp
	mov	ebp, esp
	push	ecx
	mov	DWORD PTR [ebp-4], -858993460		; ccccccccH
	mov	DWORD PTR _this$[ebp], ecx
	mov	ecx, DWORD PTR _this$[ebp]
	call	??0?$allocator@D@std@@QAE@XZ		; std::allocator<char>::allocator<char>

; 802  : 		}

	mov	eax, DWORD PTR _this$[ebp]
	add	esp, 4
	cmp	ebp, esp
	call	__RTC_CheckEsp
	mov	esp, ebp
	pop	ebp
	ret	0
??0?$_Wrap_alloc@V?$allocator@D@std@@@std@@QAE@XZ ENDP	; std::_Wrap_alloc<std::allocator<char> >::_Wrap_alloc<std::allocator<char> >
_TEXT	ENDS
; Function compile flags: /Odtp /RTCsu
; File c:\program files (x86)\microsoft visual studio 12.0\vc\include\xmemory0
;	COMDAT ?max_size@?$allocator_traits@V?$allocator@D@std@@@std@@SAIABV?$allocator@D@2@@Z
_TEXT	SEGMENT
__Al$ = 8						; size = 4
?max_size@?$allocator_traits@V?$allocator@D@std@@@std@@SAIABV?$allocator@D@2@@Z PROC ; std::allocator_traits<std::allocator<char> >::max_size, COMDAT

; 734  : 		{	// get maximum size

	push	ebp
	mov	ebp, esp

; 735  : 		return (_Al.max_size());

	mov	ecx, DWORD PTR __Al$[ebp]
	call	?max_size@?$allocator@D@std@@QBEIXZ	; std::allocator<char>::max_size

; 736  : 		}

	cmp	ebp, esp
	call	__RTC_CheckEsp
	pop	ebp
	ret	0
?max_size@?$allocator_traits@V?$allocator@D@std@@@std@@SAIABV?$allocator@D@2@@Z ENDP ; std::allocator_traits<std::allocator<char> >::max_size
_TEXT	ENDS
; Function compile flags: /Odtp /RTCsu
; File c:\program files (x86)\microsoft visual studio 12.0\vc\include\xmemory0
;	COMDAT ?max_size@?$allocator@D@std@@QBEIXZ
_TEXT	SEGMENT
_this$ = -4						; size = 4
?max_size@?$allocator@D@std@@QBEIXZ PROC		; std::allocator<char>::max_size, COMDAT
; _this$ = ecx

; 611  : 		{	// estimate maximum array size

	push	ebp
	mov	ebp, esp
	push	ecx
	mov	DWORD PTR [ebp-4], -858993460		; ccccccccH
	mov	DWORD PTR _this$[ebp], ecx

; 612  : 		return ((size_t)(-1) / sizeof (_Ty));

	or	eax, -1

; 613  : 		}

	mov	esp, ebp
	pop	ebp
	ret	0
?max_size@?$allocator@D@std@@QBEIXZ ENDP		; std::allocator<char>::max_size
_TEXT	ENDS
; Function compile flags: /Odtp /RTCsu
; File c:\program files (x86)\microsoft visual studio 12.0\vc\include\xmemory0
;	COMDAT ?allocate@?$allocator@D@std@@QAEPADI@Z
_TEXT	SEGMENT
_this$ = -4						; size = 4
__Count$ = 8						; size = 4
?allocate@?$allocator@D@std@@QAEPADI@Z PROC		; std::allocator<char>::allocate, COMDAT
; _this$ = ecx

; 577  : 		{	// allocate array of _Count elements

	push	ebp
	mov	ebp, esp
	push	ecx
	mov	DWORD PTR [ebp-4], -858993460		; ccccccccH
	mov	DWORD PTR _this$[ebp], ecx

; 578  : 		return (_Allocate(_Count, (pointer)0));

	push	0
	mov	eax, DWORD PTR __Count$[ebp]
	push	eax
	call	??$_Allocate@D@std@@YAPADIPAD@Z		; std::_Allocate<char>
	add	esp, 8

; 579  : 		}

	add	esp, 4
	cmp	ebp, esp
	call	__RTC_CheckEsp
	mov	esp, ebp
	pop	ebp
	ret	4
?allocate@?$allocator@D@std@@QAEPADI@Z ENDP		; std::allocator<char>::allocate
_TEXT	ENDS
; Function compile flags: /Odtp /RTCsu
; File c:\program files (x86)\microsoft visual studio 12.0\vc\include\xmemory0
;	COMDAT ?deallocate@?$allocator@D@std@@QAEXPADI@Z
_TEXT	SEGMENT
_this$ = -4						; size = 4
__Ptr$ = 8						; size = 4
___formal$ = 12						; size = 4
?deallocate@?$allocator@D@std@@QAEXPADI@Z PROC		; std::allocator<char>::deallocate, COMDAT
; _this$ = ecx

; 572  : 		{	// deallocate object at _Ptr, ignore size

	push	ebp
	mov	ebp, esp
	push	ecx
	mov	DWORD PTR [ebp-4], -858993460		; ccccccccH
	mov	DWORD PTR _this$[ebp], ecx

; 573  : 		::operator delete(_Ptr);

	mov	eax, DWORD PTR __Ptr$[ebp]
	push	eax
	call	??3@YAXPAX@Z				; operator delete
	add	esp, 4

; 574  : 		}

	add	esp, 4
	cmp	ebp, esp
	call	__RTC_CheckEsp
	mov	esp, ebp
	pop	ebp
	ret	8
?deallocate@?$allocator@D@std@@QAEXPADI@Z ENDP		; std::allocator<char>::deallocate
_TEXT	ENDS
; Function compile flags: /Odtp /RTCsu
; File c:\program files (x86)\microsoft visual studio 12.0\vc\include\xmemory0
;	COMDAT ??0?$allocator@D@std@@QAE@XZ
_TEXT	SEGMENT
_this$ = -4						; size = 4
??0?$allocator@D@std@@QAE@XZ PROC			; std::allocator<char>::allocator<char>, COMDAT
; _this$ = ecx

; 552  : 	allocator() _THROW0()

	push	ebp
	mov	ebp, esp
	push	ecx
	mov	DWORD PTR [ebp-4], -858993460		; ccccccccH
	mov	DWORD PTR _this$[ebp], ecx

; 553  : 		{	// construct default allocator (do nothing)
; 554  : 		}

	mov	eax, DWORD PTR _this$[ebp]
	mov	esp, ebp
	pop	ebp
	ret	0
??0?$allocator@D@std@@QAE@XZ ENDP			; std::allocator<char>::allocator<char>
_TEXT	ENDS
; Function compile flags: /Odtp /RTCsu
; File c:\program files (x86)\microsoft visual studio 12.0\vc\include\xutility
;	COMDAT ??__Eallocator_arg@std@@YAXXZ
text$di	SEGMENT
$T1 = -1						; size = 1
??__Eallocator_arg@std@@YAXXZ PROC			; std::`dynamic initializer for 'allocator_arg'', COMDAT

; 3451 : const allocator_arg_t allocator_arg = allocator_arg_t();

	push	ebp
	mov	ebp, esp
	push	ecx
	mov	DWORD PTR [ebp-4], -858993460		; ccccccccH
	xor	eax, eax
	mov	BYTE PTR $T1[ebp], al
	mov	esp, ebp
	pop	ebp
	ret	0
??__Eallocator_arg@std@@YAXXZ ENDP			; std::`dynamic initializer for 'allocator_arg''
text$di	ENDS
; Function compile flags: /Odtp /RTCsu
; File c:\program files (x86)\microsoft visual studio 12.0\vc\include\xutility
;	COMDAT ?_Orphan_me@_Iterator_base12@std@@QAEXXZ
_TEXT	SEGMENT
__Pnext$1 = -8						; size = 4
_this$ = -4						; size = 4
?_Orphan_me@_Iterator_base12@std@@QAEXXZ PROC		; std::_Iterator_base12::_Orphan_me, COMDAT
; _this$ = ecx

; 192  : 		{	// cut ties with parent

	push	ebp
	mov	ebp, esp
	sub	esp, 8
	mov	DWORD PTR [ebp-8], -858993460		; ccccccccH
	mov	DWORD PTR [ebp-4], -858993460		; ccccccccH
	mov	DWORD PTR _this$[ebp], ecx

; 193  :  #if _ITERATOR_DEBUG_LEVEL == 2
; 194  : 		if (_Myproxy != 0)

	mov	eax, DWORD PTR _this$[ebp]
	cmp	DWORD PTR [eax], 0
	je	SHORT $LN5@Orphan_me

; 195  : 			{	// adopted, remove self from list
; 196  : 			_Iterator_base12 **_Pnext = &_Myproxy->_Myfirstiter;

	mov	ecx, DWORD PTR _this$[ebp]
	mov	edx, DWORD PTR [ecx]
	add	edx, 4
	mov	DWORD PTR __Pnext$1[ebp], edx
$LN3@Orphan_me:

; 197  : 			while (*_Pnext != 0 && *_Pnext != this)

	mov	eax, DWORD PTR __Pnext$1[ebp]
	cmp	DWORD PTR [eax], 0
	je	SHORT $LN2@Orphan_me
	mov	ecx, DWORD PTR __Pnext$1[ebp]
	mov	edx, DWORD PTR [ecx]
	cmp	edx, DWORD PTR _this$[ebp]
	je	SHORT $LN2@Orphan_me

; 198  : 				_Pnext = &(*_Pnext)->_Mynextiter;

	mov	eax, DWORD PTR __Pnext$1[ebp]
	mov	ecx, DWORD PTR [eax]
	add	ecx, 4
	mov	DWORD PTR __Pnext$1[ebp], ecx
	jmp	SHORT $LN3@Orphan_me
$LN2@Orphan_me:

; 199  : 
; 200  : 			if (*_Pnext == 0)

	mov	edx, DWORD PTR __Pnext$1[ebp]
	cmp	DWORD PTR [edx], 0
	jne	SHORT $LN1@Orphan_me

; 201  : 				_DEBUG_ERROR("ITERATOR LIST CORRUPTED!");

	push	201					; 000000c9H
	push	OFFSET ??_C@_1JA@EADLBAJ@?$AAC?$AA?3?$AA?2?$AAP?$AAr?$AAo?$AAg?$AAr?$AAa?$AAm?$AA?5?$AAF?$AAi?$AAl?$AAe?$AAs?$AA?5?$AA?$CI?$AAx?$AA8?$AA6?$AA?$CJ?$AA?2?$AAM?$AAi?$AAc?$AAr?$AAo?$AAs?$AAo?$AAf?$AAt@
	push	OFFSET ??_C@_1DC@POOIKBAO@?$AAI?$AAT?$AAE?$AAR?$AAA?$AAT?$AAO?$AAR?$AA?5?$AAL?$AAI?$AAS?$AAT?$AA?5?$AAC?$AAO?$AAR?$AAR?$AAU?$AAP?$AAT?$AAE?$AAD?$AA?$CB?$AA?$AA@
	call	?_Debug_message@std@@YAXPB_W0I@Z	; std::_Debug_message
	add	esp, 12					; 0000000cH
$LN1@Orphan_me:

; 202  : 			*_Pnext = _Mynextiter;

	mov	eax, DWORD PTR __Pnext$1[ebp]
	mov	ecx, DWORD PTR _this$[ebp]
	mov	edx, DWORD PTR [ecx+4]
	mov	DWORD PTR [eax], edx

; 203  : 			_Myproxy = 0;

	mov	eax, DWORD PTR _this$[ebp]
	mov	DWORD PTR [eax], 0
$LN5@Orphan_me:

; 204  : 			}
; 205  :  #endif /* _ITERATOR_DEBUG_LEVEL == 2 */
; 206  : 		}

	add	esp, 8
	cmp	ebp, esp
	call	__RTC_CheckEsp
	mov	esp, ebp
	pop	ebp
	ret	0
?_Orphan_me@_Iterator_base12@std@@QAEXXZ ENDP		; std::_Iterator_base12::_Orphan_me
_TEXT	ENDS
; Function compile flags: /Odtp /RTCsu
; File c:\program files (x86)\microsoft visual studio 12.0\vc\include\xutility
;	COMDAT ?_Getpnext@_Iterator_base12@std@@QAEPAPAU12@XZ
_TEXT	SEGMENT
_this$ = -4						; size = 4
?_Getpnext@_Iterator_base12@std@@QAEPAPAU12@XZ PROC	; std::_Iterator_base12::_Getpnext, COMDAT
; _this$ = ecx

; 187  : 		{	// get address of remaining iterator chain

	push	ebp
	mov	ebp, esp
	push	ecx
	mov	DWORD PTR [ebp-4], -858993460		; ccccccccH
	mov	DWORD PTR _this$[ebp], ecx

; 188  : 		return (&_Mynextiter);

	mov	eax, DWORD PTR _this$[ebp]
	add	eax, 4

; 189  : 		}

	mov	esp, ebp
	pop	ebp
	ret	0
?_Getpnext@_Iterator_base12@std@@QAEPAPAU12@XZ ENDP	; std::_Iterator_base12::_Getpnext
_TEXT	ENDS
; Function compile flags: /Odtp /RTCsu
; File c:\program files (x86)\microsoft visual studio 12.0\vc\include\xutility
;	COMDAT ?_Getcont@_Iterator_base12@std@@QBEPBU_Container_base12@2@XZ
_TEXT	SEGMENT
tv68 = -8						; size = 4
_this$ = -4						; size = 4
?_Getcont@_Iterator_base12@std@@QBEPBU_Container_base12@2@XZ PROC ; std::_Iterator_base12::_Getcont, COMDAT
; _this$ = ecx

; 182  : 		{	// get owning container

	push	ebp
	mov	ebp, esp
	sub	esp, 8
	mov	DWORD PTR [ebp-8], -858993460		; ccccccccH
	mov	DWORD PTR [ebp-4], -858993460		; ccccccccH
	mov	DWORD PTR _this$[ebp], ecx

; 183  : 		return (_Myproxy == 0 ? 0 : _Myproxy->_Mycont);

	mov	eax, DWORD PTR _this$[ebp]
	cmp	DWORD PTR [eax], 0
	jne	SHORT $LN3@Getcont
	mov	DWORD PTR tv68[ebp], 0
	jmp	SHORT $LN4@Getcont
$LN3@Getcont:
	mov	ecx, DWORD PTR _this$[ebp]
	mov	edx, DWORD PTR [ecx]
	mov	eax, DWORD PTR [edx]
	mov	DWORD PTR tv68[ebp], eax
$LN4@Getcont:
	mov	eax, DWORD PTR tv68[ebp]

; 184  : 		}

	mov	esp, ebp
	pop	ebp
	ret	0
?_Getcont@_Iterator_base12@std@@QBEPBU_Container_base12@2@XZ ENDP ; std::_Iterator_base12::_Getcont
_TEXT	ENDS
; Function compile flags: /Odtp /RTCsu
; File c:\program files (x86)\microsoft visual studio 12.0\vc\include\xutility
;	COMDAT ?_Clrcont@_Iterator_base12@std@@QAEXXZ
_TEXT	SEGMENT
_this$ = -4						; size = 4
?_Clrcont@_Iterator_base12@std@@QAEXXZ PROC		; std::_Iterator_base12::_Clrcont, COMDAT
; _this$ = ecx

; 177  : 		{	// disown owning container

	push	ebp
	mov	ebp, esp
	push	ecx
	mov	DWORD PTR [ebp-4], -858993460		; ccccccccH
	mov	DWORD PTR _this$[ebp], ecx

; 178  : 		_Myproxy = 0;

	mov	eax, DWORD PTR _this$[ebp]
	mov	DWORD PTR [eax], 0

; 179  : 		}

	mov	esp, ebp
	pop	ebp
	ret	0
?_Clrcont@_Iterator_base12@std@@QAEXXZ ENDP		; std::_Iterator_base12::_Clrcont
_TEXT	ENDS
; Function compile flags: /Odtp /RTCsu
; File c:\program files (x86)\microsoft visual studio 12.0\vc\include\xutility
;	COMDAT ?_Adopt@_Iterator_base12@std@@QAEXPBU_Container_base12@2@@Z
_TEXT	SEGMENT
__Lock$2 = -40						; size = 4
__Parent_proxy$3 = -32					; size = 4
__Lock$4 = -24						; size = 4
_this$ = -16						; size = 4
__$EHRec$ = -12						; size = 12
__Parent$ = 8						; size = 4
?_Adopt@_Iterator_base12@std@@QAEXPBU_Container_base12@2@@Z PROC ; std::_Iterator_base12::_Adopt, COMDAT
; _this$ = ecx

; 148  : 		{	// adopt this iterator by parent

	push	ebp
	mov	ebp, esp
	push	-1
	push	__ehhandler$?_Adopt@_Iterator_base12@std@@QAEXPBU_Container_base12@2@@Z
	mov	eax, DWORD PTR fs:0
	push	eax
	sub	esp, 32					; 00000020H
	mov	eax, -858993460				; ccccccccH
	mov	DWORD PTR [ebp-44], eax
	mov	DWORD PTR [ebp-40], eax
	mov	DWORD PTR [ebp-36], eax
	mov	DWORD PTR [ebp-32], eax
	mov	DWORD PTR [ebp-28], eax
	mov	DWORD PTR [ebp-24], eax
	mov	DWORD PTR [ebp-20], eax
	mov	DWORD PTR [ebp-16], eax
	mov	eax, DWORD PTR ___security_cookie
	xor	eax, ebp
	push	eax
	lea	eax, DWORD PTR __$EHRec$[ebp]
	mov	DWORD PTR fs:0, eax
	mov	DWORD PTR _this$[ebp], ecx

; 149  : 		if (_Parent == 0)

	cmp	DWORD PTR __Parent$[ebp], 0
	jne	SHORT $LN3@Adopt

; 150  : 			{	// no future parent, just disown current parent
; 151  :  #if _ITERATOR_DEBUG_LEVEL == 2
; 152  : 			_Lockit _Lock(_LOCK_DEBUG);

	push	3
	lea	ecx, DWORD PTR __Lock$4[ebp]
	call	??0_Lockit@std@@QAE@H@Z			; std::_Lockit::_Lockit
	mov	DWORD PTR __$EHRec$[ebp+8], 0

; 153  : 			_Orphan_me();

	mov	ecx, DWORD PTR _this$[ebp]
	call	?_Orphan_me@_Iterator_base12@std@@QAEXXZ ; std::_Iterator_base12::_Orphan_me

; 154  :  #endif /* _ITERATOR_DEBUG_LEVEL == 2 */
; 155  : 			}

	mov	DWORD PTR __$EHRec$[ebp+8], -1
	lea	ecx, DWORD PTR __Lock$4[ebp]
	call	??1_Lockit@std@@QAE@XZ			; std::_Lockit::~_Lockit

; 156  : 		else

	jmp	SHORT $LN4@Adopt
$LN3@Adopt:

; 157  : 			{	// have a parent, do adoption
; 158  : 			_Container_proxy *_Parent_proxy = _Parent->_Myproxy;

	mov	eax, DWORD PTR __Parent$[ebp]
	mov	ecx, DWORD PTR [eax]
	mov	DWORD PTR __Parent_proxy$3[ebp], ecx

; 159  : 
; 160  :  #if _ITERATOR_DEBUG_LEVEL == 2
; 161  : 			if (_Myproxy != _Parent_proxy)

	mov	edx, DWORD PTR _this$[ebp]
	mov	eax, DWORD PTR [edx]
	cmp	eax, DWORD PTR __Parent_proxy$3[ebp]
	je	SHORT $LN4@Adopt

; 162  : 				{	// change parentage
; 163  : 				_Lockit _Lock(_LOCK_DEBUG);

	push	3
	lea	ecx, DWORD PTR __Lock$2[ebp]
	call	??0_Lockit@std@@QAE@H@Z			; std::_Lockit::_Lockit
	mov	DWORD PTR __$EHRec$[ebp+8], 1

; 164  : 				_Orphan_me();

	mov	ecx, DWORD PTR _this$[ebp]
	call	?_Orphan_me@_Iterator_base12@std@@QAEXXZ ; std::_Iterator_base12::_Orphan_me

; 165  : 				_Mynextiter = _Parent_proxy->_Myfirstiter;

	mov	ecx, DWORD PTR _this$[ebp]
	mov	edx, DWORD PTR __Parent_proxy$3[ebp]
	mov	eax, DWORD PTR [edx+4]
	mov	DWORD PTR [ecx+4], eax

; 166  : 				_Parent_proxy->_Myfirstiter = this;

	mov	ecx, DWORD PTR __Parent_proxy$3[ebp]
	mov	edx, DWORD PTR _this$[ebp]
	mov	DWORD PTR [ecx+4], edx

; 167  : 				_Myproxy = _Parent_proxy;

	mov	eax, DWORD PTR _this$[ebp]
	mov	ecx, DWORD PTR __Parent_proxy$3[ebp]
	mov	DWORD PTR [eax], ecx

; 168  : 				}

	mov	DWORD PTR __$EHRec$[ebp+8], -1
	lea	ecx, DWORD PTR __Lock$2[ebp]
	call	??1_Lockit@std@@QAE@XZ			; std::_Lockit::~_Lockit
$LN4@Adopt:

; 169  : 
; 170  :  #else /* _ITERATOR_DEBUG_LEVEL == 2 */
; 171  : 			_Myproxy = _Parent_proxy;
; 172  :  #endif /* _ITERATOR_DEBUG_LEVEL == 2 */
; 173  : 			}
; 174  : 		}

	push	edx
	mov	ecx, ebp
	push	eax
	lea	edx, DWORD PTR $LN12@Adopt
	call	@_RTC_CheckStackVars@8
	pop	eax
	pop	edx
	mov	ecx, DWORD PTR __$EHRec$[ebp]
	mov	DWORD PTR fs:0, ecx
	pop	ecx
	add	esp, 44					; 0000002cH
	cmp	ebp, esp
	call	__RTC_CheckEsp
	mov	esp, ebp
	pop	ebp
	ret	4
$LN12@Adopt:
	DD	2
	DD	$LN11@Adopt
$LN11@Adopt:
	DD	-24					; ffffffe8H
	DD	4
	DD	$LN8@Adopt
	DD	-40					; ffffffd8H
	DD	4
	DD	$LN9@Adopt
$LN9@Adopt:
	DB	95					; 0000005fH
	DB	76					; 0000004cH
	DB	111					; 0000006fH
	DB	99					; 00000063H
	DB	107					; 0000006bH
	DB	0
$LN8@Adopt:
	DB	95					; 0000005fH
	DB	76					; 0000004cH
	DB	111					; 0000006fH
	DB	99					; 00000063H
	DB	107					; 0000006bH
	DB	0
_TEXT	ENDS
;	COMDAT text$x
text$x	SEGMENT
__unwindfunclet$?_Adopt@_Iterator_base12@std@@QAEXPBU_Container_base12@2@@Z$0:
	lea	ecx, DWORD PTR __Lock$4[ebp]
	jmp	??1_Lockit@std@@QAE@XZ			; std::_Lockit::~_Lockit
__unwindfunclet$?_Adopt@_Iterator_base12@std@@QAEXPBU_Container_base12@2@@Z$1:
	lea	ecx, DWORD PTR __Lock$2[ebp]
	jmp	??1_Lockit@std@@QAE@XZ			; std::_Lockit::~_Lockit
__ehhandler$?_Adopt@_Iterator_base12@std@@QAEXPBU_Container_base12@2@@Z:
	mov	edx, DWORD PTR [esp+8]
	lea	eax, DWORD PTR [edx+12]
	mov	ecx, DWORD PTR [edx-36]
	xor	ecx, eax
	call	@__security_check_cookie@4
	mov	eax, OFFSET __ehfuncinfo$?_Adopt@_Iterator_base12@std@@QAEXPBU_Container_base12@2@@Z
	jmp	___CxxFrameHandler3
text$x	ENDS
?_Adopt@_Iterator_base12@std@@QAEXPBU_Container_base12@2@@Z ENDP ; std::_Iterator_base12::_Adopt
; Function compile flags: /Odtp /RTCsu
; File c:\program files (x86)\microsoft visual studio 12.0\vc\include\xutility
;	COMDAT ??1_Iterator_base12@std@@QAE@XZ
_TEXT	SEGMENT
__Lock$ = -12						; size = 4
_this$ = -4						; size = 4
??1_Iterator_base12@std@@QAE@XZ PROC			; std::_Iterator_base12::~_Iterator_base12, COMDAT
; _this$ = ecx

; 140  : 		{	// destroy the iterator

	push	ebp
	mov	ebp, esp
	sub	esp, 16					; 00000010H
	mov	eax, -858993460				; ccccccccH
	mov	DWORD PTR [ebp-16], eax
	mov	DWORD PTR [ebp-12], eax
	mov	DWORD PTR [ebp-8], eax
	mov	DWORD PTR [ebp-4], eax
	mov	DWORD PTR _this$[ebp], ecx

; 141  :  #if _ITERATOR_DEBUG_LEVEL == 2
; 142  : 		_Lockit _Lock(_LOCK_DEBUG);

	push	3
	lea	ecx, DWORD PTR __Lock$[ebp]
	call	??0_Lockit@std@@QAE@H@Z			; std::_Lockit::_Lockit

; 143  : 		_Orphan_me();

	mov	ecx, DWORD PTR _this$[ebp]
	call	?_Orphan_me@_Iterator_base12@std@@QAEXXZ ; std::_Iterator_base12::_Orphan_me

; 144  :  #endif /* _ITERATOR_DEBUG_LEVEL == 2 */
; 145  : 		}

	lea	ecx, DWORD PTR __Lock$[ebp]
	call	??1_Lockit@std@@QAE@XZ			; std::_Lockit::~_Lockit
	push	edx
	mov	ecx, ebp
	push	eax
	lea	edx, DWORD PTR $LN5@Iterator_b
	call	@_RTC_CheckStackVars@8
	pop	eax
	pop	edx
	add	esp, 16					; 00000010H
	cmp	ebp, esp
	call	__RTC_CheckEsp
	mov	esp, ebp
	pop	ebp
	ret	0
	npad	1
$LN5@Iterator_b:
	DD	1
	DD	$LN4@Iterator_b
$LN4@Iterator_b:
	DD	-12					; fffffff4H
	DD	4
	DD	$LN3@Iterator_b
$LN3@Iterator_b:
	DB	95					; 0000005fH
	DB	76					; 0000004cH
	DB	111					; 0000006fH
	DB	99					; 00000063H
	DB	107					; 0000006bH
	DB	0
??1_Iterator_base12@std@@QAE@XZ ENDP			; std::_Iterator_base12::~_Iterator_base12
_TEXT	ENDS
; Function compile flags: /Odtp /RTCsu
; File c:\program files (x86)\microsoft visual studio 12.0\vc\include\xutility
;	COMDAT ??4_Iterator_base12@std@@QAEAAU01@ABU01@@Z
_TEXT	SEGMENT
__Lock$2 = -24						; size = 4
_this$ = -16						; size = 4
__$EHRec$ = -12						; size = 12
__Right$ = 8						; size = 4
??4_Iterator_base12@std@@QAEAAU01@ABU01@@Z PROC		; std::_Iterator_base12::operator=, COMDAT
; _this$ = ecx

; 124  : 		{	// assign an iterator

	push	ebp
	mov	ebp, esp
	push	-1
	push	__ehhandler$??4_Iterator_base12@std@@QAEAAU01@ABU01@@Z
	mov	eax, DWORD PTR fs:0
	push	eax
	sub	esp, 16					; 00000010H
	mov	eax, -858993460				; ccccccccH
	mov	DWORD PTR [ebp-28], eax
	mov	DWORD PTR [ebp-24], eax
	mov	DWORD PTR [ebp-20], eax
	mov	DWORD PTR [ebp-16], eax
	mov	eax, DWORD PTR ___security_cookie
	xor	eax, ebp
	push	eax
	lea	eax, DWORD PTR __$EHRec$[ebp]
	mov	DWORD PTR fs:0, eax
	mov	DWORD PTR _this$[ebp], ecx

; 125  : 		if (_Myproxy == _Right._Myproxy)

	mov	eax, DWORD PTR _this$[ebp]
	mov	ecx, DWORD PTR __Right$[ebp]
	mov	edx, DWORD PTR [eax]
	cmp	edx, DWORD PTR [ecx]
	jne	SHORT $LN4@operator
	jmp	SHORT $LN3@operator
$LN4@operator:

; 126  : 			;
; 127  : 		else if (_Right._Myproxy != 0)

	mov	eax, DWORD PTR __Right$[ebp]
	cmp	DWORD PTR [eax], 0
	je	SHORT $LN2@operator

; 128  : 			_Adopt(_Right._Myproxy->_Mycont);

	mov	ecx, DWORD PTR __Right$[ebp]
	mov	edx, DWORD PTR [ecx]
	mov	eax, DWORD PTR [edx]
	push	eax
	mov	ecx, DWORD PTR _this$[ebp]
	call	?_Adopt@_Iterator_base12@std@@QAEXPBU_Container_base12@2@@Z ; std::_Iterator_base12::_Adopt

; 129  : 		else

	jmp	SHORT $LN3@operator
$LN2@operator:

; 130  : 			{	// becoming invalid, disown current parent
; 131  :  #if _ITERATOR_DEBUG_LEVEL == 2
; 132  : 			_Lockit _Lock(_LOCK_DEBUG);

	push	3
	lea	ecx, DWORD PTR __Lock$2[ebp]
	call	??0_Lockit@std@@QAE@H@Z			; std::_Lockit::_Lockit
	mov	DWORD PTR __$EHRec$[ebp+8], 0

; 133  : 			_Orphan_me();

	mov	ecx, DWORD PTR _this$[ebp]
	call	?_Orphan_me@_Iterator_base12@std@@QAEXXZ ; std::_Iterator_base12::_Orphan_me

; 134  :  #endif /* _ITERATOR_DEBUG_LEVEL == 2 */
; 135  : 			}

	mov	DWORD PTR __$EHRec$[ebp+8], -1
	lea	ecx, DWORD PTR __Lock$2[ebp]
	call	??1_Lockit@std@@QAE@XZ			; std::_Lockit::~_Lockit
$LN3@operator:

; 136  : 		return (*this);

	mov	eax, DWORD PTR _this$[ebp]

; 137  : 		}

	push	edx
	mov	ecx, ebp
	push	eax
	lea	edx, DWORD PTR $LN11@operator
	call	@_RTC_CheckStackVars@8
	pop	eax
	pop	edx
	mov	ecx, DWORD PTR __$EHRec$[ebp]
	mov	DWORD PTR fs:0, ecx
	pop	ecx
	add	esp, 28					; 0000001cH
	cmp	ebp, esp
	call	__RTC_CheckEsp
	mov	esp, ebp
	pop	ebp
	ret	4
$LN11@operator:
	DD	1
	DD	$LN10@operator
$LN10@operator:
	DD	-24					; ffffffe8H
	DD	4
	DD	$LN8@operator
$LN8@operator:
	DB	95					; 0000005fH
	DB	76					; 0000004cH
	DB	111					; 0000006fH
	DB	99					; 00000063H
	DB	107					; 0000006bH
	DB	0
_TEXT	ENDS
;	COMDAT text$x
text$x	SEGMENT
__unwindfunclet$??4_Iterator_base12@std@@QAEAAU01@ABU01@@Z$0:
	lea	ecx, DWORD PTR __Lock$2[ebp]
	jmp	??1_Lockit@std@@QAE@XZ			; std::_Lockit::~_Lockit
__ehhandler$??4_Iterator_base12@std@@QAEAAU01@ABU01@@Z:
	mov	edx, DWORD PTR [esp+8]
	lea	eax, DWORD PTR [edx+12]
	mov	ecx, DWORD PTR [edx-20]
	xor	ecx, eax
	call	@__security_check_cookie@4
	mov	eax, OFFSET __ehfuncinfo$??4_Iterator_base12@std@@QAEAAU01@ABU01@@Z
	jmp	___CxxFrameHandler3
text$x	ENDS
??4_Iterator_base12@std@@QAEAAU01@ABU01@@Z ENDP		; std::_Iterator_base12::operator=
; Function compile flags: /Odtp /RTCsu
; File c:\program files (x86)\microsoft visual studio 12.0\vc\include\xutility
;	COMDAT ??0_Iterator_base12@std@@QAE@XZ
_TEXT	SEGMENT
_this$ = -4						; size = 4
??0_Iterator_base12@std@@QAE@XZ PROC			; std::_Iterator_base12::_Iterator_base12, COMDAT
; _this$ = ecx

; 114  : 		{	// construct orphaned iterator

	push	ebp
	mov	ebp, esp
	push	ecx
	mov	DWORD PTR [ebp-4], -858993460		; ccccccccH
	mov	DWORD PTR _this$[ebp], ecx
	mov	eax, DWORD PTR _this$[ebp]
	mov	DWORD PTR [eax], 0
	mov	ecx, DWORD PTR _this$[ebp]
	mov	DWORD PTR [ecx+4], 0

; 115  : 		}

	mov	eax, DWORD PTR _this$[ebp]
	mov	esp, ebp
	pop	ebp
	ret	0
??0_Iterator_base12@std@@QAE@XZ ENDP			; std::_Iterator_base12::_Iterator_base12
_TEXT	ENDS
; Function compile flags: /Odtp /RTCsu
; File c:\program files (x86)\microsoft visual studio 12.0\vc\include\xutility
;	COMDAT ?_Orphan_all@_Container_base12@std@@QAEXXZ
_TEXT	SEGMENT
__Pnext$1 = -20						; size = 4
__Lock$2 = -12						; size = 4
_this$ = -4						; size = 4
?_Orphan_all@_Container_base12@std@@QAEXXZ PROC		; std::_Container_base12::_Orphan_all, COMDAT
; _this$ = ecx

; 214  : 	{	// orphan all iterators

	push	ebp
	mov	ebp, esp
	sub	esp, 20					; 00000014H
	mov	eax, -858993460				; ccccccccH
	mov	DWORD PTR [ebp-20], eax
	mov	DWORD PTR [ebp-16], eax
	mov	DWORD PTR [ebp-12], eax
	mov	DWORD PTR [ebp-8], eax
	mov	DWORD PTR [ebp-4], eax
	mov	DWORD PTR _this$[ebp], ecx

; 215  :  #if _ITERATOR_DEBUG_LEVEL == 2
; 216  : 	if (_Myproxy != 0)

	mov	eax, DWORD PTR _this$[ebp]
	cmp	DWORD PTR [eax], 0
	je	SHORT $LN5@Orphan_all

; 217  : 		{	// proxy allocated, drain it
; 218  : 		_Lockit _Lock(_LOCK_DEBUG);

	push	3
	lea	ecx, DWORD PTR __Lock$2[ebp]
	call	??0_Lockit@std@@QAE@H@Z			; std::_Lockit::_Lockit

; 219  : 
; 220  : 		for (_Iterator_base12 **_Pnext = &_Myproxy->_Myfirstiter;

	mov	ecx, DWORD PTR _this$[ebp]
	mov	edx, DWORD PTR [ecx]
	add	edx, 4
	mov	DWORD PTR __Pnext$1[ebp], edx

; 221  : 			*_Pnext != 0; *_Pnext = (*_Pnext)->_Mynextiter)

	jmp	SHORT $LN3@Orphan_all
$LN2@Orphan_all:
	mov	eax, DWORD PTR __Pnext$1[ebp]
	mov	ecx, DWORD PTR [eax]
	mov	edx, DWORD PTR __Pnext$1[ebp]
	mov	eax, DWORD PTR [ecx+4]
	mov	DWORD PTR [edx], eax
$LN3@Orphan_all:
	mov	ecx, DWORD PTR __Pnext$1[ebp]
	cmp	DWORD PTR [ecx], 0
	je	SHORT $LN1@Orphan_all

; 222  : 			(*_Pnext)->_Myproxy = 0;

	mov	edx, DWORD PTR __Pnext$1[ebp]
	mov	eax, DWORD PTR [edx]
	mov	DWORD PTR [eax], 0
	jmp	SHORT $LN2@Orphan_all
$LN1@Orphan_all:

; 223  : 		_Myproxy->_Myfirstiter = 0;

	mov	ecx, DWORD PTR _this$[ebp]
	mov	edx, DWORD PTR [ecx]
	mov	DWORD PTR [edx+4], 0

; 224  : 		}

	lea	ecx, DWORD PTR __Lock$2[ebp]
	call	??1_Lockit@std@@QAE@XZ			; std::_Lockit::~_Lockit
$LN5@Orphan_all:

; 225  :  #endif /* _ITERATOR_DEBUG_LEVEL == 2 */
; 226  : 	}

	push	edx
	mov	ecx, ebp
	push	eax
	lea	edx, DWORD PTR $LN10@Orphan_all
	call	@_RTC_CheckStackVars@8
	pop	eax
	pop	edx
	add	esp, 20					; 00000014H
	cmp	ebp, esp
	call	__RTC_CheckEsp
	mov	esp, ebp
	pop	ebp
	ret	0
	npad	3
$LN10@Orphan_all:
	DD	1
	DD	$LN9@Orphan_all
$LN9@Orphan_all:
	DD	-12					; fffffff4H
	DD	4
	DD	$LN8@Orphan_all
$LN8@Orphan_all:
	DB	95					; 0000005fH
	DB	76					; 0000004cH
	DB	111					; 0000006fH
	DB	99					; 00000063H
	DB	107					; 0000006bH
	DB	0
?_Orphan_all@_Container_base12@std@@QAEXXZ ENDP		; std::_Container_base12::_Orphan_all
_TEXT	ENDS
; Function compile flags: /Odtp /RTCsu
; File c:\program files (x86)\microsoft visual studio 12.0\vc\include\xutility
;	COMDAT ?_Getpfirst@_Container_base12@std@@QBEPAPAU_Iterator_base12@2@XZ
_TEXT	SEGMENT
tv68 = -8						; size = 4
_this$ = -4						; size = 4
?_Getpfirst@_Container_base12@std@@QBEPAPAU_Iterator_base12@2@XZ PROC ; std::_Container_base12::_Getpfirst, COMDAT
; _this$ = ecx

; 99   : 		{	// get address of iterator chain

	push	ebp
	mov	ebp, esp
	sub	esp, 8
	mov	DWORD PTR [ebp-8], -858993460		; ccccccccH
	mov	DWORD PTR [ebp-4], -858993460		; ccccccccH
	mov	DWORD PTR _this$[ebp], ecx

; 100  : 		return (_Myproxy == 0 ? 0 : &_Myproxy->_Myfirstiter);

	mov	eax, DWORD PTR _this$[ebp]
	cmp	DWORD PTR [eax], 0
	jne	SHORT $LN3@Getpfirst
	mov	DWORD PTR tv68[ebp], 0
	jmp	SHORT $LN4@Getpfirst
$LN3@Getpfirst:
	mov	ecx, DWORD PTR _this$[ebp]
	mov	edx, DWORD PTR [ecx]
	add	edx, 4
	mov	DWORD PTR tv68[ebp], edx
$LN4@Getpfirst:
	mov	eax, DWORD PTR tv68[ebp]

; 101  : 		}

	mov	esp, ebp
	pop	ebp
	ret	0
?_Getpfirst@_Container_base12@std@@QBEPAPAU_Iterator_base12@2@XZ ENDP ; std::_Container_base12::_Getpfirst
_TEXT	ENDS
; Function compile flags: /Odtp /RTCsu
; File c:\program files (x86)\microsoft visual studio 12.0\vc\include\xutility
;	COMDAT ??1_Container_base12@std@@QAE@XZ
_TEXT	SEGMENT
_this$ = -4						; size = 4
??1_Container_base12@std@@QAE@XZ PROC			; std::_Container_base12::~_Container_base12, COMDAT
; _this$ = ecx

; 94   : 		{	// destroy the container

	push	ebp
	mov	ebp, esp
	push	ecx
	mov	DWORD PTR [ebp-4], -858993460		; ccccccccH
	mov	DWORD PTR _this$[ebp], ecx

; 95   : 		_Orphan_all();

	mov	ecx, DWORD PTR _this$[ebp]
	call	?_Orphan_all@_Container_base12@std@@QAEXXZ ; std::_Container_base12::_Orphan_all

; 96   : 		}

	add	esp, 4
	cmp	ebp, esp
	call	__RTC_CheckEsp
	mov	esp, ebp
	pop	ebp
	ret	0
??1_Container_base12@std@@QAE@XZ ENDP			; std::_Container_base12::~_Container_base12
_TEXT	ENDS
; Function compile flags: /Odtp /RTCsu
; File c:\program files (x86)\microsoft visual studio 12.0\vc\include\xutility
;	COMDAT ??0_Container_base12@std@@QAE@XZ
_TEXT	SEGMENT
_this$ = -4						; size = 4
??0_Container_base12@std@@QAE@XZ PROC			; std::_Container_base12::_Container_base12, COMDAT
; _this$ = ecx

; 80   : 		{	// construct childless container

	push	ebp
	mov	ebp, esp
	push	ecx
	mov	DWORD PTR [ebp-4], -858993460		; ccccccccH
	mov	DWORD PTR _this$[ebp], ecx
	mov	eax, DWORD PTR _this$[ebp]
	mov	DWORD PTR [eax], 0

; 81   : 		}

	mov	eax, DWORD PTR _this$[ebp]
	mov	esp, ebp
	pop	ebp
	ret	0
??0_Container_base12@std@@QAE@XZ ENDP			; std::_Container_base12::_Container_base12
_TEXT	ENDS
; Function compile flags: /Odtp /RTCsu
; File c:\program files (x86)\microsoft visual studio 12.0\vc\include\xutility
;	COMDAT ??0_Container_proxy@std@@QAE@XZ
_TEXT	SEGMENT
_this$ = -4						; size = 4
??0_Container_proxy@std@@QAE@XZ PROC			; std::_Container_proxy::_Container_proxy, COMDAT
; _this$ = ecx

; 68   : 		{	// construct from pointers

	push	ebp
	mov	ebp, esp
	push	ecx
	mov	DWORD PTR [ebp-4], -858993460		; ccccccccH
	mov	DWORD PTR _this$[ebp], ecx
	mov	eax, DWORD PTR _this$[ebp]
	mov	DWORD PTR [eax], 0
	mov	ecx, DWORD PTR _this$[ebp]
	mov	DWORD PTR [ecx+4], 0

; 69   : 		}

	mov	eax, DWORD PTR _this$[ebp]
	mov	esp, ebp
	pop	ebp
	ret	0
??0_Container_proxy@std@@QAE@XZ ENDP			; std::_Container_proxy::_Container_proxy
_TEXT	ENDS
; Function compile flags: /Odtp /RTCsu
; File c:\program files (x86)\microsoft visual studio 12.0\vc\include\utility
;	COMDAT ??__Epiecewise_construct@std@@YAXXZ
text$di	SEGMENT
$T1 = -1						; size = 1
??__Epiecewise_construct@std@@YAXXZ PROC		; std::`dynamic initializer for 'piecewise_construct'', COMDAT

; 70   : 	piecewise_construct_t();

	push	ebp
	mov	ebp, esp
	push	ecx
	mov	DWORD PTR [ebp-4], -858993460		; ccccccccH
	xor	eax, eax
	mov	BYTE PTR $T1[ebp], al
	mov	esp, ebp
	pop	ebp
	ret	0
??__Epiecewise_construct@std@@YAXXZ ENDP		; std::`dynamic initializer for 'piecewise_construct''
text$di	ENDS
; Function compile flags: /Odtp /RTCsu
; File c:\program files (x86)\microsoft visual studio 12.0\vc\include\iosfwd
;	COMDAT ?assign@?$char_traits@D@std@@SAXAADABD@Z
_TEXT	SEGMENT
__Left$ = 8						; size = 4
__Right$ = 12						; size = 4
?assign@?$char_traits@D@std@@SAXAADABD@Z PROC		; std::char_traits<char>::assign, COMDAT

; 563  : 		{	// assign an element

	push	ebp
	mov	ebp, esp

; 564  : 		_Left = _Right;

	mov	eax, DWORD PTR __Left$[ebp]
	mov	ecx, DWORD PTR __Right$[ebp]
	mov	dl, BYTE PTR [ecx]
	mov	BYTE PTR [eax], dl

; 565  : 		}

	pop	ebp
	ret	0
?assign@?$char_traits@D@std@@SAXAADABD@Z ENDP		; std::char_traits<char>::assign
_TEXT	ENDS
; Function compile flags: /Odtp /RTCsu
; File c:\program files (x86)\microsoft visual studio 12.0\vc\include\iosfwd
;	COMDAT ?move@?$char_traits@D@std@@SAPADPADPBDI@Z
_TEXT	SEGMENT
tv69 = -4						; size = 4
__First1$ = 8						; size = 4
__First2$ = 12						; size = 4
__Count$ = 16						; size = 4
?move@?$char_traits@D@std@@SAPADPADPBDI@Z PROC		; std::char_traits<char>::move, COMDAT

; 551  : 		{	// copy [_First2, _First2 + _Count) to [_First1, ...)

	push	ebp
	mov	ebp, esp
	push	ecx
	mov	DWORD PTR [ebp-4], -858993460		; ccccccccH

; 552  : 		return (_Count == 0 ? _First1
; 553  : 			: (_Elem *)_CSTD memmove(_First1, _First2, _Count));

	cmp	DWORD PTR __Count$[ebp], 0
	jne	SHORT $LN3@move
	mov	eax, DWORD PTR __First1$[ebp]
	mov	DWORD PTR tv69[ebp], eax
	jmp	SHORT $LN4@move
$LN3@move:
	mov	ecx, DWORD PTR __Count$[ebp]
	push	ecx
	mov	edx, DWORD PTR __First2$[ebp]
	push	edx
	mov	eax, DWORD PTR __First1$[ebp]
	push	eax
	call	_memmove
	add	esp, 12					; 0000000cH
	mov	DWORD PTR tv69[ebp], eax
$LN4@move:
	mov	eax, DWORD PTR tv69[ebp]

; 554  : 		}

	add	esp, 4
	cmp	ebp, esp
	call	__RTC_CheckEsp
	mov	esp, ebp
	pop	ebp
	ret	0
?move@?$char_traits@D@std@@SAPADPADPBDI@Z ENDP		; std::char_traits<char>::move
_TEXT	ENDS
; Function compile flags: /Odtp /RTCsu
; File c:\program files (x86)\microsoft visual studio 12.0\vc\include\iosfwd
;	COMDAT ?copy@?$char_traits@D@std@@SAPADPADPBDI@Z
_TEXT	SEGMENT
tv69 = -4						; size = 4
__First1$ = 8						; size = 4
__First2$ = 12						; size = 4
__Count$ = 16						; size = 4
?copy@?$char_traits@D@std@@SAPADPADPBDI@Z PROC		; std::char_traits<char>::copy, COMDAT

; 528  : 		{	// copy [_First2, _First2 + _Count) to [_First1, ...)

	push	ebp
	mov	ebp, esp
	push	ecx
	mov	DWORD PTR [ebp-4], -858993460		; ccccccccH

; 529  : 		return (_Count == 0 ? _First1
; 530  : 			: (_Elem *)_CSTD memcpy(_First1, _First2, _Count));

	cmp	DWORD PTR __Count$[ebp], 0
	jne	SHORT $LN3@copy
	mov	eax, DWORD PTR __First1$[ebp]
	mov	DWORD PTR tv69[ebp], eax
	jmp	SHORT $LN4@copy
$LN3@copy:
	mov	ecx, DWORD PTR __Count$[ebp]
	push	ecx
	mov	edx, DWORD PTR __First2$[ebp]
	push	edx
	mov	eax, DWORD PTR __First1$[ebp]
	push	eax
	call	_memcpy
	add	esp, 12					; 0000000cH
	mov	DWORD PTR tv69[ebp], eax
$LN4@copy:
	mov	eax, DWORD PTR tv69[ebp]

; 531  : 		}

	add	esp, 4
	cmp	ebp, esp
	call	__RTC_CheckEsp
	mov	esp, ebp
	pop	ebp
	ret	0
?copy@?$char_traits@D@std@@SAPADPADPBDI@Z ENDP		; std::char_traits<char>::copy
_TEXT	ENDS
; Function compile flags: /Odtp /RTCsu
; File c:\program files (x86)\microsoft visual studio 12.0\vc\include\iosfwd
;	COMDAT ?length@?$char_traits@D@std@@SAIPBD@Z
_TEXT	SEGMENT
tv68 = -4						; size = 4
__First$ = 8						; size = 4
?length@?$char_traits@D@std@@SAIPBD@Z PROC		; std::char_traits<char>::length, COMDAT

; 521  : 		{	// find length of null-terminated string

	push	ebp
	mov	ebp, esp
	push	ecx
	mov	DWORD PTR [ebp-4], -858993460		; ccccccccH

; 522  : 		return (*_First == 0 ? 0
; 523  : 			: _CSTD strlen(_First));

	mov	eax, DWORD PTR __First$[ebp]
	movsx	ecx, BYTE PTR [eax]
	test	ecx, ecx
	jne	SHORT $LN3@length
	mov	DWORD PTR tv68[ebp], 0
	jmp	SHORT $LN4@length
$LN3@length:
	mov	edx, DWORD PTR __First$[ebp]
	push	edx
	call	_strlen
	add	esp, 4
	mov	DWORD PTR tv68[ebp], eax
$LN4@length:
	mov	eax, DWORD PTR tv68[ebp]

; 524  : 		}

	add	esp, 4
	cmp	ebp, esp
	call	__RTC_CheckEsp
	mov	esp, ebp
	pop	ebp
	ret	0
?length@?$char_traits@D@std@@SAIPBD@Z ENDP		; std::char_traits<char>::length
_TEXT	ENDS
; Function compile flags: /Odtp /RTCsu
; File c:\program files (x86)\microsoft visual studio 12.0\vc\include\new
;	COMDAT ??3@YAXPAX0@Z
_TEXT	SEGMENT
___formal$ = 8						; size = 4
___formal$ = 12						; size = 4
??3@YAXPAX0@Z PROC					; operator delete, COMDAT

; 64   : 	{	// delete if placement new fails

	push	ebp
	mov	ebp, esp

; 65   : 	}

	pop	ebp
	ret	0
??3@YAXPAX0@Z ENDP					; operator delete
_TEXT	ENDS
; Function compile flags: /Odtp /RTCsu
; File c:\program files (x86)\microsoft visual studio 12.0\vc\include\new
;	COMDAT ??2@YAPAXIPAX@Z
_TEXT	SEGMENT
___formal$ = 8						; size = 4
__Where$ = 12						; size = 4
??2@YAPAXIPAX@Z PROC					; operator new, COMDAT

; 59   : 	{	// construct array with placement at _Where

	push	ebp
	mov	ebp, esp

; 60   : 	return (_Where);

	mov	eax, DWORD PTR __Where$[ebp]

; 61   : 	}

	pop	ebp
	ret	0
??2@YAPAXIPAX@Z ENDP					; operator new
_TEXT	ENDS
; Function compile flags: /Odtp /RTCsu
; File c:\program files (x86)\microsoft visual studio 12.0\vc\include\limits
;	COMDAT ?max@?$numeric_limits@N@std@@SANXZ
_TEXT	SEGMENT
?max@?$numeric_limits@N@std@@SANXZ PROC			; std::numeric_limits<double>::max, COMDAT

; 1133 : 	static _Ty (max)() _THROW0()

	push	ebp
	mov	ebp, esp

; 1134 : 		{	// return maximum value
; 1135 : 		return (DBL_MAX);

	fld	QWORD PTR __real@7fefffffffffffff

; 1136 : 		}

	pop	ebp
	ret	0
?max@?$numeric_limits@N@std@@SANXZ ENDP			; std::numeric_limits<double>::max
_TEXT	ENDS
; Function compile flags: /Odtp /RTCsu
; File c:\program files (x86)\microsoft visual studio 12.0\vc\include\limits
;	COMDAT ?min@?$numeric_limits@N@std@@SANXZ
_TEXT	SEGMENT
?min@?$numeric_limits@N@std@@SANXZ PROC			; std::numeric_limits<double>::min, COMDAT

; 1128 : 	static _Ty (min)() _THROW0()

	push	ebp
	mov	ebp, esp

; 1129 : 		{	// return minimum value
; 1130 : 		return (DBL_MIN);

	fld	QWORD PTR __real@0010000000000000

; 1131 : 		}

	pop	ebp
	ret	0
?min@?$numeric_limits@N@std@@SANXZ ENDP			; std::numeric_limits<double>::min
_TEXT	ENDS
; Function compile flags: /Odtp /RTCsu
; File c:\program files (x86)\microsoft visual studio 12.0\vc\include\limits
;	COMDAT ?max@?$numeric_limits@M@std@@SAMXZ
_TEXT	SEGMENT
?max@?$numeric_limits@M@std@@SAMXZ PROC			; std::numeric_limits<float>::max, COMDAT

; 1070 : 	static _Ty (max)() _THROW0()

	push	ebp
	mov	ebp, esp

; 1071 : 		{	// return maximum value
; 1072 : 		return (FLT_MAX);

	fld	DWORD PTR __real@7f7fffff

; 1073 : 		}

	pop	ebp
	ret	0
?max@?$numeric_limits@M@std@@SAMXZ ENDP			; std::numeric_limits<float>::max
_TEXT	ENDS
; Function compile flags: /Odtp /RTCsu
; File c:\program files (x86)\microsoft visual studio 12.0\vc\include\limits
;	COMDAT ?min@?$numeric_limits@M@std@@SAMXZ
_TEXT	SEGMENT
?min@?$numeric_limits@M@std@@SAMXZ PROC			; std::numeric_limits<float>::min, COMDAT

; 1065 : 	static _Ty (min)() _THROW0()

	push	ebp
	mov	ebp, esp

; 1066 : 		{	// return minimum value
; 1067 : 		return (FLT_MIN);

	fld	DWORD PTR __real@00800000

; 1068 : 		}

	pop	ebp
	ret	0
?min@?$numeric_limits@M@std@@SAMXZ ENDP			; std::numeric_limits<float>::min
_TEXT	ENDS
; Function compile flags: /Odtp /RTCsu
; File c:\program files (x86)\microsoft visual studio 12.0\vc\include\limits
;	COMDAT ?max@?$numeric_limits@H@std@@SAHXZ
_TEXT	SEGMENT
?max@?$numeric_limits@H@std@@SAHXZ PROC			; std::numeric_limits<int>::max, COMDAT

; 660  : 	static _Ty (max)() _THROW0()

	push	ebp
	mov	ebp, esp

; 661  : 		{	// return maximum value
; 662  : 		return (INT_MAX);

	mov	eax, 2147483647				; 7fffffffH

; 663  : 		}

	pop	ebp
	ret	0
?max@?$numeric_limits@H@std@@SAHXZ ENDP			; std::numeric_limits<int>::max
_TEXT	ENDS
; Function compile flags: /Odtp /RTCsu
; File c:\program files (x86)\microsoft visual studio 12.0\vc\include\math.h
;	COMDAT _hypot
_TEXT	SEGMENT
__X$ = 8						; size = 8
__Y$ = 16						; size = 8
_hypot	PROC						; COMDAT

; 556  : {

	push	ebp
	mov	ebp, esp

; 557  :     return _hypot(_X, _Y);

	sub	esp, 8
	movsd	xmm0, QWORD PTR __Y$[ebp]
	movsd	QWORD PTR [esp], xmm0
	sub	esp, 8
	movsd	xmm0, QWORD PTR __X$[ebp]
	movsd	QWORD PTR [esp], xmm0
	call	__hypot
	add	esp, 16					; 00000010H

; 558  : }

	cmp	ebp, esp
	call	__RTC_CheckEsp
	pop	ebp
	ret	0
_hypot	ENDP
_TEXT	ENDS
END
