; Listing generated by Microsoft (R) Optimizing Compiler Version 18.00.31101.0 

	TITLE	C:\Users\Maxime\Videos\TP IA\Logique-Floue\Common\fuzzy\FuzzyModule.cpp
	.686P
	.XMM
	include listing.inc
	.model	flat

INCLUDELIB LIBCMTD
INCLUDELIB OLDNAMES

CONST	SEGMENT
_Pi	DQ	0400921f9f01b866er		; 3.14159
$SG50016 DB	0aH, 0aH, 00H
	ORG $+1
$SG50100 DB	0aH, '--------------------------- ', 00H
CONST	ENDS
PUBLIC	_hypot
PUBLIC	?max@?$numeric_limits@H@std@@SAHXZ		; std::numeric_limits<int>::max
PUBLIC	?min@?$numeric_limits@M@std@@SAMXZ		; std::numeric_limits<float>::min
PUBLIC	?max@?$numeric_limits@M@std@@SAMXZ		; std::numeric_limits<float>::max
PUBLIC	?min@?$numeric_limits@N@std@@SANXZ		; std::numeric_limits<double>::min
PUBLIC	?max@?$numeric_limits@N@std@@SANXZ		; std::numeric_limits<double>::max
PUBLIC	??2@YAPAXIPAX@Z					; operator new
PUBLIC	??3@YAXPAX0@Z					; operator delete
PUBLIC	?compare@?$char_traits@D@std@@SAHPBD0I@Z	; std::char_traits<char>::compare
PUBLIC	?length@?$char_traits@D@std@@SAIPBD@Z		; std::char_traits<char>::length
PUBLIC	?copy@?$char_traits@D@std@@SAPADPADPBDI@Z	; std::char_traits<char>::copy
PUBLIC	?move@?$char_traits@D@std@@SAPADPADPBDI@Z	; std::char_traits<char>::move
PUBLIC	?assign@?$char_traits@D@std@@SAXAADABD@Z	; std::char_traits<char>::assign
PUBLIC	?to_int_type@?$char_traits@D@std@@SAHABD@Z	; std::char_traits<char>::to_int_type
PUBLIC	?eq_int_type@?$char_traits@D@std@@SA_NABH0@Z	; std::char_traits<char>::eq_int_type
PUBLIC	?eof@?$char_traits@D@std@@SAHXZ			; std::char_traits<char>::eof
PUBLIC	??0_Container_proxy@std@@QAE@XZ			; std::_Container_proxy::_Container_proxy
PUBLIC	??0_Container_base12@std@@QAE@XZ		; std::_Container_base12::_Container_base12
PUBLIC	??1_Container_base12@std@@QAE@XZ		; std::_Container_base12::~_Container_base12
PUBLIC	?_Getpfirst@_Container_base12@std@@QBEPAPAU_Iterator_base12@2@XZ ; std::_Container_base12::_Getpfirst
PUBLIC	?_Orphan_all@_Container_base12@std@@QAEXXZ	; std::_Container_base12::_Orphan_all
PUBLIC	??0_Iterator_base12@std@@QAE@XZ			; std::_Iterator_base12::_Iterator_base12
PUBLIC	??0_Iterator_base12@std@@QAE@ABU01@@Z		; std::_Iterator_base12::_Iterator_base12
PUBLIC	??4_Iterator_base12@std@@QAEAAU01@ABU01@@Z	; std::_Iterator_base12::operator=
PUBLIC	??1_Iterator_base12@std@@QAE@XZ			; std::_Iterator_base12::~_Iterator_base12
PUBLIC	?_Adopt@_Iterator_base12@std@@QAEXPBU_Container_base12@2@@Z ; std::_Iterator_base12::_Adopt
PUBLIC	?_Clrcont@_Iterator_base12@std@@QAEXXZ		; std::_Iterator_base12::_Clrcont
PUBLIC	?_Getcont@_Iterator_base12@std@@QBEPBU_Container_base12@2@XZ ; std::_Iterator_base12::_Getcont
PUBLIC	?_Getpnext@_Iterator_base12@std@@QAEPAPAU12@XZ	; std::_Iterator_base12::_Getpnext
PUBLIC	?_Orphan_me@_Iterator_base12@std@@QAEXXZ	; std::_Iterator_base12::_Orphan_me
PUBLIC	?_Init_atomic_counter@std@@YAXAAKK@Z		; std::_Init_atomic_counter
PUBLIC	?select_on_container_copy_construction@?$allocator@D@std@@QBE?AV12@XZ ; std::allocator<char>::select_on_container_copy_construction
PUBLIC	??0?$allocator@D@std@@QAE@XZ			; std::allocator<char>::allocator<char>
PUBLIC	??0?$allocator@D@std@@QAE@ABV01@@Z		; std::allocator<char>::allocator<char>
PUBLIC	?deallocate@?$allocator@D@std@@QAEXPADI@Z	; std::allocator<char>::deallocate
PUBLIC	?allocate@?$allocator@D@std@@QAEPADI@Z		; std::allocator<char>::allocate
PUBLIC	?max_size@?$allocator@D@std@@QBEIXZ		; std::allocator<char>::max_size
PUBLIC	?max_size@?$allocator_traits@V?$allocator@D@std@@@std@@SAIABV?$allocator@D@2@@Z ; std::allocator_traits<std::allocator<char> >::max_size
PUBLIC	?select_on_container_copy_construction@?$allocator_traits@V?$allocator@D@std@@@std@@SA?AV?$allocator@D@2@ABV32@@Z ; std::allocator_traits<std::allocator<char> >::select_on_container_copy_construction
PUBLIC	?select_on_container_copy_construction@?$_Wrap_alloc@V?$allocator@D@std@@@std@@QBE?AU12@XZ ; std::_Wrap_alloc<std::allocator<char> >::select_on_container_copy_construction
PUBLIC	??0?$_Wrap_alloc@V?$allocator@D@std@@@std@@QAE@XZ ; std::_Wrap_alloc<std::allocator<char> >::_Wrap_alloc<std::allocator<char> >
PUBLIC	??0?$_Wrap_alloc@V?$allocator@D@std@@@std@@QAE@ABV?$allocator@D@1@@Z ; std::_Wrap_alloc<std::allocator<char> >::_Wrap_alloc<std::allocator<char> >
PUBLIC	?allocate@?$_Wrap_alloc@V?$allocator@D@std@@@std@@QAEPADI@Z ; std::_Wrap_alloc<std::allocator<char> >::allocate
PUBLIC	?deallocate@?$_Wrap_alloc@V?$allocator@D@std@@@std@@QAEXPADI@Z ; std::_Wrap_alloc<std::allocator<char> >::deallocate
PUBLIC	?max_size@?$_Wrap_alloc@V?$allocator@D@std@@@std@@QBEIXZ ; std::_Wrap_alloc<std::allocator<char> >::max_size
PUBLIC	??0?$_String_val@U?$_Simple_types@D@std@@@std@@QAE@XZ ; std::_String_val<std::_Simple_types<char> >::_String_val<std::_Simple_types<char> >
PUBLIC	?_Myptr@?$_String_val@U?$_Simple_types@D@std@@@std@@QAEPADXZ ; std::_String_val<std::_Simple_types<char> >::_Myptr
PUBLIC	?_Myptr@?$_String_val@U?$_Simple_types@D@std@@@std@@QBEPBDXZ ; std::_String_val<std::_Simple_types<char> >::_Myptr
PUBLIC	??1?$_String_val@U?$_Simple_types@D@std@@@std@@QAE@XZ ; std::_String_val<std::_Simple_types<char> >::~_String_val<std::_Simple_types<char> >
PUBLIC	??0?$_String_alloc@$0A@U?$_String_base_types@DV?$allocator@D@std@@@std@@@std@@QAE@ABV?$allocator@D@1@@Z ; std::_String_alloc<0,std::_String_base_types<char,std::allocator<char> > >::_String_alloc<0,std::_String_base_types<char,std::allocator<char> > >
PUBLIC	??1?$_String_alloc@$0A@U?$_String_base_types@DV?$allocator@D@std@@@std@@@std@@QAE@XZ ; std::_String_alloc<0,std::_String_base_types<char,std::allocator<char> > >::~_String_alloc<0,std::_String_base_types<char,std::allocator<char> > >
PUBLIC	?_Alloc_proxy@?$_String_alloc@$0A@U?$_String_base_types@DV?$allocator@D@std@@@std@@@std@@QAEXXZ ; std::_String_alloc<0,std::_String_base_types<char,std::allocator<char> > >::_Alloc_proxy
PUBLIC	?_Free_proxy@?$_String_alloc@$0A@U?$_String_base_types@DV?$allocator@D@std@@@std@@@std@@QAEXXZ ; std::_String_alloc<0,std::_String_base_types<char,std::allocator<char> > >::_Free_proxy
PUBLIC	?_Getal@?$_String_alloc@$0A@U?$_String_base_types@DV?$allocator@D@std@@@std@@@std@@QBE?AU?$_Wrap_alloc@V?$allocator@D@std@@@2@XZ ; std::_String_alloc<0,std::_String_base_types<char,std::allocator<char> > >::_Getal
PUBLIC	??0?$basic_string@DU?$char_traits@D@std@@V?$allocator@D@2@@std@@QAE@ABV01@@Z ; std::basic_string<char,std::char_traits<char>,std::allocator<char> >::basic_string<char,std::char_traits<char>,std::allocator<char> >
PUBLIC	??0?$basic_string@DU?$char_traits@D@std@@V?$allocator@D@2@@std@@QAE@PBD@Z ; std::basic_string<char,std::char_traits<char>,std::allocator<char> >::basic_string<char,std::char_traits<char>,std::allocator<char> >
PUBLIC	??0?$basic_string@DU?$char_traits@D@std@@V?$allocator@D@2@@std@@QAE@$$QAV01@@Z ; std::basic_string<char,std::char_traits<char>,std::allocator<char> >::basic_string<char,std::char_traits<char>,std::allocator<char> >
PUBLIC	?_Assign_rv@?$basic_string@DU?$char_traits@D@std@@V?$allocator@D@2@@std@@QAEX$$QAV12@@Z ; std::basic_string<char,std::char_traits<char>,std::allocator<char> >::_Assign_rv
PUBLIC	??1?$basic_string@DU?$char_traits@D@std@@V?$allocator@D@2@@std@@QAE@XZ ; std::basic_string<char,std::char_traits<char>,std::allocator<char> >::~basic_string<char,std::char_traits<char>,std::allocator<char> >
PUBLIC	?append@?$basic_string@DU?$char_traits@D@std@@V?$allocator@D@2@@std@@QAEAAV12@ABV12@@Z ; std::basic_string<char,std::char_traits<char>,std::allocator<char> >::append
PUBLIC	?append@?$basic_string@DU?$char_traits@D@std@@V?$allocator@D@2@@std@@QAEAAV12@ABV12@II@Z ; std::basic_string<char,std::char_traits<char>,std::allocator<char> >::append
PUBLIC	?append@?$basic_string@DU?$char_traits@D@std@@V?$allocator@D@2@@std@@QAEAAV12@PBDI@Z ; std::basic_string<char,std::char_traits<char>,std::allocator<char> >::append
PUBLIC	?append@?$basic_string@DU?$char_traits@D@std@@V?$allocator@D@2@@std@@QAEAAV12@PBD@Z ; std::basic_string<char,std::char_traits<char>,std::allocator<char> >::append
PUBLIC	?assign@?$basic_string@DU?$char_traits@D@std@@V?$allocator@D@2@@std@@QAEAAV12@ABV12@II@Z ; std::basic_string<char,std::char_traits<char>,std::allocator<char> >::assign
PUBLIC	?assign@?$basic_string@DU?$char_traits@D@std@@V?$allocator@D@2@@std@@QAEAAV12@PBDI@Z ; std::basic_string<char,std::char_traits<char>,std::allocator<char> >::assign
PUBLIC	?assign@?$basic_string@DU?$char_traits@D@std@@V?$allocator@D@2@@std@@QAEAAV12@PBD@Z ; std::basic_string<char,std::char_traits<char>,std::allocator<char> >::assign
PUBLIC	?erase@?$basic_string@DU?$char_traits@D@std@@V?$allocator@D@2@@std@@QAEAAV12@I@Z ; std::basic_string<char,std::char_traits<char>,std::allocator<char> >::erase
PUBLIC	?erase@?$basic_string@DU?$char_traits@D@std@@V?$allocator@D@2@@std@@QAEAAV12@II@Z ; std::basic_string<char,std::char_traits<char>,std::allocator<char> >::erase
PUBLIC	?c_str@?$basic_string@DU?$char_traits@D@std@@V?$allocator@D@2@@std@@QBEPBDXZ ; std::basic_string<char,std::char_traits<char>,std::allocator<char> >::c_str
PUBLIC	?size@?$basic_string@DU?$char_traits@D@std@@V?$allocator@D@2@@std@@QBEIXZ ; std::basic_string<char,std::char_traits<char>,std::allocator<char> >::size
PUBLIC	?max_size@?$basic_string@DU?$char_traits@D@std@@V?$allocator@D@2@@std@@QBEIXZ ; std::basic_string<char,std::char_traits<char>,std::allocator<char> >::max_size
PUBLIC	?empty@?$basic_string@DU?$char_traits@D@std@@V?$allocator@D@2@@std@@QBE_NXZ ; std::basic_string<char,std::char_traits<char>,std::allocator<char> >::empty
PUBLIC	?compare@?$basic_string@DU?$char_traits@D@std@@V?$allocator@D@2@@std@@QBEHABV12@@Z ; std::basic_string<char,std::char_traits<char>,std::allocator<char> >::compare
PUBLIC	?compare@?$basic_string@DU?$char_traits@D@std@@V?$allocator@D@2@@std@@QBEHIIPBDI@Z ; std::basic_string<char,std::char_traits<char>,std::allocator<char> >::compare
PUBLIC	?_Copy@?$basic_string@DU?$char_traits@D@std@@V?$allocator@D@2@@std@@QAEXII@Z ; std::basic_string<char,std::char_traits<char>,std::allocator<char> >::_Copy
PUBLIC	?_Eos@?$basic_string@DU?$char_traits@D@std@@V?$allocator@D@2@@std@@QAEXI@Z ; std::basic_string<char,std::char_traits<char>,std::allocator<char> >::_Eos
PUBLIC	?_Grow@?$basic_string@DU?$char_traits@D@std@@V?$allocator@D@2@@std@@QAE_NI_N@Z ; std::basic_string<char,std::char_traits<char>,std::allocator<char> >::_Grow
PUBLIC	?_Inside@?$basic_string@DU?$char_traits@D@std@@V?$allocator@D@2@@std@@QAE_NPBD@Z ; std::basic_string<char,std::char_traits<char>,std::allocator<char> >::_Inside
PUBLIC	?_Tidy@?$basic_string@DU?$char_traits@D@std@@V?$allocator@D@2@@std@@QAEX_NI@Z ; std::basic_string<char,std::char_traits<char>,std::allocator<char> >::_Tidy
PUBLIC	?_Xlen@?$basic_string@DU?$char_traits@D@std@@V?$allocator@D@2@@std@@QBEXXZ ; std::basic_string<char,std::char_traits<char>,std::allocator<char> >::_Xlen
PUBLIC	?_Xran@?$basic_string@DU?$char_traits@D@std@@V?$allocator@D@2@@std@@QBEXXZ ; std::basic_string<char,std::char_traits<char>,std::allocator<char> >::_Xran
PUBLIC	??0runtime_error@std@@QAE@ABV?$basic_string@DU?$char_traits@D@std@@V?$allocator@D@2@@1@@Z ; std::runtime_error::runtime_error
PUBLIC	??0runtime_error@std@@QAE@PBD@Z			; std::runtime_error::runtime_error
PUBLIC	??1runtime_error@std@@UAE@XZ			; std::runtime_error::~runtime_error
PUBLIC	??0runtime_error@std@@QAE@ABV01@@Z		; std::runtime_error::runtime_error
PUBLIC	??_Gruntime_error@std@@UAEPAXI@Z		; std::runtime_error::`scalar deleting destructor'
PUBLIC	??0_Locinfo@std@@QAE@PBD@Z			; std::_Locinfo::_Locinfo
PUBLIC	??1_Locinfo@std@@QAE@XZ				; std::_Locinfo::~_Locinfo
PUBLIC	?_Getctype@_Locinfo@std@@QBE?AU_Ctypevec@@XZ	; std::_Locinfo::_Getctype
PUBLIC	??0?$_Yarn@D@std@@QAE@XZ			; std::_Yarn<char>::_Yarn<char>
PUBLIC	??1?$_Yarn@D@std@@QAE@XZ			; std::_Yarn<char>::~_Yarn<char>
PUBLIC	?c_str@?$_Yarn@D@std@@QBEPBDXZ			; std::_Yarn<char>::c_str
PUBLIC	?_Tidy@?$_Yarn@D@std@@AAEXXZ			; std::_Yarn<char>::_Tidy
PUBLIC	??0?$_Yarn@_W@std@@QAE@XZ			; std::_Yarn<wchar_t>::_Yarn<wchar_t>
PUBLIC	??1?$_Yarn@_W@std@@QAE@XZ			; std::_Yarn<wchar_t>::~_Yarn<wchar_t>
PUBLIC	?_Tidy@?$_Yarn@_W@std@@AAEXXZ			; std::_Yarn<wchar_t>::_Tidy
PUBLIC	??1_Facet_base@std@@UAE@XZ			; std::_Facet_base::~_Facet_base
PUBLIC	??0_Facet_base@std@@QAE@XZ			; std::_Facet_base::_Facet_base
PUBLIC	??_G_Facet_base@std@@UAEPAXI@Z			; std::_Facet_base::`scalar deleting destructor'
PUBLIC	??0id@locale@std@@QAE@I@Z			; std::locale::id::id
PUBLIC	??Bid@locale@std@@QAEIXZ			; std::locale::id::operator unsigned int
PUBLIC	??2facet@locale@std@@SAPAXIABU_DebugHeapTag_t@2@PADH@Z ; std::locale::facet::operator new
PUBLIC	??3facet@locale@std@@SAXPAXABU_DebugHeapTag_t@2@PADH@Z ; std::locale::facet::operator delete
PUBLIC	??3facet@locale@std@@SAXPAX@Z			; std::locale::facet::operator delete
PUBLIC	?_Incref@facet@locale@std@@UAEXXZ		; std::locale::facet::_Incref
PUBLIC	?_Decref@facet@locale@std@@UAEPAV_Facet_base@3@XZ ; std::locale::facet::_Decref
PUBLIC	??0facet@locale@std@@IAE@I@Z			; std::locale::facet::facet
PUBLIC	??1facet@locale@std@@MAE@XZ			; std::locale::facet::~facet
PUBLIC	??_Gfacet@locale@std@@MAEPAXI@Z			; std::locale::facet::`scalar deleting destructor'
PUBLIC	??0locale@std@@QAE@ABV01@@Z			; std::locale::locale
PUBLIC	??1locale@std@@QAE@XZ				; std::locale::~locale
PUBLIC	?c_str@locale@std@@QBEPBDXZ			; std::locale::c_str
PUBLIC	?_Getfacet@locale@std@@QBEPBVfacet@12@I@Z	; std::locale::_Getfacet
PUBLIC	??$_DebugHeapDelete@Vfacet@locale@std@@@std@@YAXPAVfacet@locale@0@@Z ; std::_DebugHeapDelete<std::locale::facet>
PUBLIC	??$_DebugHeapDelete@V_Facet_base@std@@@std@@YAXPAV_Facet_base@0@@Z ; std::_DebugHeapDelete<std::_Facet_base>
PUBLIC	??$_Debug_range@PBD@std@@YAXPBD0PB_WI@Z		; std::_Debug_range<char const *>
PUBLIC	??0ctype_base@std@@QAE@I@Z			; std::ctype_base::ctype_base
PUBLIC	??1ctype_base@std@@UAE@XZ			; std::ctype_base::~ctype_base
PUBLIC	??_Gctype_base@std@@UAEPAXI@Z			; std::ctype_base::`scalar deleting destructor'
PUBLIC	?widen@?$ctype@D@std@@QBEDD@Z			; std::ctype<char>::widen
PUBLIC	??0?$ctype@D@std@@QAE@ABV_Locinfo@1@I@Z		; std::ctype<char>::ctype<char>
PUBLIC	?_Getcat@?$ctype@D@std@@SAIPAPBVfacet@locale@2@PBV42@@Z ; std::ctype<char>::_Getcat
PUBLIC	??1?$ctype@D@std@@MAE@XZ			; std::ctype<char>::~ctype<char>
PUBLIC	?_Init@?$ctype@D@std@@IAEXABV_Locinfo@2@@Z	; std::ctype<char>::_Init
PUBLIC	?_Tidy@?$ctype@D@std@@IAEXXZ			; std::ctype<char>::_Tidy
PUBLIC	?do_tolower@?$ctype@D@std@@MBEDD@Z		; std::ctype<char>::do_tolower
PUBLIC	?do_tolower@?$ctype@D@std@@MBEPBDPADPBD@Z	; std::ctype<char>::do_tolower
PUBLIC	?do_toupper@?$ctype@D@std@@MBEDD@Z		; std::ctype<char>::do_toupper
PUBLIC	?do_toupper@?$ctype@D@std@@MBEPBDPADPBD@Z	; std::ctype<char>::do_toupper
PUBLIC	?do_widen@?$ctype@D@std@@MBEDD@Z		; std::ctype<char>::do_widen
PUBLIC	?do_widen@?$ctype@D@std@@MBEPBDPBD0PAD@Z	; std::ctype<char>::do_widen
PUBLIC	?do_narrow@?$ctype@D@std@@MBEDDD@Z		; std::ctype<char>::do_narrow
PUBLIC	?do_narrow@?$ctype@D@std@@MBEPBDPBD0DPAD@Z	; std::ctype<char>::do_narrow
PUBLIC	??_G?$ctype@D@std@@MAEPAXI@Z			; std::ctype<char>::`scalar deleting destructor'
PUBLIC	??$use_facet@V?$ctype@D@std@@@std@@YAABV?$ctype@D@0@ABVlocale@0@@Z ; std::use_facet<std::ctype<char> >
PUBLIC	??$_Debug_pointer@D@std@@YAXPADPB_WI@Z		; std::_Debug_pointer<char>
PUBLIC	??$_Debug_pointer@D@std@@YAXPBDPB_WI@Z		; std::_Debug_pointer<char>
PUBLIC	?make_error_code@std@@YA?AVerror_code@1@W4io_errc@1@@Z ; std::make_error_code
PUBLIC	?generic_category@std@@YAABVerror_category@1@XZ	; std::generic_category
PUBLIC	?iostream_category@std@@YAABVerror_category@1@XZ ; std::iostream_category
PUBLIC	?system_category@std@@YAABVerror_category@1@XZ	; std::system_category
PUBLIC	??0error_category@std@@QAE@XZ			; std::error_category::error_category
PUBLIC	??1error_category@std@@UAE@XZ			; std::error_category::~error_category
PUBLIC	?default_error_condition@error_category@std@@UBE?AVerror_condition@2@H@Z ; std::error_category::default_error_condition
PUBLIC	?equivalent@error_category@std@@UBE_NHABVerror_condition@2@@Z ; std::error_category::equivalent
PUBLIC	?equivalent@error_category@std@@UBE_NABVerror_code@2@H@Z ; std::error_category::equivalent
PUBLIC	??8error_category@std@@QBE_NABV01@@Z		; std::error_category::operator==
PUBLIC	??_Gerror_category@std@@UAEPAXI@Z		; std::error_category::`scalar deleting destructor'
PUBLIC	??0error_code@std@@QAE@HABVerror_category@1@@Z	; std::error_code::error_code
PUBLIC	?value@error_code@std@@QBEHXZ			; std::error_code::value
PUBLIC	?category@error_code@std@@QBEABVerror_category@2@XZ ; std::error_code::category
PUBLIC	?message@error_code@std@@QBE?AV?$basic_string@DU?$char_traits@D@std@@V?$allocator@D@2@@2@XZ ; std::error_code::message
PUBLIC	??0error_condition@std@@QAE@HABVerror_category@1@@Z ; std::error_condition::error_condition
PUBLIC	?value@error_condition@std@@QBEHXZ		; std::error_condition::value
PUBLIC	?category@error_condition@std@@QBEABVerror_category@2@XZ ; std::error_condition::category
PUBLIC	??8error_condition@std@@QBE_NABV01@@Z		; std::error_condition::operator==
PUBLIC	?_Makestr@_System_error@std@@CA?AV?$basic_string@DU?$char_traits@D@std@@V?$allocator@D@2@@2@Verror_code@2@V32@@Z ; std::_System_error::_Makestr
PUBLIC	??0_System_error@std@@IAE@Verror_code@1@ABV?$basic_string@DU?$char_traits@D@std@@V?$allocator@D@2@@1@@Z ; std::_System_error::_System_error
PUBLIC	??1_System_error@std@@UAE@XZ			; std::_System_error::~_System_error
PUBLIC	??0_System_error@std@@QAE@ABV01@@Z		; std::_System_error::_System_error
PUBLIC	??_G_System_error@std@@UAEPAXI@Z		; std::_System_error::`scalar deleting destructor'
PUBLIC	??0system_error@std@@QAE@Verror_code@1@PBD@Z	; std::system_error::system_error
PUBLIC	??1system_error@std@@UAE@XZ			; std::system_error::~system_error
PUBLIC	??0system_error@std@@QAE@ABV01@@Z		; std::system_error::system_error
PUBLIC	??_Gsystem_error@std@@UAEPAXI@Z			; std::system_error::`scalar deleting destructor'
PUBLIC	??0_Generic_error_category@std@@QAE@XZ		; std::_Generic_error_category::_Generic_error_category
PUBLIC	?name@_Generic_error_category@std@@UBEPBDXZ	; std::_Generic_error_category::name
PUBLIC	?message@_Generic_error_category@std@@UBE?AV?$basic_string@DU?$char_traits@D@std@@V?$allocator@D@2@@2@H@Z ; std::_Generic_error_category::message
PUBLIC	??1_Generic_error_category@std@@UAE@XZ		; std::_Generic_error_category::~_Generic_error_category
PUBLIC	??_G_Generic_error_category@std@@UAEPAXI@Z	; std::_Generic_error_category::`scalar deleting destructor'
PUBLIC	??0_Iostream_error_category@std@@QAE@XZ		; std::_Iostream_error_category::_Iostream_error_category
PUBLIC	?name@_Iostream_error_category@std@@UBEPBDXZ	; std::_Iostream_error_category::name
PUBLIC	?message@_Iostream_error_category@std@@UBE?AV?$basic_string@DU?$char_traits@D@std@@V?$allocator@D@2@@2@H@Z ; std::_Iostream_error_category::message
PUBLIC	??1_Iostream_error_category@std@@UAE@XZ		; std::_Iostream_error_category::~_Iostream_error_category
PUBLIC	??_G_Iostream_error_category@std@@UAEPAXI@Z	; std::_Iostream_error_category::`scalar deleting destructor'
PUBLIC	??0_System_error_category@std@@QAE@XZ		; std::_System_error_category::_System_error_category
PUBLIC	?name@_System_error_category@std@@UBEPBDXZ	; std::_System_error_category::name
PUBLIC	?message@_System_error_category@std@@UBE?AV?$basic_string@DU?$char_traits@D@std@@V?$allocator@D@2@@2@H@Z ; std::_System_error_category::message
PUBLIC	?default_error_condition@_System_error_category@std@@UBE?AVerror_condition@2@H@Z ; std::_System_error_category::default_error_condition
PUBLIC	??1_System_error_category@std@@UAE@XZ		; std::_System_error_category::~_System_error_category
PUBLIC	??_G_System_error_category@std@@UAEPAXI@Z	; std::_System_error_category::`scalar deleting destructor'
PUBLIC	??0failure@ios_base@std@@QAE@PBDABVerror_code@2@@Z ; std::ios_base::failure::failure
PUBLIC	??1failure@ios_base@std@@UAE@XZ			; std::ios_base::failure::~failure
PUBLIC	??0failure@ios_base@std@@QAE@ABV012@@Z		; std::ios_base::failure::failure
PUBLIC	??_Gfailure@ios_base@std@@UAEPAXI@Z		; std::ios_base::failure::`scalar deleting destructor'
PUBLIC	?clear@ios_base@std@@QAEXH_N@Z			; std::ios_base::clear
PUBLIC	?rdstate@ios_base@std@@QBEHXZ			; std::ios_base::rdstate
PUBLIC	?good@ios_base@std@@QBE_NXZ			; std::ios_base::good
PUBLIC	?flags@ios_base@std@@QBEHXZ			; std::ios_base::flags
PUBLIC	?width@ios_base@std@@QBE_JXZ			; std::ios_base::width
PUBLIC	?width@ios_base@std@@QAE_J_J@Z			; std::ios_base::width
PUBLIC	?getloc@ios_base@std@@QBE?AVlocale@2@XZ		; std::ios_base::getloc
PUBLIC	?clear@?$basic_ios@DU?$char_traits@D@std@@@std@@QAEXH_N@Z ; std::basic_ios<char,std::char_traits<char> >::clear
PUBLIC	?setstate@?$basic_ios@DU?$char_traits@D@std@@@std@@QAEXH_N@Z ; std::basic_ios<char,std::char_traits<char> >::setstate
PUBLIC	?tie@?$basic_ios@DU?$char_traits@D@std@@@std@@QBEPAV?$basic_ostream@DU?$char_traits@D@std@@@2@XZ ; std::basic_ios<char,std::char_traits<char> >::tie
PUBLIC	?rdbuf@?$basic_ios@DU?$char_traits@D@std@@@std@@QBEPAV?$basic_streambuf@DU?$char_traits@D@std@@@2@XZ ; std::basic_ios<char,std::char_traits<char> >::rdbuf
PUBLIC	?fill@?$basic_ios@DU?$char_traits@D@std@@@std@@QBEDXZ ; std::basic_ios<char,std::char_traits<char> >::fill
PUBLIC	?widen@?$basic_ios@DU?$char_traits@D@std@@@std@@QBEDD@Z ; std::basic_ios<char,std::char_traits<char> >::widen
PUBLIC	?pubsync@?$basic_streambuf@DU?$char_traits@D@std@@@std@@QAEHXZ ; std::basic_streambuf<char,std::char_traits<char> >::pubsync
PUBLIC	?sputc@?$basic_streambuf@DU?$char_traits@D@std@@@std@@QAEHD@Z ; std::basic_streambuf<char,std::char_traits<char> >::sputc
PUBLIC	?sputn@?$basic_streambuf@DU?$char_traits@D@std@@@std@@QAE_JPBD_J@Z ; std::basic_streambuf<char,std::char_traits<char> >::sputn
PUBLIC	?_Pninc@?$basic_streambuf@DU?$char_traits@D@std@@@std@@IAEPADXZ ; std::basic_streambuf<char,std::char_traits<char> >::_Pninc
PUBLIC	?_Pnavail@?$basic_streambuf@DU?$char_traits@D@std@@@std@@IBE_JXZ ; std::basic_streambuf<char,std::char_traits<char> >::_Pnavail
PUBLIC	?_Osfx@?$basic_ostream@DU?$char_traits@D@std@@@std@@QAEXXZ ; std::basic_ostream<char,std::char_traits<char> >::_Osfx
PUBLIC	??6?$basic_ostream@DU?$char_traits@D@std@@@std@@QAEAAV01@P6AAAV01@AAV01@@Z@Z ; std::basic_ostream<char,std::char_traits<char> >::operator<<
PUBLIC	?put@?$basic_ostream@DU?$char_traits@D@std@@@std@@QAEAAV12@D@Z ; std::basic_ostream<char,std::char_traits<char> >::put
PUBLIC	?flush@?$basic_ostream@DU?$char_traits@D@std@@@std@@QAEAAV12@XZ ; std::basic_ostream<char,std::char_traits<char> >::flush
PUBLIC	??0_Ignore@std@@QAE@XZ				; std::_Ignore::_Ignore
PUBLIC	??0?$tuple@$$$V@std@@QAE@XZ			; std::tuple<>::tuple<>
PUBLIC	??0?$tuple@$$$V@std@@QAE@ABV01@@Z		; std::tuple<>::tuple<>
PUBLIC	??R?$less@V?$basic_string@DU?$char_traits@D@std@@V?$allocator@D@2@@std@@@std@@QBE_NABV?$basic_string@DU?$char_traits@D@std@@V?$allocator@D@2@@1@0@Z ; std::less<std::basic_string<char,std::char_traits<char>,std::allocator<char> > >::operator()
PUBLIC	??0?$allocator@U?$pair@$$CBV?$basic_string@DU?$char_traits@D@std@@V?$allocator@D@2@@std@@PAVFuzzySet@@@std@@@std@@QAE@XZ ; std::allocator<std::pair<std::basic_string<char,std::char_traits<char>,std::allocator<char> > const ,FuzzySet *> >::allocator<std::pair<std::basic_string<char,std::char_traits<char>,std::allocator<char> > const ,FuzzySet *> >
PUBLIC	??0?$allocator@U?$_Tree_node@U?$pair@$$CBV?$basic_string@DU?$char_traits@D@std@@V?$allocator@D@2@@std@@PAVFuzzySet@@@std@@PAX@std@@@std@@QAE@XZ ; std::allocator<std::_Tree_node<std::pair<std::basic_string<char,std::char_traits<char>,std::allocator<char> > const ,FuzzySet *>,void *> >::allocator<std::_Tree_node<std::pair<std::basic_string<char,std::char_traits<char>,std::allocator<char> > const ,FuzzySet *>,void *> >
PUBLIC	?deallocate@?$allocator@U?$_Tree_node@U?$pair@$$CBV?$basic_string@DU?$char_traits@D@std@@V?$allocator@D@2@@std@@PAVFuzzySet@@@std@@PAX@std@@@std@@QAEXPAU?$_Tree_node@U?$pair@$$CBV?$basic_string@DU?$char_traits@D@std@@V?$allocator@D@2@@std@@PAVFuzzySet@@@std@@PAX@2@I@Z ; std::allocator<std::_Tree_node<std::pair<std::basic_string<char,std::char_traits<char>,std::allocator<char> > const ,FuzzySet *>,void *> >::deallocate
PUBLIC	?allocate@?$allocator@U?$_Tree_node@U?$pair@$$CBV?$basic_string@DU?$char_traits@D@std@@V?$allocator@D@2@@std@@PAVFuzzySet@@@std@@PAX@std@@@std@@QAEPAU?$_Tree_node@U?$pair@$$CBV?$basic_string@DU?$char_traits@D@std@@V?$allocator@D@2@@std@@PAVFuzzySet@@@std@@PAX@2@I@Z ; std::allocator<std::_Tree_node<std::pair<std::basic_string<char,std::char_traits<char>,std::allocator<char> > const ,FuzzySet *>,void *> >::allocate
PUBLIC	??0?$_Wrap_alloc@V?$allocator@U?$_Tree_node@U?$pair@$$CBV?$basic_string@DU?$char_traits@D@std@@V?$allocator@D@2@@std@@PAVFuzzySet@@@std@@PAX@std@@@std@@@std@@QAE@XZ ; std::_Wrap_alloc<std::allocator<std::_Tree_node<std::pair<std::basic_string<char,std::char_traits<char>,std::allocator<char> > const ,FuzzySet *>,void *> > >::_Wrap_alloc<std::allocator<std::_Tree_node<std::pair<std::basic_string<char,std::char_traits<char>,std::allocator<char> > const ,FuzzySet *>,void *> > >
PUBLIC	?allocate@?$_Wrap_alloc@V?$allocator@U?$_Tree_node@U?$pair@$$CBV?$basic_string@DU?$char_traits@D@std@@V?$allocator@D@2@@std@@PAVFuzzySet@@@std@@PAX@std@@@std@@@std@@QAEPAU?$_Tree_node@U?$pair@$$CBV?$basic_string@DU?$char_traits@D@std@@V?$allocator@D@2@@std@@PAVFuzzySet@@@std@@PAX@2@I@Z ; std::_Wrap_alloc<std::allocator<std::_Tree_node<std::pair<std::basic_string<char,std::char_traits<char>,std::allocator<char> > const ,FuzzySet *>,void *> > >::allocate
PUBLIC	?deallocate@?$_Wrap_alloc@V?$allocator@U?$_Tree_node@U?$pair@$$CBV?$basic_string@DU?$char_traits@D@std@@V?$allocator@D@2@@std@@PAVFuzzySet@@@std@@PAX@std@@@std@@@std@@QAEXPAU?$_Tree_node@U?$pair@$$CBV?$basic_string@DU?$char_traits@D@std@@V?$allocator@D@2@@std@@PAVFuzzySet@@@std@@PAX@2@I@Z ; std::_Wrap_alloc<std::allocator<std::_Tree_node<std::pair<std::basic_string<char,std::char_traits<char>,std::allocator<char> > const ,FuzzySet *>,void *> > >::deallocate
PUBLIC	??0?$_Tree_val@U?$_Tree_simple_types@U?$pair@$$CBV?$basic_string@DU?$char_traits@D@std@@V?$allocator@D@2@@std@@PAVFuzzySet@@@std@@@std@@@std@@QAE@XZ ; std::_Tree_val<std::_Tree_simple_types<std::pair<std::basic_string<char,std::char_traits<char>,std::allocator<char> > const ,FuzzySet *> > >::_Tree_val<std::_Tree_simple_types<std::pair<std::basic_string<char,std::char_traits<char>,std::allocator<char> > const ,FuzzySet *> > >
PUBLIC	?_Color@?$_Tree_val@U?$_Tree_simple_types@U?$pair@$$CBV?$basic_string@DU?$char_traits@D@std@@V?$allocator@D@2@@std@@PAVFuzzySet@@@std@@@std@@@std@@SAAADPAU?$_Tree_node@U?$pair@$$CBV?$basic_string@DU?$char_traits@D@std@@V?$allocator@D@2@@std@@PAVFuzzySet@@@std@@PAX@2@@Z ; std::_Tree_val<std::_Tree_simple_types<std::pair<std::basic_string<char,std::char_traits<char>,std::allocator<char> > const ,FuzzySet *> > >::_Color
PUBLIC	?_Isnil@?$_Tree_val@U?$_Tree_simple_types@U?$pair@$$CBV?$basic_string@DU?$char_traits@D@std@@V?$allocator@D@2@@std@@PAVFuzzySet@@@std@@@std@@@std@@SAAADPAU?$_Tree_node@U?$pair@$$CBV?$basic_string@DU?$char_traits@D@std@@V?$allocator@D@2@@std@@PAVFuzzySet@@@std@@PAX@2@@Z ; std::_Tree_val<std::_Tree_simple_types<std::pair<std::basic_string<char,std::char_traits<char>,std::allocator<char> > const ,FuzzySet *> > >::_Isnil
PUBLIC	?_Left@?$_Tree_val@U?$_Tree_simple_types@U?$pair@$$CBV?$basic_string@DU?$char_traits@D@std@@V?$allocator@D@2@@std@@PAVFuzzySet@@@std@@@std@@@std@@SAAAPAU?$_Tree_node@U?$pair@$$CBV?$basic_string@DU?$char_traits@D@std@@V?$allocator@D@2@@std@@PAVFuzzySet@@@std@@PAX@2@PAU32@@Z ; std::_Tree_val<std::_Tree_simple_types<std::pair<std::basic_string<char,std::char_traits<char>,std::allocator<char> > const ,FuzzySet *> > >::_Left
PUBLIC	?_Parent@?$_Tree_val@U?$_Tree_simple_types@U?$pair@$$CBV?$basic_string@DU?$char_traits@D@std@@V?$allocator@D@2@@std@@PAVFuzzySet@@@std@@@std@@@std@@SAAAPAU?$_Tree_node@U?$pair@$$CBV?$basic_string@DU?$char_traits@D@std@@V?$allocator@D@2@@std@@PAVFuzzySet@@@std@@PAX@2@PAU32@@Z ; std::_Tree_val<std::_Tree_simple_types<std::pair<std::basic_string<char,std::char_traits<char>,std::allocator<char> > const ,FuzzySet *> > >::_Parent
PUBLIC	?_Right@?$_Tree_val@U?$_Tree_simple_types@U?$pair@$$CBV?$basic_string@DU?$char_traits@D@std@@V?$allocator@D@2@@std@@PAVFuzzySet@@@std@@@std@@@std@@SAAAPAU?$_Tree_node@U?$pair@$$CBV?$basic_string@DU?$char_traits@D@std@@V?$allocator@D@2@@std@@PAVFuzzySet@@@std@@PAX@2@PAU32@@Z ; std::_Tree_val<std::_Tree_simple_types<std::pair<std::basic_string<char,std::char_traits<char>,std::allocator<char> > const ,FuzzySet *> > >::_Right
PUBLIC	??1?$_Tree_val@U?$_Tree_simple_types@U?$pair@$$CBV?$basic_string@DU?$char_traits@D@std@@V?$allocator@D@2@@std@@PAVFuzzySet@@@std@@@std@@@std@@QAE@XZ ; std::_Tree_val<std::_Tree_simple_types<std::pair<std::basic_string<char,std::char_traits<char>,std::allocator<char> > const ,FuzzySet *> > >::~_Tree_val<std::_Tree_simple_types<std::pair<std::basic_string<char,std::char_traits<char>,std::allocator<char> > const ,FuzzySet *> > >
PUBLIC	??0?$_Tree_alloc@$0A@U?$_Tree_base_types@U?$pair@$$CBV?$basic_string@DU?$char_traits@D@std@@V?$allocator@D@2@@std@@PAVFuzzySet@@@std@@V?$allocator@U?$pair@$$CBV?$basic_string@DU?$char_traits@D@std@@V?$allocator@D@2@@std@@PAVFuzzySet@@@std@@@2@@std@@@std@@QAE@ABV?$allocator@U?$pair@$$CBV?$basic_string@DU?$char_traits@D@std@@V?$allocator@D@2@@std@@PAVFuzzySet@@@std@@@1@@Z ; std::_Tree_alloc<0,std::_Tree_base_types<std::pair<std::basic_string<char,std::char_traits<char>,std::allocator<char> > const ,FuzzySet *>,std::allocator<std::pair<std::basic_string<char,std::char_traits<char>,std::allocator<char> > const ,FuzzySet *> > > >::_Tree_alloc<0,std::_Tree_base_types<std::pair<std::basic_string<char,std::char_traits<char>,std::allocator<char> > const ,FuzzySet *>,std::allocator<std::pair<std::basic_string<char,std::char_traits<char>,std::allocator<char> > const ,FuzzySet *> > > >
PUBLIC	?_Alloc_proxy@?$_Tree_alloc@$0A@U?$_Tree_base_types@U?$pair@$$CBV?$basic_string@DU?$char_traits@D@std@@V?$allocator@D@2@@std@@PAVFuzzySet@@@std@@V?$allocator@U?$pair@$$CBV?$basic_string@DU?$char_traits@D@std@@V?$allocator@D@2@@std@@PAVFuzzySet@@@std@@@2@@std@@@std@@QAEXXZ ; std::_Tree_alloc<0,std::_Tree_base_types<std::pair<std::basic_string<char,std::char_traits<char>,std::allocator<char> > const ,FuzzySet *>,std::allocator<std::pair<std::basic_string<char,std::char_traits<char>,std::allocator<char> > const ,FuzzySet *> > > >::_Alloc_proxy
PUBLIC	?_Buyheadnode@?$_Tree_alloc@$0A@U?$_Tree_base_types@U?$pair@$$CBV?$basic_string@DU?$char_traits@D@std@@V?$allocator@D@2@@std@@PAVFuzzySet@@@std@@V?$allocator@U?$pair@$$CBV?$basic_string@DU?$char_traits@D@std@@V?$allocator@D@2@@std@@PAVFuzzySet@@@std@@@2@@std@@@std@@QAEPAU?$_Tree_node@U?$pair@$$CBV?$basic_string@DU?$char_traits@D@std@@V?$allocator@D@2@@std@@PAVFuzzySet@@@std@@PAX@2@XZ ; std::_Tree_alloc<0,std::_Tree_base_types<std::pair<std::basic_string<char,std::char_traits<char>,std::allocator<char> > const ,FuzzySet *>,std::allocator<std::pair<std::basic_string<char,std::char_traits<char>,std::allocator<char> > const ,FuzzySet *> > > >::_Buyheadnode
PUBLIC	?_Freeheadnode@?$_Tree_alloc@$0A@U?$_Tree_base_types@U?$pair@$$CBV?$basic_string@DU?$char_traits@D@std@@V?$allocator@D@2@@std@@PAVFuzzySet@@@std@@V?$allocator@U?$pair@$$CBV?$basic_string@DU?$char_traits@D@std@@V?$allocator@D@2@@std@@PAVFuzzySet@@@std@@@2@@std@@@std@@QAEXPAU?$_Tree_node@U?$pair@$$CBV?$basic_string@DU?$char_traits@D@std@@V?$allocator@D@2@@std@@PAVFuzzySet@@@std@@PAX@2@@Z ; std::_Tree_alloc<0,std::_Tree_base_types<std::pair<std::basic_string<char,std::char_traits<char>,std::allocator<char> > const ,FuzzySet *>,std::allocator<std::pair<std::basic_string<char,std::char_traits<char>,std::allocator<char> > const ,FuzzySet *> > > >::_Freeheadnode
PUBLIC	?_Getal@?$_Tree_alloc@$0A@U?$_Tree_base_types@U?$pair@$$CBV?$basic_string@DU?$char_traits@D@std@@V?$allocator@D@2@@std@@PAVFuzzySet@@@std@@V?$allocator@U?$pair@$$CBV?$basic_string@DU?$char_traits@D@std@@V?$allocator@D@2@@std@@PAVFuzzySet@@@std@@@2@@std@@@std@@QBE?AU?$_Wrap_alloc@V?$allocator@U?$_Tree_node@U?$pair@$$CBV?$basic_string@DU?$char_traits@D@std@@V?$allocator@D@2@@std@@PAVFuzzySet@@@std@@PAX@std@@@std@@@2@XZ ; std::_Tree_alloc<0,std::_Tree_base_types<std::pair<std::basic_string<char,std::char_traits<char>,std::allocator<char> > const ,FuzzySet *>,std::allocator<std::pair<std::basic_string<char,std::char_traits<char>,std::allocator<char> > const ,FuzzySet *> > > >::_Getal
PUBLIC	??0?$_Tree_buy@U?$pair@$$CBV?$basic_string@DU?$char_traits@D@std@@V?$allocator@D@2@@std@@PAVFuzzySet@@@std@@V?$allocator@U?$pair@$$CBV?$basic_string@DU?$char_traits@D@std@@V?$allocator@D@2@@std@@PAVFuzzySet@@@std@@@2@@std@@QAE@ABV?$allocator@U?$pair@$$CBV?$basic_string@DU?$char_traits@D@std@@V?$allocator@D@2@@std@@PAVFuzzySet@@@std@@@1@@Z ; std::_Tree_buy<std::pair<std::basic_string<char,std::char_traits<char>,std::allocator<char> > const ,FuzzySet *>,std::allocator<std::pair<std::basic_string<char,std::char_traits<char>,std::allocator<char> > const ,FuzzySet *> > >::_Tree_buy<std::pair<std::basic_string<char,std::char_traits<char>,std::allocator<char> > const ,FuzzySet *>,std::allocator<std::pair<std::basic_string<char,std::char_traits<char>,std::allocator<char> > const ,FuzzySet *> > >
PUBLIC	??0?$_Tree_comp@$0A@V?$_Tmap_traits@V?$basic_string@DU?$char_traits@D@std@@V?$allocator@D@2@@std@@PAVFuzzySet@@U?$less@V?$basic_string@DU?$char_traits@D@std@@V?$allocator@D@2@@std@@@2@V?$allocator@U?$pair@$$CBV?$basic_string@DU?$char_traits@D@std@@V?$allocator@D@2@@std@@PAVFuzzySet@@@std@@@2@$0A@@std@@@std@@QAE@ABU?$less@V?$basic_string@DU?$char_traits@D@std@@V?$allocator@D@2@@std@@@1@ABV?$allocator@U?$pair@$$CBV?$basic_string@DU?$char_traits@D@std@@V?$allocator@D@2@@std@@PAVFuzzySet@@@std@@@1@@Z ; std::_Tree_comp<0,std::_Tmap_traits<std::basic_string<char,std::char_traits<char>,std::allocator<char> >,FuzzySet *,std::less<std::basic_string<char,std::char_traits<char>,std::allocator<char> > >,std::allocator<std::pair<std::basic_string<char,std::char_traits<char>,std::allocator<char> > const ,FuzzySet *> >,0> >::_Tree_comp<0,std::_Tmap_traits<std::basic_string<char,std::char_traits<char>,std::allocator<char> >,FuzzySet *,std::less<std::basic_string<char,std::char_traits<char>,std::allocator<char> > >,std::allocator<std::pair<std::basic_string<char,std::char_traits<char>,std::allocator<char> > const ,FuzzySet *> >,0> >
PUBLIC	??0?$_Tree@V?$_Tmap_traits@V?$basic_string@DU?$char_traits@D@std@@V?$allocator@D@2@@std@@PAVFuzzySet@@U?$less@V?$basic_string@DU?$char_traits@D@std@@V?$allocator@D@2@@std@@@2@V?$allocator@U?$pair@$$CBV?$basic_string@DU?$char_traits@D@std@@V?$allocator@D@2@@std@@PAVFuzzySet@@@std@@@2@$0A@@std@@@std@@QAE@ABU?$less@V?$basic_string@DU?$char_traits@D@std@@V?$allocator@D@2@@std@@@1@ABV?$allocator@U?$pair@$$CBV?$basic_string@DU?$char_traits@D@std@@V?$allocator@D@2@@std@@PAVFuzzySet@@@std@@@1@@Z ; std::_Tree<std::_Tmap_traits<std::basic_string<char,std::char_traits<char>,std::allocator<char> >,FuzzySet *,std::less<std::basic_string<char,std::char_traits<char>,std::allocator<char> > >,std::allocator<std::pair<std::basic_string<char,std::char_traits<char>,std::allocator<char> > const ,FuzzySet *> >,0> >::_Tree<std::_Tmap_traits<std::basic_string<char,std::char_traits<char>,std::allocator<char> >,FuzzySet *,std::less<std::basic_string<char,std::char_traits<char>,std::allocator<char> > >,std::allocator<std::pair<std::basic_string<char,std::char_traits<char>,std::allocator<char> > const ,FuzzySet *> >,0> >
PUBLIC	??0?$map@V?$basic_string@DU?$char_traits@D@std@@V?$allocator@D@2@@std@@PAVFuzzySet@@U?$less@V?$basic_string@DU?$char_traits@D@std@@V?$allocator@D@2@@std@@@2@V?$allocator@U?$pair@$$CBV?$basic_string@DU?$char_traits@D@std@@V?$allocator@D@2@@std@@PAVFuzzySet@@@std@@@2@@std@@QAE@XZ ; std::map<std::basic_string<char,std::char_traits<char>,std::allocator<char> >,FuzzySet *,std::less<std::basic_string<char,std::char_traits<char>,std::allocator<char> > >,std::allocator<std::pair<std::basic_string<char,std::char_traits<char>,std::allocator<char> > const ,FuzzySet *> > >::map<std::basic_string<char,std::char_traits<char>,std::allocator<char> >,FuzzySet *,std::less<std::basic_string<char,std::char_traits<char>,std::allocator<char> > >,std::allocator<std::pair<std::basic_string<char,std::char_traits<char>,std::allocator<char> > const ,FuzzySet *> > >
PUBLIC	??0FuzzyVariable@@QAE@XZ			; FuzzyVariable::FuzzyVariable
PUBLIC	??_GFuzzyVariable@@AAEPAXI@Z			; FuzzyVariable::`scalar deleting destructor'
PUBLIC	??0FuzzyRule@@QAE@ABVFuzzyTerm@@0@Z		; FuzzyRule::FuzzyRule
PUBLIC	??1FuzzyRule@@QAE@XZ				; FuzzyRule::~FuzzyRule
PUBLIC	??_GFuzzyRule@@QAEPAXI@Z			; FuzzyRule::`scalar deleting destructor'
PUBLIC	??0?$allocator@U?$_Tree_node@U?$pair@$$CBV?$basic_string@DU?$char_traits@D@std@@V?$allocator@D@2@@std@@PAVFuzzyVariable@@@std@@PAX@std@@@std@@QAE@XZ ; std::allocator<std::_Tree_node<std::pair<std::basic_string<char,std::char_traits<char>,std::allocator<char> > const ,FuzzyVariable *>,void *> >::allocator<std::_Tree_node<std::pair<std::basic_string<char,std::char_traits<char>,std::allocator<char> > const ,FuzzyVariable *>,void *> >
PUBLIC	?deallocate@?$allocator@U?$_Tree_node@U?$pair@$$CBV?$basic_string@DU?$char_traits@D@std@@V?$allocator@D@2@@std@@PAVFuzzyVariable@@@std@@PAX@std@@@std@@QAEXPAU?$_Tree_node@U?$pair@$$CBV?$basic_string@DU?$char_traits@D@std@@V?$allocator@D@2@@std@@PAVFuzzyVariable@@@std@@PAX@2@I@Z ; std::allocator<std::_Tree_node<std::pair<std::basic_string<char,std::char_traits<char>,std::allocator<char> > const ,FuzzyVariable *>,void *> >::deallocate
PUBLIC	?allocate@?$allocator@U?$_Tree_node@U?$pair@$$CBV?$basic_string@DU?$char_traits@D@std@@V?$allocator@D@2@@std@@PAVFuzzyVariable@@@std@@PAX@std@@@std@@QAEPAU?$_Tree_node@U?$pair@$$CBV?$basic_string@DU?$char_traits@D@std@@V?$allocator@D@2@@std@@PAVFuzzyVariable@@@std@@PAX@2@I@Z ; std::allocator<std::_Tree_node<std::pair<std::basic_string<char,std::char_traits<char>,std::allocator<char> > const ,FuzzyVariable *>,void *> >::allocate
PUBLIC	?max_size@?$allocator@U?$_Tree_node@U?$pair@$$CBV?$basic_string@DU?$char_traits@D@std@@V?$allocator@D@2@@std@@PAVFuzzyVariable@@@std@@PAX@std@@@std@@QBEIXZ ; std::allocator<std::_Tree_node<std::pair<std::basic_string<char,std::char_traits<char>,std::allocator<char> > const ,FuzzyVariable *>,void *> >::max_size
PUBLIC	?max_size@?$allocator_traits@V?$allocator@U?$_Tree_node@U?$pair@$$CBV?$basic_string@DU?$char_traits@D@std@@V?$allocator@D@2@@std@@PAVFuzzyVariable@@@std@@PAX@std@@@std@@@std@@SAIABV?$allocator@U?$_Tree_node@U?$pair@$$CBV?$basic_string@DU?$char_traits@D@std@@V?$allocator@D@2@@std@@PAVFuzzyVariable@@@std@@PAX@std@@@2@@Z ; std::allocator_traits<std::allocator<std::_Tree_node<std::pair<std::basic_string<char,std::char_traits<char>,std::allocator<char> > const ,FuzzyVariable *>,void *> > >::max_size
PUBLIC	??0?$_Wrap_alloc@V?$allocator@U?$_Tree_node@U?$pair@$$CBV?$basic_string@DU?$char_traits@D@std@@V?$allocator@D@2@@std@@PAVFuzzyVariable@@@std@@PAX@std@@@std@@@std@@QAE@XZ ; std::_Wrap_alloc<std::allocator<std::_Tree_node<std::pair<std::basic_string<char,std::char_traits<char>,std::allocator<char> > const ,FuzzyVariable *>,void *> > >::_Wrap_alloc<std::allocator<std::_Tree_node<std::pair<std::basic_string<char,std::char_traits<char>,std::allocator<char> > const ,FuzzyVariable *>,void *> > >
PUBLIC	?allocate@?$_Wrap_alloc@V?$allocator@U?$_Tree_node@U?$pair@$$CBV?$basic_string@DU?$char_traits@D@std@@V?$allocator@D@2@@std@@PAVFuzzyVariable@@@std@@PAX@std@@@std@@@std@@QAEPAU?$_Tree_node@U?$pair@$$CBV?$basic_string@DU?$char_traits@D@std@@V?$allocator@D@2@@std@@PAVFuzzyVariable@@@std@@PAX@2@I@Z ; std::_Wrap_alloc<std::allocator<std::_Tree_node<std::pair<std::basic_string<char,std::char_traits<char>,std::allocator<char> > const ,FuzzyVariable *>,void *> > >::allocate
PUBLIC	?deallocate@?$_Wrap_alloc@V?$allocator@U?$_Tree_node@U?$pair@$$CBV?$basic_string@DU?$char_traits@D@std@@V?$allocator@D@2@@std@@PAVFuzzyVariable@@@std@@PAX@std@@@std@@@std@@QAEXPAU?$_Tree_node@U?$pair@$$CBV?$basic_string@DU?$char_traits@D@std@@V?$allocator@D@2@@std@@PAVFuzzyVariable@@@std@@PAX@2@I@Z ; std::_Wrap_alloc<std::allocator<std::_Tree_node<std::pair<std::basic_string<char,std::char_traits<char>,std::allocator<char> > const ,FuzzyVariable *>,void *> > >::deallocate
PUBLIC	?max_size@?$_Wrap_alloc@V?$allocator@U?$_Tree_node@U?$pair@$$CBV?$basic_string@DU?$char_traits@D@std@@V?$allocator@D@2@@std@@PAVFuzzyVariable@@@std@@PAX@std@@@std@@@std@@QBEIXZ ; std::_Wrap_alloc<std::allocator<std::_Tree_node<std::pair<std::basic_string<char,std::char_traits<char>,std::allocator<char> > const ,FuzzyVariable *>,void *> > >::max_size
PUBLIC	?_Color@?$_Tree_val@U?$_Tree_simple_types@U?$pair@$$CBV?$basic_string@DU?$char_traits@D@std@@V?$allocator@D@2@@std@@PAVFuzzyVariable@@@std@@@std@@@std@@SAAADPAU?$_Tree_node@U?$pair@$$CBV?$basic_string@DU?$char_traits@D@std@@V?$allocator@D@2@@std@@PAVFuzzyVariable@@@std@@PAX@2@@Z ; std::_Tree_val<std::_Tree_simple_types<std::pair<std::basic_string<char,std::char_traits<char>,std::allocator<char> > const ,FuzzyVariable *> > >::_Color
PUBLIC	?_Isnil@?$_Tree_val@U?$_Tree_simple_types@U?$pair@$$CBV?$basic_string@DU?$char_traits@D@std@@V?$allocator@D@2@@std@@PAVFuzzyVariable@@@std@@@std@@@std@@SAAADPAU?$_Tree_node@U?$pair@$$CBV?$basic_string@DU?$char_traits@D@std@@V?$allocator@D@2@@std@@PAVFuzzyVariable@@@std@@PAX@2@@Z ; std::_Tree_val<std::_Tree_simple_types<std::pair<std::basic_string<char,std::char_traits<char>,std::allocator<char> > const ,FuzzyVariable *> > >::_Isnil
PUBLIC	?_Left@?$_Tree_val@U?$_Tree_simple_types@U?$pair@$$CBV?$basic_string@DU?$char_traits@D@std@@V?$allocator@D@2@@std@@PAVFuzzyVariable@@@std@@@std@@@std@@SAAAPAU?$_Tree_node@U?$pair@$$CBV?$basic_string@DU?$char_traits@D@std@@V?$allocator@D@2@@std@@PAVFuzzyVariable@@@std@@PAX@2@PAU32@@Z ; std::_Tree_val<std::_Tree_simple_types<std::pair<std::basic_string<char,std::char_traits<char>,std::allocator<char> > const ,FuzzyVariable *> > >::_Left
PUBLIC	?_Parent@?$_Tree_val@U?$_Tree_simple_types@U?$pair@$$CBV?$basic_string@DU?$char_traits@D@std@@V?$allocator@D@2@@std@@PAVFuzzyVariable@@@std@@@std@@@std@@SAAAPAU?$_Tree_node@U?$pair@$$CBV?$basic_string@DU?$char_traits@D@std@@V?$allocator@D@2@@std@@PAVFuzzyVariable@@@std@@PAX@2@PAU32@@Z ; std::_Tree_val<std::_Tree_simple_types<std::pair<std::basic_string<char,std::char_traits<char>,std::allocator<char> > const ,FuzzyVariable *> > >::_Parent
PUBLIC	?_Right@?$_Tree_val@U?$_Tree_simple_types@U?$pair@$$CBV?$basic_string@DU?$char_traits@D@std@@V?$allocator@D@2@@std@@PAVFuzzyVariable@@@std@@@std@@@std@@SAAAPAU?$_Tree_node@U?$pair@$$CBV?$basic_string@DU?$char_traits@D@std@@V?$allocator@D@2@@std@@PAVFuzzyVariable@@@std@@PAX@2@PAU32@@Z ; std::_Tree_val<std::_Tree_simple_types<std::pair<std::basic_string<char,std::char_traits<char>,std::allocator<char> > const ,FuzzyVariable *> > >::_Right
PUBLIC	?_Myval@?$_Tree_val@U?$_Tree_simple_types@U?$pair@$$CBV?$basic_string@DU?$char_traits@D@std@@V?$allocator@D@2@@std@@PAVFuzzyVariable@@@std@@@std@@@std@@SAAAU?$pair@$$CBV?$basic_string@DU?$char_traits@D@std@@V?$allocator@D@2@@std@@PAVFuzzyVariable@@@2@PAU?$_Tree_node@U?$pair@$$CBV?$basic_string@DU?$char_traits@D@std@@V?$allocator@D@2@@std@@PAVFuzzyVariable@@@std@@PAX@2@@Z ; std::_Tree_val<std::_Tree_simple_types<std::pair<std::basic_string<char,std::char_traits<char>,std::allocator<char> > const ,FuzzyVariable *> > >::_Myval
PUBLIC	?_Max@?$_Tree_val@U?$_Tree_simple_types@U?$pair@$$CBV?$basic_string@DU?$char_traits@D@std@@V?$allocator@D@2@@std@@PAVFuzzyVariable@@@std@@@std@@@std@@SAPAU?$_Tree_node@U?$pair@$$CBV?$basic_string@DU?$char_traits@D@std@@V?$allocator@D@2@@std@@PAVFuzzyVariable@@@std@@PAX@2@PAU32@@Z ; std::_Tree_val<std::_Tree_simple_types<std::pair<std::basic_string<char,std::char_traits<char>,std::allocator<char> > const ,FuzzyVariable *> > >::_Max
PUBLIC	?_Min@?$_Tree_val@U?$_Tree_simple_types@U?$pair@$$CBV?$basic_string@DU?$char_traits@D@std@@V?$allocator@D@2@@std@@PAVFuzzyVariable@@@std@@@std@@@std@@SAPAU?$_Tree_node@U?$pair@$$CBV?$basic_string@DU?$char_traits@D@std@@V?$allocator@D@2@@std@@PAVFuzzyVariable@@@std@@PAX@2@PAU32@@Z ; std::_Tree_val<std::_Tree_simple_types<std::pair<std::basic_string<char,std::char_traits<char>,std::allocator<char> > const ,FuzzyVariable *> > >::_Min
PUBLIC	??1?$_Tree_val@U?$_Tree_simple_types@U?$pair@$$CBV?$basic_string@DU?$char_traits@D@std@@V?$allocator@D@2@@std@@PAVFuzzyVariable@@@std@@@std@@@std@@QAE@XZ ; std::_Tree_val<std::_Tree_simple_types<std::pair<std::basic_string<char,std::char_traits<char>,std::allocator<char> > const ,FuzzyVariable *> > >::~_Tree_val<std::_Tree_simple_types<std::pair<std::basic_string<char,std::char_traits<char>,std::allocator<char> > const ,FuzzyVariable *> > >
PUBLIC	??1?$_Tree_alloc@$0A@U?$_Tree_base_types@U?$pair@$$CBV?$basic_string@DU?$char_traits@D@std@@V?$allocator@D@2@@std@@PAVFuzzyVariable@@@std@@V?$allocator@U?$pair@$$CBV?$basic_string@DU?$char_traits@D@std@@V?$allocator@D@2@@std@@PAVFuzzyVariable@@@std@@@2@@std@@@std@@QAE@XZ ; std::_Tree_alloc<0,std::_Tree_base_types<std::pair<std::basic_string<char,std::char_traits<char>,std::allocator<char> > const ,FuzzyVariable *>,std::allocator<std::pair<std::basic_string<char,std::char_traits<char>,std::allocator<char> > const ,FuzzyVariable *> > > >::~_Tree_alloc<0,std::_Tree_base_types<std::pair<std::basic_string<char,std::char_traits<char>,std::allocator<char> > const ,FuzzyVariable *>,std::allocator<std::pair<std::basic_string<char,std::char_traits<char>,std::allocator<char> > const ,FuzzyVariable *> > > >
PUBLIC	?_Free_proxy@?$_Tree_alloc@$0A@U?$_Tree_base_types@U?$pair@$$CBV?$basic_string@DU?$char_traits@D@std@@V?$allocator@D@2@@std@@PAVFuzzyVariable@@@std@@V?$allocator@U?$pair@$$CBV?$basic_string@DU?$char_traits@D@std@@V?$allocator@D@2@@std@@PAVFuzzyVariable@@@std@@@2@@std@@@std@@QAEXXZ ; std::_Tree_alloc<0,std::_Tree_base_types<std::pair<std::basic_string<char,std::char_traits<char>,std::allocator<char> > const ,FuzzyVariable *>,std::allocator<std::pair<std::basic_string<char,std::char_traits<char>,std::allocator<char> > const ,FuzzyVariable *> > > >::_Free_proxy
PUBLIC	?_Freeheadnode@?$_Tree_alloc@$0A@U?$_Tree_base_types@U?$pair@$$CBV?$basic_string@DU?$char_traits@D@std@@V?$allocator@D@2@@std@@PAVFuzzyVariable@@@std@@V?$allocator@U?$pair@$$CBV?$basic_string@DU?$char_traits@D@std@@V?$allocator@D@2@@std@@PAVFuzzyVariable@@@std@@@2@@std@@@std@@QAEXPAU?$_Tree_node@U?$pair@$$CBV?$basic_string@DU?$char_traits@D@std@@V?$allocator@D@2@@std@@PAVFuzzyVariable@@@std@@PAX@2@@Z ; std::_Tree_alloc<0,std::_Tree_base_types<std::pair<std::basic_string<char,std::char_traits<char>,std::allocator<char> > const ,FuzzyVariable *>,std::allocator<std::pair<std::basic_string<char,std::char_traits<char>,std::allocator<char> > const ,FuzzyVariable *> > > >::_Freeheadnode
PUBLIC	?_Getal@?$_Tree_alloc@$0A@U?$_Tree_base_types@U?$pair@$$CBV?$basic_string@DU?$char_traits@D@std@@V?$allocator@D@2@@std@@PAVFuzzyVariable@@@std@@V?$allocator@U?$pair@$$CBV?$basic_string@DU?$char_traits@D@std@@V?$allocator@D@2@@std@@PAVFuzzyVariable@@@std@@@2@@std@@@std@@QBE?AU?$_Wrap_alloc@V?$allocator@U?$_Tree_node@U?$pair@$$CBV?$basic_string@DU?$char_traits@D@std@@V?$allocator@D@2@@std@@PAVFuzzyVariable@@@std@@PAX@std@@@std@@@2@XZ ; std::_Tree_alloc<0,std::_Tree_base_types<std::pair<std::basic_string<char,std::char_traits<char>,std::allocator<char> > const ,FuzzyVariable *>,std::allocator<std::pair<std::basic_string<char,std::char_traits<char>,std::allocator<char> > const ,FuzzyVariable *> > > >::_Getal
PUBLIC	?_Buynode0@?$_Tree_buy@U?$pair@$$CBV?$basic_string@DU?$char_traits@D@std@@V?$allocator@D@2@@std@@PAVFuzzyVariable@@@std@@V?$allocator@U?$pair@$$CBV?$basic_string@DU?$char_traits@D@std@@V?$allocator@D@2@@std@@PAVFuzzyVariable@@@std@@@2@@std@@QAEPAU?$_Tree_node@U?$pair@$$CBV?$basic_string@DU?$char_traits@D@std@@V?$allocator@D@2@@std@@PAVFuzzyVariable@@@std@@PAX@2@XZ ; std::_Tree_buy<std::pair<std::basic_string<char,std::char_traits<char>,std::allocator<char> > const ,FuzzyVariable *>,std::allocator<std::pair<std::basic_string<char,std::char_traits<char>,std::allocator<char> > const ,FuzzyVariable *> > >::_Buynode0
PUBLIC	?_Freenode0@?$_Tree_buy@U?$pair@$$CBV?$basic_string@DU?$char_traits@D@std@@V?$allocator@D@2@@std@@PAVFuzzyVariable@@@std@@V?$allocator@U?$pair@$$CBV?$basic_string@DU?$char_traits@D@std@@V?$allocator@D@2@@std@@PAVFuzzyVariable@@@std@@@2@@std@@QAEXPAU?$_Tree_node@U?$pair@$$CBV?$basic_string@DU?$char_traits@D@std@@V?$allocator@D@2@@std@@PAVFuzzyVariable@@@std@@PAX@2@@Z ; std::_Tree_buy<std::pair<std::basic_string<char,std::char_traits<char>,std::allocator<char> > const ,FuzzyVariable *>,std::allocator<std::pair<std::basic_string<char,std::char_traits<char>,std::allocator<char> > const ,FuzzyVariable *> > >::_Freenode0
PUBLIC	??1?$_Tree_buy@U?$pair@$$CBV?$basic_string@DU?$char_traits@D@std@@V?$allocator@D@2@@std@@PAVFuzzyVariable@@@std@@V?$allocator@U?$pair@$$CBV?$basic_string@DU?$char_traits@D@std@@V?$allocator@D@2@@std@@PAVFuzzyVariable@@@std@@@2@@std@@QAE@XZ ; std::_Tree_buy<std::pair<std::basic_string<char,std::char_traits<char>,std::allocator<char> > const ,FuzzyVariable *>,std::allocator<std::pair<std::basic_string<char,std::char_traits<char>,std::allocator<char> > const ,FuzzyVariable *> > >::~_Tree_buy<std::pair<std::basic_string<char,std::char_traits<char>,std::allocator<char> > const ,FuzzyVariable *>,std::allocator<std::pair<std::basic_string<char,std::char_traits<char>,std::allocator<char> > const ,FuzzyVariable *> > >
PUBLIC	?_Getcomp@?$_Tree_comp@$0A@V?$_Tmap_traits@V?$basic_string@DU?$char_traits@D@std@@V?$allocator@D@2@@std@@PAVFuzzyVariable@@U?$less@V?$basic_string@DU?$char_traits@D@std@@V?$allocator@D@2@@std@@@2@V?$allocator@U?$pair@$$CBV?$basic_string@DU?$char_traits@D@std@@V?$allocator@D@2@@std@@PAVFuzzyVariable@@@std@@@2@$0A@@std@@@std@@QBE?AU?$less@V?$basic_string@DU?$char_traits@D@std@@V?$allocator@D@2@@std@@@2@XZ ; std::_Tree_comp<0,std::_Tmap_traits<std::basic_string<char,std::char_traits<char>,std::allocator<char> >,FuzzyVariable *,std::less<std::basic_string<char,std::char_traits<char>,std::allocator<char> > >,std::allocator<std::pair<std::basic_string<char,std::char_traits<char>,std::allocator<char> > const ,FuzzyVariable *> >,0> >::_Getcomp
PUBLIC	??1?$_Tree_comp@$0A@V?$_Tmap_traits@V?$basic_string@DU?$char_traits@D@std@@V?$allocator@D@2@@std@@PAVFuzzyVariable@@U?$less@V?$basic_string@DU?$char_traits@D@std@@V?$allocator@D@2@@std@@@2@V?$allocator@U?$pair@$$CBV?$basic_string@DU?$char_traits@D@std@@V?$allocator@D@2@@std@@PAVFuzzyVariable@@@std@@@2@$0A@@std@@@std@@QAE@XZ ; std::_Tree_comp<0,std::_Tmap_traits<std::basic_string<char,std::char_traits<char>,std::allocator<char> >,FuzzyVariable *,std::less<std::basic_string<char,std::char_traits<char>,std::allocator<char> > >,std::allocator<std::pair<std::basic_string<char,std::char_traits<char>,std::allocator<char> > const ,FuzzyVariable *> >,0> >::~_Tree_comp<0,std::_Tmap_traits<std::basic_string<char,std::char_traits<char>,std::allocator<char> >,FuzzyVariable *,std::less<std::basic_string<char,std::char_traits<char>,std::allocator<char> > >,std::allocator<std::pair<std::basic_string<char,std::char_traits<char>,std::allocator<char> > const ,FuzzyVariable *> >,0> >
PUBLIC	??1?$_Tree@V?$_Tmap_traits@V?$basic_string@DU?$char_traits@D@std@@V?$allocator@D@2@@std@@PAVFuzzyVariable@@U?$less@V?$basic_string@DU?$char_traits@D@std@@V?$allocator@D@2@@std@@@2@V?$allocator@U?$pair@$$CBV?$basic_string@DU?$char_traits@D@std@@V?$allocator@D@2@@std@@PAVFuzzyVariable@@@std@@@2@$0A@@std@@@std@@QAE@XZ ; std::_Tree<std::_Tmap_traits<std::basic_string<char,std::char_traits<char>,std::allocator<char> >,FuzzyVariable *,std::less<std::basic_string<char,std::char_traits<char>,std::allocator<char> > >,std::allocator<std::pair<std::basic_string<char,std::char_traits<char>,std::allocator<char> > const ,FuzzyVariable *> >,0> >::~_Tree<std::_Tmap_traits<std::basic_string<char,std::char_traits<char>,std::allocator<char> >,FuzzyVariable *,std::less<std::basic_string<char,std::char_traits<char>,std::allocator<char> > >,std::allocator<std::pair<std::basic_string<char,std::char_traits<char>,std::allocator<char> > const ,FuzzyVariable *> >,0> >
PUBLIC	?begin@?$_Tree@V?$_Tmap_traits@V?$basic_string@DU?$char_traits@D@std@@V?$allocator@D@2@@std@@PAVFuzzyVariable@@U?$less@V?$basic_string@DU?$char_traits@D@std@@V?$allocator@D@2@@std@@@2@V?$allocator@U?$pair@$$CBV?$basic_string@DU?$char_traits@D@std@@V?$allocator@D@2@@std@@PAVFuzzyVariable@@@std@@@2@$0A@@std@@@std@@QAE?AV?$_Tree_iterator@V?$_Tree_val@U?$_Tree_simple_types@U?$pair@$$CBV?$basic_string@DU?$char_traits@D@std@@V?$allocator@D@2@@std@@PAVFuzzyVariable@@@std@@@std@@@std@@@2@XZ ; std::_Tree<std::_Tmap_traits<std::basic_string<char,std::char_traits<char>,std::allocator<char> >,FuzzyVariable *,std::less<std::basic_string<char,std::char_traits<char>,std::allocator<char> > >,std::allocator<std::pair<std::basic_string<char,std::char_traits<char>,std::allocator<char> > const ,FuzzyVariable *> >,0> >::begin
PUBLIC	?end@?$_Tree@V?$_Tmap_traits@V?$basic_string@DU?$char_traits@D@std@@V?$allocator@D@2@@std@@PAVFuzzyVariable@@U?$less@V?$basic_string@DU?$char_traits@D@std@@V?$allocator@D@2@@std@@@2@V?$allocator@U?$pair@$$CBV?$basic_string@DU?$char_traits@D@std@@V?$allocator@D@2@@std@@PAVFuzzyVariable@@@std@@@2@$0A@@std@@@std@@QAE?AV?$_Tree_iterator@V?$_Tree_val@U?$_Tree_simple_types@U?$pair@$$CBV?$basic_string@DU?$char_traits@D@std@@V?$allocator@D@2@@std@@PAVFuzzyVariable@@@std@@@std@@@std@@@2@XZ ; std::_Tree<std::_Tmap_traits<std::basic_string<char,std::char_traits<char>,std::allocator<char> >,FuzzyVariable *,std::less<std::basic_string<char,std::char_traits<char>,std::allocator<char> > >,std::allocator<std::pair<std::basic_string<char,std::char_traits<char>,std::allocator<char> > const ,FuzzyVariable *> >,0> >::end
PUBLIC	?size@?$_Tree@V?$_Tmap_traits@V?$basic_string@DU?$char_traits@D@std@@V?$allocator@D@2@@std@@PAVFuzzyVariable@@U?$less@V?$basic_string@DU?$char_traits@D@std@@V?$allocator@D@2@@std@@@2@V?$allocator@U?$pair@$$CBV?$basic_string@DU?$char_traits@D@std@@V?$allocator@D@2@@std@@PAVFuzzyVariable@@@std@@@2@$0A@@std@@@std@@QBEIXZ ; std::_Tree<std::_Tmap_traits<std::basic_string<char,std::char_traits<char>,std::allocator<char> >,FuzzyVariable *,std::less<std::basic_string<char,std::char_traits<char>,std::allocator<char> > >,std::allocator<std::pair<std::basic_string<char,std::char_traits<char>,std::allocator<char> > const ,FuzzyVariable *> >,0> >::size
PUBLIC	?max_size@?$_Tree@V?$_Tmap_traits@V?$basic_string@DU?$char_traits@D@std@@V?$allocator@D@2@@std@@PAVFuzzyVariable@@U?$less@V?$basic_string@DU?$char_traits@D@std@@V?$allocator@D@2@@std@@@2@V?$allocator@U?$pair@$$CBV?$basic_string@DU?$char_traits@D@std@@V?$allocator@D@2@@std@@PAVFuzzyVariable@@@std@@@2@$0A@@std@@@std@@QBEIXZ ; std::_Tree<std::_Tmap_traits<std::basic_string<char,std::char_traits<char>,std::allocator<char> >,FuzzyVariable *,std::less<std::basic_string<char,std::char_traits<char>,std::allocator<char> > >,std::allocator<std::pair<std::basic_string<char,std::char_traits<char>,std::allocator<char> > const ,FuzzyVariable *> >,0> >::max_size
PUBLIC	?erase@?$_Tree@V?$_Tmap_traits@V?$basic_string@DU?$char_traits@D@std@@V?$allocator@D@2@@std@@PAVFuzzyVariable@@U?$less@V?$basic_string@DU?$char_traits@D@std@@V?$allocator@D@2@@std@@@2@V?$allocator@U?$pair@$$CBV?$basic_string@DU?$char_traits@D@std@@V?$allocator@D@2@@std@@PAVFuzzyVariable@@@std@@@2@$0A@@std@@@std@@QAE?AV?$_Tree_iterator@V?$_Tree_val@U?$_Tree_simple_types@U?$pair@$$CBV?$basic_string@DU?$char_traits@D@std@@V?$allocator@D@2@@std@@PAVFuzzyVariable@@@std@@@std@@@std@@@2@V?$_Tree_const_iterator@V?$_Tree_val@U?$_Tree_simple_types@U?$pair@$$CBV?$basic_string@DU?$char_traits@D@std@@V?$allocator@D@2@@std@@PAVFuzzyVariable@@@std@@@std@@@std@@@2@@Z ; std::_Tree<std::_Tmap_traits<std::basic_string<char,std::char_traits<char>,std::allocator<char> >,FuzzyVariable *,std::less<std::basic_string<char,std::char_traits<char>,std::allocator<char> > >,std::allocator<std::pair<std::basic_string<char,std::char_traits<char>,std::allocator<char> > const ,FuzzyVariable *> >,0> >::erase
PUBLIC	?erase@?$_Tree@V?$_Tmap_traits@V?$basic_string@DU?$char_traits@D@std@@V?$allocator@D@2@@std@@PAVFuzzyVariable@@U?$less@V?$basic_string@DU?$char_traits@D@std@@V?$allocator@D@2@@std@@@2@V?$allocator@U?$pair@$$CBV?$basic_string@DU?$char_traits@D@std@@V?$allocator@D@2@@std@@PAVFuzzyVariable@@@std@@@2@$0A@@std@@@std@@QAE?AV?$_Tree_iterator@V?$_Tree_val@U?$_Tree_simple_types@U?$pair@$$CBV?$basic_string@DU?$char_traits@D@std@@V?$allocator@D@2@@std@@PAVFuzzyVariable@@@std@@@std@@@std@@@2@V?$_Tree_const_iterator@V?$_Tree_val@U?$_Tree_simple_types@U?$pair@$$CBV?$basic_string@DU?$char_traits@D@std@@V?$allocator@D@2@@std@@PAVFuzzyVariable@@@std@@@std@@@std@@@2@0@Z ; std::_Tree<std::_Tmap_traits<std::basic_string<char,std::char_traits<char>,std::allocator<char> >,FuzzyVariable *,std::less<std::basic_string<char,std::char_traits<char>,std::allocator<char> > >,std::allocator<std::pair<std::basic_string<char,std::char_traits<char>,std::allocator<char> > const ,FuzzyVariable *> >,0> >::erase
PUBLIC	?clear@?$_Tree@V?$_Tmap_traits@V?$basic_string@DU?$char_traits@D@std@@V?$allocator@D@2@@std@@PAVFuzzyVariable@@U?$less@V?$basic_string@DU?$char_traits@D@std@@V?$allocator@D@2@@std@@@2@V?$allocator@U?$pair@$$CBV?$basic_string@DU?$char_traits@D@std@@V?$allocator@D@2@@std@@PAVFuzzyVariable@@@std@@@2@$0A@@std@@@std@@QAEXXZ ; std::_Tree<std::_Tmap_traits<std::basic_string<char,std::char_traits<char>,std::allocator<char> >,FuzzyVariable *,std::less<std::basic_string<char,std::char_traits<char>,std::allocator<char> > >,std::allocator<std::pair<std::basic_string<char,std::char_traits<char>,std::allocator<char> > const ,FuzzyVariable *> >,0> >::clear
PUBLIC	?lower_bound@?$_Tree@V?$_Tmap_traits@V?$basic_string@DU?$char_traits@D@std@@V?$allocator@D@2@@std@@PAVFuzzyVariable@@U?$less@V?$basic_string@DU?$char_traits@D@std@@V?$allocator@D@2@@std@@@2@V?$allocator@U?$pair@$$CBV?$basic_string@DU?$char_traits@D@std@@V?$allocator@D@2@@std@@PAVFuzzyVariable@@@std@@@2@$0A@@std@@@std@@QAE?AV?$_Tree_iterator@V?$_Tree_val@U?$_Tree_simple_types@U?$pair@$$CBV?$basic_string@DU?$char_traits@D@std@@V?$allocator@D@2@@std@@PAVFuzzyVariable@@@std@@@std@@@std@@@2@ABV?$basic_string@DU?$char_traits@D@std@@V?$allocator@D@2@@2@@Z ; std::_Tree<std::_Tmap_traits<std::basic_string<char,std::char_traits<char>,std::allocator<char> >,FuzzyVariable *,std::less<std::basic_string<char,std::char_traits<char>,std::allocator<char> > >,std::allocator<std::pair<std::basic_string<char,std::char_traits<char>,std::allocator<char> > const ,FuzzyVariable *> >,0> >::lower_bound
PUBLIC	?_Destroy_if_not_nil@?$_Tree@V?$_Tmap_traits@V?$basic_string@DU?$char_traits@D@std@@V?$allocator@D@2@@std@@PAVFuzzyVariable@@U?$less@V?$basic_string@DU?$char_traits@D@std@@V?$allocator@D@2@@std@@@2@V?$allocator@U?$pair@$$CBV?$basic_string@DU?$char_traits@D@std@@V?$allocator@D@2@@std@@PAVFuzzyVariable@@@std@@@2@$0A@@std@@@std@@IAEXPAU?$_Tree_node@U?$pair@$$CBV?$basic_string@DU?$char_traits@D@std@@V?$allocator@D@2@@std@@PAVFuzzyVariable@@@std@@PAX@2@@Z ; std::_Tree<std::_Tmap_traits<std::basic_string<char,std::char_traits<char>,std::allocator<char> >,FuzzyVariable *,std::less<std::basic_string<char,std::char_traits<char>,std::allocator<char> > >,std::allocator<std::pair<std::basic_string<char,std::char_traits<char>,std::allocator<char> > const ,FuzzyVariable *> >,0> >::_Destroy_if_not_nil
PUBLIC	?_Erase@?$_Tree@V?$_Tmap_traits@V?$basic_string@DU?$char_traits@D@std@@V?$allocator@D@2@@std@@PAVFuzzyVariable@@U?$less@V?$basic_string@DU?$char_traits@D@std@@V?$allocator@D@2@@std@@@2@V?$allocator@U?$pair@$$CBV?$basic_string@DU?$char_traits@D@std@@V?$allocator@D@2@@std@@PAVFuzzyVariable@@@std@@@2@$0A@@std@@@std@@IAEXPAU?$_Tree_node@U?$pair@$$CBV?$basic_string@DU?$char_traits@D@std@@V?$allocator@D@2@@std@@PAVFuzzyVariable@@@std@@PAX@2@@Z ; std::_Tree<std::_Tmap_traits<std::basic_string<char,std::char_traits<char>,std::allocator<char> >,FuzzyVariable *,std::less<std::basic_string<char,std::char_traits<char>,std::allocator<char> > >,std::allocator<std::pair<std::basic_string<char,std::char_traits<char>,std::allocator<char> > const ,FuzzyVariable *> >,0> >::_Erase
PUBLIC	?_Lbound@?$_Tree@V?$_Tmap_traits@V?$basic_string@DU?$char_traits@D@std@@V?$allocator@D@2@@std@@PAVFuzzyVariable@@U?$less@V?$basic_string@DU?$char_traits@D@std@@V?$allocator@D@2@@std@@@2@V?$allocator@U?$pair@$$CBV?$basic_string@DU?$char_traits@D@std@@V?$allocator@D@2@@std@@PAVFuzzyVariable@@@std@@@2@$0A@@std@@@std@@IAEPAU?$_Tree_node@U?$pair@$$CBV?$basic_string@DU?$char_traits@D@std@@V?$allocator@D@2@@std@@PAVFuzzyVariable@@@std@@PAX@2@ABV?$basic_string@DU?$char_traits@D@std@@V?$allocator@D@2@@2@@Z ; std::_Tree<std::_Tmap_traits<std::basic_string<char,std::char_traits<char>,std::allocator<char> >,FuzzyVariable *,std::less<std::basic_string<char,std::char_traits<char>,std::allocator<char> > >,std::allocator<std::pair<std::basic_string<char,std::char_traits<char>,std::allocator<char> > const ,FuzzyVariable *> >,0> >::_Lbound
PUBLIC	?_Lmost@?$_Tree@V?$_Tmap_traits@V?$basic_string@DU?$char_traits@D@std@@V?$allocator@D@2@@std@@PAVFuzzyVariable@@U?$less@V?$basic_string@DU?$char_traits@D@std@@V?$allocator@D@2@@std@@@2@V?$allocator@U?$pair@$$CBV?$basic_string@DU?$char_traits@D@std@@V?$allocator@D@2@@std@@PAVFuzzyVariable@@@std@@@2@$0A@@std@@@std@@IBEAAPAU?$_Tree_node@U?$pair@$$CBV?$basic_string@DU?$char_traits@D@std@@V?$allocator@D@2@@std@@PAVFuzzyVariable@@@std@@PAX@2@XZ ; std::_Tree<std::_Tmap_traits<std::basic_string<char,std::char_traits<char>,std::allocator<char> >,FuzzyVariable *,std::less<std::basic_string<char,std::char_traits<char>,std::allocator<char> > >,std::allocator<std::pair<std::basic_string<char,std::char_traits<char>,std::allocator<char> > const ,FuzzyVariable *> >,0> >::_Lmost
PUBLIC	?_Lrotate@?$_Tree@V?$_Tmap_traits@V?$basic_string@DU?$char_traits@D@std@@V?$allocator@D@2@@std@@PAVFuzzyVariable@@U?$less@V?$basic_string@DU?$char_traits@D@std@@V?$allocator@D@2@@std@@@2@V?$allocator@U?$pair@$$CBV?$basic_string@DU?$char_traits@D@std@@V?$allocator@D@2@@std@@PAVFuzzyVariable@@@std@@@2@$0A@@std@@@std@@IAEXPAU?$_Tree_node@U?$pair@$$CBV?$basic_string@DU?$char_traits@D@std@@V?$allocator@D@2@@std@@PAVFuzzyVariable@@@std@@PAX@2@@Z ; std::_Tree<std::_Tmap_traits<std::basic_string<char,std::char_traits<char>,std::allocator<char> >,FuzzyVariable *,std::less<std::basic_string<char,std::char_traits<char>,std::allocator<char> > >,std::allocator<std::pair<std::basic_string<char,std::char_traits<char>,std::allocator<char> > const ,FuzzyVariable *> >,0> >::_Lrotate
PUBLIC	?_Rmost@?$_Tree@V?$_Tmap_traits@V?$basic_string@DU?$char_traits@D@std@@V?$allocator@D@2@@std@@PAVFuzzyVariable@@U?$less@V?$basic_string@DU?$char_traits@D@std@@V?$allocator@D@2@@std@@@2@V?$allocator@U?$pair@$$CBV?$basic_string@DU?$char_traits@D@std@@V?$allocator@D@2@@std@@PAVFuzzyVariable@@@std@@@2@$0A@@std@@@std@@IBEAAPAU?$_Tree_node@U?$pair@$$CBV?$basic_string@DU?$char_traits@D@std@@V?$allocator@D@2@@std@@PAVFuzzyVariable@@@std@@PAX@2@XZ ; std::_Tree<std::_Tmap_traits<std::basic_string<char,std::char_traits<char>,std::allocator<char> >,FuzzyVariable *,std::less<std::basic_string<char,std::char_traits<char>,std::allocator<char> > >,std::allocator<std::pair<std::basic_string<char,std::char_traits<char>,std::allocator<char> > const ,FuzzyVariable *> >,0> >::_Rmost
PUBLIC	?_Root@?$_Tree@V?$_Tmap_traits@V?$basic_string@DU?$char_traits@D@std@@V?$allocator@D@2@@std@@PAVFuzzyVariable@@U?$less@V?$basic_string@DU?$char_traits@D@std@@V?$allocator@D@2@@std@@@2@V?$allocator@U?$pair@$$CBV?$basic_string@DU?$char_traits@D@std@@V?$allocator@D@2@@std@@PAVFuzzyVariable@@@std@@@2@$0A@@std@@@std@@IBEAAPAU?$_Tree_node@U?$pair@$$CBV?$basic_string@DU?$char_traits@D@std@@V?$allocator@D@2@@std@@PAVFuzzyVariable@@@std@@PAX@2@XZ ; std::_Tree<std::_Tmap_traits<std::basic_string<char,std::char_traits<char>,std::allocator<char> >,FuzzyVariable *,std::less<std::basic_string<char,std::char_traits<char>,std::allocator<char> > >,std::allocator<std::pair<std::basic_string<char,std::char_traits<char>,std::allocator<char> > const ,FuzzyVariable *> >,0> >::_Root
PUBLIC	?_Rrotate@?$_Tree@V?$_Tmap_traits@V?$basic_string@DU?$char_traits@D@std@@V?$allocator@D@2@@std@@PAVFuzzyVariable@@U?$less@V?$basic_string@DU?$char_traits@D@std@@V?$allocator@D@2@@std@@@2@V?$allocator@U?$pair@$$CBV?$basic_string@DU?$char_traits@D@std@@V?$allocator@D@2@@std@@PAVFuzzyVariable@@@std@@@2@$0A@@std@@@std@@IAEXPAU?$_Tree_node@U?$pair@$$CBV?$basic_string@DU?$char_traits@D@std@@V?$allocator@D@2@@std@@PAVFuzzyVariable@@@std@@PAX@2@@Z ; std::_Tree<std::_Tmap_traits<std::basic_string<char,std::char_traits<char>,std::allocator<char> >,FuzzyVariable *,std::less<std::basic_string<char,std::char_traits<char>,std::allocator<char> > >,std::allocator<std::pair<std::basic_string<char,std::char_traits<char>,std::allocator<char> > const ,FuzzyVariable *> >,0> >::_Rrotate
PUBLIC	?_Orphan_ptr@?$_Tree@V?$_Tmap_traits@V?$basic_string@DU?$char_traits@D@std@@V?$allocator@D@2@@std@@PAVFuzzyVariable@@U?$less@V?$basic_string@DU?$char_traits@D@std@@V?$allocator@D@2@@std@@@2@V?$allocator@U?$pair@$$CBV?$basic_string@DU?$char_traits@D@std@@V?$allocator@D@2@@std@@PAVFuzzyVariable@@@std@@@2@$0A@@std@@@std@@IBEXAAV12@PAU?$_Tree_node@U?$pair@$$CBV?$basic_string@DU?$char_traits@D@std@@V?$allocator@D@2@@std@@PAVFuzzyVariable@@@std@@PAX@2@@Z ; std::_Tree<std::_Tmap_traits<std::basic_string<char,std::char_traits<char>,std::allocator<char> >,FuzzyVariable *,std::less<std::basic_string<char,std::char_traits<char>,std::allocator<char> > >,std::allocator<std::pair<std::basic_string<char,std::char_traits<char>,std::allocator<char> > const ,FuzzyVariable *> >,0> >::_Orphan_ptr
PUBLIC	?_Tidy@?$_Tree@V?$_Tmap_traits@V?$basic_string@DU?$char_traits@D@std@@V?$allocator@D@2@@std@@PAVFuzzyVariable@@U?$less@V?$basic_string@DU?$char_traits@D@std@@V?$allocator@D@2@@std@@@2@V?$allocator@U?$pair@$$CBV?$basic_string@DU?$char_traits@D@std@@V?$allocator@D@2@@std@@PAVFuzzyVariable@@@std@@@2@$0A@@std@@@std@@IAEXXZ ; std::_Tree<std::_Tmap_traits<std::basic_string<char,std::char_traits<char>,std::allocator<char> >,FuzzyVariable *,std::less<std::basic_string<char,std::char_traits<char>,std::allocator<char> > >,std::allocator<std::pair<std::basic_string<char,std::char_traits<char>,std::allocator<char> > const ,FuzzyVariable *> >,0> >::_Tidy
PUBLIC	?_Kfn@?$_Tree@V?$_Tmap_traits@V?$basic_string@DU?$char_traits@D@std@@V?$allocator@D@2@@std@@PAVFuzzyVariable@@U?$less@V?$basic_string@DU?$char_traits@D@std@@V?$allocator@D@2@@std@@@2@V?$allocator@U?$pair@$$CBV?$basic_string@DU?$char_traits@D@std@@V?$allocator@D@2@@std@@PAVFuzzyVariable@@@std@@@2@$0A@@std@@@std@@IBEABV?$basic_string@DU?$char_traits@D@std@@V?$allocator@D@2@@2@ABU?$pair@$$CBV?$basic_string@DU?$char_traits@D@std@@V?$allocator@D@2@@std@@PAVFuzzyVariable@@@2@@Z ; std::_Tree<std::_Tmap_traits<std::basic_string<char,std::char_traits<char>,std::allocator<char> >,FuzzyVariable *,std::less<std::basic_string<char,std::char_traits<char>,std::allocator<char> > >,std::allocator<std::pair<std::basic_string<char,std::char_traits<char>,std::allocator<char> > const ,FuzzyVariable *> >,0> >::_Kfn
PUBLIC	?_Key@?$_Tree@V?$_Tmap_traits@V?$basic_string@DU?$char_traits@D@std@@V?$allocator@D@2@@std@@PAVFuzzyVariable@@U?$less@V?$basic_string@DU?$char_traits@D@std@@V?$allocator@D@2@@std@@@2@V?$allocator@U?$pair@$$CBV?$basic_string@DU?$char_traits@D@std@@V?$allocator@D@2@@std@@PAVFuzzyVariable@@@std@@@2@$0A@@std@@@std@@IBEABV?$basic_string@DU?$char_traits@D@std@@V?$allocator@D@2@@2@PAU?$_Tree_node@U?$pair@$$CBV?$basic_string@DU?$char_traits@D@std@@V?$allocator@D@2@@std@@PAVFuzzyVariable@@@std@@PAX@2@@Z ; std::_Tree<std::_Tmap_traits<std::basic_string<char,std::char_traits<char>,std::allocator<char> >,FuzzyVariable *,std::less<std::basic_string<char,std::char_traits<char>,std::allocator<char> > >,std::allocator<std::pair<std::basic_string<char,std::char_traits<char>,std::allocator<char> > const ,FuzzyVariable *> >,0> >::_Key
PUBLIC	??A?$map@V?$basic_string@DU?$char_traits@D@std@@V?$allocator@D@2@@std@@PAVFuzzyVariable@@U?$less@V?$basic_string@DU?$char_traits@D@std@@V?$allocator@D@2@@std@@@2@V?$allocator@U?$pair@$$CBV?$basic_string@DU?$char_traits@D@std@@V?$allocator@D@2@@std@@PAVFuzzyVariable@@@std@@@2@@std@@QAEAAPAVFuzzyVariable@@ABV?$basic_string@DU?$char_traits@D@std@@V?$allocator@D@2@@1@@Z ; std::map<std::basic_string<char,std::char_traits<char>,std::allocator<char> >,FuzzyVariable *,std::less<std::basic_string<char,std::char_traits<char>,std::allocator<char> > >,std::allocator<std::pair<std::basic_string<char,std::char_traits<char>,std::allocator<char> > const ,FuzzyVariable *> > >::operator[]
PUBLIC	??1?$map@V?$basic_string@DU?$char_traits@D@std@@V?$allocator@D@2@@std@@PAVFuzzyVariable@@U?$less@V?$basic_string@DU?$char_traits@D@std@@V?$allocator@D@2@@std@@@2@V?$allocator@U?$pair@$$CBV?$basic_string@DU?$char_traits@D@std@@V?$allocator@D@2@@std@@PAVFuzzyVariable@@@std@@@2@@std@@QAE@XZ ; std::map<std::basic_string<char,std::char_traits<char>,std::allocator<char> >,FuzzyVariable *,std::less<std::basic_string<char,std::char_traits<char>,std::allocator<char> > >,std::allocator<std::pair<std::basic_string<char,std::char_traits<char>,std::allocator<char> > const ,FuzzyVariable *> > >::~map<std::basic_string<char,std::char_traits<char>,std::allocator<char> >,FuzzyVariable *,std::less<std::basic_string<char,std::char_traits<char>,std::allocator<char> > >,std::allocator<std::pair<std::basic_string<char,std::char_traits<char>,std::allocator<char> > const ,FuzzyVariable *> > >
PUBLIC	??0?$allocator@PAVFuzzyRule@@@std@@QAE@XZ	; std::allocator<FuzzyRule *>::allocator<FuzzyRule *>
PUBLIC	?deallocate@?$allocator@PAVFuzzyRule@@@std@@QAEXPAPAVFuzzyRule@@I@Z ; std::allocator<FuzzyRule *>::deallocate
PUBLIC	?allocate@?$allocator@PAVFuzzyRule@@@std@@QAEPAPAVFuzzyRule@@I@Z ; std::allocator<FuzzyRule *>::allocate
PUBLIC	?max_size@?$allocator@PAVFuzzyRule@@@std@@QBEIXZ ; std::allocator<FuzzyRule *>::max_size
PUBLIC	?max_size@?$allocator_traits@V?$allocator@PAVFuzzyRule@@@std@@@std@@SAIABV?$allocator@PAVFuzzyRule@@@2@@Z ; std::allocator_traits<std::allocator<FuzzyRule *> >::max_size
PUBLIC	??0?$_Wrap_alloc@V?$allocator@PAVFuzzyRule@@@std@@@std@@QAE@XZ ; std::_Wrap_alloc<std::allocator<FuzzyRule *> >::_Wrap_alloc<std::allocator<FuzzyRule *> >
PUBLIC	?allocate@?$_Wrap_alloc@V?$allocator@PAVFuzzyRule@@@std@@@std@@QAEPAPAVFuzzyRule@@I@Z ; std::_Wrap_alloc<std::allocator<FuzzyRule *> >::allocate
PUBLIC	?deallocate@?$_Wrap_alloc@V?$allocator@PAVFuzzyRule@@@std@@@std@@QAEXPAPAVFuzzyRule@@I@Z ; std::_Wrap_alloc<std::allocator<FuzzyRule *> >::deallocate
PUBLIC	?max_size@?$_Wrap_alloc@V?$allocator@PAVFuzzyRule@@@std@@@std@@QBEIXZ ; std::_Wrap_alloc<std::allocator<FuzzyRule *> >::max_size
PUBLIC	??1?$_Vector_val@U?$_Simple_types@PAVFuzzyRule@@@std@@@std@@QAE@XZ ; std::_Vector_val<std::_Simple_types<FuzzyRule *> >::~_Vector_val<std::_Simple_types<FuzzyRule *> >
PUBLIC	??1?$_Vector_alloc@$0A@U?$_Vec_base_types@PAVFuzzyRule@@V?$allocator@PAVFuzzyRule@@@std@@@std@@@std@@QAE@XZ ; std::_Vector_alloc<0,std::_Vec_base_types<FuzzyRule *,std::allocator<FuzzyRule *> > >::~_Vector_alloc<0,std::_Vec_base_types<FuzzyRule *,std::allocator<FuzzyRule *> > >
PUBLIC	?_Free_proxy@?$_Vector_alloc@$0A@U?$_Vec_base_types@PAVFuzzyRule@@V?$allocator@PAVFuzzyRule@@@std@@@std@@@std@@QAEXXZ ; std::_Vector_alloc<0,std::_Vec_base_types<FuzzyRule *,std::allocator<FuzzyRule *> > >::_Free_proxy
PUBLIC	?_Getal@?$_Vector_alloc@$0A@U?$_Vec_base_types@PAVFuzzyRule@@V?$allocator@PAVFuzzyRule@@@std@@@std@@@std@@QBE?AU?$_Wrap_alloc@V?$allocator@PAVFuzzyRule@@@std@@@2@XZ ; std::_Vector_alloc<0,std::_Vec_base_types<FuzzyRule *,std::allocator<FuzzyRule *> > >::_Getal
PUBLIC	?push_back@?$vector@PAVFuzzyRule@@V?$allocator@PAVFuzzyRule@@@std@@@std@@QAEX$$QAPAVFuzzyRule@@@Z ; std::vector<FuzzyRule *,std::allocator<FuzzyRule *> >::push_back
PUBLIC	??1?$vector@PAVFuzzyRule@@V?$allocator@PAVFuzzyRule@@@std@@@std@@QAE@XZ ; std::vector<FuzzyRule *,std::allocator<FuzzyRule *> >::~vector<FuzzyRule *,std::allocator<FuzzyRule *> >
PUBLIC	?capacity@?$vector@PAVFuzzyRule@@V?$allocator@PAVFuzzyRule@@@std@@@std@@QBEIXZ ; std::vector<FuzzyRule *,std::allocator<FuzzyRule *> >::capacity
PUBLIC	?_Unused_capacity@?$vector@PAVFuzzyRule@@V?$allocator@PAVFuzzyRule@@@std@@@std@@QBEIXZ ; std::vector<FuzzyRule *,std::allocator<FuzzyRule *> >::_Unused_capacity
PUBLIC	?begin@?$vector@PAVFuzzyRule@@V?$allocator@PAVFuzzyRule@@@std@@@std@@QAE?AV?$_Vector_iterator@V?$_Vector_val@U?$_Simple_types@PAVFuzzyRule@@@std@@@std@@@2@XZ ; std::vector<FuzzyRule *,std::allocator<FuzzyRule *> >::begin
PUBLIC	?end@?$vector@PAVFuzzyRule@@V?$allocator@PAVFuzzyRule@@@std@@@std@@QAE?AV?$_Vector_iterator@V?$_Vector_val@U?$_Simple_types@PAVFuzzyRule@@@std@@@std@@@2@XZ ; std::vector<FuzzyRule *,std::allocator<FuzzyRule *> >::end
PUBLIC	?size@?$vector@PAVFuzzyRule@@V?$allocator@PAVFuzzyRule@@@std@@@std@@QBEIXZ ; std::vector<FuzzyRule *,std::allocator<FuzzyRule *> >::size
PUBLIC	?max_size@?$vector@PAVFuzzyRule@@V?$allocator@PAVFuzzyRule@@@std@@@std@@QBEIXZ ; std::vector<FuzzyRule *,std::allocator<FuzzyRule *> >::max_size
PUBLIC	?_Destroy@?$vector@PAVFuzzyRule@@V?$allocator@PAVFuzzyRule@@@std@@@std@@IAEXPAPAVFuzzyRule@@0@Z ; std::vector<FuzzyRule *,std::allocator<FuzzyRule *> >::_Destroy
PUBLIC	?_Grow_to@?$vector@PAVFuzzyRule@@V?$allocator@PAVFuzzyRule@@@std@@@std@@IBEII@Z ; std::vector<FuzzyRule *,std::allocator<FuzzyRule *> >::_Grow_to
PUBLIC	?_Inside@?$vector@PAVFuzzyRule@@V?$allocator@PAVFuzzyRule@@@std@@@std@@IBE_NPBQAVFuzzyRule@@@Z ; std::vector<FuzzyRule *,std::allocator<FuzzyRule *> >::_Inside
PUBLIC	?_Reallocate@?$vector@PAVFuzzyRule@@V?$allocator@PAVFuzzyRule@@@std@@@std@@IAEXI@Z ; std::vector<FuzzyRule *,std::allocator<FuzzyRule *> >::_Reallocate
PUBLIC	?_Reserve@?$vector@PAVFuzzyRule@@V?$allocator@PAVFuzzyRule@@@std@@@std@@IAEXI@Z ; std::vector<FuzzyRule *,std::allocator<FuzzyRule *> >::_Reserve
PUBLIC	?_Tidy@?$vector@PAVFuzzyRule@@V?$allocator@PAVFuzzyRule@@@std@@@std@@IAEXXZ ; std::vector<FuzzyRule *,std::allocator<FuzzyRule *> >::_Tidy
PUBLIC	?_Xlen@?$vector@PAVFuzzyRule@@V?$allocator@PAVFuzzyRule@@@std@@@std@@IBEXXZ ; std::vector<FuzzyRule *,std::allocator<FuzzyRule *> >::_Xlen
PUBLIC	?_Orphan_range@?$vector@PAVFuzzyRule@@V?$allocator@PAVFuzzyRule@@@std@@@std@@IBEXPAPAVFuzzyRule@@0@Z ; std::vector<FuzzyRule *,std::allocator<FuzzyRule *> >::_Orphan_range
PUBLIC	??1FuzzyModule@@QAE@XZ				; FuzzyModule::~FuzzyModule
PUBLIC	?CreateFLV@FuzzyModule@@QAEAAVFuzzyVariable@@ABV?$basic_string@DU?$char_traits@D@std@@V?$allocator@D@2@@std@@@Z ; FuzzyModule::CreateFLV
PUBLIC	?AddRule@FuzzyModule@@QAEXAAVFuzzyTerm@@0@Z	; FuzzyModule::AddRule
PUBLIC	?WriteAllDOMs@FuzzyModule@@QAEAAV?$basic_ostream@DU?$char_traits@D@std@@@std@@AAV23@@Z ; FuzzyModule::WriteAllDOMs
PUBLIC	??0?$_Iterator012@Ubidirectional_iterator_tag@std@@U?$pair@$$CBV?$basic_string@DU?$char_traits@D@std@@V?$allocator@D@2@@std@@PAVFuzzyVariable@@@2@HPBU32@ABU32@U_Iterator_base12@2@@std@@QAE@XZ ; std::_Iterator012<std::bidirectional_iterator_tag,std::pair<std::basic_string<char,std::char_traits<char>,std::allocator<char> > const ,FuzzyVariable *>,int,std::pair<std::basic_string<char,std::char_traits<char>,std::allocator<char> > const ,FuzzyVariable *> const *,std::pair<std::basic_string<char,std::char_traits<char>,std::allocator<char> > const ,FuzzyVariable *> const &,std::_Iterator_base12>::_Iterator012<std::bidirectional_iterator_tag,std::pair<std::basic_string<char,std::char_traits<char>,std::allocator<char> > const ,FuzzyVariable *>,int,std::pair<std::basic_string<char,std::char_traits<char>,std::allocator<char> > const ,FuzzyVariable *> const *,std::pair<std::basic_string<char,std::char_traits<char>,std::allocator<char> > const ,FuzzyVariable *> const &,std::_Iterator_base12>
PUBLIC	??1?$_Iterator012@Ubidirectional_iterator_tag@std@@U?$pair@$$CBV?$basic_string@DU?$char_traits@D@std@@V?$allocator@D@2@@std@@PAVFuzzyVariable@@@2@HPBU32@ABU32@U_Iterator_base12@2@@std@@QAE@XZ ; std::_Iterator012<std::bidirectional_iterator_tag,std::pair<std::basic_string<char,std::char_traits<char>,std::allocator<char> > const ,FuzzyVariable *>,int,std::pair<std::basic_string<char,std::char_traits<char>,std::allocator<char> > const ,FuzzyVariable *> const *,std::pair<std::basic_string<char,std::char_traits<char>,std::allocator<char> > const ,FuzzyVariable *> const &,std::_Iterator_base12>::~_Iterator012<std::bidirectional_iterator_tag,std::pair<std::basic_string<char,std::char_traits<char>,std::allocator<char> > const ,FuzzyVariable *>,int,std::pair<std::basic_string<char,std::char_traits<char>,std::allocator<char> > const ,FuzzyVariable *> const *,std::pair<std::basic_string<char,std::char_traits<char>,std::allocator<char> > const ,FuzzyVariable *> const &,std::_Iterator_base12>
PUBLIC	??0?$_Iterator012@Ubidirectional_iterator_tag@std@@U?$pair@$$CBV?$basic_string@DU?$char_traits@D@std@@V?$allocator@D@2@@std@@PAVFuzzyVariable@@@2@HPBU32@ABU32@U_Iterator_base12@2@@std@@QAE@ABU01@@Z ; std::_Iterator012<std::bidirectional_iterator_tag,std::pair<std::basic_string<char,std::char_traits<char>,std::allocator<char> > const ,FuzzyVariable *>,int,std::pair<std::basic_string<char,std::char_traits<char>,std::allocator<char> > const ,FuzzyVariable *> const *,std::pair<std::basic_string<char,std::char_traits<char>,std::allocator<char> > const ,FuzzyVariable *> const &,std::_Iterator_base12>::_Iterator012<std::bidirectional_iterator_tag,std::pair<std::basic_string<char,std::char_traits<char>,std::allocator<char> > const ,FuzzyVariable *>,int,std::pair<std::basic_string<char,std::char_traits<char>,std::allocator<char> > const ,FuzzyVariable *> const *,std::pair<std::basic_string<char,std::char_traits<char>,std::allocator<char> > const ,FuzzyVariable *> const &,std::_Iterator_base12>
PUBLIC	??4?$_Iterator012@Ubidirectional_iterator_tag@std@@U?$pair@$$CBV?$basic_string@DU?$char_traits@D@std@@V?$allocator@D@2@@std@@PAVFuzzyVariable@@@2@HPBU32@ABU32@U_Iterator_base12@2@@std@@QAEAAU01@ABU01@@Z ; std::_Iterator012<std::bidirectional_iterator_tag,std::pair<std::basic_string<char,std::char_traits<char>,std::allocator<char> > const ,FuzzyVariable *>,int,std::pair<std::basic_string<char,std::char_traits<char>,std::allocator<char> > const ,FuzzyVariable *> const *,std::pair<std::basic_string<char,std::char_traits<char>,std::allocator<char> > const ,FuzzyVariable *> const &,std::_Iterator_base12>::operator=
PUBLIC	??0?$_Tree_unchecked_const_iterator@V?$_Tree_val@U?$_Tree_simple_types@U?$pair@$$CBV?$basic_string@DU?$char_traits@D@std@@V?$allocator@D@2@@std@@PAVFuzzyVariable@@@std@@@std@@@std@@U_Iterator_base12@2@@std@@QAE@XZ ; std::_Tree_unchecked_const_iterator<std::_Tree_val<std::_Tree_simple_types<std::pair<std::basic_string<char,std::char_traits<char>,std::allocator<char> > const ,FuzzyVariable *> > >,std::_Iterator_base12>::_Tree_unchecked_const_iterator<std::_Tree_val<std::_Tree_simple_types<std::pair<std::basic_string<char,std::char_traits<char>,std::allocator<char> > const ,FuzzyVariable *> > >,std::_Iterator_base12>
PUBLIC	??0?$_Tree_unchecked_const_iterator@V?$_Tree_val@U?$_Tree_simple_types@U?$pair@$$CBV?$basic_string@DU?$char_traits@D@std@@V?$allocator@D@2@@std@@PAVFuzzyVariable@@@std@@@std@@@std@@U_Iterator_base12@2@@std@@QAE@PAU?$_Tree_node@U?$pair@$$CBV?$basic_string@DU?$char_traits@D@std@@V?$allocator@D@2@@std@@PAVFuzzyVariable@@@std@@PAX@1@PBV?$_Tree_val@U?$_Tree_simple_types@U?$pair@$$CBV?$basic_string@DU?$char_traits@D@std@@V?$allocator@D@2@@std@@PAVFuzzyVariable@@@std@@@std@@@1@@Z ; std::_Tree_unchecked_const_iterator<std::_Tree_val<std::_Tree_simple_types<std::pair<std::basic_string<char,std::char_traits<char>,std::allocator<char> > const ,FuzzyVariable *> > >,std::_Iterator_base12>::_Tree_unchecked_const_iterator<std::_Tree_val<std::_Tree_simple_types<std::pair<std::basic_string<char,std::char_traits<char>,std::allocator<char> > const ,FuzzyVariable *> > >,std::_Iterator_base12>
PUBLIC	??E?$_Tree_unchecked_const_iterator@V?$_Tree_val@U?$_Tree_simple_types@U?$pair@$$CBV?$basic_string@DU?$char_traits@D@std@@V?$allocator@D@2@@std@@PAVFuzzyVariable@@@std@@@std@@@std@@U_Iterator_base12@2@@std@@QAEAAV01@XZ ; std::_Tree_unchecked_const_iterator<std::_Tree_val<std::_Tree_simple_types<std::pair<std::basic_string<char,std::char_traits<char>,std::allocator<char> > const ,FuzzyVariable *> > >,std::_Iterator_base12>::operator++
PUBLIC	??F?$_Tree_unchecked_const_iterator@V?$_Tree_val@U?$_Tree_simple_types@U?$pair@$$CBV?$basic_string@DU?$char_traits@D@std@@V?$allocator@D@2@@std@@PAVFuzzyVariable@@@std@@@std@@@std@@U_Iterator_base12@2@@std@@QAEAAV01@XZ ; std::_Tree_unchecked_const_iterator<std::_Tree_val<std::_Tree_simple_types<std::pair<std::basic_string<char,std::char_traits<char>,std::allocator<char> > const ,FuzzyVariable *> > >,std::_Iterator_base12>::operator--
PUBLIC	?_Mynode@?$_Tree_unchecked_const_iterator@V?$_Tree_val@U?$_Tree_simple_types@U?$pair@$$CBV?$basic_string@DU?$char_traits@D@std@@V?$allocator@D@2@@std@@PAVFuzzyVariable@@@std@@@std@@@std@@U_Iterator_base12@2@@std@@QBEPAU?$_Tree_node@U?$pair@$$CBV?$basic_string@DU?$char_traits@D@std@@V?$allocator@D@2@@std@@PAVFuzzyVariable@@@std@@PAX@2@XZ ; std::_Tree_unchecked_const_iterator<std::_Tree_val<std::_Tree_simple_types<std::pair<std::basic_string<char,std::char_traits<char>,std::allocator<char> > const ,FuzzyVariable *> > >,std::_Iterator_base12>::_Mynode
PUBLIC	??1?$_Tree_unchecked_const_iterator@V?$_Tree_val@U?$_Tree_simple_types@U?$pair@$$CBV?$basic_string@DU?$char_traits@D@std@@V?$allocator@D@2@@std@@PAVFuzzyVariable@@@std@@@std@@@std@@U_Iterator_base12@2@@std@@QAE@XZ ; std::_Tree_unchecked_const_iterator<std::_Tree_val<std::_Tree_simple_types<std::pair<std::basic_string<char,std::char_traits<char>,std::allocator<char> > const ,FuzzyVariable *> > >,std::_Iterator_base12>::~_Tree_unchecked_const_iterator<std::_Tree_val<std::_Tree_simple_types<std::pair<std::basic_string<char,std::char_traits<char>,std::allocator<char> > const ,FuzzyVariable *> > >,std::_Iterator_base12>
PUBLIC	??0?$_Tree_unchecked_const_iterator@V?$_Tree_val@U?$_Tree_simple_types@U?$pair@$$CBV?$basic_string@DU?$char_traits@D@std@@V?$allocator@D@2@@std@@PAVFuzzyVariable@@@std@@@std@@@std@@U_Iterator_base12@2@@std@@QAE@ABV01@@Z ; std::_Tree_unchecked_const_iterator<std::_Tree_val<std::_Tree_simple_types<std::pair<std::basic_string<char,std::char_traits<char>,std::allocator<char> > const ,FuzzyVariable *> > >,std::_Iterator_base12>::_Tree_unchecked_const_iterator<std::_Tree_val<std::_Tree_simple_types<std::pair<std::basic_string<char,std::char_traits<char>,std::allocator<char> > const ,FuzzyVariable *> > >,std::_Iterator_base12>
PUBLIC	??4?$_Tree_unchecked_const_iterator@V?$_Tree_val@U?$_Tree_simple_types@U?$pair@$$CBV?$basic_string@DU?$char_traits@D@std@@V?$allocator@D@2@@std@@PAVFuzzyVariable@@@std@@@std@@@std@@U_Iterator_base12@2@@std@@QAEAAV01@ABV01@@Z ; std::_Tree_unchecked_const_iterator<std::_Tree_val<std::_Tree_simple_types<std::pair<std::basic_string<char,std::char_traits<char>,std::allocator<char> > const ,FuzzyVariable *> > >,std::_Iterator_base12>::operator=
PUBLIC	??0?$_Tree_const_iterator@V?$_Tree_val@U?$_Tree_simple_types@U?$pair@$$CBV?$basic_string@DU?$char_traits@D@std@@V?$allocator@D@2@@std@@PAVFuzzyVariable@@@std@@@std@@@std@@@std@@QAE@XZ ; std::_Tree_const_iterator<std::_Tree_val<std::_Tree_simple_types<std::pair<std::basic_string<char,std::char_traits<char>,std::allocator<char> > const ,FuzzyVariable *> > > >::_Tree_const_iterator<std::_Tree_val<std::_Tree_simple_types<std::pair<std::basic_string<char,std::char_traits<char>,std::allocator<char> > const ,FuzzyVariable *> > > >
PUBLIC	??0?$_Tree_const_iterator@V?$_Tree_val@U?$_Tree_simple_types@U?$pair@$$CBV?$basic_string@DU?$char_traits@D@std@@V?$allocator@D@2@@std@@PAVFuzzyVariable@@@std@@@std@@@std@@@std@@QAE@PAU?$_Tree_node@U?$pair@$$CBV?$basic_string@DU?$char_traits@D@std@@V?$allocator@D@2@@std@@PAVFuzzyVariable@@@std@@PAX@1@PBV?$_Tree_val@U?$_Tree_simple_types@U?$pair@$$CBV?$basic_string@DU?$char_traits@D@std@@V?$allocator@D@2@@std@@PAVFuzzyVariable@@@std@@@std@@@1@@Z ; std::_Tree_const_iterator<std::_Tree_val<std::_Tree_simple_types<std::pair<std::basic_string<char,std::char_traits<char>,std::allocator<char> > const ,FuzzyVariable *> > > >::_Tree_const_iterator<std::_Tree_val<std::_Tree_simple_types<std::pair<std::basic_string<char,std::char_traits<char>,std::allocator<char> > const ,FuzzyVariable *> > > >
PUBLIC	??D?$_Tree_const_iterator@V?$_Tree_val@U?$_Tree_simple_types@U?$pair@$$CBV?$basic_string@DU?$char_traits@D@std@@V?$allocator@D@2@@std@@PAVFuzzyVariable@@@std@@@std@@@std@@@std@@QBEABU?$pair@$$CBV?$basic_string@DU?$char_traits@D@std@@V?$allocator@D@2@@std@@PAVFuzzyVariable@@@1@XZ ; std::_Tree_const_iterator<std::_Tree_val<std::_Tree_simple_types<std::pair<std::basic_string<char,std::char_traits<char>,std::allocator<char> > const ,FuzzyVariable *> > > >::operator*
PUBLIC	??E?$_Tree_const_iterator@V?$_Tree_val@U?$_Tree_simple_types@U?$pair@$$CBV?$basic_string@DU?$char_traits@D@std@@V?$allocator@D@2@@std@@PAVFuzzyVariable@@@std@@@std@@@std@@@std@@QAEAAV01@XZ ; std::_Tree_const_iterator<std::_Tree_val<std::_Tree_simple_types<std::pair<std::basic_string<char,std::char_traits<char>,std::allocator<char> > const ,FuzzyVariable *> > > >::operator++
PUBLIC	??E?$_Tree_const_iterator@V?$_Tree_val@U?$_Tree_simple_types@U?$pair@$$CBV?$basic_string@DU?$char_traits@D@std@@V?$allocator@D@2@@std@@PAVFuzzyVariable@@@std@@@std@@@std@@@std@@QAE?AV01@H@Z ; std::_Tree_const_iterator<std::_Tree_val<std::_Tree_simple_types<std::pair<std::basic_string<char,std::char_traits<char>,std::allocator<char> > const ,FuzzyVariable *> > > >::operator++
PUBLIC	??F?$_Tree_const_iterator@V?$_Tree_val@U?$_Tree_simple_types@U?$pair@$$CBV?$basic_string@DU?$char_traits@D@std@@V?$allocator@D@2@@std@@PAVFuzzyVariable@@@std@@@std@@@std@@@std@@QAEAAV01@XZ ; std::_Tree_const_iterator<std::_Tree_val<std::_Tree_simple_types<std::pair<std::basic_string<char,std::char_traits<char>,std::allocator<char> > const ,FuzzyVariable *> > > >::operator--
PUBLIC	??8?$_Tree_const_iterator@V?$_Tree_val@U?$_Tree_simple_types@U?$pair@$$CBV?$basic_string@DU?$char_traits@D@std@@V?$allocator@D@2@@std@@PAVFuzzyVariable@@@std@@@std@@@std@@@std@@QBE_NABV01@@Z ; std::_Tree_const_iterator<std::_Tree_val<std::_Tree_simple_types<std::pair<std::basic_string<char,std::char_traits<char>,std::allocator<char> > const ,FuzzyVariable *> > > >::operator==
PUBLIC	??9?$_Tree_const_iterator@V?$_Tree_val@U?$_Tree_simple_types@U?$pair@$$CBV?$basic_string@DU?$char_traits@D@std@@V?$allocator@D@2@@std@@PAVFuzzyVariable@@@std@@@std@@@std@@@std@@QBE_NABV01@@Z ; std::_Tree_const_iterator<std::_Tree_val<std::_Tree_simple_types<std::pair<std::basic_string<char,std::char_traits<char>,std::allocator<char> > const ,FuzzyVariable *> > > >::operator!=
PUBLIC	??1?$_Tree_const_iterator@V?$_Tree_val@U?$_Tree_simple_types@U?$pair@$$CBV?$basic_string@DU?$char_traits@D@std@@V?$allocator@D@2@@std@@PAVFuzzyVariable@@@std@@@std@@@std@@@std@@QAE@XZ ; std::_Tree_const_iterator<std::_Tree_val<std::_Tree_simple_types<std::pair<std::basic_string<char,std::char_traits<char>,std::allocator<char> > const ,FuzzyVariable *> > > >::~_Tree_const_iterator<std::_Tree_val<std::_Tree_simple_types<std::pair<std::basic_string<char,std::char_traits<char>,std::allocator<char> > const ,FuzzyVariable *> > > >
PUBLIC	??0?$_Tree_const_iterator@V?$_Tree_val@U?$_Tree_simple_types@U?$pair@$$CBV?$basic_string@DU?$char_traits@D@std@@V?$allocator@D@2@@std@@PAVFuzzyVariable@@@std@@@std@@@std@@@std@@QAE@ABV01@@Z ; std::_Tree_const_iterator<std::_Tree_val<std::_Tree_simple_types<std::pair<std::basic_string<char,std::char_traits<char>,std::allocator<char> > const ,FuzzyVariable *> > > >::_Tree_const_iterator<std::_Tree_val<std::_Tree_simple_types<std::pair<std::basic_string<char,std::char_traits<char>,std::allocator<char> > const ,FuzzyVariable *> > > >
PUBLIC	??4?$_Tree_const_iterator@V?$_Tree_val@U?$_Tree_simple_types@U?$pair@$$CBV?$basic_string@DU?$char_traits@D@std@@V?$allocator@D@2@@std@@PAVFuzzyVariable@@@std@@@std@@@std@@@std@@QAEAAV01@ABV01@@Z ; std::_Tree_const_iterator<std::_Tree_val<std::_Tree_simple_types<std::pair<std::basic_string<char,std::char_traits<char>,std::allocator<char> > const ,FuzzyVariable *> > > >::operator=
PUBLIC	??0?$_Tree_iterator@V?$_Tree_val@U?$_Tree_simple_types@U?$pair@$$CBV?$basic_string@DU?$char_traits@D@std@@V?$allocator@D@2@@std@@PAVFuzzyVariable@@@std@@@std@@@std@@@std@@QAE@PAU?$_Tree_node@U?$pair@$$CBV?$basic_string@DU?$char_traits@D@std@@V?$allocator@D@2@@std@@PAVFuzzyVariable@@@std@@PAX@1@PBV?$_Tree_val@U?$_Tree_simple_types@U?$pair@$$CBV?$basic_string@DU?$char_traits@D@std@@V?$allocator@D@2@@std@@PAVFuzzyVariable@@@std@@@std@@@1@@Z ; std::_Tree_iterator<std::_Tree_val<std::_Tree_simple_types<std::pair<std::basic_string<char,std::char_traits<char>,std::allocator<char> > const ,FuzzyVariable *> > > >::_Tree_iterator<std::_Tree_val<std::_Tree_simple_types<std::pair<std::basic_string<char,std::char_traits<char>,std::allocator<char> > const ,FuzzyVariable *> > > >
PUBLIC	??D?$_Tree_iterator@V?$_Tree_val@U?$_Tree_simple_types@U?$pair@$$CBV?$basic_string@DU?$char_traits@D@std@@V?$allocator@D@2@@std@@PAVFuzzyVariable@@@std@@@std@@@std@@@std@@QBEAAU?$pair@$$CBV?$basic_string@DU?$char_traits@D@std@@V?$allocator@D@2@@std@@PAVFuzzyVariable@@@1@XZ ; std::_Tree_iterator<std::_Tree_val<std::_Tree_simple_types<std::pair<std::basic_string<char,std::char_traits<char>,std::allocator<char> > const ,FuzzyVariable *> > > >::operator*
PUBLIC	??C?$_Tree_iterator@V?$_Tree_val@U?$_Tree_simple_types@U?$pair@$$CBV?$basic_string@DU?$char_traits@D@std@@V?$allocator@D@2@@std@@PAVFuzzyVariable@@@std@@@std@@@std@@@std@@QBEPAU?$pair@$$CBV?$basic_string@DU?$char_traits@D@std@@V?$allocator@D@2@@std@@PAVFuzzyVariable@@@1@XZ ; std::_Tree_iterator<std::_Tree_val<std::_Tree_simple_types<std::pair<std::basic_string<char,std::char_traits<char>,std::allocator<char> > const ,FuzzyVariable *> > > >::operator->
PUBLIC	??E?$_Tree_iterator@V?$_Tree_val@U?$_Tree_simple_types@U?$pair@$$CBV?$basic_string@DU?$char_traits@D@std@@V?$allocator@D@2@@std@@PAVFuzzyVariable@@@std@@@std@@@std@@@std@@QAEAAV01@XZ ; std::_Tree_iterator<std::_Tree_val<std::_Tree_simple_types<std::pair<std::basic_string<char,std::char_traits<char>,std::allocator<char> > const ,FuzzyVariable *> > > >::operator++
PUBLIC	??F?$_Tree_iterator@V?$_Tree_val@U?$_Tree_simple_types@U?$pair@$$CBV?$basic_string@DU?$char_traits@D@std@@V?$allocator@D@2@@std@@PAVFuzzyVariable@@@std@@@std@@@std@@@std@@QAEAAV01@XZ ; std::_Tree_iterator<std::_Tree_val<std::_Tree_simple_types<std::pair<std::basic_string<char,std::char_traits<char>,std::allocator<char> > const ,FuzzyVariable *> > > >::operator--
PUBLIC	??1?$_Tree_iterator@V?$_Tree_val@U?$_Tree_simple_types@U?$pair@$$CBV?$basic_string@DU?$char_traits@D@std@@V?$allocator@D@2@@std@@PAVFuzzyVariable@@@std@@@std@@@std@@@std@@QAE@XZ ; std::_Tree_iterator<std::_Tree_val<std::_Tree_simple_types<std::pair<std::basic_string<char,std::char_traits<char>,std::allocator<char> > const ,FuzzyVariable *> > > >::~_Tree_iterator<std::_Tree_val<std::_Tree_simple_types<std::pair<std::basic_string<char,std::char_traits<char>,std::allocator<char> > const ,FuzzyVariable *> > > >
PUBLIC	??0?$_Tree_iterator@V?$_Tree_val@U?$_Tree_simple_types@U?$pair@$$CBV?$basic_string@DU?$char_traits@D@std@@V?$allocator@D@2@@std@@PAVFuzzyVariable@@@std@@@std@@@std@@@std@@QAE@ABV01@@Z ; std::_Tree_iterator<std::_Tree_val<std::_Tree_simple_types<std::pair<std::basic_string<char,std::char_traits<char>,std::allocator<char> > const ,FuzzyVariable *> > > >::_Tree_iterator<std::_Tree_val<std::_Tree_simple_types<std::pair<std::basic_string<char,std::char_traits<char>,std::allocator<char> > const ,FuzzyVariable *> > > >
PUBLIC	??4?$_Tree_iterator@V?$_Tree_val@U?$_Tree_simple_types@U?$pair@$$CBV?$basic_string@DU?$char_traits@D@std@@V?$allocator@D@2@@std@@PAVFuzzyVariable@@@std@@@std@@@std@@@std@@QAEAAV01@ABV01@@Z ; std::_Tree_iterator<std::_Tree_val<std::_Tree_simple_types<std::pair<std::basic_string<char,std::char_traits<char>,std::allocator<char> > const ,FuzzyVariable *> > > >::operator=
PUBLIC	??0?$_Iterator012@Urandom_access_iterator_tag@std@@PAVFuzzyRule@@HPBQAV3@ABQAV3@U_Iterator_base12@2@@std@@QAE@XZ ; std::_Iterator012<std::random_access_iterator_tag,FuzzyRule *,int,FuzzyRule * const *,FuzzyRule * const &,std::_Iterator_base12>::_Iterator012<std::random_access_iterator_tag,FuzzyRule *,int,FuzzyRule * const *,FuzzyRule * const &,std::_Iterator_base12>
PUBLIC	??1?$_Iterator012@Urandom_access_iterator_tag@std@@PAVFuzzyRule@@HPBQAV3@ABQAV3@U_Iterator_base12@2@@std@@QAE@XZ ; std::_Iterator012<std::random_access_iterator_tag,FuzzyRule *,int,FuzzyRule * const *,FuzzyRule * const &,std::_Iterator_base12>::~_Iterator012<std::random_access_iterator_tag,FuzzyRule *,int,FuzzyRule * const *,FuzzyRule * const &,std::_Iterator_base12>
PUBLIC	??0?$_Vector_const_iterator@V?$_Vector_val@U?$_Simple_types@PAVFuzzyRule@@@std@@@std@@@std@@QAE@PAPAVFuzzyRule@@PBU_Container_base12@1@@Z ; std::_Vector_const_iterator<std::_Vector_val<std::_Simple_types<FuzzyRule *> > >::_Vector_const_iterator<std::_Vector_val<std::_Simple_types<FuzzyRule *> > >
PUBLIC	??D?$_Vector_const_iterator@V?$_Vector_val@U?$_Simple_types@PAVFuzzyRule@@@std@@@std@@@std@@QBEABQAVFuzzyRule@@XZ ; std::_Vector_const_iterator<std::_Vector_val<std::_Simple_types<FuzzyRule *> > >::operator*
PUBLIC	??E?$_Vector_const_iterator@V?$_Vector_val@U?$_Simple_types@PAVFuzzyRule@@@std@@@std@@@std@@QAEAAV01@XZ ; std::_Vector_const_iterator<std::_Vector_val<std::_Simple_types<FuzzyRule *> > >::operator++
PUBLIC	??8?$_Vector_const_iterator@V?$_Vector_val@U?$_Simple_types@PAVFuzzyRule@@@std@@@std@@@std@@QBE_NABV01@@Z ; std::_Vector_const_iterator<std::_Vector_val<std::_Simple_types<FuzzyRule *> > >::operator==
PUBLIC	??9?$_Vector_const_iterator@V?$_Vector_val@U?$_Simple_types@PAVFuzzyRule@@@std@@@std@@@std@@QBE_NABV01@@Z ; std::_Vector_const_iterator<std::_Vector_val<std::_Simple_types<FuzzyRule *> > >::operator!=
PUBLIC	?_Compat@?$_Vector_const_iterator@V?$_Vector_val@U?$_Simple_types@PAVFuzzyRule@@@std@@@std@@@std@@QBEXABV12@@Z ; std::_Vector_const_iterator<std::_Vector_val<std::_Simple_types<FuzzyRule *> > >::_Compat
PUBLIC	??1?$_Vector_const_iterator@V?$_Vector_val@U?$_Simple_types@PAVFuzzyRule@@@std@@@std@@@std@@QAE@XZ ; std::_Vector_const_iterator<std::_Vector_val<std::_Simple_types<FuzzyRule *> > >::~_Vector_const_iterator<std::_Vector_val<std::_Simple_types<FuzzyRule *> > >
PUBLIC	??0?$_Vector_iterator@V?$_Vector_val@U?$_Simple_types@PAVFuzzyRule@@@std@@@std@@@std@@QAE@PAPAVFuzzyRule@@PBU_Container_base12@1@@Z ; std::_Vector_iterator<std::_Vector_val<std::_Simple_types<FuzzyRule *> > >::_Vector_iterator<std::_Vector_val<std::_Simple_types<FuzzyRule *> > >
PUBLIC	??D?$_Vector_iterator@V?$_Vector_val@U?$_Simple_types@PAVFuzzyRule@@@std@@@std@@@std@@QBEAAPAVFuzzyRule@@XZ ; std::_Vector_iterator<std::_Vector_val<std::_Simple_types<FuzzyRule *> > >::operator*
PUBLIC	??E?$_Vector_iterator@V?$_Vector_val@U?$_Simple_types@PAVFuzzyRule@@@std@@@std@@@std@@QAEAAV01@XZ ; std::_Vector_iterator<std::_Vector_val<std::_Simple_types<FuzzyRule *> > >::operator++
PUBLIC	??1?$_Vector_iterator@V?$_Vector_val@U?$_Simple_types@PAVFuzzyRule@@@std@@@std@@@std@@QAE@XZ ; std::_Vector_iterator<std::_Vector_val<std::_Simple_types<FuzzyRule *> > >::~_Vector_iterator<std::_Vector_val<std::_Simple_types<FuzzyRule *> > >
PUBLIC	??1?$pair@$$CBV?$basic_string@DU?$char_traits@D@std@@V?$allocator@D@2@@std@@PAVFuzzyVariable@@@std@@QAE@XZ ; std::pair<std::basic_string<char,std::char_traits<char>,std::allocator<char> > const ,FuzzyVariable *>::~pair<std::basic_string<char,std::char_traits<char>,std::allocator<char> > const ,FuzzyVariable *>
PUBLIC	??_G?$pair@$$CBV?$basic_string@DU?$char_traits@D@std@@V?$allocator@D@2@@std@@PAVFuzzyVariable@@@std@@QAEPAXI@Z ; std::pair<std::basic_string<char,std::char_traits<char>,std::allocator<char> > const ,FuzzyVariable *>::`scalar deleting destructor'
PUBLIC	??$?6U?$char_traits@D@std@@@std@@YAAAV?$basic_ostream@DU?$char_traits@D@std@@@0@AAV10@PBD@Z ; std::operator<<<std::char_traits<char> >
PUBLIC	??$?6DU?$char_traits@D@std@@V?$allocator@D@1@@std@@YAAAV?$basic_ostream@DU?$char_traits@D@std@@@0@AAV10@ABV?$basic_string@DU?$char_traits@D@std@@V?$allocator@D@2@@0@@Z ; std::operator<<<char,std::char_traits<char>,std::allocator<char> >
PUBLIC	??$endl@DU?$char_traits@D@std@@@std@@YAAAV?$basic_ostream@DU?$char_traits@D@std@@@0@AAV10@@Z ; std::endl<char,std::char_traits<char> >
PUBLIC	??$forward@V?$basic_string@DU?$char_traits@D@std@@V?$allocator@D@2@@std@@@std@@YA$$QAV?$basic_string@DU?$char_traits@D@std@@V?$allocator@D@2@@0@AAV10@@Z ; std::forward<std::basic_string<char,std::char_traits<char>,std::allocator<char> > >
PUBLIC	??$_Debug_pointer@$$A6AAAV?$basic_ostream@DU?$char_traits@D@std@@@std@@AAV12@@Z@std@@YAXP6AAAV?$basic_ostream@DU?$char_traits@D@std@@@0@AAV10@@ZPB_WI@Z ; std::_Debug_pointer<std::basic_ostream<char,std::char_traits<char> > & __cdecl(std::basic_ostream<char,std::char_traits<char> > &)>
PUBLIC	??$forward_as_tuple@ABV?$basic_string@DU?$char_traits@D@std@@V?$allocator@D@2@@std@@@std@@YA?AV?$tuple@ABV?$basic_string@DU?$char_traits@D@std@@V?$allocator@D@2@@std@@@0@ABV?$basic_string@DU?$char_traits@D@std@@V?$allocator@D@2@@0@@Z ; std::forward_as_tuple<std::basic_string<char,std::char_traits<char>,std::allocator<char> > const &>
PUBLIC	??0?$tuple@ABV?$basic_string@DU?$char_traits@D@std@@V?$allocator@D@2@@std@@@std@@QAE@ABV?$basic_string@DU?$char_traits@D@std@@V?$allocator@D@2@@1@@Z ; std::tuple<std::basic_string<char,std::char_traits<char>,std::allocator<char> > const &>::tuple<std::basic_string<char,std::char_traits<char>,std::allocator<char> > const &>
PUBLIC	?_Get_rest@?$tuple@ABV?$basic_string@DU?$char_traits@D@std@@V?$allocator@D@2@@std@@@std@@QAEAAV?$tuple@$$$V@2@XZ ; std::tuple<std::basic_string<char,std::char_traits<char>,std::allocator<char> > const &>::_Get_rest
PUBLIC	??$emplace_hint@ABUpiecewise_construct_t@std@@V?$tuple@ABV?$basic_string@DU?$char_traits@D@std@@V?$allocator@D@2@@std@@@2@V?$tuple@$$$V@2@@?$_Tree@V?$_Tmap_traits@V?$basic_string@DU?$char_traits@D@std@@V?$allocator@D@2@@std@@PAVFuzzyVariable@@U?$less@V?$basic_string@DU?$char_traits@D@std@@V?$allocator@D@2@@std@@@2@V?$allocator@U?$pair@$$CBV?$basic_string@DU?$char_traits@D@std@@V?$allocator@D@2@@std@@PAVFuzzyVariable@@@std@@@2@$0A@@std@@@std@@QAE?AV?$_Tree_iterator@V?$_Tree_val@U?$_Tree_simple_types@U?$pair@$$CBV?$basic_string@DU?$char_traits@D@std@@V?$allocator@D@2@@std@@PAVFuzzyVariable@@@std@@@std@@@std@@@1@V?$_Tree_const_iterator@V?$_Tree_val@U?$_Tree_simple_types@U?$pair@$$CBV?$basic_string@DU?$char_traits@D@std@@V?$allocator@D@2@@std@@PAVFuzzyVariable@@@std@@@std@@@std@@@1@ABUpiecewise_construct_t@1@$$QAV?$tuple@ABV?$basic_string@DU?$char_traits@D@std@@V?$allocator@D@2@@std@@@1@$$QAV?$tuple@$$$V@1@@Z ; std::_Tree<std::_Tmap_traits<std::basic_string<char,std::char_traits<char>,std::allocator<char> >,FuzzyVariable *,std::less<std::basic_string<char,std::char_traits<char>,std::allocator<char> > >,std::allocator<std::pair<std::basic_string<char,std::char_traits<char>,std::allocator<char> > const ,FuzzyVariable *> >,0> >::emplace_hint<std::piecewise_construct_t const &,std::tuple<std::basic_string<char,std::char_traits<char>,std::allocator<char> > const &>,std::tuple<> >
PUBLIC	??$_Debug_lt_pred@U?$less@V?$basic_string@DU?$char_traits@D@std@@V?$allocator@D@2@@std@@@std@@ABV?$basic_string@DU?$char_traits@D@std@@V?$allocator@D@2@@2@ABV32@@std@@YA_NU?$less@V?$basic_string@DU?$char_traits@D@std@@V?$allocator@D@2@@std@@@0@ABV?$basic_string@DU?$char_traits@D@std@@V?$allocator@D@2@@0@1PB_WI@Z ; std::_Debug_lt_pred<std::less<std::basic_string<char,std::char_traits<char>,std::allocator<char> > >,std::basic_string<char,std::char_traits<char>,std::allocator<char> > const &,std::basic_string<char,std::char_traits<char>,std::allocator<char> > const &>
PUBLIC	??$addressof@PAVFuzzyRule@@@std@@YAPAPAVFuzzyRule@@AAPAV1@@Z ; std::addressof<FuzzyRule *>
PUBLIC	??$forward@PAVFuzzyRule@@@std@@YA$$QAPAVFuzzyRule@@AAPAV1@@Z ; std::forward<FuzzyRule *>
PUBLIC	??$construct@PAVFuzzyRule@@PAV1@@?$_Wrap_alloc@V?$allocator@PAVFuzzyRule@@@std@@@std@@QAEXPAPAVFuzzyRule@@$$QAPAV2@@Z ; std::_Wrap_alloc<std::allocator<FuzzyRule *> >::construct<FuzzyRule *,FuzzyRule *>
PUBLIC	?pointer_to@?$pointer_traits@PAU?$pair@$$CBV?$basic_string@DU?$char_traits@D@std@@V?$allocator@D@2@@std@@PAVFuzzyVariable@@@std@@@std@@SAPAU?$pair@$$CBV?$basic_string@DU?$char_traits@D@std@@V?$allocator@D@2@@std@@PAVFuzzyVariable@@@2@AAU32@@Z ; std::pointer_traits<std::pair<std::basic_string<char,std::char_traits<char>,std::allocator<char> > const ,FuzzyVariable *> *>::pointer_to
PUBLIC	??$construct@PADAAPAD@?$_Wrap_alloc@V?$allocator@D@std@@@std@@QAEXPAPADAAPAD@Z ; std::_Wrap_alloc<std::allocator<char> >::construct<char *,char * &>
PUBLIC	??$destroy@PAD@?$_Wrap_alloc@V?$allocator@D@std@@@std@@QAEXPAPAD@Z ; std::_Wrap_alloc<std::allocator<char> >::destroy<char *>
PUBLIC	??$addressof@D@std@@YAPADAAD@Z			; std::addressof<char>
PUBLIC	??$?MDU?$char_traits@D@std@@V?$allocator@D@1@@std@@YA_NABV?$basic_string@DU?$char_traits@D@std@@V?$allocator@D@2@@0@0@Z ; std::operator<<char,std::char_traits<char>,std::allocator<char> >
PUBLIC	??$addressof@U?$pair@$$CBV?$basic_string@DU?$char_traits@D@std@@V?$allocator@D@2@@std@@PAVFuzzyVariable@@@std@@@std@@YAPAU?$pair@$$CBV?$basic_string@DU?$char_traits@D@std@@V?$allocator@D@2@@std@@PAVFuzzyVariable@@@0@AAU10@@Z ; std::addressof<std::pair<std::basic_string<char,std::char_traits<char>,std::allocator<char> > const ,FuzzyVariable *> >
PUBLIC	??0?$allocator@U_Container_proxy@std@@@std@@QAE@XZ ; std::allocator<std::_Container_proxy>::allocator<std::_Container_proxy>
PUBLIC	?deallocate@?$allocator@U_Container_proxy@std@@@std@@QAEXPAU_Container_proxy@2@I@Z ; std::allocator<std::_Container_proxy>::deallocate
PUBLIC	?allocate@?$allocator@U_Container_proxy@std@@@std@@QAEPAU_Container_proxy@2@I@Z ; std::allocator<std::_Container_proxy>::allocate
PUBLIC	??$construct@U_Container_proxy@std@@U12@@?$allocator@U_Container_proxy@std@@@std@@QAEXPAU_Container_proxy@1@$$QAU21@@Z ; std::allocator<std::_Container_proxy>::construct<std::_Container_proxy,std::_Container_proxy>
PUBLIC	??$destroy@U_Container_proxy@std@@@?$allocator@U_Container_proxy@std@@@std@@QAEXPAU_Container_proxy@1@@Z ; std::allocator<std::_Container_proxy>::destroy<std::_Container_proxy>
PUBLIC	??0_Sentry_base@?$basic_ostream@DU?$char_traits@D@std@@@std@@QAE@AAV12@@Z ; std::basic_ostream<char,std::char_traits<char> >::_Sentry_base::_Sentry_base
PUBLIC	??1_Sentry_base@?$basic_ostream@DU?$char_traits@D@std@@@std@@QAE@XZ ; std::basic_ostream<char,std::char_traits<char> >::_Sentry_base::~_Sentry_base
PUBLIC	??0sentry@?$basic_ostream@DU?$char_traits@D@std@@@std@@QAE@AAV12@@Z ; std::basic_ostream<char,std::char_traits<char> >::sentry::sentry
PUBLIC	??1sentry@?$basic_ostream@DU?$char_traits@D@std@@@std@@QAE@XZ ; std::basic_ostream<char,std::char_traits<char> >::sentry::~sentry
PUBLIC	??Bsentry@?$basic_ostream@DU?$char_traits@D@std@@@std@@QBE_NXZ ; std::basic_ostream<char,std::char_traits<char> >::sentry::operator bool
PUBLIC	??0?$_Wrap_alloc@V?$allocator@U_Container_proxy@std@@@std@@@std@@QAE@XZ ; std::_Wrap_alloc<std::allocator<std::_Container_proxy> >::_Wrap_alloc<std::allocator<std::_Container_proxy> >
PUBLIC	?allocate@?$_Wrap_alloc@V?$allocator@U_Container_proxy@std@@@std@@@std@@QAEPAU_Container_proxy@2@I@Z ; std::_Wrap_alloc<std::allocator<std::_Container_proxy> >::allocate
PUBLIC	?deallocate@?$_Wrap_alloc@V?$allocator@U_Container_proxy@std@@@std@@@std@@QAEXPAU_Container_proxy@2@I@Z ; std::_Wrap_alloc<std::allocator<std::_Container_proxy> >::deallocate
PUBLIC	??$?0U?$_Wrap_alloc@V?$allocator@U?$_Tree_node@U?$pair@$$CBV?$basic_string@DU?$char_traits@D@std@@V?$allocator@D@2@@std@@PAVFuzzySet@@@std@@PAX@std@@@std@@@std@@@?$_Wrap_alloc@V?$allocator@U_Container_proxy@std@@@std@@@std@@QAE@ABU?$_Wrap_alloc@V?$allocator@U?$_Tree_node@U?$pair@$$CBV?$basic_string@DU?$char_traits@D@std@@V?$allocator@D@2@@std@@PAVFuzzySet@@@std@@PAX@std@@@std@@@1@@Z ; std::_Wrap_alloc<std::allocator<std::_Container_proxy> >::_Wrap_alloc<std::allocator<std::_Container_proxy> ><std::_Wrap_alloc<std::allocator<std::_Tree_node<std::pair<std::basic_string<char,std::char_traits<char>,std::allocator<char> > const ,FuzzySet *>,void *> > > >
PUBLIC	??$?0U?$_Tree_node@U?$pair@$$CBV?$basic_string@DU?$char_traits@D@std@@V?$allocator@D@2@@std@@PAVFuzzySet@@@std@@PAX@std@@@?$allocator@U_Container_proxy@std@@@std@@QAE@ABV?$allocator@U?$_Tree_node@U?$pair@$$CBV?$basic_string@DU?$char_traits@D@std@@V?$allocator@D@2@@std@@PAVFuzzySet@@@std@@PAX@std@@@1@@Z ; std::allocator<std::_Container_proxy>::allocator<std::_Container_proxy><std::_Tree_node<std::pair<std::basic_string<char,std::char_traits<char>,std::allocator<char> > const ,FuzzySet *>,void *> >
PUBLIC	??$destroy@U_Container_proxy@std@@@?$_Wrap_alloc@V?$allocator@U_Container_proxy@std@@@std@@@std@@QAEXPAU_Container_proxy@1@@Z ; std::_Wrap_alloc<std::allocator<std::_Container_proxy> >::destroy<std::_Container_proxy>
PUBLIC	??$addressof@PAU?$_Tree_node@U?$pair@$$CBV?$basic_string@DU?$char_traits@D@std@@V?$allocator@D@2@@std@@PAVFuzzySet@@@std@@PAX@std@@@std@@YAPAPAU?$_Tree_node@U?$pair@$$CBV?$basic_string@DU?$char_traits@D@std@@V?$allocator@D@2@@std@@PAVFuzzySet@@@std@@PAX@0@AAPAU10@@Z ; std::addressof<std::_Tree_node<std::pair<std::basic_string<char,std::char_traits<char>,std::allocator<char> > const ,FuzzySet *>,void *> *>
PUBLIC	??$destroy@PAU?$_Tree_node@U?$pair@$$CBV?$basic_string@DU?$char_traits@D@std@@V?$allocator@D@2@@std@@PAVFuzzySet@@@std@@PAX@std@@@?$_Wrap_alloc@V?$allocator@U?$_Tree_node@U?$pair@$$CBV?$basic_string@DU?$char_traits@D@std@@V?$allocator@D@2@@std@@PAVFuzzySet@@@std@@PAX@std@@@std@@@std@@QAEXPAPAU?$_Tree_node@U?$pair@$$CBV?$basic_string@DU?$char_traits@D@std@@V?$allocator@D@2@@std@@PAVFuzzySet@@@std@@PAX@1@@Z ; std::_Wrap_alloc<std::allocator<std::_Tree_node<std::pair<std::basic_string<char,std::char_traits<char>,std::allocator<char> > const ,FuzzySet *>,void *> > >::destroy<std::_Tree_node<std::pair<std::basic_string<char,std::char_traits<char>,std::allocator<char> > const ,FuzzySet *>,void *> *>
PUBLIC	??$_Kfn@$$CBV?$basic_string@DU?$char_traits@D@std@@V?$allocator@D@2@@std@@PAVFuzzyVariable@@@?$_Tmap_traits@V?$basic_string@DU?$char_traits@D@std@@V?$allocator@D@2@@std@@PAVFuzzyVariable@@U?$less@V?$basic_string@DU?$char_traits@D@std@@V?$allocator@D@2@@std@@@2@V?$allocator@U?$pair@$$CBV?$basic_string@DU?$char_traits@D@std@@V?$allocator@D@2@@std@@PAVFuzzyVariable@@@std@@@2@$0A@@std@@SAABV?$basic_string@DU?$char_traits@D@std@@V?$allocator@D@2@@1@ABU?$pair@$$CBV?$basic_string@DU?$char_traits@D@std@@V?$allocator@D@2@@std@@PAVFuzzyVariable@@@1@@Z ; std::_Tmap_traits<std::basic_string<char,std::char_traits<char>,std::allocator<char> >,FuzzyVariable *,std::less<std::basic_string<char,std::char_traits<char>,std::allocator<char> > >,std::allocator<std::pair<std::basic_string<char,std::char_traits<char>,std::allocator<char> > const ,FuzzyVariable *> >,0>::_Kfn<std::basic_string<char,std::char_traits<char>,std::allocator<char> > const ,FuzzyVariable *>
PUBLIC	??$?0U?$_Wrap_alloc@V?$allocator@U?$_Tree_node@U?$pair@$$CBV?$basic_string@DU?$char_traits@D@std@@V?$allocator@D@2@@std@@PAVFuzzyVariable@@@std@@PAX@std@@@std@@@std@@@?$_Wrap_alloc@V?$allocator@U_Container_proxy@std@@@std@@@std@@QAE@ABU?$_Wrap_alloc@V?$allocator@U?$_Tree_node@U?$pair@$$CBV?$basic_string@DU?$char_traits@D@std@@V?$allocator@D@2@@std@@PAVFuzzyVariable@@@std@@PAX@std@@@std@@@1@@Z ; std::_Wrap_alloc<std::allocator<std::_Container_proxy> >::_Wrap_alloc<std::allocator<std::_Container_proxy> ><std::_Wrap_alloc<std::allocator<std::_Tree_node<std::pair<std::basic_string<char,std::char_traits<char>,std::allocator<char> > const ,FuzzyVariable *>,void *> > > >
PUBLIC	??$?0U?$_Tree_node@U?$pair@$$CBV?$basic_string@DU?$char_traits@D@std@@V?$allocator@D@2@@std@@PAVFuzzyVariable@@@std@@PAX@std@@@?$allocator@U_Container_proxy@std@@@std@@QAE@ABV?$allocator@U?$_Tree_node@U?$pair@$$CBV?$basic_string@DU?$char_traits@D@std@@V?$allocator@D@2@@std@@PAVFuzzyVariable@@@std@@PAX@std@@@1@@Z ; std::allocator<std::_Container_proxy>::allocator<std::_Container_proxy><std::_Tree_node<std::pair<std::basic_string<char,std::char_traits<char>,std::allocator<char> > const ,FuzzyVariable *>,void *> >
PUBLIC	??$addressof@PAU?$_Tree_node@U?$pair@$$CBV?$basic_string@DU?$char_traits@D@std@@V?$allocator@D@2@@std@@PAVFuzzyVariable@@@std@@PAX@std@@@std@@YAPAPAU?$_Tree_node@U?$pair@$$CBV?$basic_string@DU?$char_traits@D@std@@V?$allocator@D@2@@std@@PAVFuzzyVariable@@@std@@PAX@0@AAPAU10@@Z ; std::addressof<std::_Tree_node<std::pair<std::basic_string<char,std::char_traits<char>,std::allocator<char> > const ,FuzzyVariable *>,void *> *>
PUBLIC	??$destroy@PAU?$_Tree_node@U?$pair@$$CBV?$basic_string@DU?$char_traits@D@std@@V?$allocator@D@2@@std@@PAVFuzzyVariable@@@std@@PAX@std@@@?$_Wrap_alloc@V?$allocator@U?$_Tree_node@U?$pair@$$CBV?$basic_string@DU?$char_traits@D@std@@V?$allocator@D@2@@std@@PAVFuzzyVariable@@@std@@PAX@std@@@std@@@std@@QAEXPAPAU?$_Tree_node@U?$pair@$$CBV?$basic_string@DU?$char_traits@D@std@@V?$allocator@D@2@@std@@PAVFuzzyVariable@@@std@@PAX@1@@Z ; std::_Wrap_alloc<std::allocator<std::_Tree_node<std::pair<std::basic_string<char,std::char_traits<char>,std::allocator<char> > const ,FuzzyVariable *>,void *> > >::destroy<std::_Tree_node<std::pair<std::basic_string<char,std::char_traits<char>,std::allocator<char> > const ,FuzzyVariable *>,void *> *>
PUBLIC	??$_Destroy_range@U?$_Wrap_alloc@V?$allocator@PAVFuzzyRule@@@std@@@std@@@std@@YAXPAPAVFuzzyRule@@0AAU?$_Wrap_alloc@V?$allocator@PAVFuzzyRule@@@std@@@0@@Z ; std::_Destroy_range<std::_Wrap_alloc<std::allocator<FuzzyRule *> > >
PUBLIC	??$_Umove@PAPAVFuzzyRule@@@?$vector@PAVFuzzyRule@@V?$allocator@PAVFuzzyRule@@@std@@@std@@IAEPAPAVFuzzyRule@@PAPAV2@00@Z ; std::vector<FuzzyRule *,std::allocator<FuzzyRule *> >::_Umove<FuzzyRule * *>
PUBLIC	??$swap@D@std@@YAXAAD0@Z			; std::swap<char>
PUBLIC	??$destroy@U?$pair@$$CBV?$basic_string@DU?$char_traits@D@std@@V?$allocator@D@2@@std@@PAVFuzzyVariable@@@std@@@?$_Wrap_alloc@V?$allocator@U?$_Tree_node@U?$pair@$$CBV?$basic_string@DU?$char_traits@D@std@@V?$allocator@D@2@@std@@PAVFuzzyVariable@@@std@@PAX@std@@@std@@@std@@QAEXPAU?$pair@$$CBV?$basic_string@DU?$char_traits@D@std@@V?$allocator@D@2@@std@@PAVFuzzyVariable@@@1@@Z ; std::_Wrap_alloc<std::allocator<std::_Tree_node<std::pair<std::basic_string<char,std::char_traits<char>,std::allocator<char> > const ,FuzzyVariable *>,void *> > >::destroy<std::pair<std::basic_string<char,std::char_traits<char>,std::allocator<char> > const ,FuzzyVariable *> >
PUBLIC	??$_Allocate@U_Container_proxy@std@@@std@@YAPAU_Container_proxy@0@IPAU10@@Z ; std::_Allocate<std::_Container_proxy>
PUBLIC	??$_Allocate@PAVFuzzyRule@@@std@@YAPAPAVFuzzyRule@@IPAPAV1@@Z ; std::_Allocate<FuzzyRule *>
PUBLIC	??$_Allocate@D@std@@YAPADIPAD@Z			; std::_Allocate<char>
PUBLIC	??$construct@U_Container_proxy@std@@U12@@?$_Wrap_alloc@V?$allocator@U_Container_proxy@std@@@std@@@std@@QAEXPAU_Container_proxy@1@$$QAU21@@Z ; std::_Wrap_alloc<std::allocator<std::_Container_proxy> >::construct<std::_Container_proxy,std::_Container_proxy>
PUBLIC	??$construct@PAU?$_Tree_node@U?$pair@$$CBV?$basic_string@DU?$char_traits@D@std@@V?$allocator@D@2@@std@@PAVFuzzySet@@@std@@PAX@std@@AAPAU12@@?$_Wrap_alloc@V?$allocator@U?$_Tree_node@U?$pair@$$CBV?$basic_string@DU?$char_traits@D@std@@V?$allocator@D@2@@std@@PAVFuzzySet@@@std@@PAX@std@@@std@@@std@@QAEXPAPAU?$_Tree_node@U?$pair@$$CBV?$basic_string@DU?$char_traits@D@std@@V?$allocator@D@2@@std@@PAVFuzzySet@@@std@@PAX@1@AAPAU21@@Z ; std::_Wrap_alloc<std::allocator<std::_Tree_node<std::pair<std::basic_string<char,std::char_traits<char>,std::allocator<char> > const ,FuzzySet *>,void *> > >::construct<std::_Tree_node<std::pair<std::basic_string<char,std::char_traits<char>,std::allocator<char> > const ,FuzzySet *>,void *> *,std::_Tree_node<std::pair<std::basic_string<char,std::char_traits<char>,std::allocator<char> > const ,FuzzySet *>,void *> * &>
PUBLIC	??$_Allocate@U?$_Tree_node@U?$pair@$$CBV?$basic_string@DU?$char_traits@D@std@@V?$allocator@D@2@@std@@PAVFuzzySet@@@std@@PAX@std@@@std@@YAPAU?$_Tree_node@U?$pair@$$CBV?$basic_string@DU?$char_traits@D@std@@V?$allocator@D@2@@std@@PAVFuzzySet@@@std@@PAX@0@IPAU10@@Z ; std::_Allocate<std::_Tree_node<std::pair<std::basic_string<char,std::char_traits<char>,std::allocator<char> > const ,FuzzySet *>,void *> >
PUBLIC	??$_Iter_cat@PBD@std@@YA?AUrandom_access_iterator_tag@0@ABQBD@Z ; std::_Iter_cat<char const *>
PUBLIC	??$_Debug_range2@PBD@std@@YAXPBD0PB_WIUrandom_access_iterator_tag@0@@Z ; std::_Debug_range2<char const *>
PUBLIC	??$forward@ABV?$basic_string@DU?$char_traits@D@std@@V?$allocator@D@2@@std@@@std@@YAABV?$basic_string@DU?$char_traits@D@std@@V?$allocator@D@2@@0@ABV10@@Z ; std::forward<std::basic_string<char,std::char_traits<char>,std::allocator<char> > const &>
PUBLIC	??$?0ABV?$basic_string@DU?$char_traits@D@std@@V?$allocator@D@2@@std@@PAPAX@?$tuple@ABV?$basic_string@DU?$char_traits@D@std@@V?$allocator@D@2@@std@@@std@@QAE@$$QAV01@@Z ; std::tuple<std::basic_string<char,std::char_traits<char>,std::allocator<char> > const &>::tuple<std::basic_string<char,std::char_traits<char>,std::allocator<char> > const &><std::basic_string<char,std::char_traits<char>,std::allocator<char> > const &,void * *>
PUBLIC	??$forward@ABUpiecewise_construct_t@std@@@std@@YAABUpiecewise_construct_t@0@ABU10@@Z ; std::forward<std::piecewise_construct_t const &>
PUBLIC	??$forward@V?$tuple@ABV?$basic_string@DU?$char_traits@D@std@@V?$allocator@D@2@@std@@@std@@@std@@YA$$QAV?$tuple@ABV?$basic_string@DU?$char_traits@D@std@@V?$allocator@D@2@@std@@@0@AAV10@@Z ; std::forward<std::tuple<std::basic_string<char,std::char_traits<char>,std::allocator<char> > const &> >
PUBLIC	??$forward@V?$tuple@$$$V@std@@@std@@YA$$QAV?$tuple@$$$V@0@AAV10@@Z ; std::forward<std::tuple<> >
PUBLIC	??$_Buynode@ABUpiecewise_construct_t@std@@V?$tuple@ABV?$basic_string@DU?$char_traits@D@std@@V?$allocator@D@2@@std@@@2@V?$tuple@$$$V@2@@?$_Tree_buy@U?$pair@$$CBV?$basic_string@DU?$char_traits@D@std@@V?$allocator@D@2@@std@@PAVFuzzyVariable@@@std@@V?$allocator@U?$pair@$$CBV?$basic_string@DU?$char_traits@D@std@@V?$allocator@D@2@@std@@PAVFuzzyVariable@@@std@@@2@@std@@QAEPAU?$_Tree_node@U?$pair@$$CBV?$basic_string@DU?$char_traits@D@std@@V?$allocator@D@2@@std@@PAVFuzzyVariable@@@std@@PAX@1@ABUpiecewise_construct_t@1@$$QAV?$tuple@ABV?$basic_string@DU?$char_traits@D@std@@V?$allocator@D@2@@std@@@1@$$QAV?$tuple@$$$V@1@@Z ; std::_Tree_buy<std::pair<std::basic_string<char,std::char_traits<char>,std::allocator<char> > const ,FuzzyVariable *>,std::allocator<std::pair<std::basic_string<char,std::char_traits<char>,std::allocator<char> > const ,FuzzyVariable *> > >::_Buynode<std::piecewise_construct_t const &,std::tuple<std::basic_string<char,std::char_traits<char>,std::allocator<char> > const &>,std::tuple<> >
PUBLIC	??$_Insert_hint@AAU?$pair@$$CBV?$basic_string@DU?$char_traits@D@std@@V?$allocator@D@2@@std@@PAVFuzzyVariable@@@std@@PAU?$_Tree_node@U?$pair@$$CBV?$basic_string@DU?$char_traits@D@std@@V?$allocator@D@2@@std@@PAVFuzzyVariable@@@std@@PAX@2@@?$_Tree@V?$_Tmap_traits@V?$basic_string@DU?$char_traits@D@std@@V?$allocator@D@2@@std@@PAVFuzzyVariable@@U?$less@V?$basic_string@DU?$char_traits@D@std@@V?$allocator@D@2@@std@@@2@V?$allocator@U?$pair@$$CBV?$basic_string@DU?$char_traits@D@std@@V?$allocator@D@2@@std@@PAVFuzzyVariable@@@std@@@2@$0A@@std@@@std@@IAE?AV?$_Tree_iterator@V?$_Tree_val@U?$_Tree_simple_types@U?$pair@$$CBV?$basic_string@DU?$char_traits@D@std@@V?$allocator@D@2@@std@@PAVFuzzyVariable@@@std@@@std@@@std@@@1@V?$_Tree_const_iterator@V?$_Tree_val@U?$_Tree_simple_types@U?$pair@$$CBV?$basic_string@DU?$char_traits@D@std@@V?$allocator@D@2@@std@@PAVFuzzyVariable@@@std@@@std@@@std@@@1@AAU?$pair@$$CBV?$basic_string@DU?$char_traits@D@std@@V?$allocator@D@2@@std@@PAVFuzzyVariable@@@1@PAU?$_Tree_node@U?$pair@$$CBV?$basic_string@DU?$char_traits@D@std@@V?$allocator@D@2@@std@@PAVFuzzyVariable@@@std@@PAX@1@@Z ; std::_Tree<std::_Tmap_traits<std::basic_string<char,std::char_traits<char>,std::allocator<char> >,FuzzyVariable *,std::less<std::basic_string<char,std::char_traits<char>,std::allocator<char> > >,std::allocator<std::pair<std::basic_string<char,std::char_traits<char>,std::allocator<char> > const ,FuzzyVariable *> >,0> >::_Insert_hint<std::pair<std::basic_string<char,std::char_traits<char>,std::allocator<char> > const ,FuzzyVariable *> &,std::_Tree_node<std::pair<std::basic_string<char,std::char_traits<char>,std::allocator<char> > const ,FuzzyVariable *>,void *> *>
PUBLIC	??$construct@PAVFuzzyRule@@PAV1@@?$allocator_traits@V?$allocator@PAVFuzzyRule@@@std@@@std@@SAXAAV?$allocator@PAVFuzzyRule@@@1@PAPAVFuzzyRule@@$$QAPAV3@@Z ; std::allocator_traits<std::allocator<FuzzyRule *> >::construct<FuzzyRule *,FuzzyRule *>
PUBLIC	??$forward@AAPAD@std@@YAAAPADAAPAD@Z		; std::forward<char * &>
PUBLIC	??$construct@PADAAPAD@?$allocator_traits@V?$allocator@D@std@@@std@@SAXAAV?$allocator@D@1@PAPADAAPAD@Z ; std::allocator_traits<std::allocator<char> >::construct<char *,char * &>
PUBLIC	??$destroy@PAD@?$allocator_traits@V?$allocator@D@std@@@std@@SAXAAV?$allocator@D@1@PAPAD@Z ; std::allocator_traits<std::allocator<char> >::destroy<char *>
PUBLIC	??$forward@U_Container_proxy@std@@@std@@YA$$QAU_Container_proxy@0@AAU10@@Z ; std::forward<std::_Container_proxy>
PUBLIC	??$destroy@U_Container_proxy@std@@@?$allocator_traits@V?$allocator@U_Container_proxy@std@@@std@@@std@@SAXAAV?$allocator@U_Container_proxy@std@@@1@PAU_Container_proxy@1@@Z ; std::allocator_traits<std::allocator<std::_Container_proxy> >::destroy<std::_Container_proxy>
PUBLIC	??$destroy@PAU?$_Tree_node@U?$pair@$$CBV?$basic_string@DU?$char_traits@D@std@@V?$allocator@D@2@@std@@PAVFuzzySet@@@std@@PAX@std@@@?$allocator_traits@V?$allocator@U?$_Tree_node@U?$pair@$$CBV?$basic_string@DU?$char_traits@D@std@@V?$allocator@D@2@@std@@PAVFuzzySet@@@std@@PAX@std@@@std@@@std@@SAXAAV?$allocator@U?$_Tree_node@U?$pair@$$CBV?$basic_string@DU?$char_traits@D@std@@V?$allocator@D@2@@std@@PAVFuzzySet@@@std@@PAX@std@@@1@PAPAU?$_Tree_node@U?$pair@$$CBV?$basic_string@DU?$char_traits@D@std@@V?$allocator@D@2@@std@@PAVFuzzySet@@@std@@PAX@1@@Z ; std::allocator_traits<std::allocator<std::_Tree_node<std::pair<std::basic_string<char,std::char_traits<char>,std::allocator<char> > const ,FuzzySet *>,void *> > >::destroy<std::_Tree_node<std::pair<std::basic_string<char,std::char_traits<char>,std::allocator<char> > const ,FuzzySet *>,void *> *>
PUBLIC	??$destroy@PAU?$_Tree_node@U?$pair@$$CBV?$basic_string@DU?$char_traits@D@std@@V?$allocator@D@2@@std@@PAVFuzzyVariable@@@std@@PAX@std@@@?$allocator_traits@V?$allocator@U?$_Tree_node@U?$pair@$$CBV?$basic_string@DU?$char_traits@D@std@@V?$allocator@D@2@@std@@PAVFuzzyVariable@@@std@@PAX@std@@@std@@@std@@SAXAAV?$allocator@U?$_Tree_node@U?$pair@$$CBV?$basic_string@DU?$char_traits@D@std@@V?$allocator@D@2@@std@@PAVFuzzyVariable@@@std@@PAX@std@@@1@PAPAU?$_Tree_node@U?$pair@$$CBV?$basic_string@DU?$char_traits@D@std@@V?$allocator@D@2@@std@@PAVFuzzyVariable@@@std@@PAX@1@@Z ; std::allocator_traits<std::allocator<std::_Tree_node<std::pair<std::basic_string<char,std::char_traits<char>,std::allocator<char> > const ,FuzzyVariable *>,void *> > >::destroy<std::_Tree_node<std::pair<std::basic_string<char,std::char_traits<char>,std::allocator<char> > const ,FuzzyVariable *>,void *> *>
PUBLIC	??$_Ptr_cat@PAVFuzzyRule@@PAV1@@std@@YA?AU_Scalar_ptr_iterator_tag@0@PAPAVFuzzyRule@@0@Z ; std::_Ptr_cat<FuzzyRule *,FuzzyRule *>
PUBLIC	??$_Destroy_range@U?$_Wrap_alloc@V?$allocator@PAVFuzzyRule@@@std@@@std@@@std@@YAXPAPAVFuzzyRule@@0AAU?$_Wrap_alloc@V?$allocator@PAVFuzzyRule@@@std@@@0@U_Scalar_ptr_iterator_tag@0@@Z ; std::_Destroy_range<std::_Wrap_alloc<std::allocator<FuzzyRule *> > >
PUBLIC	??$_Uninitialized_move@PAPAVFuzzyRule@@PAPAV1@U?$_Wrap_alloc@V?$allocator@PAVFuzzyRule@@@std@@@std@@@std@@YAPAPAVFuzzyRule@@PAPAV1@00AAU?$_Wrap_alloc@V?$allocator@PAVFuzzyRule@@@std@@@0@@Z ; std::_Uninitialized_move<FuzzyRule * *,FuzzyRule * *,std::_Wrap_alloc<std::allocator<FuzzyRule *> > >
PUBLIC	??$_Move@AAD@std@@YA$$QADAAD@Z			; std::_Move<char &>
PUBLIC	??$destroy@U?$pair@$$CBV?$basic_string@DU?$char_traits@D@std@@V?$allocator@D@2@@std@@PAVFuzzyVariable@@@std@@@?$allocator_traits@V?$allocator@U?$_Tree_node@U?$pair@$$CBV?$basic_string@DU?$char_traits@D@std@@V?$allocator@D@2@@std@@PAVFuzzyVariable@@@std@@PAX@std@@@std@@@std@@SAXAAV?$allocator@U?$_Tree_node@U?$pair@$$CBV?$basic_string@DU?$char_traits@D@std@@V?$allocator@D@2@@std@@PAVFuzzyVariable@@@std@@PAX@std@@@1@PAU?$pair@$$CBV?$basic_string@DU?$char_traits@D@std@@V?$allocator@D@2@@std@@PAVFuzzyVariable@@@1@@Z ; std::allocator_traits<std::allocator<std::_Tree_node<std::pair<std::basic_string<char,std::char_traits<char>,std::allocator<char> > const ,FuzzyVariable *>,void *> > >::destroy<std::pair<std::basic_string<char,std::char_traits<char>,std::allocator<char> > const ,FuzzyVariable *> >
PUBLIC	??$construct@U_Container_proxy@std@@U12@@?$allocator_traits@V?$allocator@U_Container_proxy@std@@@std@@@std@@SAXAAV?$allocator@U_Container_proxy@std@@@1@PAU_Container_proxy@1@$$QAU31@@Z ; std::allocator_traits<std::allocator<std::_Container_proxy> >::construct<std::_Container_proxy,std::_Container_proxy>
PUBLIC	??$forward@AAPAU?$_Tree_node@U?$pair@$$CBV?$basic_string@DU?$char_traits@D@std@@V?$allocator@D@2@@std@@PAVFuzzySet@@@std@@PAX@std@@@std@@YAAAPAU?$_Tree_node@U?$pair@$$CBV?$basic_string@DU?$char_traits@D@std@@V?$allocator@D@2@@std@@PAVFuzzySet@@@std@@PAX@0@AAPAU10@@Z ; std::forward<std::_Tree_node<std::pair<std::basic_string<char,std::char_traits<char>,std::allocator<char> > const ,FuzzySet *>,void *> * &>
PUBLIC	??$construct@PAU?$_Tree_node@U?$pair@$$CBV?$basic_string@DU?$char_traits@D@std@@V?$allocator@D@2@@std@@PAVFuzzySet@@@std@@PAX@std@@AAPAU12@@?$allocator_traits@V?$allocator@U?$_Tree_node@U?$pair@$$CBV?$basic_string@DU?$char_traits@D@std@@V?$allocator@D@2@@std@@PAVFuzzySet@@@std@@PAX@std@@@std@@@std@@SAXAAV?$allocator@U?$_Tree_node@U?$pair@$$CBV?$basic_string@DU?$char_traits@D@std@@V?$allocator@D@2@@std@@PAVFuzzySet@@@std@@PAX@std@@@1@PAPAU?$_Tree_node@U?$pair@$$CBV?$basic_string@DU?$char_traits@D@std@@V?$allocator@D@2@@std@@PAVFuzzySet@@@std@@PAX@1@AAPAU31@@Z ; std::allocator_traits<std::allocator<std::_Tree_node<std::pair<std::basic_string<char,std::char_traits<char>,std::allocator<char> > const ,FuzzySet *>,void *> > >::construct<std::_Tree_node<std::pair<std::basic_string<char,std::char_traits<char>,std::allocator<char> > const ,FuzzySet *>,void *> *,std::_Tree_node<std::pair<std::basic_string<char,std::char_traits<char>,std::allocator<char> > const ,FuzzySet *>,void *> * &>
PUBLIC	??$?0ABV?$basic_string@DU?$char_traits@D@std@@V?$allocator@D@2@@std@@@?$_Tuple_val@ABV?$basic_string@DU?$char_traits@D@std@@V?$allocator@D@2@@std@@@std@@QAE@ABV?$basic_string@DU?$char_traits@D@std@@V?$allocator@D@2@@1@@Z ; std::_Tuple_val<std::basic_string<char,std::char_traits<char>,std::allocator<char> > const &>::_Tuple_val<std::basic_string<char,std::char_traits<char>,std::allocator<char> > const &><std::basic_string<char,std::char_traits<char>,std::allocator<char> > const &>
PUBLIC	??$construct@U?$pair@$$CBV?$basic_string@DU?$char_traits@D@std@@V?$allocator@D@2@@std@@PAVFuzzyVariable@@@std@@ABUpiecewise_construct_t@2@V?$tuple@ABV?$basic_string@DU?$char_traits@D@std@@V?$allocator@D@2@@std@@@2@V?$tuple@$$$V@2@@?$_Wrap_alloc@V?$allocator@U?$_Tree_node@U?$pair@$$CBV?$basic_string@DU?$char_traits@D@std@@V?$allocator@D@2@@std@@PAVFuzzyVariable@@@std@@PAX@std@@@std@@@std@@QAEXPAU?$pair@$$CBV?$basic_string@DU?$char_traits@D@std@@V?$allocator@D@2@@std@@PAVFuzzyVariable@@@1@ABUpiecewise_construct_t@1@$$QAV?$tuple@ABV?$basic_string@DU?$char_traits@D@std@@V?$allocator@D@2@@std@@@1@$$QAV?$tuple@$$$V@1@@Z ; std::_Wrap_alloc<std::allocator<std::_Tree_node<std::pair<std::basic_string<char,std::char_traits<char>,std::allocator<char> > const ,FuzzyVariable *>,void *> > >::construct<std::pair<std::basic_string<char,std::char_traits<char>,std::allocator<char> > const ,FuzzyVariable *>,std::piecewise_construct_t const &,std::tuple<std::basic_string<char,std::char_traits<char>,std::allocator<char> > const &>,std::tuple<> >
PUBLIC	??$forward@AAU?$pair@$$CBV?$basic_string@DU?$char_traits@D@std@@V?$allocator@D@2@@std@@PAVFuzzyVariable@@@std@@@std@@YAAAU?$pair@$$CBV?$basic_string@DU?$char_traits@D@std@@V?$allocator@D@2@@std@@PAVFuzzyVariable@@@0@AAU10@@Z ; std::forward<std::pair<std::basic_string<char,std::char_traits<char>,std::allocator<char> > const ,FuzzyVariable *> &>
PUBLIC	??$_Insert_at@AAU?$pair@$$CBV?$basic_string@DU?$char_traits@D@std@@V?$allocator@D@2@@std@@PAVFuzzyVariable@@@std@@PAU?$_Tree_node@U?$pair@$$CBV?$basic_string@DU?$char_traits@D@std@@V?$allocator@D@2@@std@@PAVFuzzyVariable@@@std@@PAX@2@@?$_Tree@V?$_Tmap_traits@V?$basic_string@DU?$char_traits@D@std@@V?$allocator@D@2@@std@@PAVFuzzyVariable@@U?$less@V?$basic_string@DU?$char_traits@D@std@@V?$allocator@D@2@@std@@@2@V?$allocator@U?$pair@$$CBV?$basic_string@DU?$char_traits@D@std@@V?$allocator@D@2@@std@@PAVFuzzyVariable@@@std@@@2@$0A@@std@@@std@@IAE?AV?$_Tree_iterator@V?$_Tree_val@U?$_Tree_simple_types@U?$pair@$$CBV?$basic_string@DU?$char_traits@D@std@@V?$allocator@D@2@@std@@PAVFuzzyVariable@@@std@@@std@@@std@@@1@_NPAU?$_Tree_node@U?$pair@$$CBV?$basic_string@DU?$char_traits@D@std@@V?$allocator@D@2@@std@@PAVFuzzyVariable@@@std@@PAX@1@AAU?$pair@$$CBV?$basic_string@DU?$char_traits@D@std@@V?$allocator@D@2@@std@@PAVFuzzyVariable@@@1@1@Z ; std::_Tree<std::_Tmap_traits<std::basic_string<char,std::char_traits<char>,std::allocator<char> >,FuzzyVariable *,std::less<std::basic_string<char,std::char_traits<char>,std::allocator<char> > >,std::allocator<std::pair<std::basic_string<char,std::char_traits<char>,std::allocator<char> > const ,FuzzyVariable *> >,0> >::_Insert_at<std::pair<std::basic_string<char,std::char_traits<char>,std::allocator<char> > const ,FuzzyVariable *> &,std::_Tree_node<std::pair<std::basic_string<char,std::char_traits<char>,std::allocator<char> > const ,FuzzyVariable *>,void *> *>
PUBLIC	??$_Insert_nohint@AAU?$pair@$$CBV?$basic_string@DU?$char_traits@D@std@@V?$allocator@D@2@@std@@PAVFuzzyVariable@@@std@@PAU?$_Tree_node@U?$pair@$$CBV?$basic_string@DU?$char_traits@D@std@@V?$allocator@D@2@@std@@PAVFuzzyVariable@@@std@@PAX@2@@?$_Tree@V?$_Tmap_traits@V?$basic_string@DU?$char_traits@D@std@@V?$allocator@D@2@@std@@PAVFuzzyVariable@@U?$less@V?$basic_string@DU?$char_traits@D@std@@V?$allocator@D@2@@std@@@2@V?$allocator@U?$pair@$$CBV?$basic_string@DU?$char_traits@D@std@@V?$allocator@D@2@@std@@PAVFuzzyVariable@@@std@@@2@$0A@@std@@@std@@IAE?AU?$pair@V?$_Tree_iterator@V?$_Tree_val@U?$_Tree_simple_types@U?$pair@$$CBV?$basic_string@DU?$char_traits@D@std@@V?$allocator@D@2@@std@@PAVFuzzyVariable@@@std@@@std@@@std@@@std@@_N@1@_NAAU?$pair@$$CBV?$basic_string@DU?$char_traits@D@std@@V?$allocator@D@2@@std@@PAVFuzzyVariable@@@1@PAU?$_Tree_node@U?$pair@$$CBV?$basic_string@DU?$char_traits@D@std@@V?$allocator@D@2@@std@@PAVFuzzyVariable@@@std@@PAX@1@@Z ; std::_Tree<std::_Tmap_traits<std::basic_string<char,std::char_traits<char>,std::allocator<char> >,FuzzyVariable *,std::less<std::basic_string<char,std::char_traits<char>,std::allocator<char> > >,std::allocator<std::pair<std::basic_string<char,std::char_traits<char>,std::allocator<char> > const ,FuzzyVariable *> >,0> >::_Insert_nohint<std::pair<std::basic_string<char,std::char_traits<char>,std::allocator<char> > const ,FuzzyVariable *> &,std::_Tree_node<std::pair<std::basic_string<char,std::char_traits<char>,std::allocator<char> > const ,FuzzyVariable *>,void *> *>
PUBLIC	??1?$pair@V?$_Tree_iterator@V?$_Tree_val@U?$_Tree_simple_types@U?$pair@$$CBV?$basic_string@DU?$char_traits@D@std@@V?$allocator@D@2@@std@@PAVFuzzyVariable@@@std@@@std@@@std@@@std@@_N@std@@QAE@XZ ; std::pair<std::_Tree_iterator<std::_Tree_val<std::_Tree_simple_types<std::pair<std::basic_string<char,std::char_traits<char>,std::allocator<char> > const ,FuzzyVariable *> > > >,bool>::~pair<std::_Tree_iterator<std::_Tree_val<std::_Tree_simple_types<std::pair<std::basic_string<char,std::char_traits<char>,std::allocator<char> > const ,FuzzyVariable *> > > >,bool>
PUBLIC	??$construct@PAVFuzzyRule@@PAV1@@?$allocator@PAVFuzzyRule@@@std@@QAEXPAPAVFuzzyRule@@$$QAPAV2@@Z ; std::allocator<FuzzyRule *>::construct<FuzzyRule *,FuzzyRule *>
PUBLIC	??$construct@PADAAPAD@?$allocator@D@std@@QAEXPAPADAAPAD@Z ; std::allocator<char>::construct<char *,char * &>
PUBLIC	??$destroy@PAD@?$allocator@D@std@@QAEXPAPAD@Z	; std::allocator<char>::destroy<char *>
PUBLIC	??$destroy@PAU?$_Tree_node@U?$pair@$$CBV?$basic_string@DU?$char_traits@D@std@@V?$allocator@D@2@@std@@PAVFuzzySet@@@std@@PAX@std@@@?$allocator@U?$_Tree_node@U?$pair@$$CBV?$basic_string@DU?$char_traits@D@std@@V?$allocator@D@2@@std@@PAVFuzzySet@@@std@@PAX@std@@@std@@QAEXPAPAU?$_Tree_node@U?$pair@$$CBV?$basic_string@DU?$char_traits@D@std@@V?$allocator@D@2@@std@@PAVFuzzySet@@@std@@PAX@1@@Z ; std::allocator<std::_Tree_node<std::pair<std::basic_string<char,std::char_traits<char>,std::allocator<char> > const ,FuzzySet *>,void *> >::destroy<std::_Tree_node<std::pair<std::basic_string<char,std::char_traits<char>,std::allocator<char> > const ,FuzzySet *>,void *> *>
PUBLIC	??$destroy@PAU?$_Tree_node@U?$pair@$$CBV?$basic_string@DU?$char_traits@D@std@@V?$allocator@D@2@@std@@PAVFuzzyVariable@@@std@@PAX@std@@@?$allocator@U?$_Tree_node@U?$pair@$$CBV?$basic_string@DU?$char_traits@D@std@@V?$allocator@D@2@@std@@PAVFuzzyVariable@@@std@@PAX@std@@@std@@QAEXPAPAU?$_Tree_node@U?$pair@$$CBV?$basic_string@DU?$char_traits@D@std@@V?$allocator@D@2@@std@@PAVFuzzyVariable@@@std@@PAX@1@@Z ; std::allocator<std::_Tree_node<std::pair<std::basic_string<char,std::char_traits<char>,std::allocator<char> > const ,FuzzyVariable *>,void *> >::destroy<std::_Tree_node<std::pair<std::basic_string<char,std::char_traits<char>,std::allocator<char> > const ,FuzzyVariable *>,void *> *>
PUBLIC	??$_Unchecked@PAPAVFuzzyRule@@@std@@YAPAPAVFuzzyRule@@PAPAV1@@Z ; std::_Unchecked<FuzzyRule * *>
PUBLIC	??$_Uninit_move@PAPAVFuzzyRule@@PAPAV1@U?$_Wrap_alloc@V?$allocator@PAVFuzzyRule@@@std@@@std@@@std@@YAPAPAVFuzzyRule@@PAPAV1@00AAU?$_Wrap_alloc@V?$allocator@PAVFuzzyRule@@@std@@@0@@Z ; std::_Uninit_move<FuzzyRule * *,FuzzyRule * *,std::_Wrap_alloc<std::allocator<FuzzyRule *> > >
PUBLIC	??$_Rechecked@PAPAVFuzzyRule@@PAPAV1@@std@@YAAAPAPAVFuzzyRule@@AAPAPAV1@PAPAV1@@Z ; std::_Rechecked<FuzzyRule * *,FuzzyRule * *>
PUBLIC	??$destroy@U?$pair@$$CBV?$basic_string@DU?$char_traits@D@std@@V?$allocator@D@2@@std@@PAVFuzzyVariable@@@std@@@?$allocator@U?$_Tree_node@U?$pair@$$CBV?$basic_string@DU?$char_traits@D@std@@V?$allocator@D@2@@std@@PAVFuzzyVariable@@@std@@PAX@std@@@std@@QAEXPAU?$pair@$$CBV?$basic_string@DU?$char_traits@D@std@@V?$allocator@D@2@@std@@PAVFuzzyVariable@@@1@@Z ; std::allocator<std::_Tree_node<std::pair<std::basic_string<char,std::char_traits<char>,std::allocator<char> > const ,FuzzyVariable *>,void *> >::destroy<std::pair<std::basic_string<char,std::char_traits<char>,std::allocator<char> > const ,FuzzyVariable *> >
PUBLIC	??$construct@PAU?$_Tree_node@U?$pair@$$CBV?$basic_string@DU?$char_traits@D@std@@V?$allocator@D@2@@std@@PAVFuzzySet@@@std@@PAX@std@@AAPAU12@@?$allocator@U?$_Tree_node@U?$pair@$$CBV?$basic_string@DU?$char_traits@D@std@@V?$allocator@D@2@@std@@PAVFuzzySet@@@std@@PAX@std@@@std@@QAEXPAPAU?$_Tree_node@U?$pair@$$CBV?$basic_string@DU?$char_traits@D@std@@V?$allocator@D@2@@std@@PAVFuzzySet@@@std@@PAX@1@AAPAU21@@Z ; std::allocator<std::_Tree_node<std::pair<std::basic_string<char,std::char_traits<char>,std::allocator<char> > const ,FuzzySet *>,void *> >::construct<std::_Tree_node<std::pair<std::basic_string<char,std::char_traits<char>,std::allocator<char> > const ,FuzzySet *>,void *> *,std::_Tree_node<std::pair<std::basic_string<char,std::char_traits<char>,std::allocator<char> > const ,FuzzySet *>,void *> * &>
PUBLIC	??$construct@PAU?$_Tree_node@U?$pair@$$CBV?$basic_string@DU?$char_traits@D@std@@V?$allocator@D@2@@std@@PAVFuzzyVariable@@@std@@PAX@std@@AAPAU12@@?$_Wrap_alloc@V?$allocator@U?$_Tree_node@U?$pair@$$CBV?$basic_string@DU?$char_traits@D@std@@V?$allocator@D@2@@std@@PAVFuzzyVariable@@@std@@PAX@std@@@std@@@std@@QAEXPAPAU?$_Tree_node@U?$pair@$$CBV?$basic_string@DU?$char_traits@D@std@@V?$allocator@D@2@@std@@PAVFuzzyVariable@@@std@@PAX@1@AAPAU21@@Z ; std::_Wrap_alloc<std::allocator<std::_Tree_node<std::pair<std::basic_string<char,std::char_traits<char>,std::allocator<char> > const ,FuzzyVariable *>,void *> > >::construct<std::_Tree_node<std::pair<std::basic_string<char,std::char_traits<char>,std::allocator<char> > const ,FuzzyVariable *>,void *> *,std::_Tree_node<std::pair<std::basic_string<char,std::char_traits<char>,std::allocator<char> > const ,FuzzyVariable *>,void *> * &>
PUBLIC	??$_Allocate@U?$_Tree_node@U?$pair@$$CBV?$basic_string@DU?$char_traits@D@std@@V?$allocator@D@2@@std@@PAVFuzzyVariable@@@std@@PAX@std@@@std@@YAPAU?$_Tree_node@U?$pair@$$CBV?$basic_string@DU?$char_traits@D@std@@V?$allocator@D@2@@std@@PAVFuzzyVariable@@@std@@PAX@0@IPAU10@@Z ; std::_Allocate<std::_Tree_node<std::pair<std::basic_string<char,std::char_traits<char>,std::allocator<char> > const ,FuzzyVariable *>,void *> >
PUBLIC	??$construct@U?$pair@$$CBV?$basic_string@DU?$char_traits@D@std@@V?$allocator@D@2@@std@@PAVFuzzyVariable@@@std@@ABUpiecewise_construct_t@2@V?$tuple@ABV?$basic_string@DU?$char_traits@D@std@@V?$allocator@D@2@@std@@@2@V?$tuple@$$$V@2@@?$allocator_traits@V?$allocator@U?$_Tree_node@U?$pair@$$CBV?$basic_string@DU?$char_traits@D@std@@V?$allocator@D@2@@std@@PAVFuzzyVariable@@@std@@PAX@std@@@std@@@std@@SAXAAV?$allocator@U?$_Tree_node@U?$pair@$$CBV?$basic_string@DU?$char_traits@D@std@@V?$allocator@D@2@@std@@PAVFuzzyVariable@@@std@@PAX@std@@@1@PAU?$pair@$$CBV?$basic_string@DU?$char_traits@D@std@@V?$allocator@D@2@@std@@PAVFuzzyVariable@@@1@ABUpiecewise_construct_t@1@$$QAV?$tuple@ABV?$basic_string@DU?$char_traits@D@std@@V?$allocator@D@2@@std@@@1@$$QAV?$tuple@$$$V@1@@Z ; std::allocator_traits<std::allocator<std::_Tree_node<std::pair<std::basic_string<char,std::char_traits<char>,std::allocator<char> > const ,FuzzyVariable *>,void *> > >::construct<std::pair<std::basic_string<char,std::char_traits<char>,std::allocator<char> > const ,FuzzyVariable *>,std::piecewise_construct_t const &,std::tuple<std::basic_string<char,std::char_traits<char>,std::allocator<char> > const &>,std::tuple<> >
PUBLIC	??$_Buynode_if_nil@AAU?$pair@$$CBV?$basic_string@DU?$char_traits@D@std@@V?$allocator@D@2@@std@@PAVFuzzyVariable@@@std@@@?$_Tree@V?$_Tmap_traits@V?$basic_string@DU?$char_traits@D@std@@V?$allocator@D@2@@std@@PAVFuzzyVariable@@U?$less@V?$basic_string@DU?$char_traits@D@std@@V?$allocator@D@2@@std@@@2@V?$allocator@U?$pair@$$CBV?$basic_string@DU?$char_traits@D@std@@V?$allocator@D@2@@std@@PAVFuzzyVariable@@@std@@@2@$0A@@std@@@std@@IAEPAU?$_Tree_node@U?$pair@$$CBV?$basic_string@DU?$char_traits@D@std@@V?$allocator@D@2@@std@@PAVFuzzyVariable@@@std@@PAX@1@PAU21@AAU?$pair@$$CBV?$basic_string@DU?$char_traits@D@std@@V?$allocator@D@2@@std@@PAVFuzzyVariable@@@1@@Z ; std::_Tree<std::_Tmap_traits<std::basic_string<char,std::char_traits<char>,std::allocator<char> >,FuzzyVariable *,std::less<std::basic_string<char,std::char_traits<char>,std::allocator<char> > >,std::allocator<std::pair<std::basic_string<char,std::char_traits<char>,std::allocator<char> > const ,FuzzyVariable *> >,0> >::_Buynode_if_nil<std::pair<std::basic_string<char,std::char_traits<char>,std::allocator<char> > const ,FuzzyVariable *> &>
PUBLIC	??$?0V?$_Tree_iterator@V?$_Tree_val@U?$_Tree_simple_types@U?$pair@$$CBV?$basic_string@DU?$char_traits@D@std@@V?$allocator@D@2@@std@@PAVFuzzyVariable@@@std@@@std@@@std@@@std@@_NX@?$pair@V?$_Tree_iterator@V?$_Tree_val@U?$_Tree_simple_types@U?$pair@$$CBV?$basic_string@DU?$char_traits@D@std@@V?$allocator@D@2@@std@@PAVFuzzyVariable@@@std@@@std@@@std@@@std@@_N@std@@QAE@$$QAV?$_Tree_iterator@V?$_Tree_val@U?$_Tree_simple_types@U?$pair@$$CBV?$basic_string@DU?$char_traits@D@std@@V?$allocator@D@2@@std@@PAVFuzzyVariable@@@std@@@std@@@std@@@1@$$QA_N@Z ; std::pair<std::_Tree_iterator<std::_Tree_val<std::_Tree_simple_types<std::pair<std::basic_string<char,std::char_traits<char>,std::allocator<char> > const ,FuzzyVariable *> > > >,bool>::pair<std::_Tree_iterator<std::_Tree_val<std::_Tree_simple_types<std::pair<std::basic_string<char,std::char_traits<char>,std::allocator<char> > const ,FuzzyVariable *> > > >,bool><std::_Tree_iterator<std::_Tree_val<std::_Tree_simple_types<std::pair<std::basic_string<char,std::char_traits<char>,std::allocator<char> > const ,FuzzyVariable *> > > >,bool,void>
PUBLIC	??$?0AAV?$_Tree_iterator@V?$_Tree_val@U?$_Tree_simple_types@U?$pair@$$CBV?$basic_string@DU?$char_traits@D@std@@V?$allocator@D@2@@std@@PAVFuzzyVariable@@@std@@@std@@@std@@@std@@_NX@?$pair@V?$_Tree_iterator@V?$_Tree_val@U?$_Tree_simple_types@U?$pair@$$CBV?$basic_string@DU?$char_traits@D@std@@V?$allocator@D@2@@std@@PAVFuzzyVariable@@@std@@@std@@@std@@@std@@_N@std@@QAE@AAV?$_Tree_iterator@V?$_Tree_val@U?$_Tree_simple_types@U?$pair@$$CBV?$basic_string@DU?$char_traits@D@std@@V?$allocator@D@2@@std@@PAVFuzzyVariable@@@std@@@std@@@std@@@1@$$QA_N@Z ; std::pair<std::_Tree_iterator<std::_Tree_val<std::_Tree_simple_types<std::pair<std::basic_string<char,std::char_traits<char>,std::allocator<char> > const ,FuzzyVariable *> > > >,bool>::pair<std::_Tree_iterator<std::_Tree_val<std::_Tree_simple_types<std::pair<std::basic_string<char,std::char_traits<char>,std::allocator<char> > const ,FuzzyVariable *> > > >,bool><std::_Tree_iterator<std::_Tree_val<std::_Tree_simple_types<std::pair<std::basic_string<char,std::char_traits<char>,std::allocator<char> > const ,FuzzyVariable *> > > > &,bool,void>
PUBLIC	??$_Val_type@PAPAVFuzzyRule@@@std@@YAPAPAVFuzzyRule@@PAPAV1@@Z ; std::_Val_type<FuzzyRule * *>
PUBLIC	??$_Uninit_move@PAVFuzzyRule@@PAV1@PAV1@@std@@YAPAPAVFuzzyRule@@PAPAV1@00AAU?$_Wrap_alloc@V?$allocator@PAVFuzzyRule@@@std@@@0@0U_Scalar_ptr_iterator_tag@0@@Z ; std::_Uninit_move<FuzzyRule *,FuzzyRule *,FuzzyRule *>
PUBLIC	??$forward@AAPAU?$_Tree_node@U?$pair@$$CBV?$basic_string@DU?$char_traits@D@std@@V?$allocator@D@2@@std@@PAVFuzzyVariable@@@std@@PAX@std@@@std@@YAAAPAU?$_Tree_node@U?$pair@$$CBV?$basic_string@DU?$char_traits@D@std@@V?$allocator@D@2@@std@@PAVFuzzyVariable@@@std@@PAX@0@AAPAU10@@Z ; std::forward<std::_Tree_node<std::pair<std::basic_string<char,std::char_traits<char>,std::allocator<char> > const ,FuzzyVariable *>,void *> * &>
PUBLIC	??$construct@PAU?$_Tree_node@U?$pair@$$CBV?$basic_string@DU?$char_traits@D@std@@V?$allocator@D@2@@std@@PAVFuzzyVariable@@@std@@PAX@std@@AAPAU12@@?$allocator_traits@V?$allocator@U?$_Tree_node@U?$pair@$$CBV?$basic_string@DU?$char_traits@D@std@@V?$allocator@D@2@@std@@PAVFuzzyVariable@@@std@@PAX@std@@@std@@@std@@SAXAAV?$allocator@U?$_Tree_node@U?$pair@$$CBV?$basic_string@DU?$char_traits@D@std@@V?$allocator@D@2@@std@@PAVFuzzyVariable@@@std@@PAX@std@@@1@PAPAU?$_Tree_node@U?$pair@$$CBV?$basic_string@DU?$char_traits@D@std@@V?$allocator@D@2@@std@@PAVFuzzyVariable@@@std@@PAX@1@AAPAU31@@Z ; std::allocator_traits<std::allocator<std::_Tree_node<std::pair<std::basic_string<char,std::char_traits<char>,std::allocator<char> > const ,FuzzyVariable *>,void *> > >::construct<std::_Tree_node<std::pair<std::basic_string<char,std::char_traits<char>,std::allocator<char> > const ,FuzzyVariable *>,void *> *,std::_Tree_node<std::pair<std::basic_string<char,std::char_traits<char>,std::allocator<char> > const ,FuzzyVariable *>,void *> * &>
PUBLIC	??$construct@U?$pair@$$CBV?$basic_string@DU?$char_traits@D@std@@V?$allocator@D@2@@std@@PAVFuzzyVariable@@@std@@ABUpiecewise_construct_t@2@V?$tuple@ABV?$basic_string@DU?$char_traits@D@std@@V?$allocator@D@2@@std@@@2@V?$tuple@$$$V@2@@?$allocator@U?$_Tree_node@U?$pair@$$CBV?$basic_string@DU?$char_traits@D@std@@V?$allocator@D@2@@std@@PAVFuzzyVariable@@@std@@PAX@std@@@std@@QAEXPAU?$pair@$$CBV?$basic_string@DU?$char_traits@D@std@@V?$allocator@D@2@@std@@PAVFuzzyVariable@@@1@ABUpiecewise_construct_t@1@$$QAV?$tuple@ABV?$basic_string@DU?$char_traits@D@std@@V?$allocator@D@2@@std@@@1@$$QAV?$tuple@$$$V@1@@Z ; std::allocator<std::_Tree_node<std::pair<std::basic_string<char,std::char_traits<char>,std::allocator<char> > const ,FuzzyVariable *>,void *> >::construct<std::pair<std::basic_string<char,std::char_traits<char>,std::allocator<char> > const ,FuzzyVariable *>,std::piecewise_construct_t const &,std::tuple<std::basic_string<char,std::char_traits<char>,std::allocator<char> > const &>,std::tuple<> >
PUBLIC	??$forward@V?$_Tree_iterator@V?$_Tree_val@U?$_Tree_simple_types@U?$pair@$$CBV?$basic_string@DU?$char_traits@D@std@@V?$allocator@D@2@@std@@PAVFuzzyVariable@@@std@@@std@@@std@@@std@@@std@@YA$$QAV?$_Tree_iterator@V?$_Tree_val@U?$_Tree_simple_types@U?$pair@$$CBV?$basic_string@DU?$char_traits@D@std@@V?$allocator@D@2@@std@@PAVFuzzyVariable@@@std@@@std@@@std@@@0@AAV10@@Z ; std::forward<std::_Tree_iterator<std::_Tree_val<std::_Tree_simple_types<std::pair<std::basic_string<char,std::char_traits<char>,std::allocator<char> > const ,FuzzyVariable *> > > > >
PUBLIC	??$forward@_N@std@@YA$$QA_NAA_N@Z		; std::forward<bool>
PUBLIC	??$forward@AAV?$_Tree_iterator@V?$_Tree_val@U?$_Tree_simple_types@U?$pair@$$CBV?$basic_string@DU?$char_traits@D@std@@V?$allocator@D@2@@std@@PAVFuzzyVariable@@@std@@@std@@@std@@@std@@@std@@YAAAV?$_Tree_iterator@V?$_Tree_val@U?$_Tree_simple_types@U?$pair@$$CBV?$basic_string@DU?$char_traits@D@std@@V?$allocator@D@2@@std@@PAVFuzzyVariable@@@std@@@std@@@std@@@0@AAV10@@Z ; std::forward<std::_Tree_iterator<std::_Tree_val<std::_Tree_simple_types<std::pair<std::basic_string<char,std::char_traits<char>,std::allocator<char> > const ,FuzzyVariable *> > > > &>
PUBLIC	??$_Debug_range@PAPAVFuzzyRule@@@std@@YAXPAPAVFuzzyRule@@0PB_WI@Z ; std::_Debug_range<FuzzyRule * *>
PUBLIC	??$_Debug_pointer@PAVFuzzyRule@@@std@@YAXPAPAVFuzzyRule@@PB_WI@Z ; std::_Debug_pointer<FuzzyRule *>
PUBLIC	??$construct@PAU?$_Tree_node@U?$pair@$$CBV?$basic_string@DU?$char_traits@D@std@@V?$allocator@D@2@@std@@PAVFuzzyVariable@@@std@@PAX@std@@AAPAU12@@?$allocator@U?$_Tree_node@U?$pair@$$CBV?$basic_string@DU?$char_traits@D@std@@V?$allocator@D@2@@std@@PAVFuzzyVariable@@@std@@PAX@std@@@std@@QAEXPAPAU?$_Tree_node@U?$pair@$$CBV?$basic_string@DU?$char_traits@D@std@@V?$allocator@D@2@@std@@PAVFuzzyVariable@@@std@@PAX@1@AAPAU21@@Z ; std::allocator<std::_Tree_node<std::pair<std::basic_string<char,std::char_traits<char>,std::allocator<char> > const ,FuzzyVariable *>,void *> >::construct<std::_Tree_node<std::pair<std::basic_string<char,std::char_traits<char>,std::allocator<char> > const ,FuzzyVariable *>,void *> *,std::_Tree_node<std::pair<std::basic_string<char,std::char_traits<char>,std::allocator<char> > const ,FuzzyVariable *>,void *> * &>
PUBLIC	??$?0ABV?$basic_string@DU?$char_traits@D@std@@V?$allocator@D@2@@std@@$$$V@?$pair@$$CBV?$basic_string@DU?$char_traits@D@std@@V?$allocator@D@2@@std@@PAVFuzzyVariable@@@std@@QAE@Upiecewise_construct_t@1@V?$tuple@ABV?$basic_string@DU?$char_traits@D@std@@V?$allocator@D@2@@std@@@1@V?$tuple@$$$V@1@@Z ; std::pair<std::basic_string<char,std::char_traits<char>,std::allocator<char> > const ,FuzzyVariable *>::pair<std::basic_string<char,std::char_traits<char>,std::allocator<char> > const ,FuzzyVariable *><std::basic_string<char,std::char_traits<char>,std::allocator<char> > const &>
PUBLIC	??$_Iter_cat@PAPAVFuzzyRule@@@std@@YA?AUrandom_access_iterator_tag@0@ABQAPAVFuzzyRule@@@Z ; std::_Iter_cat<FuzzyRule * *>
PUBLIC	??$_Debug_range2@PAPAVFuzzyRule@@@std@@YAXPAPAVFuzzyRule@@0PB_WIUrandom_access_iterator_tag@0@@Z ; std::_Debug_range2<FuzzyRule * *>
PUBLIC	??$?0V?$tuple@ABV?$basic_string@DU?$char_traits@D@std@@V?$allocator@D@2@@std@@@std@@V?$tuple@$$$V@1@$0A@$S@?$pair@$$CBV?$basic_string@DU?$char_traits@D@std@@V?$allocator@D@2@@std@@PAVFuzzyVariable@@@std@@QAE@AAV?$tuple@ABV?$basic_string@DU?$char_traits@D@std@@V?$allocator@D@2@@std@@@1@AAV?$tuple@$$$V@1@U?$_Arg_idx@$0A@@1@U?$_Arg_idx@$S@1@@Z ; std::pair<std::basic_string<char,std::char_traits<char>,std::allocator<char> > const ,FuzzyVariable *>::pair<std::basic_string<char,std::char_traits<char>,std::allocator<char> > const ,FuzzyVariable *><std::tuple<std::basic_string<char,std::char_traits<char>,std::allocator<char> > const &>,std::tuple<>,0>
PUBLIC	??$move@AAV?$tuple@ABV?$basic_string@DU?$char_traits@D@std@@V?$allocator@D@2@@std@@@std@@@std@@YA$$QAV?$tuple@ABV?$basic_string@DU?$char_traits@D@std@@V?$allocator@D@2@@std@@@0@AAV10@@Z ; std::move<std::tuple<std::basic_string<char,std::char_traits<char>,std::allocator<char> > const &> &>
PUBLIC	??$get@$0A@ABV?$basic_string@DU?$char_traits@D@std@@V?$allocator@D@2@@std@@@std@@YAABV?$basic_string@DU?$char_traits@D@std@@V?$allocator@D@2@@0@$$QAV?$tuple@ABV?$basic_string@DU?$char_traits@D@std@@V?$allocator@D@2@@std@@@0@@Z ; std::get<0,std::basic_string<char,std::char_traits<char>,std::allocator<char> > const &>
PUBLIC	??_C@_1JA@EADLBAJ@?$AAC?$AA?3?$AA?2?$AAP?$AAr?$AAo?$AAg?$AAr?$AAa?$AAm?$AA?5?$AAF?$AAi?$AAl?$AAe?$AAs?$AA?5?$AA?$CI?$AAx?$AA8?$AA6?$AA?$CJ?$AA?2?$AAM?$AAi?$AAc?$AAr?$AAo?$AAs?$AAo?$AAf?$AAt@ ; `string'
PUBLIC	??_C@_1DC@POOIKBAO@?$AAI?$AAT?$AAE?$AAR?$AAA?$AAT?$AAO?$AAR?$AA?5?$AAL?$AAI?$AAS?$AAT?$AA?5?$AAC?$AAO?$AAR?$AAR?$AAU?$AAP?$AAT?$AAE?$AAD?$AA?$CB?$AA?$AA@ ; `string'
PUBLIC	?npos@?$basic_string@DU?$char_traits@D@std@@V?$allocator@D@2@@std@@2IB ; std::basic_string<char,std::char_traits<char>,std::allocator<char> >::npos
PUBLIC	??_7runtime_error@std@@6B@			; std::runtime_error::`vftable'
PUBLIC	__TI2?AVruntime_error@std@@
PUBLIC	__CTA2?AVruntime_error@std@@
PUBLIC	??_R0?AVruntime_error@std@@@8			; std::runtime_error `RTTI Type Descriptor'
PUBLIC	__CT??_R0?AVruntime_error@std@@@8??0runtime_error@std@@QAE@ABV01@@Z12
PUBLIC	??_R0?AVexception@std@@@8			; std::exception `RTTI Type Descriptor'
PUBLIC	__CT??_R0?AVexception@std@@@8??0exception@std@@QAE@ABV01@@Z12
PUBLIC	??_C@_0BA@ELKIONDK@bad?5locale?5name?$AA@	; `string'
PUBLIC	??_7_Facet_base@std@@6B@			; std::_Facet_base::`vftable'
PUBLIC	??_7facet@locale@std@@6B@			; std::locale::facet::`vftable'
PUBLIC	??_C@_0EH@EPAENFJM@C?3?2Program?5Files?5?$CIx86?$CJ?2Microsoft@ ; `string'
PUBLIC	??_C@_00CNPNBAHC@?$AA@				; `string'
PUBLIC	??_C@_1IO@OFOLDAJI@?$AAC?$AA?3?$AA?2?$AAP?$AAr?$AAo?$AAg?$AAr?$AAa?$AAm?$AA?5?$AAF?$AAi?$AAl?$AAe?$AAs?$AA?5?$AA?$CI?$AAx?$AA8?$AA6?$AA?$CJ?$AA?2?$AAM?$AAi?$AAc?$AAr?$AAo?$AAs?$AAo?$AAf?$AAt@ ; `string'
PUBLIC	??_7ctype_base@std@@6B@				; std::ctype_base::`vftable'
PUBLIC	??_7?$ctype@D@std@@6B@				; std::ctype<char>::`vftable'
PUBLIC	??_7error_category@std@@6B@			; std::error_category::`vftable'
PUBLIC	??_7_System_error@std@@6B@			; std::_System_error::`vftable'
PUBLIC	??_C@_02LMMGGCAJ@?3?5?$AA@			; `string'
PUBLIC	??_7system_error@std@@6B@			; std::system_error::`vftable'
PUBLIC	??_7_Generic_error_category@std@@6B@		; std::_Generic_error_category::`vftable'
PUBLIC	??_C@_07DCLBNMLN@generic?$AA@			; `string'
PUBLIC	??_C@_0O@BFJCFAAK@unknown?5error?$AA@		; `string'
PUBLIC	??_7_Iostream_error_category@std@@6B@		; std::_Iostream_error_category::`vftable'
PUBLIC	??_C@_08LLGCOLLL@iostream?$AA@			; `string'
PUBLIC	??_C@_0BG@PADBLCHM@iostream?5stream?5error?$AA@	; `string'
PUBLIC	??_7_System_error_category@std@@6B@		; std::_System_error_category::`vftable'
PUBLIC	??_C@_06FHFOAHML@system?$AA@			; `string'
PUBLIC	?_Generic_object@?$_Error_objects@H@std@@2V_Generic_error_category@2@A ; std::_Error_objects<int>::_Generic_object
PUBLIC	?_Iostream_object@?$_Error_objects@H@std@@2V_Iostream_error_category@2@A ; std::_Error_objects<int>::_Iostream_object
PUBLIC	?_System_object@?$_Error_objects@H@std@@2V_System_error_category@2@A ; std::_Error_objects<int>::_System_object
PUBLIC	??_7failure@ios_base@std@@6B@			; std::ios_base::failure::`vftable'
PUBLIC	__TI5?AVfailure@ios_base@std@@
PUBLIC	__CTA5?AVfailure@ios_base@std@@
PUBLIC	??_R0?AVfailure@ios_base@std@@@8		; std::ios_base::failure `RTTI Type Descriptor'
PUBLIC	__CT??_R0?AVfailure@ios_base@std@@@8??0failure@ios_base@std@@QAE@ABV012@@Z20
PUBLIC	??_R0?AVsystem_error@std@@@8			; std::system_error `RTTI Type Descriptor'
PUBLIC	__CT??_R0?AVsystem_error@std@@@8??0system_error@std@@QAE@ABV01@@Z20
PUBLIC	??_R0?AV_System_error@std@@@8			; std::_System_error `RTTI Type Descriptor'
PUBLIC	__CT??_R0?AV_System_error@std@@@8??0_System_error@std@@QAE@ABV01@@Z20
PUBLIC	??_C@_0BF@PHHKMMFD@ios_base?3?3badbit?5set?$AA@	; `string'
PUBLIC	??_C@_0BG@FMKFHCIL@ios_base?3?3failbit?5set?$AA@ ; `string'
PUBLIC	??_C@_0BF@OOHOMBOF@ios_base?3?3eofbit?5set?$AA@	; `string'
PUBLIC	?id@?$num_put@DV?$back_insert_iterator@V?$basic_string@DU?$char_traits@D@std@@V?$allocator@D@2@@std@@@std@@@std@@2V0locale@2@A ; std::num_put<char,std::back_insert_iterator<std::basic_string<char,std::char_traits<char>,std::allocator<char> > > >::id
PUBLIC	?id@?$num_put@_WV?$back_insert_iterator@V?$basic_string@_WU?$char_traits@_W@std@@V?$allocator@_W@2@@std@@@std@@@std@@2V0locale@2@A ; std::num_put<wchar_t,std::back_insert_iterator<std::basic_string<wchar_t,std::char_traits<wchar_t>,std::allocator<wchar_t> > > >::id
PUBLIC	??_C@_1IO@FEAPGJBD@?$AAC?$AA?3?$AA?2?$AAP?$AAr?$AAo?$AAg?$AAr?$AAa?$AAm?$AA?5?$AAF?$AAi?$AAl?$AAe?$AAs?$AA?5?$AA?$CI?$AAx?$AA8?$AA6?$AA?$CJ?$AA?2?$AAM?$AAi?$AAc?$AAr?$AAo?$AAs?$AAo?$AAf?$AAt@ ; `string'
PUBLIC	??_C@_1IO@IGJFOIAG@?$AAC?$AA?3?$AA?2?$AAP?$AAr?$AAo?$AAg?$AAr?$AAa?$AAm?$AA?5?$AAF?$AAi?$AAl?$AAe?$AAs?$AA?5?$AA?$CI?$AAx?$AA8?$AA6?$AA?$CJ?$AA?2?$AAM?$AAi?$AAc?$AAr?$AAo?$AAs?$AAo?$AAf?$AAt@ ; `string'
PUBLIC	?id@?$numpunct@D@std@@2V0locale@2@A		; std::numpunct<char>::id
PUBLIC	?id@?$numpunct@_W@std@@2V0locale@2@A		; std::numpunct<wchar_t>::id
PUBLIC	??_C@_1IM@EINEHPHE@?$AAC?$AA?3?$AA?2?$AAP?$AAr?$AAo?$AAg?$AAr?$AAa?$AAm?$AA?5?$AAF?$AAi?$AAl?$AAe?$AAs?$AA?5?$AA?$CI?$AAx?$AA8?$AA6?$AA?$CJ?$AA?2?$AAM?$AAi?$AAc?$AAr?$AAo?$AAs?$AAo?$AAf?$AAt@ ; `string'
PUBLIC	??_C@_0CE@OFMIGAMM@Standard?5C?$CL?$CL?5Libraries?5Out?5of?5Ra@ ; `string'
PUBLIC	??_C@_1FG@IBPIFFN@?$AA?$CC?$AAS?$AAt?$AAa?$AAn?$AAd?$AAa?$AAr?$AAd?$AA?5?$AAC?$AA?$CL?$AA?$CL?$AA?5?$AAL?$AAi?$AAb?$AAr?$AAa?$AAr?$AAi?$AAe?$AAs?$AA?5?$AAO?$AAu?$AAt?$AA?5?$AAo?$AAf?$AA?5?$AAR@ ; `string'
PUBLIC	??_C@_15GANGMFKL@?$AA?$CF?$AAs?$AA?$AA@		; `string'
PUBLIC	??_C@_1BO@MEPPHOO@?$AA?$CC?$AAo?$AAu?$AAt?$AA?5?$AAo?$AAf?$AA?5?$AAr?$AAa?$AAn?$AAg?$AAe?$AA?$CC?$AA?$AA@ ; `string'
PUBLIC	??_C@_1IK@GEHGEPIJ@?$AAC?$AA?3?$AA?2?$AAP?$AAr?$AAo?$AAg?$AAr?$AAa?$AAm?$AA?5?$AAF?$AAi?$AAl?$AAe?$AAs?$AA?5?$AA?$CI?$AAx?$AA8?$AA6?$AA?$CJ?$AA?2?$AAM?$AAi?$AAc?$AAr?$AAo?$AAs?$AAo?$AAf?$AAt@ ; `string'
PUBLIC	??_C@_1EG@EHJFMBHJ@?$AAm?$AAa?$AAp?$AA?1?$AAs?$AAe?$AAt?$AA?5?$AAi?$AAt?$AAe?$AAr?$AAa?$AAt?$AAo?$AAr?$AA?5?$AAn?$AAo?$AAt?$AA?5?$AAi?$AAn?$AAc?$AAr?$AAe?$AAm?$AAe?$AAn?$AAt?$AAa?$AAb@ ; `string'
PUBLIC	??_C@_1BNA@HKIAGLCE@?$AAs?$AAt?$AAd?$AA?3?$AA?3?$AA_?$AAT?$AAr?$AAe?$AAe?$AA_?$AAc?$AAo?$AAn?$AAs?$AAt?$AA_?$AAi?$AAt?$AAe?$AAr?$AAa?$AAt?$AAo?$AAr?$AA?$DM?$AAc?$AAl?$AAa?$AAs?$AAs?$AA?5@ ; `string'
PUBLIC	??_C@_1DO@CFEEPGGJ@?$AAm?$AAa?$AAp?$AA?1?$AAs?$AAe?$AAt?$AA?5?$AAi?$AAt?$AAe?$AAr?$AAa?$AAt?$AAo?$AAr?$AAs?$AA?5?$AAi?$AAn?$AAc?$AAo?$AAm?$AAp?$AAa?$AAt?$AAi?$AAb?$AAl?$AAe?$AA?$AA@ ; `string'
PUBLIC	??_C@_0CI@FNPHFCCM@Standard?5C?$CL?$CL?5Libraries?5Invalid?5A@ ; `string'
PUBLIC	??_C@_1FO@GJIHNDLM@?$AA?$CC?$AAS?$AAt?$AAa?$AAn?$AAd?$AAa?$AAr?$AAd?$AA?5?$AAC?$AA?$CL?$AA?$CL?$AA?5?$AAL?$AAi?$AAb?$AAr?$AAa?$AAr?$AAi?$AAe?$AAs?$AA?5?$AAI?$AAn?$AAv?$AAa?$AAl?$AAi?$AAd?$AA?5@ ; `string'
PUBLIC	??_C@_1BNA@NKHNICOB@?$AAs?$AAt?$AAd?$AA?3?$AA?3?$AA_?$AAT?$AAr?$AAe?$AAe?$AA_?$AAc?$AAo?$AAn?$AAs?$AAt?$AA_?$AAi?$AAt?$AAe?$AAr?$AAa?$AAt?$AAo?$AAr?$AA?$DM?$AAc?$AAl?$AAa?$AAs?$AAs?$AA?5@ ; `string'
PUBLIC	??_C@_1CG@JNLFBNGN@?$AA?$CC?$AAi?$AAn?$AAv?$AAa?$AAl?$AAi?$AAd?$AA?5?$AAa?$AAr?$AAg?$AAu?$AAm?$AAe?$AAn?$AAt?$AA?$CC?$AA?$AA@ ; `string'
PUBLIC	??_C@_1EG@FOHJJHAC@?$AAv?$AAe?$AAc?$AAt?$AAo?$AAr?$AA?5?$AAi?$AAt?$AAe?$AAr?$AAa?$AAt?$AAo?$AAr?$AA?5?$AAn?$AAo?$AAt?$AA?5?$AAd?$AAe?$AAr?$AAe?$AAf?$AAe?$AAr?$AAe?$AAn?$AAc?$AAa?$AAb@ ; `string'
PUBLIC	??_C@_1OA@LEKPALIF@?$AAs?$AAt?$AAd?$AA?3?$AA?3?$AA_?$AAV?$AAe?$AAc?$AAt?$AAo?$AAr?$AA_?$AAc?$AAo?$AAn?$AAs?$AAt?$AA_?$AAi?$AAt?$AAe?$AAr?$AAa?$AAt?$AAo?$AAr?$AA?$DM?$AAc?$AAl?$AAa?$AAs@ ; `string'
PUBLIC	??_C@_1EE@EJDKCLKB@?$AAv?$AAe?$AAc?$AAt?$AAo?$AAr?$AA?5?$AAi?$AAt?$AAe?$AAr?$AAa?$AAt?$AAo?$AAr?$AA?5?$AAn?$AAo?$AAt?$AA?5?$AAi?$AAn?$AAc?$AAr?$AAe?$AAm?$AAe?$AAn?$AAt?$AAa?$AAb?$AAl@ ; `string'
PUBLIC	??_C@_1OC@GNEJPKLD@?$AAs?$AAt?$AAd?$AA?3?$AA?3?$AA_?$AAV?$AAe?$AAc?$AAt?$AAo?$AAr?$AA_?$AAc?$AAo?$AAn?$AAs?$AAt?$AA_?$AAi?$AAt?$AAe?$AAr?$AAa?$AAt?$AAo?$AAr?$AA?$DM?$AAc?$AAl?$AAa?$AAs@ ; `string'
PUBLIC	??_C@_0BA@JFNIOLAK@string?5too?5long?$AA@	; `string'
PUBLIC	??_C@_0BI@CFPLBAOH@invalid?5string?5position?$AA@ ; `string'
PUBLIC	??_C@_0BD@OLBABOEK@vector?$DMT?$DO?5too?5long?$AA@ ; `string'
PUBLIC	??_C@_1EI@FHEHNNNM@?$AAm?$AAa?$AAp?$AA?1?$AAs?$AAe?$AAt?$AA?5?$AAi?$AAt?$AAe?$AAr?$AAa?$AAt?$AAo?$AAr?$AA?5?$AAn?$AAo?$AAt?$AA?5?$AAd?$AAe?$AAr?$AAe?$AAf?$AAe?$AAr?$AAe?$AAn?$AAc?$AAa@ ; `string'
PUBLIC	??_C@_1BMO@CKAHCIII@?$AAs?$AAt?$AAd?$AA?3?$AA?3?$AA_?$AAT?$AAr?$AAe?$AAe?$AA_?$AAc?$AAo?$AAn?$AAs?$AAt?$AA_?$AAi?$AAt?$AAe?$AAr?$AAa?$AAt?$AAo?$AAr?$AA?$DM?$AAc?$AAl?$AAa?$AAs?$AAs?$AA?5@ ; `string'
PUBLIC	??_C@_1DM@HINDPMBP@?$AAv?$AAe?$AAc?$AAt?$AAo?$AAr?$AA?5?$AAi?$AAt?$AAe?$AAr?$AAa?$AAt?$AAo?$AAr?$AAs?$AA?5?$AAi?$AAn?$AAc?$AAo?$AAm?$AAp?$AAa?$AAt?$AAi?$AAb?$AAl?$AAe?$AA?$AA@ ; `string'
PUBLIC	??_C@_1NK@JMNIMPJC@?$AAs?$AAt?$AAd?$AA?3?$AA?3?$AA_?$AAV?$AAe?$AAc?$AAt?$AAo?$AAr?$AA_?$AAc?$AAo?$AAn?$AAs?$AAt?$AA_?$AAi?$AAt?$AAe?$AAr?$AAa?$AAt?$AAo?$AAr?$AA?$DM?$AAc?$AAl?$AAa?$AAs@ ; `string'
PUBLIC	??_C@_1EK@PPDBPCAN@?$AAm?$AAa?$AAp?$AA?1?$AAs?$AAe?$AAt?$AA?5?$AAe?$AAr?$AAa?$AAs?$AAe?$AA?5?$AAi?$AAt?$AAe?$AAr?$AAa?$AAt?$AAo?$AAr?$AA?5?$AAo?$AAu?$AAt?$AAs?$AAi?$AAd?$AAe?$AA?5?$AAr@ ; `string'
PUBLIC	??_C@_1CK@EOPGIILJ@?$AAi?$AAn?$AAv?$AAa?$AAl?$AAi?$AAd?$AA?5?$AAn?$AAu?$AAl?$AAl?$AA?5?$AAp?$AAo?$AAi?$AAn?$AAt?$AAe?$AAr?$AA?$AA@ ; `string'
PUBLIC	?_Psave@?$_Facetptr@V?$ctype@D@std@@@std@@2PBVfacet@locale@2@B ; std::_Facetptr<std::ctype<char> >::_Psave
PUBLIC	__TI2?AVbad_cast@std@@
PUBLIC	__CTA2?AVbad_cast@std@@
PUBLIC	??_R0?AVbad_cast@std@@@8			; std::bad_cast `RTTI Type Descriptor'
PUBLIC	__CT??_R0?AVbad_cast@std@@@8??0bad_cast@std@@QAE@ABV01@@Z12
PUBLIC	??_C@_08EPJLHIJG@bad?5cast?$AA@			; `string'
PUBLIC	??_C@_1CE@IGJMOCCK@?$AAi?$AAn?$AAv?$AAa?$AAl?$AAi?$AAd?$AA?5?$AAo?$AAp?$AAe?$AAr?$AAa?$AAt?$AAo?$AAr?$AA?$DM?$AA?$AA@ ; `string'
PUBLIC	??_C@_1CO@DGLIKNHI@?$AAi?$AAn?$AAv?$AAa?$AAl?$AAi?$AAd?$AA?5?$AAi?$AAt?$AAe?$AAr?$AAa?$AAt?$AAo?$AAr?$AA?5?$AAr?$AAa?$AAn?$AAg?$AAe?$AA?$AA@ ; `string'
PUBLIC	??_C@_1EM@MHOKKPFH@?$AAm?$AAa?$AAp?$AA?1?$AAs?$AAe?$AAt?$AA?5?$AAi?$AAn?$AAs?$AAe?$AAr?$AAt?$AA?5?$AAi?$AAt?$AAe?$AAr?$AAa?$AAt?$AAo?$AAr?$AA?5?$AAo?$AAu?$AAt?$AAs?$AAi?$AAd?$AAe?$AA?5@ ; `string'
PUBLIC	??_C@_1EG@OKCGOALM@?$AAm?$AAa?$AAp?$AA?1?$AAs?$AAe?$AAt?$AA?5?$AAi?$AAt?$AAe?$AAr?$AAa?$AAt?$AAo?$AAr?$AA?5?$AAn?$AAo?$AAt?$AA?5?$AAd?$AAe?$AAc?$AAr?$AAe?$AAm?$AAe?$AAn?$AAt?$AAa?$AAb@ ; `string'
PUBLIC	??_C@_1BNA@IJLCNHOF@?$AAs?$AAt?$AAd?$AA?3?$AA?3?$AA_?$AAT?$AAr?$AAe?$AAe?$AA_?$AAc?$AAo?$AAn?$AAs?$AAt?$AA_?$AAi?$AAt?$AAe?$AAr?$AAa?$AAt?$AAo?$AAr?$AA?$DM?$AAc?$AAl?$AAa?$AAs?$AAs?$AA?5@ ; `string'
PUBLIC	??_C@_0BE@JONHPENG@map?1set?$DMT?$DO?5too?5long?$AA@ ; `string'
PUBLIC	??_C@_1IO@LKIDJAMC@?$AAC?$AA?3?$AA?2?$AAP?$AAr?$AAo?$AAg?$AAr?$AAa?$AAm?$AA?5?$AAF?$AAi?$AAl?$AAe?$AAs?$AA?5?$AA?$CI?$AAx?$AA8?$AA6?$AA?$CJ?$AA?2?$AAM?$AAi?$AAc?$AAr?$AAo?$AAs?$AAo?$AAf?$AAt@ ; `string'
PUBLIC	??_R1A@?0A@EA@exception@std@@8			; std::exception::`RTTI Base Class Descriptor at (0,-1,0,64)'
PUBLIC	??_R3exception@std@@8				; std::exception::`RTTI Class Hierarchy Descriptor'
PUBLIC	??_R2exception@std@@8				; std::exception::`RTTI Base Class Array'
PUBLIC	??_R4runtime_error@std@@6B@			; std::runtime_error::`RTTI Complete Object Locator'
PUBLIC	??_R3runtime_error@std@@8			; std::runtime_error::`RTTI Class Hierarchy Descriptor'
PUBLIC	??_R2runtime_error@std@@8			; std::runtime_error::`RTTI Base Class Array'
PUBLIC	??_R1A@?0A@EA@runtime_error@std@@8		; std::runtime_error::`RTTI Base Class Descriptor at (0,-1,0,64)'
PUBLIC	??_R4_Facet_base@std@@6B@			; std::_Facet_base::`RTTI Complete Object Locator'
PUBLIC	??_R0?AV_Facet_base@std@@@8			; std::_Facet_base `RTTI Type Descriptor'
PUBLIC	??_R3_Facet_base@std@@8				; std::_Facet_base::`RTTI Class Hierarchy Descriptor'
PUBLIC	??_R2_Facet_base@std@@8				; std::_Facet_base::`RTTI Base Class Array'
PUBLIC	??_R1A@?0A@EA@_Facet_base@std@@8		; std::_Facet_base::`RTTI Base Class Descriptor at (0,-1,0,64)'
PUBLIC	??_R1A@?0A@EA@facet@locale@std@@8		; std::locale::facet::`RTTI Base Class Descriptor at (0,-1,0,64)'
PUBLIC	??_R0?AVfacet@locale@std@@@8			; std::locale::facet `RTTI Type Descriptor'
PUBLIC	??_R3facet@locale@std@@8			; std::locale::facet::`RTTI Class Hierarchy Descriptor'
PUBLIC	??_R2facet@locale@std@@8			; std::locale::facet::`RTTI Base Class Array'
PUBLIC	??_R4facet@locale@std@@6B@			; std::locale::facet::`RTTI Complete Object Locator'
PUBLIC	??_R4ctype_base@std@@6B@			; std::ctype_base::`RTTI Complete Object Locator'
PUBLIC	??_R0?AUctype_base@std@@@8			; std::ctype_base `RTTI Type Descriptor'
PUBLIC	??_R3ctype_base@std@@8				; std::ctype_base::`RTTI Class Hierarchy Descriptor'
PUBLIC	??_R2ctype_base@std@@8				; std::ctype_base::`RTTI Base Class Array'
PUBLIC	??_R1A@?0A@EA@ctype_base@std@@8			; std::ctype_base::`RTTI Base Class Descriptor at (0,-1,0,64)'
PUBLIC	??_R4?$ctype@D@std@@6B@				; std::ctype<char>::`RTTI Complete Object Locator'
PUBLIC	??_R0?AV?$ctype@D@std@@@8			; std::ctype<char> `RTTI Type Descriptor'
PUBLIC	??_R3?$ctype@D@std@@8				; std::ctype<char>::`RTTI Class Hierarchy Descriptor'
PUBLIC	??_R2?$ctype@D@std@@8				; std::ctype<char>::`RTTI Base Class Array'
PUBLIC	??_R1A@?0A@EA@?$ctype@D@std@@8			; std::ctype<char>::`RTTI Base Class Descriptor at (0,-1,0,64)'
PUBLIC	??_R4error_category@std@@6B@			; std::error_category::`RTTI Complete Object Locator'
PUBLIC	??_R0?AVerror_category@std@@@8			; std::error_category `RTTI Type Descriptor'
PUBLIC	??_R3error_category@std@@8			; std::error_category::`RTTI Class Hierarchy Descriptor'
PUBLIC	??_R2error_category@std@@8			; std::error_category::`RTTI Base Class Array'
PUBLIC	??_R1A@?0A@EA@error_category@std@@8		; std::error_category::`RTTI Base Class Descriptor at (0,-1,0,64)'
PUBLIC	??_R4_System_error@std@@6B@			; std::_System_error::`RTTI Complete Object Locator'
PUBLIC	??_R3_System_error@std@@8			; std::_System_error::`RTTI Class Hierarchy Descriptor'
PUBLIC	??_R2_System_error@std@@8			; std::_System_error::`RTTI Base Class Array'
PUBLIC	??_R1A@?0A@EA@_System_error@std@@8		; std::_System_error::`RTTI Base Class Descriptor at (0,-1,0,64)'
PUBLIC	??_R4system_error@std@@6B@			; std::system_error::`RTTI Complete Object Locator'
PUBLIC	??_R3system_error@std@@8			; std::system_error::`RTTI Class Hierarchy Descriptor'
PUBLIC	??_R2system_error@std@@8			; std::system_error::`RTTI Base Class Array'
PUBLIC	??_R1A@?0A@EA@system_error@std@@8		; std::system_error::`RTTI Base Class Descriptor at (0,-1,0,64)'
PUBLIC	??_R4_Generic_error_category@std@@6B@		; std::_Generic_error_category::`RTTI Complete Object Locator'
PUBLIC	??_R0?AV_Generic_error_category@std@@@8		; std::_Generic_error_category `RTTI Type Descriptor'
PUBLIC	??_R3_Generic_error_category@std@@8		; std::_Generic_error_category::`RTTI Class Hierarchy Descriptor'
PUBLIC	??_R2_Generic_error_category@std@@8		; std::_Generic_error_category::`RTTI Base Class Array'
PUBLIC	??_R1A@?0A@EA@_Generic_error_category@std@@8	; std::_Generic_error_category::`RTTI Base Class Descriptor at (0,-1,0,64)'
PUBLIC	??_R4_Iostream_error_category@std@@6B@		; std::_Iostream_error_category::`RTTI Complete Object Locator'
PUBLIC	??_R0?AV_Iostream_error_category@std@@@8	; std::_Iostream_error_category `RTTI Type Descriptor'
PUBLIC	??_R3_Iostream_error_category@std@@8		; std::_Iostream_error_category::`RTTI Class Hierarchy Descriptor'
PUBLIC	??_R2_Iostream_error_category@std@@8		; std::_Iostream_error_category::`RTTI Base Class Array'
PUBLIC	??_R1A@?0A@EA@_Iostream_error_category@std@@8	; std::_Iostream_error_category::`RTTI Base Class Descriptor at (0,-1,0,64)'
PUBLIC	??_R4_System_error_category@std@@6B@		; std::_System_error_category::`RTTI Complete Object Locator'
PUBLIC	??_R0?AV_System_error_category@std@@@8		; std::_System_error_category `RTTI Type Descriptor'
PUBLIC	??_R3_System_error_category@std@@8		; std::_System_error_category::`RTTI Class Hierarchy Descriptor'
PUBLIC	??_R2_System_error_category@std@@8		; std::_System_error_category::`RTTI Base Class Array'
PUBLIC	??_R1A@?0A@EA@_System_error_category@std@@8	; std::_System_error_category::`RTTI Base Class Descriptor at (0,-1,0,64)'
PUBLIC	??_R4failure@ios_base@std@@6B@			; std::ios_base::failure::`RTTI Complete Object Locator'
PUBLIC	??_R3failure@ios_base@std@@8			; std::ios_base::failure::`RTTI Class Hierarchy Descriptor'
PUBLIC	??_R2failure@ios_base@std@@8			; std::ios_base::failure::`RTTI Base Class Array'
PUBLIC	??_R1A@?0A@EA@failure@ios_base@std@@8		; std::ios_base::failure::`RTTI Base Class Descriptor at (0,-1,0,64)'
PUBLIC	__real@0000000000000000
PUBLIC	__real@0010000000000000
PUBLIC	__real@00800000
PUBLIC	__real@4000000000000000
PUBLIC	__real@4010000000000000
PUBLIC	__real@7f7fffff
PUBLIC	__real@7fefffffffffffff
EXTRN	__purecall:PROC
EXTRN	??2@YAPAXI@Z:PROC				; operator new
EXTRN	??3@YAXPAX@Z:PROC				; operator delete
EXTRN	_atexit:PROC
EXTRN	__invalid_parameter:PROC
EXTRN	??0_Lockit@std@@QAE@H@Z:PROC			; std::_Lockit::_Lockit
EXTRN	??1_Lockit@std@@QAE@XZ:PROC			; std::_Lockit::~_Lockit
EXTRN	__hypot:PROC
EXTRN	_free:PROC
EXTRN	_memcmp:PROC
EXTRN	_memcpy:PROC
EXTRN	_strlen:PROC
EXTRN	_memmove:PROC
EXTRN	??0exception@std@@QAE@ABQBD@Z:PROC		; std::exception::exception
EXTRN	??0exception@std@@QAE@ABV01@@Z:PROC		; std::exception::exception
EXTRN	??1exception@std@@UAE@XZ:PROC			; std::exception::~exception
EXTRN	?what@exception@std@@UBEPBDXZ:PROC		; std::exception::what
EXTRN	?uncaught_exception@std@@YA_NXZ:PROC		; std::uncaught_exception
EXTRN	??_V@YAXPAX@Z:PROC				; operator delete[]
EXTRN	__CrtDbgReportW:PROC
EXTRN	__free_dbg:PROC
EXTRN	?_Debug_message@std@@YAXPB_W0I@Z:PROC		; std::_Debug_message
EXTRN	?_Xbad_alloc@std@@YAXXZ:PROC			; std::_Xbad_alloc
EXTRN	?_Xlength_error@std@@YAXPBD@Z:PROC		; std::_Xlength_error
EXTRN	?_Xout_of_range@std@@YAXPBD@Z:PROC		; std::_Xout_of_range
EXTRN	??_Eruntime_error@std@@UAEPAXI@Z:PROC		; std::runtime_error::`vector deleting destructor'
EXTRN	??0bad_cast@std@@QAE@PBD@Z:PROC			; std::bad_cast::bad_cast
EXTRN	??0bad_cast@std@@QAE@ABV01@@Z:PROC		; std::bad_cast::bad_cast
EXTRN	??1bad_cast@std@@UAE@XZ:PROC			; std::bad_cast::~bad_cast
EXTRN	__Getctype:PROC
EXTRN	__Tolower:PROC
EXTRN	__Toupper:PROC
EXTRN	?_Locinfo_ctor@_Locinfo@std@@SAXPAV12@PBD@Z:PROC ; std::_Locinfo::_Locinfo_ctor
EXTRN	?_Locinfo_dtor@_Locinfo@std@@SAXPAV12@@Z:PROC	; std::_Locinfo::_Locinfo_dtor
EXTRN	??2@YAPAXIABU_DebugHeapTag_t@std@@PADH@Z:PROC	; operator new
EXTRN	?_DebugHeapTag_func@std@@YAABU_DebugHeapTag_t@1@XZ:PROC ; std::_DebugHeapTag_func
EXTRN	??_E_Facet_base@std@@UAEPAXI@Z:PROC		; std::_Facet_base::`vector deleting destructor'
EXTRN	?_Facet_Register@std@@YAXPAV_Facet_base@1@@Z:PROC ; std::_Facet_Register
EXTRN	??_Efacet@locale@std@@MAEPAXI@Z:PROC		; std::locale::facet::`vector deleting destructor'
EXTRN	?_Getgloballocale@locale@std@@CAPAV_Locimp@12@XZ:PROC ; std::locale::_Getgloballocale
EXTRN	??_Ectype_base@std@@UAEPAXI@Z:PROC		; std::ctype_base::`vector deleting destructor'
EXTRN	??_E?$ctype@D@std@@MAEPAXI@Z:PROC		; std::ctype<char>::`vector deleting destructor'
EXTRN	??_Eerror_category@std@@UAEPAXI@Z:PROC		; std::error_category::`vector deleting destructor'
EXTRN	??_E_System_error@std@@UAEPAXI@Z:PROC		; std::_System_error::`vector deleting destructor'
EXTRN	??_Esystem_error@std@@UAEPAXI@Z:PROC		; std::system_error::`vector deleting destructor'
EXTRN	?_Syserror_map@std@@YAPBDH@Z:PROC		; std::_Syserror_map
EXTRN	?_Winerror_map@std@@YAPBDH@Z:PROC		; std::_Winerror_map
EXTRN	??_E_Generic_error_category@std@@UAEPAXI@Z:PROC	; std::_Generic_error_category::`vector deleting destructor'
EXTRN	??_E_Iostream_error_category@std@@UAEPAXI@Z:PROC ; std::_Iostream_error_category::`vector deleting destructor'
EXTRN	??_E_System_error_category@std@@UAEPAXI@Z:PROC	; std::_System_error_category::`vector deleting destructor'
EXTRN	??_Efailure@ios_base@std@@UAEPAXI@Z:PROC	; std::ios_base::failure::`vector deleting destructor'
EXTRN	??1FuzzyVariable@@AAE@XZ:PROC			; FuzzyVariable::~FuzzyVariable
EXTRN	?WriteDOMs@FuzzyVariable@@QAEAAV?$basic_ostream@DU?$char_traits@D@std@@@std@@AAV23@@Z:PROC ; FuzzyVariable::WriteDOMs
EXTRN	@_RTC_CheckStackVars@8:PROC
EXTRN	@__security_check_cookie@4:PROC
EXTRN	__CxxThrowException@8:PROC
EXTRN	__RTC_CheckEsp:PROC
EXTRN	__RTC_InitBase:PROC
EXTRN	__RTC_Shutdown:PROC
EXTRN	___CxxFrameHandler3:PROC
EXTRN	??_7type_info@@6B@:QWORD			; type_info::`vftable'
EXTRN	?_Id_cnt@id@locale@std@@0HA:DWORD		; std::locale::id::_Id_cnt
EXTRN	?id@?$ctype@D@std@@2V0locale@2@A:DWORD		; std::ctype<char>::id
EXTRN	___security_cookie:DWORD
EXTRN	__fltused:DWORD
_BSS	SEGMENT
_piecewise_construct DB 01H DUP (?)
	ALIGN	4

_allocator_arg DB 01H DUP (?)
_BSS	ENDS
;	COMDAT ?_Generic_object@?$_Error_objects@H@std@@2V_Generic_error_category@2@A
_BSS	SEGMENT
?_Generic_object@?$_Error_objects@H@std@@2V_Generic_error_category@2@A DD 01H DUP (?) ; std::_Error_objects<int>::_Generic_object
_BSS	ENDS
;	COMDAT ?_Iostream_object@?$_Error_objects@H@std@@2V_Iostream_error_category@2@A
_BSS	SEGMENT
?_Iostream_object@?$_Error_objects@H@std@@2V_Iostream_error_category@2@A DD 01H DUP (?) ; std::_Error_objects<int>::_Iostream_object
_BSS	ENDS
;	COMDAT ?_System_object@?$_Error_objects@H@std@@2V_System_error_category@2@A
_BSS	SEGMENT
?_System_object@?$_Error_objects@H@std@@2V_System_error_category@2@A DD 01H DUP (?) ; std::_Error_objects<int>::_System_object
_BSS	ENDS
;	COMDAT ?id@?$num_put@DV?$back_insert_iterator@V?$basic_string@DU?$char_traits@D@std@@V?$allocator@D@2@@std@@@std@@@std@@2V0locale@2@A
_BSS	SEGMENT
?id@?$num_put@DV?$back_insert_iterator@V?$basic_string@DU?$char_traits@D@std@@V?$allocator@D@2@@std@@@std@@@std@@2V0locale@2@A DD 01H DUP (?) ; std::num_put<char,std::back_insert_iterator<std::basic_string<char,std::char_traits<char>,std::allocator<char> > > >::id
_BSS	ENDS
;	COMDAT ?id@?$num_put@_WV?$back_insert_iterator@V?$basic_string@_WU?$char_traits@_W@std@@V?$allocator@_W@2@@std@@@std@@@std@@2V0locale@2@A
_BSS	SEGMENT
?id@?$num_put@_WV?$back_insert_iterator@V?$basic_string@_WU?$char_traits@_W@std@@V?$allocator@_W@2@@std@@@std@@@std@@2V0locale@2@A DD 01H DUP (?) ; std::num_put<wchar_t,std::back_insert_iterator<std::basic_string<wchar_t,std::char_traits<wchar_t>,std::allocator<wchar_t> > > >::id
_BSS	ENDS
_BSS	SEGMENT
	ALIGN	4

_ignore	DB	01H DUP (?)
	ALIGN	4

__Tuple_alloc DB 01H DUP (?)
	ALIGN	4

_MaxInt	DD	01H DUP (?)
	ALIGN	8

_MaxDouble DQ	01H DUP (?)
_MinDouble DQ	01H DUP (?)
_MaxFloat DD	01H DUP (?)
_MinFloat DD	01H DUP (?)
_TwoPi	DQ	01H DUP (?)
_HalfPi	DQ	01H DUP (?)
_QuarterPi DQ	01H DUP (?)
_BSS	ENDS
;	COMDAT ?id@?$numpunct@D@std@@2V0locale@2@A
_BSS	SEGMENT
?id@?$numpunct@D@std@@2V0locale@2@A DD 01H DUP (?)	; std::numpunct<char>::id
_BSS	ENDS
;	COMDAT ?id@?$numpunct@_W@std@@2V0locale@2@A
_BSS	SEGMENT
?id@?$numpunct@_W@std@@2V0locale@2@A DD 01H DUP (?)	; std::numpunct<wchar_t>::id
_BSS	ENDS
;	COMDAT ?_Psave@?$_Facetptr@V?$ctype@D@std@@@std@@2PBVfacet@locale@2@B
_BSS	SEGMENT
?_Psave@?$_Facetptr@V?$ctype@D@std@@@std@@2PBVfacet@locale@2@B DD 01H DUP (?) ; std::_Facetptr<std::ctype<char> >::_Psave
_BSS	ENDS
CRT$XCU	SEGMENT
_piecewise_construct$initializer$ DD FLAT:??__Epiecewise_construct@std@@YAXXZ
CRT$XCU	ENDS
;	COMDAT __real@7fefffffffffffff
CONST	SEGMENT
__real@7fefffffffffffff DQ 07fefffffffffffffr	; 1.79769e+308
CONST	ENDS
;	COMDAT __real@7f7fffff
CONST	SEGMENT
__real@7f7fffff DD 07f7fffffr			; 3.40282e+038
CONST	ENDS
;	COMDAT __real@4010000000000000
CONST	SEGMENT
__real@4010000000000000 DQ 04010000000000000r	; 4
CONST	ENDS
;	COMDAT __real@4000000000000000
CONST	SEGMENT
__real@4000000000000000 DQ 04000000000000000r	; 2
CONST	ENDS
;	COMDAT __real@00800000
CONST	SEGMENT
__real@00800000 DD 000800000r			; 1.17549e-038
CONST	ENDS
;	COMDAT __real@0010000000000000
CONST	SEGMENT
__real@0010000000000000 DQ 00010000000000000r	; 2.22507e-308
CONST	ENDS
;	COMDAT __real@0000000000000000
CONST	SEGMENT
__real@0000000000000000 DQ 00000000000000000r	; 0
CONST	ENDS
;	COMDAT rtc$TMZ
rtc$TMZ	SEGMENT
__RTC_Shutdown.rtc$TMZ DD FLAT:__RTC_Shutdown
rtc$TMZ	ENDS
;	COMDAT rtc$IMZ
rtc$IMZ	SEGMENT
__RTC_InitBase.rtc$IMZ DD FLAT:__RTC_InitBase
rtc$IMZ	ENDS
;	COMDAT ??_R1A@?0A@EA@failure@ios_base@std@@8
rdata$r	SEGMENT
??_R1A@?0A@EA@failure@ios_base@std@@8 DD FLAT:??_R0?AVfailure@ios_base@std@@@8 ; std::ios_base::failure::`RTTI Base Class Descriptor at (0,-1,0,64)'
	DD	04H
	DD	00H
	DD	0ffffffffH
	DD	00H
	DD	040H
	DD	FLAT:??_R3failure@ios_base@std@@8
rdata$r	ENDS
;	COMDAT ??_R2failure@ios_base@std@@8
rdata$r	SEGMENT
??_R2failure@ios_base@std@@8 DD FLAT:??_R1A@?0A@EA@failure@ios_base@std@@8 ; std::ios_base::failure::`RTTI Base Class Array'
	DD	FLAT:??_R1A@?0A@EA@system_error@std@@8
	DD	FLAT:??_R1A@?0A@EA@_System_error@std@@8
	DD	FLAT:??_R1A@?0A@EA@runtime_error@std@@8
	DD	FLAT:??_R1A@?0A@EA@exception@std@@8
rdata$r	ENDS
;	COMDAT ??_R3failure@ios_base@std@@8
rdata$r	SEGMENT
??_R3failure@ios_base@std@@8 DD 00H			; std::ios_base::failure::`RTTI Class Hierarchy Descriptor'
	DD	00H
	DD	05H
	DD	FLAT:??_R2failure@ios_base@std@@8
rdata$r	ENDS
;	COMDAT ??_R4failure@ios_base@std@@6B@
rdata$r	SEGMENT
??_R4failure@ios_base@std@@6B@ DD 00H			; std::ios_base::failure::`RTTI Complete Object Locator'
	DD	00H
	DD	00H
	DD	FLAT:??_R0?AVfailure@ios_base@std@@@8
	DD	FLAT:??_R3failure@ios_base@std@@8
rdata$r	ENDS
;	COMDAT ??_R1A@?0A@EA@_System_error_category@std@@8
rdata$r	SEGMENT
??_R1A@?0A@EA@_System_error_category@std@@8 DD FLAT:??_R0?AV_System_error_category@std@@@8 ; std::_System_error_category::`RTTI Base Class Descriptor at (0,-1,0,64)'
	DD	02H
	DD	00H
	DD	0ffffffffH
	DD	00H
	DD	040H
	DD	FLAT:??_R3_System_error_category@std@@8
rdata$r	ENDS
;	COMDAT ??_R2_System_error_category@std@@8
rdata$r	SEGMENT
??_R2_System_error_category@std@@8 DD FLAT:??_R1A@?0A@EA@_System_error_category@std@@8 ; std::_System_error_category::`RTTI Base Class Array'
	DD	FLAT:??_R1A@?0A@EA@_Generic_error_category@std@@8
	DD	FLAT:??_R1A@?0A@EA@error_category@std@@8
rdata$r	ENDS
;	COMDAT ??_R3_System_error_category@std@@8
rdata$r	SEGMENT
??_R3_System_error_category@std@@8 DD 00H		; std::_System_error_category::`RTTI Class Hierarchy Descriptor'
	DD	00H
	DD	03H
	DD	FLAT:??_R2_System_error_category@std@@8
rdata$r	ENDS
;	COMDAT ??_R0?AV_System_error_category@std@@@8
data$r	SEGMENT
??_R0?AV_System_error_category@std@@@8 DD FLAT:??_7type_info@@6B@ ; std::_System_error_category `RTTI Type Descriptor'
	DD	00H
	DB	'.?AV_System_error_category@std@@', 00H
data$r	ENDS
;	COMDAT ??_R4_System_error_category@std@@6B@
rdata$r	SEGMENT
??_R4_System_error_category@std@@6B@ DD 00H		; std::_System_error_category::`RTTI Complete Object Locator'
	DD	00H
	DD	00H
	DD	FLAT:??_R0?AV_System_error_category@std@@@8
	DD	FLAT:??_R3_System_error_category@std@@8
rdata$r	ENDS
;	COMDAT ??_R1A@?0A@EA@_Iostream_error_category@std@@8
rdata$r	SEGMENT
??_R1A@?0A@EA@_Iostream_error_category@std@@8 DD FLAT:??_R0?AV_Iostream_error_category@std@@@8 ; std::_Iostream_error_category::`RTTI Base Class Descriptor at (0,-1,0,64)'
	DD	02H
	DD	00H
	DD	0ffffffffH
	DD	00H
	DD	040H
	DD	FLAT:??_R3_Iostream_error_category@std@@8
rdata$r	ENDS
;	COMDAT ??_R2_Iostream_error_category@std@@8
rdata$r	SEGMENT
??_R2_Iostream_error_category@std@@8 DD FLAT:??_R1A@?0A@EA@_Iostream_error_category@std@@8 ; std::_Iostream_error_category::`RTTI Base Class Array'
	DD	FLAT:??_R1A@?0A@EA@_Generic_error_category@std@@8
	DD	FLAT:??_R1A@?0A@EA@error_category@std@@8
rdata$r	ENDS
;	COMDAT ??_R3_Iostream_error_category@std@@8
rdata$r	SEGMENT
??_R3_Iostream_error_category@std@@8 DD 00H		; std::_Iostream_error_category::`RTTI Class Hierarchy Descriptor'
	DD	00H
	DD	03H
	DD	FLAT:??_R2_Iostream_error_category@std@@8
rdata$r	ENDS
;	COMDAT ??_R0?AV_Iostream_error_category@std@@@8
data$r	SEGMENT
??_R0?AV_Iostream_error_category@std@@@8 DD FLAT:??_7type_info@@6B@ ; std::_Iostream_error_category `RTTI Type Descriptor'
	DD	00H
	DB	'.?AV_Iostream_error_category@std@@', 00H
data$r	ENDS
;	COMDAT ??_R4_Iostream_error_category@std@@6B@
rdata$r	SEGMENT
??_R4_Iostream_error_category@std@@6B@ DD 00H		; std::_Iostream_error_category::`RTTI Complete Object Locator'
	DD	00H
	DD	00H
	DD	FLAT:??_R0?AV_Iostream_error_category@std@@@8
	DD	FLAT:??_R3_Iostream_error_category@std@@8
rdata$r	ENDS
;	COMDAT ??_R1A@?0A@EA@_Generic_error_category@std@@8
rdata$r	SEGMENT
??_R1A@?0A@EA@_Generic_error_category@std@@8 DD FLAT:??_R0?AV_Generic_error_category@std@@@8 ; std::_Generic_error_category::`RTTI Base Class Descriptor at (0,-1,0,64)'
	DD	01H
	DD	00H
	DD	0ffffffffH
	DD	00H
	DD	040H
	DD	FLAT:??_R3_Generic_error_category@std@@8
rdata$r	ENDS
;	COMDAT ??_R2_Generic_error_category@std@@8
rdata$r	SEGMENT
??_R2_Generic_error_category@std@@8 DD FLAT:??_R1A@?0A@EA@_Generic_error_category@std@@8 ; std::_Generic_error_category::`RTTI Base Class Array'
	DD	FLAT:??_R1A@?0A@EA@error_category@std@@8
rdata$r	ENDS
;	COMDAT ??_R3_Generic_error_category@std@@8
rdata$r	SEGMENT
??_R3_Generic_error_category@std@@8 DD 00H		; std::_Generic_error_category::`RTTI Class Hierarchy Descriptor'
	DD	00H
	DD	02H
	DD	FLAT:??_R2_Generic_error_category@std@@8
rdata$r	ENDS
;	COMDAT ??_R0?AV_Generic_error_category@std@@@8
data$r	SEGMENT
??_R0?AV_Generic_error_category@std@@@8 DD FLAT:??_7type_info@@6B@ ; std::_Generic_error_category `RTTI Type Descriptor'
	DD	00H
	DB	'.?AV_Generic_error_category@std@@', 00H
data$r	ENDS
;	COMDAT ??_R4_Generic_error_category@std@@6B@
rdata$r	SEGMENT
??_R4_Generic_error_category@std@@6B@ DD 00H		; std::_Generic_error_category::`RTTI Complete Object Locator'
	DD	00H
	DD	00H
	DD	FLAT:??_R0?AV_Generic_error_category@std@@@8
	DD	FLAT:??_R3_Generic_error_category@std@@8
rdata$r	ENDS
;	COMDAT ??_R1A@?0A@EA@system_error@std@@8
rdata$r	SEGMENT
??_R1A@?0A@EA@system_error@std@@8 DD FLAT:??_R0?AVsystem_error@std@@@8 ; std::system_error::`RTTI Base Class Descriptor at (0,-1,0,64)'
	DD	03H
	DD	00H
	DD	0ffffffffH
	DD	00H
	DD	040H
	DD	FLAT:??_R3system_error@std@@8
rdata$r	ENDS
;	COMDAT ??_R2system_error@std@@8
rdata$r	SEGMENT
??_R2system_error@std@@8 DD FLAT:??_R1A@?0A@EA@system_error@std@@8 ; std::system_error::`RTTI Base Class Array'
	DD	FLAT:??_R1A@?0A@EA@_System_error@std@@8
	DD	FLAT:??_R1A@?0A@EA@runtime_error@std@@8
	DD	FLAT:??_R1A@?0A@EA@exception@std@@8
rdata$r	ENDS
;	COMDAT ??_R3system_error@std@@8
rdata$r	SEGMENT
??_R3system_error@std@@8 DD 00H				; std::system_error::`RTTI Class Hierarchy Descriptor'
	DD	00H
	DD	04H
	DD	FLAT:??_R2system_error@std@@8
rdata$r	ENDS
;	COMDAT ??_R4system_error@std@@6B@
rdata$r	SEGMENT
??_R4system_error@std@@6B@ DD 00H			; std::system_error::`RTTI Complete Object Locator'
	DD	00H
	DD	00H
	DD	FLAT:??_R0?AVsystem_error@std@@@8
	DD	FLAT:??_R3system_error@std@@8
rdata$r	ENDS
;	COMDAT ??_R1A@?0A@EA@_System_error@std@@8
rdata$r	SEGMENT
??_R1A@?0A@EA@_System_error@std@@8 DD FLAT:??_R0?AV_System_error@std@@@8 ; std::_System_error::`RTTI Base Class Descriptor at (0,-1,0,64)'
	DD	02H
	DD	00H
	DD	0ffffffffH
	DD	00H
	DD	040H
	DD	FLAT:??_R3_System_error@std@@8
rdata$r	ENDS
;	COMDAT ??_R2_System_error@std@@8
rdata$r	SEGMENT
??_R2_System_error@std@@8 DD FLAT:??_R1A@?0A@EA@_System_error@std@@8 ; std::_System_error::`RTTI Base Class Array'
	DD	FLAT:??_R1A@?0A@EA@runtime_error@std@@8
	DD	FLAT:??_R1A@?0A@EA@exception@std@@8
rdata$r	ENDS
;	COMDAT ??_R3_System_error@std@@8
rdata$r	SEGMENT
??_R3_System_error@std@@8 DD 00H			; std::_System_error::`RTTI Class Hierarchy Descriptor'
	DD	00H
	DD	03H
	DD	FLAT:??_R2_System_error@std@@8
rdata$r	ENDS
;	COMDAT ??_R4_System_error@std@@6B@
rdata$r	SEGMENT
??_R4_System_error@std@@6B@ DD 00H			; std::_System_error::`RTTI Complete Object Locator'
	DD	00H
	DD	00H
	DD	FLAT:??_R0?AV_System_error@std@@@8
	DD	FLAT:??_R3_System_error@std@@8
rdata$r	ENDS
;	COMDAT ??_R1A@?0A@EA@error_category@std@@8
rdata$r	SEGMENT
??_R1A@?0A@EA@error_category@std@@8 DD FLAT:??_R0?AVerror_category@std@@@8 ; std::error_category::`RTTI Base Class Descriptor at (0,-1,0,64)'
	DD	00H
	DD	00H
	DD	0ffffffffH
	DD	00H
	DD	040H
	DD	FLAT:??_R3error_category@std@@8
rdata$r	ENDS
;	COMDAT ??_R2error_category@std@@8
rdata$r	SEGMENT
??_R2error_category@std@@8 DD FLAT:??_R1A@?0A@EA@error_category@std@@8 ; std::error_category::`RTTI Base Class Array'
rdata$r	ENDS
;	COMDAT ??_R3error_category@std@@8
rdata$r	SEGMENT
??_R3error_category@std@@8 DD 00H			; std::error_category::`RTTI Class Hierarchy Descriptor'
	DD	00H
	DD	01H
	DD	FLAT:??_R2error_category@std@@8
rdata$r	ENDS
;	COMDAT ??_R0?AVerror_category@std@@@8
data$r	SEGMENT
??_R0?AVerror_category@std@@@8 DD FLAT:??_7type_info@@6B@ ; std::error_category `RTTI Type Descriptor'
	DD	00H
	DB	'.?AVerror_category@std@@', 00H
data$r	ENDS
;	COMDAT ??_R4error_category@std@@6B@
rdata$r	SEGMENT
??_R4error_category@std@@6B@ DD 00H			; std::error_category::`RTTI Complete Object Locator'
	DD	00H
	DD	00H
	DD	FLAT:??_R0?AVerror_category@std@@@8
	DD	FLAT:??_R3error_category@std@@8
rdata$r	ENDS
;	COMDAT ??_R1A@?0A@EA@?$ctype@D@std@@8
rdata$r	SEGMENT
??_R1A@?0A@EA@?$ctype@D@std@@8 DD FLAT:??_R0?AV?$ctype@D@std@@@8 ; std::ctype<char>::`RTTI Base Class Descriptor at (0,-1,0,64)'
	DD	03H
	DD	00H
	DD	0ffffffffH
	DD	00H
	DD	040H
	DD	FLAT:??_R3?$ctype@D@std@@8
rdata$r	ENDS
;	COMDAT ??_R2?$ctype@D@std@@8
rdata$r	SEGMENT
??_R2?$ctype@D@std@@8 DD FLAT:??_R1A@?0A@EA@?$ctype@D@std@@8 ; std::ctype<char>::`RTTI Base Class Array'
	DD	FLAT:??_R1A@?0A@EA@ctype_base@std@@8
	DD	FLAT:??_R1A@?0A@EA@facet@locale@std@@8
	DD	FLAT:??_R1A@?0A@EA@_Facet_base@std@@8
rdata$r	ENDS
;	COMDAT ??_R3?$ctype@D@std@@8
rdata$r	SEGMENT
??_R3?$ctype@D@std@@8 DD 00H				; std::ctype<char>::`RTTI Class Hierarchy Descriptor'
	DD	00H
	DD	04H
	DD	FLAT:??_R2?$ctype@D@std@@8
rdata$r	ENDS
;	COMDAT ??_R0?AV?$ctype@D@std@@@8
data$r	SEGMENT
??_R0?AV?$ctype@D@std@@@8 DD FLAT:??_7type_info@@6B@	; std::ctype<char> `RTTI Type Descriptor'
	DD	00H
	DB	'.?AV?$ctype@D@std@@', 00H
data$r	ENDS
;	COMDAT ??_R4?$ctype@D@std@@6B@
rdata$r	SEGMENT
??_R4?$ctype@D@std@@6B@ DD 00H				; std::ctype<char>::`RTTI Complete Object Locator'
	DD	00H
	DD	00H
	DD	FLAT:??_R0?AV?$ctype@D@std@@@8
	DD	FLAT:??_R3?$ctype@D@std@@8
rdata$r	ENDS
;	COMDAT ??_R1A@?0A@EA@ctype_base@std@@8
rdata$r	SEGMENT
??_R1A@?0A@EA@ctype_base@std@@8 DD FLAT:??_R0?AUctype_base@std@@@8 ; std::ctype_base::`RTTI Base Class Descriptor at (0,-1,0,64)'
	DD	02H
	DD	00H
	DD	0ffffffffH
	DD	00H
	DD	040H
	DD	FLAT:??_R3ctype_base@std@@8
rdata$r	ENDS
;	COMDAT ??_R2ctype_base@std@@8
rdata$r	SEGMENT
??_R2ctype_base@std@@8 DD FLAT:??_R1A@?0A@EA@ctype_base@std@@8 ; std::ctype_base::`RTTI Base Class Array'
	DD	FLAT:??_R1A@?0A@EA@facet@locale@std@@8
	DD	FLAT:??_R1A@?0A@EA@_Facet_base@std@@8
rdata$r	ENDS
;	COMDAT ??_R3ctype_base@std@@8
rdata$r	SEGMENT
??_R3ctype_base@std@@8 DD 00H				; std::ctype_base::`RTTI Class Hierarchy Descriptor'
	DD	00H
	DD	03H
	DD	FLAT:??_R2ctype_base@std@@8
rdata$r	ENDS
;	COMDAT ??_R0?AUctype_base@std@@@8
data$r	SEGMENT
??_R0?AUctype_base@std@@@8 DD FLAT:??_7type_info@@6B@	; std::ctype_base `RTTI Type Descriptor'
	DD	00H
	DB	'.?AUctype_base@std@@', 00H
data$r	ENDS
;	COMDAT ??_R4ctype_base@std@@6B@
rdata$r	SEGMENT
??_R4ctype_base@std@@6B@ DD 00H				; std::ctype_base::`RTTI Complete Object Locator'
	DD	00H
	DD	00H
	DD	FLAT:??_R0?AUctype_base@std@@@8
	DD	FLAT:??_R3ctype_base@std@@8
rdata$r	ENDS
;	COMDAT ??_R4facet@locale@std@@6B@
rdata$r	SEGMENT
??_R4facet@locale@std@@6B@ DD 00H			; std::locale::facet::`RTTI Complete Object Locator'
	DD	00H
	DD	00H
	DD	FLAT:??_R0?AVfacet@locale@std@@@8
	DD	FLAT:??_R3facet@locale@std@@8
rdata$r	ENDS
;	COMDAT ??_R2facet@locale@std@@8
rdata$r	SEGMENT
??_R2facet@locale@std@@8 DD FLAT:??_R1A@?0A@EA@facet@locale@std@@8 ; std::locale::facet::`RTTI Base Class Array'
	DD	FLAT:??_R1A@?0A@EA@_Facet_base@std@@8
rdata$r	ENDS
;	COMDAT ??_R3facet@locale@std@@8
rdata$r	SEGMENT
??_R3facet@locale@std@@8 DD 00H				; std::locale::facet::`RTTI Class Hierarchy Descriptor'
	DD	00H
	DD	02H
	DD	FLAT:??_R2facet@locale@std@@8
rdata$r	ENDS
;	COMDAT ??_R0?AVfacet@locale@std@@@8
data$r	SEGMENT
??_R0?AVfacet@locale@std@@@8 DD FLAT:??_7type_info@@6B@	; std::locale::facet `RTTI Type Descriptor'
	DD	00H
	DB	'.?AVfacet@locale@std@@', 00H
data$r	ENDS
;	COMDAT ??_R1A@?0A@EA@facet@locale@std@@8
rdata$r	SEGMENT
??_R1A@?0A@EA@facet@locale@std@@8 DD FLAT:??_R0?AVfacet@locale@std@@@8 ; std::locale::facet::`RTTI Base Class Descriptor at (0,-1,0,64)'
	DD	01H
	DD	00H
	DD	0ffffffffH
	DD	00H
	DD	040H
	DD	FLAT:??_R3facet@locale@std@@8
rdata$r	ENDS
;	COMDAT ??_R1A@?0A@EA@_Facet_base@std@@8
rdata$r	SEGMENT
??_R1A@?0A@EA@_Facet_base@std@@8 DD FLAT:??_R0?AV_Facet_base@std@@@8 ; std::_Facet_base::`RTTI Base Class Descriptor at (0,-1,0,64)'
	DD	00H
	DD	00H
	DD	0ffffffffH
	DD	00H
	DD	040H
	DD	FLAT:??_R3_Facet_base@std@@8
rdata$r	ENDS
;	COMDAT ??_R2_Facet_base@std@@8
rdata$r	SEGMENT
??_R2_Facet_base@std@@8 DD FLAT:??_R1A@?0A@EA@_Facet_base@std@@8 ; std::_Facet_base::`RTTI Base Class Array'
rdata$r	ENDS
;	COMDAT ??_R3_Facet_base@std@@8
rdata$r	SEGMENT
??_R3_Facet_base@std@@8 DD 00H				; std::_Facet_base::`RTTI Class Hierarchy Descriptor'
	DD	00H
	DD	01H
	DD	FLAT:??_R2_Facet_base@std@@8
rdata$r	ENDS
;	COMDAT ??_R0?AV_Facet_base@std@@@8
data$r	SEGMENT
??_R0?AV_Facet_base@std@@@8 DD FLAT:??_7type_info@@6B@	; std::_Facet_base `RTTI Type Descriptor'
	DD	00H
	DB	'.?AV_Facet_base@std@@', 00H
data$r	ENDS
;	COMDAT ??_R4_Facet_base@std@@6B@
rdata$r	SEGMENT
??_R4_Facet_base@std@@6B@ DD 00H			; std::_Facet_base::`RTTI Complete Object Locator'
	DD	00H
	DD	00H
	DD	FLAT:??_R0?AV_Facet_base@std@@@8
	DD	FLAT:??_R3_Facet_base@std@@8
rdata$r	ENDS
;	COMDAT ??_R1A@?0A@EA@runtime_error@std@@8
rdata$r	SEGMENT
??_R1A@?0A@EA@runtime_error@std@@8 DD FLAT:??_R0?AVruntime_error@std@@@8 ; std::runtime_error::`RTTI Base Class Descriptor at (0,-1,0,64)'
	DD	01H
	DD	00H
	DD	0ffffffffH
	DD	00H
	DD	040H
	DD	FLAT:??_R3runtime_error@std@@8
rdata$r	ENDS
;	COMDAT ??_R2runtime_error@std@@8
rdata$r	SEGMENT
??_R2runtime_error@std@@8 DD FLAT:??_R1A@?0A@EA@runtime_error@std@@8 ; std::runtime_error::`RTTI Base Class Array'
	DD	FLAT:??_R1A@?0A@EA@exception@std@@8
rdata$r	ENDS
;	COMDAT ??_R3runtime_error@std@@8
rdata$r	SEGMENT
??_R3runtime_error@std@@8 DD 00H			; std::runtime_error::`RTTI Class Hierarchy Descriptor'
	DD	00H
	DD	02H
	DD	FLAT:??_R2runtime_error@std@@8
rdata$r	ENDS
;	COMDAT ??_R4runtime_error@std@@6B@
rdata$r	SEGMENT
??_R4runtime_error@std@@6B@ DD 00H			; std::runtime_error::`RTTI Complete Object Locator'
	DD	00H
	DD	00H
	DD	FLAT:??_R0?AVruntime_error@std@@@8
	DD	FLAT:??_R3runtime_error@std@@8
rdata$r	ENDS
;	COMDAT ??_R2exception@std@@8
rdata$r	SEGMENT
??_R2exception@std@@8 DD FLAT:??_R1A@?0A@EA@exception@std@@8 ; std::exception::`RTTI Base Class Array'
rdata$r	ENDS
;	COMDAT ??_R3exception@std@@8
rdata$r	SEGMENT
??_R3exception@std@@8 DD 00H				; std::exception::`RTTI Class Hierarchy Descriptor'
	DD	00H
	DD	01H
	DD	FLAT:??_R2exception@std@@8
rdata$r	ENDS
;	COMDAT ??_R1A@?0A@EA@exception@std@@8
rdata$r	SEGMENT
??_R1A@?0A@EA@exception@std@@8 DD FLAT:??_R0?AVexception@std@@@8 ; std::exception::`RTTI Base Class Descriptor at (0,-1,0,64)'
	DD	00H
	DD	00H
	DD	0ffffffffH
	DD	00H
	DD	040H
	DD	FLAT:??_R3exception@std@@8
rdata$r	ENDS
;	COMDAT ??_C@_1IO@LKIDJAMC@?$AAC?$AA?3?$AA?2?$AAP?$AAr?$AAo?$AAg?$AAr?$AAa?$AAm?$AA?5?$AAF?$AAi?$AAl?$AAe?$AAs?$AA?5?$AA?$CI?$AAx?$AA8?$AA6?$AA?$CJ?$AA?2?$AAM?$AAi?$AAc?$AAr?$AAo?$AAs?$AAo?$AAf?$AAt@
CONST	SEGMENT
??_C@_1IO@LKIDJAMC@?$AAC?$AA?3?$AA?2?$AAP?$AAr?$AAo?$AAg?$AAr?$AAa?$AAm?$AA?5?$AAF?$AAi?$AAl?$AAe?$AAs?$AA?5?$AA?$CI?$AAx?$AA8?$AA6?$AA?$CJ?$AA?2?$AAM?$AAi?$AAc?$AAr?$AAo?$AAs?$AAo?$AAf?$AAt@ DB 'C'
	DB	00H, ':', 00H, '\', 00H, 'P', 00H, 'r', 00H, 'o', 00H, 'g', 00H
	DB	'r', 00H, 'a', 00H, 'm', 00H, ' ', 00H, 'F', 00H, 'i', 00H, 'l'
	DB	00H, 'e', 00H, 's', 00H, ' ', 00H, '(', 00H, 'x', 00H, '8', 00H
	DB	'6', 00H, ')', 00H, '\', 00H, 'M', 00H, 'i', 00H, 'c', 00H, 'r'
	DB	00H, 'o', 00H, 's', 00H, 'o', 00H, 'f', 00H, 't', 00H, ' ', 00H
	DB	'V', 00H, 'i', 00H, 's', 00H, 'u', 00H, 'a', 00H, 'l', 00H, ' '
	DB	00H, 'S', 00H, 't', 00H, 'u', 00H, 'd', 00H, 'i', 00H, 'o', 00H
	DB	' ', 00H, '1', 00H, '2', 00H, '.', 00H, '0', 00H, '\', 00H, 'V'
	DB	00H, 'C', 00H, '\', 00H, 'i', 00H, 'n', 00H, 'c', 00H, 'l', 00H
	DB	'u', 00H, 'd', 00H, 'e', 00H, '\', 00H, 'x', 00H, 'm', 00H, 'e'
	DB	00H, 'm', 00H, 'o', 00H, 'r', 00H, 'y', 00H, 00H, 00H ; `string'
CONST	ENDS
;	COMDAT ??_C@_0BE@JONHPENG@map?1set?$DMT?$DO?5too?5long?$AA@
CONST	SEGMENT
??_C@_0BE@JONHPENG@map?1set?$DMT?$DO?5too?5long?$AA@ DB 'map/set<T> too l'
	DB	'ong', 00H					; `string'
CONST	ENDS
;	COMDAT ??_C@_1BNA@IJLCNHOF@?$AAs?$AAt?$AAd?$AA?3?$AA?3?$AA_?$AAT?$AAr?$AAe?$AAe?$AA_?$AAc?$AAo?$AAn?$AAs?$AAt?$AA_?$AAi?$AAt?$AAe?$AAr?$AAa?$AAt?$AAo?$AAr?$AA?$DM?$AAc?$AAl?$AAa?$AAs?$AAs?$AA?5@
CONST	SEGMENT
??_C@_1BNA@IJLCNHOF@?$AAs?$AAt?$AAd?$AA?3?$AA?3?$AA_?$AAT?$AAr?$AAe?$AAe?$AA_?$AAc?$AAo?$AAn?$AAs?$AAt?$AA_?$AAi?$AAt?$AAe?$AAr?$AAa?$AAt?$AAo?$AAr?$AA?$DM?$AAc?$AAl?$AAa?$AAs?$AAs?$AA?5@ DB 's'
	DB	00H, 't', 00H, 'd', 00H, ':', 00H, ':', 00H, '_', 00H, 'T', 00H
	DB	'r', 00H, 'e', 00H, 'e', 00H, '_', 00H, 'c', 00H, 'o', 00H, 'n'
	DB	00H, 's', 00H, 't', 00H, '_', 00H, 'i', 00H, 't', 00H, 'e', 00H
	DB	'r', 00H, 'a', 00H, 't', 00H, 'o', 00H, 'r', 00H, '<', 00H, 'c'
	DB	00H, 'l', 00H, 'a', 00H, 's', 00H, 's', 00H, ' ', 00H, 's', 00H
	DB	't', 00H, 'd', 00H, ':', 00H, ':', 00H, '_', 00H, 'T', 00H, 'r'
	DB	00H, 'e', 00H, 'e', 00H, '_', 00H, 'v', 00H, 'a', 00H, 'l', 00H
	DB	'<', 00H, 's', 00H, 't', 00H, 'r', 00H, 'u', 00H, 'c', 00H, 't'
	DB	00H, ' ', 00H, 's', 00H, 't', 00H, 'd', 00H, ':', 00H, ':', 00H
	DB	'_', 00H, 'T', 00H, 'r', 00H, 'e', 00H, 'e', 00H, '_', 00H, 's'
	DB	00H, 'i', 00H, 'm', 00H, 'p', 00H, 'l', 00H, 'e', 00H, '_', 00H
	DB	't', 00H, 'y', 00H, 'p', 00H, 'e', 00H, 's', 00H, '<', 00H, 's'
	DB	00H, 't', 00H, 'r', 00H, 'u', 00H, 'c', 00H, 't', 00H, ' ', 00H
	DB	's', 00H, 't', 00H, 'd', 00H, ':', 00H, ':', 00H, 'p', 00H, 'a'
	DB	00H, 'i', 00H, 'r', 00H, '<', 00H, 'c', 00H, 'l', 00H, 'a', 00H
	DB	's', 00H, 's', 00H, ' ', 00H, 's', 00H, 't', 00H, 'd', 00H, ':'
	DB	00H, ':', 00H, 'b', 00H, 'a', 00H, 's', 00H, 'i', 00H, 'c', 00H
	DB	'_', 00H, 's', 00H, 't', 00H, 'r', 00H, 'i', 00H, 'n', 00H, 'g'
	DB	00H, '<', 00H, 'c', 00H, 'h', 00H, 'a', 00H, 'r', 00H, ',', 00H
	DB	's', 00H, 't', 00H, 'r', 00H, 'u', 00H, 'c', 00H, 't', 00H, ' '
	DB	00H, 's', 00H, 't', 00H, 'd', 00H, ':', 00H, ':', 00H, 'c', 00H
	DB	'h', 00H, 'a', 00H, 'r', 00H, '_', 00H, 't', 00H, 'r', 00H, 'a'
	DB	00H, 'i', 00H, 't', 00H, 's', 00H, '<', 00H, 'c', 00H, 'h', 00H
	DB	'a', 00H, 'r', 00H, '>', 00H, ',', 00H, 'c', 00H, 'l', 00H, 'a'
	DB	00H, 's', 00H, 's', 00H, ' ', 00H, 's', 00H, 't', 00H, 'd', 00H
	DB	':', 00H, ':', 00H, 'a', 00H, 'l', 00H, 'l', 00H, 'o', 00H, 'c'
	DB	00H, 'a', 00H, 't', 00H, 'o', 00H, 'r', 00H, '<', 00H, 'c', 00H
	DB	'h', 00H, 'a', 00H, 'r', 00H, '>', 00H, ' ', 00H, '>', 00H, ' '
	DB	00H, 'c', 00H, 'o', 00H, 'n', 00H, 's', 00H, 't', 00H, ' ', 00H
	DB	',', 00H, 'c', 00H, 'l', 00H, 'a', 00H, 's', 00H, 's', 00H, ' '
	DB	00H, 'F', 00H, 'u', 00H, 'z', 00H, 'z', 00H, 'y', 00H, 'V', 00H
	DB	'a', 00H, 'r', 00H, 'i', 00H, 'a', 00H, 'b', 00H, 'l', 00H, 'e'
	DB	00H, ' ', 00H, '*', 00H, '>', 00H, ' ', 00H, '>', 00H, ' ', 00H
	DB	'>', 00H, ' ', 00H, '>', 00H, ':', 00H, ':', 00H, 'o', 00H, 'p'
	DB	00H, 'e', 00H, 'r', 00H, 'a', 00H, 't', 00H, 'o', 00H, 'r', 00H
	DB	' ', 00H, '-', 00H, '-', 00H, 00H, 00H	; `string'
CONST	ENDS
;	COMDAT ??_C@_1EG@OKCGOALM@?$AAm?$AAa?$AAp?$AA?1?$AAs?$AAe?$AAt?$AA?5?$AAi?$AAt?$AAe?$AAr?$AAa?$AAt?$AAo?$AAr?$AA?5?$AAn?$AAo?$AAt?$AA?5?$AAd?$AAe?$AAc?$AAr?$AAe?$AAm?$AAe?$AAn?$AAt?$AAa?$AAb@
CONST	SEGMENT
??_C@_1EG@OKCGOALM@?$AAm?$AAa?$AAp?$AA?1?$AAs?$AAe?$AAt?$AA?5?$AAi?$AAt?$AAe?$AAr?$AAa?$AAt?$AAo?$AAr?$AA?5?$AAn?$AAo?$AAt?$AA?5?$AAd?$AAe?$AAc?$AAr?$AAe?$AAm?$AAe?$AAn?$AAt?$AAa?$AAb@ DB 'm'
	DB	00H, 'a', 00H, 'p', 00H, '/', 00H, 's', 00H, 'e', 00H, 't', 00H
	DB	' ', 00H, 'i', 00H, 't', 00H, 'e', 00H, 'r', 00H, 'a', 00H, 't'
	DB	00H, 'o', 00H, 'r', 00H, ' ', 00H, 'n', 00H, 'o', 00H, 't', 00H
	DB	' ', 00H, 'd', 00H, 'e', 00H, 'c', 00H, 'r', 00H, 'e', 00H, 'm'
	DB	00H, 'e', 00H, 'n', 00H, 't', 00H, 'a', 00H, 'b', 00H, 'l', 00H
	DB	'e', 00H, 00H, 00H				; `string'
CONST	ENDS
;	COMDAT ??_C@_1EM@MHOKKPFH@?$AAm?$AAa?$AAp?$AA?1?$AAs?$AAe?$AAt?$AA?5?$AAi?$AAn?$AAs?$AAe?$AAr?$AAt?$AA?5?$AAi?$AAt?$AAe?$AAr?$AAa?$AAt?$AAo?$AAr?$AA?5?$AAo?$AAu?$AAt?$AAs?$AAi?$AAd?$AAe?$AA?5@
CONST	SEGMENT
??_C@_1EM@MHOKKPFH@?$AAm?$AAa?$AAp?$AA?1?$AAs?$AAe?$AAt?$AA?5?$AAi?$AAn?$AAs?$AAe?$AAr?$AAt?$AA?5?$AAi?$AAt?$AAe?$AAr?$AAa?$AAt?$AAo?$AAr?$AA?5?$AAo?$AAu?$AAt?$AAs?$AAi?$AAd?$AAe?$AA?5@ DB 'm'
	DB	00H, 'a', 00H, 'p', 00H, '/', 00H, 's', 00H, 'e', 00H, 't', 00H
	DB	' ', 00H, 'i', 00H, 'n', 00H, 's', 00H, 'e', 00H, 'r', 00H, 't'
	DB	00H, ' ', 00H, 'i', 00H, 't', 00H, 'e', 00H, 'r', 00H, 'a', 00H
	DB	't', 00H, 'o', 00H, 'r', 00H, ' ', 00H, 'o', 00H, 'u', 00H, 't'
	DB	00H, 's', 00H, 'i', 00H, 'd', 00H, 'e', 00H, ' ', 00H, 'r', 00H
	DB	'a', 00H, 'n', 00H, 'g', 00H, 'e', 00H, 00H, 00H ; `string'
CONST	ENDS
;	COMDAT ??_C@_1CO@DGLIKNHI@?$AAi?$AAn?$AAv?$AAa?$AAl?$AAi?$AAd?$AA?5?$AAi?$AAt?$AAe?$AAr?$AAa?$AAt?$AAo?$AAr?$AA?5?$AAr?$AAa?$AAn?$AAg?$AAe?$AA?$AA@
CONST	SEGMENT
??_C@_1CO@DGLIKNHI@?$AAi?$AAn?$AAv?$AAa?$AAl?$AAi?$AAd?$AA?5?$AAi?$AAt?$AAe?$AAr?$AAa?$AAt?$AAo?$AAr?$AA?5?$AAr?$AAa?$AAn?$AAg?$AAe?$AA?$AA@ DB 'i'
	DB	00H, 'n', 00H, 'v', 00H, 'a', 00H, 'l', 00H, 'i', 00H, 'd', 00H
	DB	' ', 00H, 'i', 00H, 't', 00H, 'e', 00H, 'r', 00H, 'a', 00H, 't'
	DB	00H, 'o', 00H, 'r', 00H, ' ', 00H, 'r', 00H, 'a', 00H, 'n', 00H
	DB	'g', 00H, 'e', 00H, 00H, 00H			; `string'
CONST	ENDS
;	COMDAT ??_C@_1CE@IGJMOCCK@?$AAi?$AAn?$AAv?$AAa?$AAl?$AAi?$AAd?$AA?5?$AAo?$AAp?$AAe?$AAr?$AAa?$AAt?$AAo?$AAr?$AA?$DM?$AA?$AA@
CONST	SEGMENT
??_C@_1CE@IGJMOCCK@?$AAi?$AAn?$AAv?$AAa?$AAl?$AAi?$AAd?$AA?5?$AAo?$AAp?$AAe?$AAr?$AAa?$AAt?$AAo?$AAr?$AA?$DM?$AA?$AA@ DB 'i'
	DB	00H, 'n', 00H, 'v', 00H, 'a', 00H, 'l', 00H, 'i', 00H, 'd', 00H
	DB	' ', 00H, 'o', 00H, 'p', 00H, 'e', 00H, 'r', 00H, 'a', 00H, 't'
	DB	00H, 'o', 00H, 'r', 00H, '<', 00H, 00H, 00H	; `string'
CONST	ENDS
;	COMDAT ??_C@_08EPJLHIJG@bad?5cast?$AA@
CONST	SEGMENT
??_C@_08EPJLHIJG@bad?5cast?$AA@ DB 'bad cast', 00H	; `string'
CONST	ENDS
;	COMDAT __CT??_R0?AVbad_cast@std@@@8??0bad_cast@std@@QAE@ABV01@@Z12
xdata$x	SEGMENT
__CT??_R0?AVbad_cast@std@@@8??0bad_cast@std@@QAE@ABV01@@Z12 DD 00H
	DD	FLAT:??_R0?AVbad_cast@std@@@8
	DD	00H
	DD	0ffffffffH
	ORG $+4
	DD	0cH
	DD	FLAT:??0bad_cast@std@@QAE@ABV01@@Z
xdata$x	ENDS
;	COMDAT ??_R0?AVbad_cast@std@@@8
data$r	SEGMENT
??_R0?AVbad_cast@std@@@8 DD FLAT:??_7type_info@@6B@	; std::bad_cast `RTTI Type Descriptor'
	DD	00H
	DB	'.?AVbad_cast@std@@', 00H
data$r	ENDS
;	COMDAT __CTA2?AVbad_cast@std@@
xdata$x	SEGMENT
__CTA2?AVbad_cast@std@@ DD 02H
	DD	FLAT:__CT??_R0?AVbad_cast@std@@@8??0bad_cast@std@@QAE@ABV01@@Z12
	DD	FLAT:__CT??_R0?AVexception@std@@@8??0exception@std@@QAE@ABV01@@Z12
xdata$x	ENDS
;	COMDAT __TI2?AVbad_cast@std@@
xdata$x	SEGMENT
__TI2?AVbad_cast@std@@ DD 00H
	DD	FLAT:??1bad_cast@std@@UAE@XZ
	DD	00H
	DD	FLAT:__CTA2?AVbad_cast@std@@
xdata$x	ENDS
;	COMDAT ??_C@_1CK@EOPGIILJ@?$AAi?$AAn?$AAv?$AAa?$AAl?$AAi?$AAd?$AA?5?$AAn?$AAu?$AAl?$AAl?$AA?5?$AAp?$AAo?$AAi?$AAn?$AAt?$AAe?$AAr?$AA?$AA@
CONST	SEGMENT
??_C@_1CK@EOPGIILJ@?$AAi?$AAn?$AAv?$AAa?$AAl?$AAi?$AAd?$AA?5?$AAn?$AAu?$AAl?$AAl?$AA?5?$AAp?$AAo?$AAi?$AAn?$AAt?$AAe?$AAr?$AA?$AA@ DB 'i'
	DB	00H, 'n', 00H, 'v', 00H, 'a', 00H, 'l', 00H, 'i', 00H, 'd', 00H
	DB	' ', 00H, 'n', 00H, 'u', 00H, 'l', 00H, 'l', 00H, ' ', 00H, 'p'
	DB	00H, 'o', 00H, 'i', 00H, 'n', 00H, 't', 00H, 'e', 00H, 'r', 00H
	DB	00H, 00H					; `string'
CONST	ENDS
;	COMDAT ??_C@_1EK@PPDBPCAN@?$AAm?$AAa?$AAp?$AA?1?$AAs?$AAe?$AAt?$AA?5?$AAe?$AAr?$AAa?$AAs?$AAe?$AA?5?$AAi?$AAt?$AAe?$AAr?$AAa?$AAt?$AAo?$AAr?$AA?5?$AAo?$AAu?$AAt?$AAs?$AAi?$AAd?$AAe?$AA?5?$AAr@
CONST	SEGMENT
??_C@_1EK@PPDBPCAN@?$AAm?$AAa?$AAp?$AA?1?$AAs?$AAe?$AAt?$AA?5?$AAe?$AAr?$AAa?$AAs?$AAe?$AA?5?$AAi?$AAt?$AAe?$AAr?$AAa?$AAt?$AAo?$AAr?$AA?5?$AAo?$AAu?$AAt?$AAs?$AAi?$AAd?$AAe?$AA?5?$AAr@ DB 'm'
	DB	00H, 'a', 00H, 'p', 00H, '/', 00H, 's', 00H, 'e', 00H, 't', 00H
	DB	' ', 00H, 'e', 00H, 'r', 00H, 'a', 00H, 's', 00H, 'e', 00H, ' '
	DB	00H, 'i', 00H, 't', 00H, 'e', 00H, 'r', 00H, 'a', 00H, 't', 00H
	DB	'o', 00H, 'r', 00H, ' ', 00H, 'o', 00H, 'u', 00H, 't', 00H, 's'
	DB	00H, 'i', 00H, 'd', 00H, 'e', 00H, ' ', 00H, 'r', 00H, 'a', 00H
	DB	'n', 00H, 'g', 00H, 'e', 00H, 00H, 00H	; `string'
CONST	ENDS
;	COMDAT ??_C@_1NK@JMNIMPJC@?$AAs?$AAt?$AAd?$AA?3?$AA?3?$AA_?$AAV?$AAe?$AAc?$AAt?$AAo?$AAr?$AA_?$AAc?$AAo?$AAn?$AAs?$AAt?$AA_?$AAi?$AAt?$AAe?$AAr?$AAa?$AAt?$AAo?$AAr?$AA?$DM?$AAc?$AAl?$AAa?$AAs@
CONST	SEGMENT
??_C@_1NK@JMNIMPJC@?$AAs?$AAt?$AAd?$AA?3?$AA?3?$AA_?$AAV?$AAe?$AAc?$AAt?$AAo?$AAr?$AA_?$AAc?$AAo?$AAn?$AAs?$AAt?$AA_?$AAi?$AAt?$AAe?$AAr?$AAa?$AAt?$AAo?$AAr?$AA?$DM?$AAc?$AAl?$AAa?$AAs@ DB 's'
	DB	00H, 't', 00H, 'd', 00H, ':', 00H, ':', 00H, '_', 00H, 'V', 00H
	DB	'e', 00H, 'c', 00H, 't', 00H, 'o', 00H, 'r', 00H, '_', 00H, 'c'
	DB	00H, 'o', 00H, 'n', 00H, 's', 00H, 't', 00H, '_', 00H, 'i', 00H
	DB	't', 00H, 'e', 00H, 'r', 00H, 'a', 00H, 't', 00H, 'o', 00H, 'r'
	DB	00H, '<', 00H, 'c', 00H, 'l', 00H, 'a', 00H, 's', 00H, 's', 00H
	DB	' ', 00H, 's', 00H, 't', 00H, 'd', 00H, ':', 00H, ':', 00H, '_'
	DB	00H, 'V', 00H, 'e', 00H, 'c', 00H, 't', 00H, 'o', 00H, 'r', 00H
	DB	'_', 00H, 'v', 00H, 'a', 00H, 'l', 00H, '<', 00H, 's', 00H, 't'
	DB	00H, 'r', 00H, 'u', 00H, 'c', 00H, 't', 00H, ' ', 00H, 's', 00H
	DB	't', 00H, 'd', 00H, ':', 00H, ':', 00H, '_', 00H, 'S', 00H, 'i'
	DB	00H, 'm', 00H, 'p', 00H, 'l', 00H, 'e', 00H, '_', 00H, 't', 00H
	DB	'y', 00H, 'p', 00H, 'e', 00H, 's', 00H, '<', 00H, 'c', 00H, 'l'
	DB	00H, 'a', 00H, 's', 00H, 's', 00H, ' ', 00H, 'F', 00H, 'u', 00H
	DB	'z', 00H, 'z', 00H, 'y', 00H, 'R', 00H, 'u', 00H, 'l', 00H, 'e'
	DB	00H, ' ', 00H, '*', 00H, '>', 00H, ' ', 00H, '>', 00H, ' ', 00H
	DB	'>', 00H, ':', 00H, ':', 00H, '_', 00H, 'C', 00H, 'o', 00H, 'm'
	DB	00H, 'p', 00H, 'a', 00H, 't', 00H, 00H, 00H	; `string'
CONST	ENDS
;	COMDAT ??_C@_1DM@HINDPMBP@?$AAv?$AAe?$AAc?$AAt?$AAo?$AAr?$AA?5?$AAi?$AAt?$AAe?$AAr?$AAa?$AAt?$AAo?$AAr?$AAs?$AA?5?$AAi?$AAn?$AAc?$AAo?$AAm?$AAp?$AAa?$AAt?$AAi?$AAb?$AAl?$AAe?$AA?$AA@
CONST	SEGMENT
??_C@_1DM@HINDPMBP@?$AAv?$AAe?$AAc?$AAt?$AAo?$AAr?$AA?5?$AAi?$AAt?$AAe?$AAr?$AAa?$AAt?$AAo?$AAr?$AAs?$AA?5?$AAi?$AAn?$AAc?$AAo?$AAm?$AAp?$AAa?$AAt?$AAi?$AAb?$AAl?$AAe?$AA?$AA@ DB 'v'
	DB	00H, 'e', 00H, 'c', 00H, 't', 00H, 'o', 00H, 'r', 00H, ' ', 00H
	DB	'i', 00H, 't', 00H, 'e', 00H, 'r', 00H, 'a', 00H, 't', 00H, 'o'
	DB	00H, 'r', 00H, 's', 00H, ' ', 00H, 'i', 00H, 'n', 00H, 'c', 00H
	DB	'o', 00H, 'm', 00H, 'p', 00H, 'a', 00H, 't', 00H, 'i', 00H, 'b'
	DB	00H, 'l', 00H, 'e', 00H, 00H, 00H		; `string'
CONST	ENDS
;	COMDAT ??_C@_1BMO@CKAHCIII@?$AAs?$AAt?$AAd?$AA?3?$AA?3?$AA_?$AAT?$AAr?$AAe?$AAe?$AA_?$AAc?$AAo?$AAn?$AAs?$AAt?$AA_?$AAi?$AAt?$AAe?$AAr?$AAa?$AAt?$AAo?$AAr?$AA?$DM?$AAc?$AAl?$AAa?$AAs?$AAs?$AA?5@
CONST	SEGMENT
??_C@_1BMO@CKAHCIII@?$AAs?$AAt?$AAd?$AA?3?$AA?3?$AA_?$AAT?$AAr?$AAe?$AAe?$AA_?$AAc?$AAo?$AAn?$AAs?$AAt?$AA_?$AAi?$AAt?$AAe?$AAr?$AAa?$AAt?$AAo?$AAr?$AA?$DM?$AAc?$AAl?$AAa?$AAs?$AAs?$AA?5@ DB 's'
	DB	00H, 't', 00H, 'd', 00H, ':', 00H, ':', 00H, '_', 00H, 'T', 00H
	DB	'r', 00H, 'e', 00H, 'e', 00H, '_', 00H, 'c', 00H, 'o', 00H, 'n'
	DB	00H, 's', 00H, 't', 00H, '_', 00H, 'i', 00H, 't', 00H, 'e', 00H
	DB	'r', 00H, 'a', 00H, 't', 00H, 'o', 00H, 'r', 00H, '<', 00H, 'c'
	DB	00H, 'l', 00H, 'a', 00H, 's', 00H, 's', 00H, ' ', 00H, 's', 00H
	DB	't', 00H, 'd', 00H, ':', 00H, ':', 00H, '_', 00H, 'T', 00H, 'r'
	DB	00H, 'e', 00H, 'e', 00H, '_', 00H, 'v', 00H, 'a', 00H, 'l', 00H
	DB	'<', 00H, 's', 00H, 't', 00H, 'r', 00H, 'u', 00H, 'c', 00H, 't'
	DB	00H, ' ', 00H, 's', 00H, 't', 00H, 'd', 00H, ':', 00H, ':', 00H
	DB	'_', 00H, 'T', 00H, 'r', 00H, 'e', 00H, 'e', 00H, '_', 00H, 's'
	DB	00H, 'i', 00H, 'm', 00H, 'p', 00H, 'l', 00H, 'e', 00H, '_', 00H
	DB	't', 00H, 'y', 00H, 'p', 00H, 'e', 00H, 's', 00H, '<', 00H, 's'
	DB	00H, 't', 00H, 'r', 00H, 'u', 00H, 'c', 00H, 't', 00H, ' ', 00H
	DB	's', 00H, 't', 00H, 'd', 00H, ':', 00H, ':', 00H, 'p', 00H, 'a'
	DB	00H, 'i', 00H, 'r', 00H, '<', 00H, 'c', 00H, 'l', 00H, 'a', 00H
	DB	's', 00H, 's', 00H, ' ', 00H, 's', 00H, 't', 00H, 'd', 00H, ':'
	DB	00H, ':', 00H, 'b', 00H, 'a', 00H, 's', 00H, 'i', 00H, 'c', 00H
	DB	'_', 00H, 's', 00H, 't', 00H, 'r', 00H, 'i', 00H, 'n', 00H, 'g'
	DB	00H, '<', 00H, 'c', 00H, 'h', 00H, 'a', 00H, 'r', 00H, ',', 00H
	DB	's', 00H, 't', 00H, 'r', 00H, 'u', 00H, 'c', 00H, 't', 00H, ' '
	DB	00H, 's', 00H, 't', 00H, 'd', 00H, ':', 00H, ':', 00H, 'c', 00H
	DB	'h', 00H, 'a', 00H, 'r', 00H, '_', 00H, 't', 00H, 'r', 00H, 'a'
	DB	00H, 'i', 00H, 't', 00H, 's', 00H, '<', 00H, 'c', 00H, 'h', 00H
	DB	'a', 00H, 'r', 00H, '>', 00H, ',', 00H, 'c', 00H, 'l', 00H, 'a'
	DB	00H, 's', 00H, 's', 00H, ' ', 00H, 's', 00H, 't', 00H, 'd', 00H
	DB	':', 00H, ':', 00H, 'a', 00H, 'l', 00H, 'l', 00H, 'o', 00H, 'c'
	DB	00H, 'a', 00H, 't', 00H, 'o', 00H, 'r', 00H, '<', 00H, 'c', 00H
	DB	'h', 00H, 'a', 00H, 'r', 00H, '>', 00H, ' ', 00H, '>', 00H, ' '
	DB	00H, 'c', 00H, 'o', 00H, 'n', 00H, 's', 00H, 't', 00H, ' ', 00H
	DB	',', 00H, 'c', 00H, 'l', 00H, 'a', 00H, 's', 00H, 's', 00H, ' '
	DB	00H, 'F', 00H, 'u', 00H, 'z', 00H, 'z', 00H, 'y', 00H, 'V', 00H
	DB	'a', 00H, 'r', 00H, 'i', 00H, 'a', 00H, 'b', 00H, 'l', 00H, 'e'
	DB	00H, ' ', 00H, '*', 00H, '>', 00H, ' ', 00H, '>', 00H, ' ', 00H
	DB	'>', 00H, ' ', 00H, '>', 00H, ':', 00H, ':', 00H, 'o', 00H, 'p'
	DB	00H, 'e', 00H, 'r', 00H, 'a', 00H, 't', 00H, 'o', 00H, 'r', 00H
	DB	' ', 00H, '*', 00H, 00H, 00H			; `string'
CONST	ENDS
;	COMDAT ??_C@_1EI@FHEHNNNM@?$AAm?$AAa?$AAp?$AA?1?$AAs?$AAe?$AAt?$AA?5?$AAi?$AAt?$AAe?$AAr?$AAa?$AAt?$AAo?$AAr?$AA?5?$AAn?$AAo?$AAt?$AA?5?$AAd?$AAe?$AAr?$AAe?$AAf?$AAe?$AAr?$AAe?$AAn?$AAc?$AAa@
CONST	SEGMENT
??_C@_1EI@FHEHNNNM@?$AAm?$AAa?$AAp?$AA?1?$AAs?$AAe?$AAt?$AA?5?$AAi?$AAt?$AAe?$AAr?$AAa?$AAt?$AAo?$AAr?$AA?5?$AAn?$AAo?$AAt?$AA?5?$AAd?$AAe?$AAr?$AAe?$AAf?$AAe?$AAr?$AAe?$AAn?$AAc?$AAa@ DB 'm'
	DB	00H, 'a', 00H, 'p', 00H, '/', 00H, 's', 00H, 'e', 00H, 't', 00H
	DB	' ', 00H, 'i', 00H, 't', 00H, 'e', 00H, 'r', 00H, 'a', 00H, 't'
	DB	00H, 'o', 00H, 'r', 00H, ' ', 00H, 'n', 00H, 'o', 00H, 't', 00H
	DB	' ', 00H, 'd', 00H, 'e', 00H, 'r', 00H, 'e', 00H, 'f', 00H, 'e'
	DB	00H, 'r', 00H, 'e', 00H, 'n', 00H, 'c', 00H, 'a', 00H, 'b', 00H
	DB	'l', 00H, 'e', 00H, 00H, 00H			; `string'
CONST	ENDS
;	COMDAT ??_C@_0BD@OLBABOEK@vector?$DMT?$DO?5too?5long?$AA@
CONST	SEGMENT
??_C@_0BD@OLBABOEK@vector?$DMT?$DO?5too?5long?$AA@ DB 'vector<T> too long'
	DB	00H						; `string'
CONST	ENDS
;	COMDAT ??_C@_0BI@CFPLBAOH@invalid?5string?5position?$AA@
CONST	SEGMENT
??_C@_0BI@CFPLBAOH@invalid?5string?5position?$AA@ DB 'invalid string posi'
	DB	'tion', 00H					; `string'
CONST	ENDS
;	COMDAT ??_C@_0BA@JFNIOLAK@string?5too?5long?$AA@
CONST	SEGMENT
??_C@_0BA@JFNIOLAK@string?5too?5long?$AA@ DB 'string too long', 00H ; `string'
CONST	ENDS
;	COMDAT ??_C@_1OC@GNEJPKLD@?$AAs?$AAt?$AAd?$AA?3?$AA?3?$AA_?$AAV?$AAe?$AAc?$AAt?$AAo?$AAr?$AA_?$AAc?$AAo?$AAn?$AAs?$AAt?$AA_?$AAi?$AAt?$AAe?$AAr?$AAa?$AAt?$AAo?$AAr?$AA?$DM?$AAc?$AAl?$AAa?$AAs@
CONST	SEGMENT
??_C@_1OC@GNEJPKLD@?$AAs?$AAt?$AAd?$AA?3?$AA?3?$AA_?$AAV?$AAe?$AAc?$AAt?$AAo?$AAr?$AA_?$AAc?$AAo?$AAn?$AAs?$AAt?$AA_?$AAi?$AAt?$AAe?$AAr?$AAa?$AAt?$AAo?$AAr?$AA?$DM?$AAc?$AAl?$AAa?$AAs@ DB 's'
	DB	00H, 't', 00H, 'd', 00H, ':', 00H, ':', 00H, '_', 00H, 'V', 00H
	DB	'e', 00H, 'c', 00H, 't', 00H, 'o', 00H, 'r', 00H, '_', 00H, 'c'
	DB	00H, 'o', 00H, 'n', 00H, 's', 00H, 't', 00H, '_', 00H, 'i', 00H
	DB	't', 00H, 'e', 00H, 'r', 00H, 'a', 00H, 't', 00H, 'o', 00H, 'r'
	DB	00H, '<', 00H, 'c', 00H, 'l', 00H, 'a', 00H, 's', 00H, 's', 00H
	DB	' ', 00H, 's', 00H, 't', 00H, 'd', 00H, ':', 00H, ':', 00H, '_'
	DB	00H, 'V', 00H, 'e', 00H, 'c', 00H, 't', 00H, 'o', 00H, 'r', 00H
	DB	'_', 00H, 'v', 00H, 'a', 00H, 'l', 00H, '<', 00H, 's', 00H, 't'
	DB	00H, 'r', 00H, 'u', 00H, 'c', 00H, 't', 00H, ' ', 00H, 's', 00H
	DB	't', 00H, 'd', 00H, ':', 00H, ':', 00H, '_', 00H, 'S', 00H, 'i'
	DB	00H, 'm', 00H, 'p', 00H, 'l', 00H, 'e', 00H, '_', 00H, 't', 00H
	DB	'y', 00H, 'p', 00H, 'e', 00H, 's', 00H, '<', 00H, 'c', 00H, 'l'
	DB	00H, 'a', 00H, 's', 00H, 's', 00H, ' ', 00H, 'F', 00H, 'u', 00H
	DB	'z', 00H, 'z', 00H, 'y', 00H, 'R', 00H, 'u', 00H, 'l', 00H, 'e'
	DB	00H, ' ', 00H, '*', 00H, '>', 00H, ' ', 00H, '>', 00H, ' ', 00H
	DB	'>', 00H, ':', 00H, ':', 00H, 'o', 00H, 'p', 00H, 'e', 00H, 'r'
	DB	00H, 'a', 00H, 't', 00H, 'o', 00H, 'r', 00H, ' ', 00H, '+', 00H
	DB	'+', 00H, 00H, 00H				; `string'
CONST	ENDS
;	COMDAT ??_C@_1EE@EJDKCLKB@?$AAv?$AAe?$AAc?$AAt?$AAo?$AAr?$AA?5?$AAi?$AAt?$AAe?$AAr?$AAa?$AAt?$AAo?$AAr?$AA?5?$AAn?$AAo?$AAt?$AA?5?$AAi?$AAn?$AAc?$AAr?$AAe?$AAm?$AAe?$AAn?$AAt?$AAa?$AAb?$AAl@
CONST	SEGMENT
??_C@_1EE@EJDKCLKB@?$AAv?$AAe?$AAc?$AAt?$AAo?$AAr?$AA?5?$AAi?$AAt?$AAe?$AAr?$AAa?$AAt?$AAo?$AAr?$AA?5?$AAn?$AAo?$AAt?$AA?5?$AAi?$AAn?$AAc?$AAr?$AAe?$AAm?$AAe?$AAn?$AAt?$AAa?$AAb?$AAl@ DB 'v'
	DB	00H, 'e', 00H, 'c', 00H, 't', 00H, 'o', 00H, 'r', 00H, ' ', 00H
	DB	'i', 00H, 't', 00H, 'e', 00H, 'r', 00H, 'a', 00H, 't', 00H, 'o'
	DB	00H, 'r', 00H, ' ', 00H, 'n', 00H, 'o', 00H, 't', 00H, ' ', 00H
	DB	'i', 00H, 'n', 00H, 'c', 00H, 'r', 00H, 'e', 00H, 'm', 00H, 'e'
	DB	00H, 'n', 00H, 't', 00H, 'a', 00H, 'b', 00H, 'l', 00H, 'e', 00H
	DB	00H, 00H					; `string'
CONST	ENDS
;	COMDAT ??_C@_1OA@LEKPALIF@?$AAs?$AAt?$AAd?$AA?3?$AA?3?$AA_?$AAV?$AAe?$AAc?$AAt?$AAo?$AAr?$AA_?$AAc?$AAo?$AAn?$AAs?$AAt?$AA_?$AAi?$AAt?$AAe?$AAr?$AAa?$AAt?$AAo?$AAr?$AA?$DM?$AAc?$AAl?$AAa?$AAs@
CONST	SEGMENT
??_C@_1OA@LEKPALIF@?$AAs?$AAt?$AAd?$AA?3?$AA?3?$AA_?$AAV?$AAe?$AAc?$AAt?$AAo?$AAr?$AA_?$AAc?$AAo?$AAn?$AAs?$AAt?$AA_?$AAi?$AAt?$AAe?$AAr?$AAa?$AAt?$AAo?$AAr?$AA?$DM?$AAc?$AAl?$AAa?$AAs@ DB 's'
	DB	00H, 't', 00H, 'd', 00H, ':', 00H, ':', 00H, '_', 00H, 'V', 00H
	DB	'e', 00H, 'c', 00H, 't', 00H, 'o', 00H, 'r', 00H, '_', 00H, 'c'
	DB	00H, 'o', 00H, 'n', 00H, 's', 00H, 't', 00H, '_', 00H, 'i', 00H
	DB	't', 00H, 'e', 00H, 'r', 00H, 'a', 00H, 't', 00H, 'o', 00H, 'r'
	DB	00H, '<', 00H, 'c', 00H, 'l', 00H, 'a', 00H, 's', 00H, 's', 00H
	DB	' ', 00H, 's', 00H, 't', 00H, 'd', 00H, ':', 00H, ':', 00H, '_'
	DB	00H, 'V', 00H, 'e', 00H, 'c', 00H, 't', 00H, 'o', 00H, 'r', 00H
	DB	'_', 00H, 'v', 00H, 'a', 00H, 'l', 00H, '<', 00H, 's', 00H, 't'
	DB	00H, 'r', 00H, 'u', 00H, 'c', 00H, 't', 00H, ' ', 00H, 's', 00H
	DB	't', 00H, 'd', 00H, ':', 00H, ':', 00H, '_', 00H, 'S', 00H, 'i'
	DB	00H, 'm', 00H, 'p', 00H, 'l', 00H, 'e', 00H, '_', 00H, 't', 00H
	DB	'y', 00H, 'p', 00H, 'e', 00H, 's', 00H, '<', 00H, 'c', 00H, 'l'
	DB	00H, 'a', 00H, 's', 00H, 's', 00H, ' ', 00H, 'F', 00H, 'u', 00H
	DB	'z', 00H, 'z', 00H, 'y', 00H, 'R', 00H, 'u', 00H, 'l', 00H, 'e'
	DB	00H, ' ', 00H, '*', 00H, '>', 00H, ' ', 00H, '>', 00H, ' ', 00H
	DB	'>', 00H, ':', 00H, ':', 00H, 'o', 00H, 'p', 00H, 'e', 00H, 'r'
	DB	00H, 'a', 00H, 't', 00H, 'o', 00H, 'r', 00H, ' ', 00H, '*', 00H
	DB	00H, 00H					; `string'
CONST	ENDS
;	COMDAT ??_C@_1EG@FOHJJHAC@?$AAv?$AAe?$AAc?$AAt?$AAo?$AAr?$AA?5?$AAi?$AAt?$AAe?$AAr?$AAa?$AAt?$AAo?$AAr?$AA?5?$AAn?$AAo?$AAt?$AA?5?$AAd?$AAe?$AAr?$AAe?$AAf?$AAe?$AAr?$AAe?$AAn?$AAc?$AAa?$AAb@
CONST	SEGMENT
??_C@_1EG@FOHJJHAC@?$AAv?$AAe?$AAc?$AAt?$AAo?$AAr?$AA?5?$AAi?$AAt?$AAe?$AAr?$AAa?$AAt?$AAo?$AAr?$AA?5?$AAn?$AAo?$AAt?$AA?5?$AAd?$AAe?$AAr?$AAe?$AAf?$AAe?$AAr?$AAe?$AAn?$AAc?$AAa?$AAb@ DB 'v'
	DB	00H, 'e', 00H, 'c', 00H, 't', 00H, 'o', 00H, 'r', 00H, ' ', 00H
	DB	'i', 00H, 't', 00H, 'e', 00H, 'r', 00H, 'a', 00H, 't', 00H, 'o'
	DB	00H, 'r', 00H, ' ', 00H, 'n', 00H, 'o', 00H, 't', 00H, ' ', 00H
	DB	'd', 00H, 'e', 00H, 'r', 00H, 'e', 00H, 'f', 00H, 'e', 00H, 'r'
	DB	00H, 'e', 00H, 'n', 00H, 'c', 00H, 'a', 00H, 'b', 00H, 'l', 00H
	DB	'e', 00H, 00H, 00H				; `string'
CONST	ENDS
;	COMDAT ??_C@_1CG@JNLFBNGN@?$AA?$CC?$AAi?$AAn?$AAv?$AAa?$AAl?$AAi?$AAd?$AA?5?$AAa?$AAr?$AAg?$AAu?$AAm?$AAe?$AAn?$AAt?$AA?$CC?$AA?$AA@
CONST	SEGMENT
??_C@_1CG@JNLFBNGN@?$AA?$CC?$AAi?$AAn?$AAv?$AAa?$AAl?$AAi?$AAd?$AA?5?$AAa?$AAr?$AAg?$AAu?$AAm?$AAe?$AAn?$AAt?$AA?$CC?$AA?$AA@ DB '"'
	DB	00H, 'i', 00H, 'n', 00H, 'v', 00H, 'a', 00H, 'l', 00H, 'i', 00H
	DB	'd', 00H, ' ', 00H, 'a', 00H, 'r', 00H, 'g', 00H, 'u', 00H, 'm'
	DB	00H, 'e', 00H, 'n', 00H, 't', 00H, '"', 00H, 00H, 00H ; `string'
CONST	ENDS
;	COMDAT ??_C@_1BNA@NKHNICOB@?$AAs?$AAt?$AAd?$AA?3?$AA?3?$AA_?$AAT?$AAr?$AAe?$AAe?$AA_?$AAc?$AAo?$AAn?$AAs?$AAt?$AA_?$AAi?$AAt?$AAe?$AAr?$AAa?$AAt?$AAo?$AAr?$AA?$DM?$AAc?$AAl?$AAa?$AAs?$AAs?$AA?5@
CONST	SEGMENT
??_C@_1BNA@NKHNICOB@?$AAs?$AAt?$AAd?$AA?3?$AA?3?$AA_?$AAT?$AAr?$AAe?$AAe?$AA_?$AAc?$AAo?$AAn?$AAs?$AAt?$AA_?$AAi?$AAt?$AAe?$AAr?$AAa?$AAt?$AAo?$AAr?$AA?$DM?$AAc?$AAl?$AAa?$AAs?$AAs?$AA?5@ DB 's'
	DB	00H, 't', 00H, 'd', 00H, ':', 00H, ':', 00H, '_', 00H, 'T', 00H
	DB	'r', 00H, 'e', 00H, 'e', 00H, '_', 00H, 'c', 00H, 'o', 00H, 'n'
	DB	00H, 's', 00H, 't', 00H, '_', 00H, 'i', 00H, 't', 00H, 'e', 00H
	DB	'r', 00H, 'a', 00H, 't', 00H, 'o', 00H, 'r', 00H, '<', 00H, 'c'
	DB	00H, 'l', 00H, 'a', 00H, 's', 00H, 's', 00H, ' ', 00H, 's', 00H
	DB	't', 00H, 'd', 00H, ':', 00H, ':', 00H, '_', 00H, 'T', 00H, 'r'
	DB	00H, 'e', 00H, 'e', 00H, '_', 00H, 'v', 00H, 'a', 00H, 'l', 00H
	DB	'<', 00H, 's', 00H, 't', 00H, 'r', 00H, 'u', 00H, 'c', 00H, 't'
	DB	00H, ' ', 00H, 's', 00H, 't', 00H, 'd', 00H, ':', 00H, ':', 00H
	DB	'_', 00H, 'T', 00H, 'r', 00H, 'e', 00H, 'e', 00H, '_', 00H, 's'
	DB	00H, 'i', 00H, 'm', 00H, 'p', 00H, 'l', 00H, 'e', 00H, '_', 00H
	DB	't', 00H, 'y', 00H, 'p', 00H, 'e', 00H, 's', 00H, '<', 00H, 's'
	DB	00H, 't', 00H, 'r', 00H, 'u', 00H, 'c', 00H, 't', 00H, ' ', 00H
	DB	's', 00H, 't', 00H, 'd', 00H, ':', 00H, ':', 00H, 'p', 00H, 'a'
	DB	00H, 'i', 00H, 'r', 00H, '<', 00H, 'c', 00H, 'l', 00H, 'a', 00H
	DB	's', 00H, 's', 00H, ' ', 00H, 's', 00H, 't', 00H, 'd', 00H, ':'
	DB	00H, ':', 00H, 'b', 00H, 'a', 00H, 's', 00H, 'i', 00H, 'c', 00H
	DB	'_', 00H, 's', 00H, 't', 00H, 'r', 00H, 'i', 00H, 'n', 00H, 'g'
	DB	00H, '<', 00H, 'c', 00H, 'h', 00H, 'a', 00H, 'r', 00H, ',', 00H
	DB	's', 00H, 't', 00H, 'r', 00H, 'u', 00H, 'c', 00H, 't', 00H, ' '
	DB	00H, 's', 00H, 't', 00H, 'd', 00H, ':', 00H, ':', 00H, 'c', 00H
	DB	'h', 00H, 'a', 00H, 'r', 00H, '_', 00H, 't', 00H, 'r', 00H, 'a'
	DB	00H, 'i', 00H, 't', 00H, 's', 00H, '<', 00H, 'c', 00H, 'h', 00H
	DB	'a', 00H, 'r', 00H, '>', 00H, ',', 00H, 'c', 00H, 'l', 00H, 'a'
	DB	00H, 's', 00H, 's', 00H, ' ', 00H, 's', 00H, 't', 00H, 'd', 00H
	DB	':', 00H, ':', 00H, 'a', 00H, 'l', 00H, 'l', 00H, 'o', 00H, 'c'
	DB	00H, 'a', 00H, 't', 00H, 'o', 00H, 'r', 00H, '<', 00H, 'c', 00H
	DB	'h', 00H, 'a', 00H, 'r', 00H, '>', 00H, ' ', 00H, '>', 00H, ' '
	DB	00H, 'c', 00H, 'o', 00H, 'n', 00H, 's', 00H, 't', 00H, ' ', 00H
	DB	',', 00H, 'c', 00H, 'l', 00H, 'a', 00H, 's', 00H, 's', 00H, ' '
	DB	00H, 'F', 00H, 'u', 00H, 'z', 00H, 'z', 00H, 'y', 00H, 'V', 00H
	DB	'a', 00H, 'r', 00H, 'i', 00H, 'a', 00H, 'b', 00H, 'l', 00H, 'e'
	DB	00H, ' ', 00H, '*', 00H, '>', 00H, ' ', 00H, '>', 00H, ' ', 00H
	DB	'>', 00H, ' ', 00H, '>', 00H, ':', 00H, ':', 00H, 'o', 00H, 'p'
	DB	00H, 'e', 00H, 'r', 00H, 'a', 00H, 't', 00H, 'o', 00H, 'r', 00H
	DB	' ', 00H, '=', 00H, '=', 00H, 00H, 00H	; `string'
CONST	ENDS
;	COMDAT ??_C@_1FO@GJIHNDLM@?$AA?$CC?$AAS?$AAt?$AAa?$AAn?$AAd?$AAa?$AAr?$AAd?$AA?5?$AAC?$AA?$CL?$AA?$CL?$AA?5?$AAL?$AAi?$AAb?$AAr?$AAa?$AAr?$AAi?$AAe?$AAs?$AA?5?$AAI?$AAn?$AAv?$AAa?$AAl?$AAi?$AAd?$AA?5@
CONST	SEGMENT
??_C@_1FO@GJIHNDLM@?$AA?$CC?$AAS?$AAt?$AAa?$AAn?$AAd?$AAa?$AAr?$AAd?$AA?5?$AAC?$AA?$CL?$AA?$CL?$AA?5?$AAL?$AAi?$AAb?$AAr?$AAa?$AAr?$AAi?$AAe?$AAs?$AA?5?$AAI?$AAn?$AAv?$AAa?$AAl?$AAi?$AAd?$AA?5@ DB '"'
	DB	00H, 'S', 00H, 't', 00H, 'a', 00H, 'n', 00H, 'd', 00H, 'a', 00H
	DB	'r', 00H, 'd', 00H, ' ', 00H, 'C', 00H, '+', 00H, '+', 00H, ' '
	DB	00H, 'L', 00H, 'i', 00H, 'b', 00H, 'r', 00H, 'a', 00H, 'r', 00H
	DB	'i', 00H, 'e', 00H, 's', 00H, ' ', 00H, 'I', 00H, 'n', 00H, 'v'
	DB	00H, 'a', 00H, 'l', 00H, 'i', 00H, 'd', 00H, ' ', 00H, 'A', 00H
	DB	'r', 00H, 'g', 00H, 'u', 00H, 'm', 00H, 'e', 00H, 'n', 00H, 't'
	DB	00H, '"', 00H, ' ', 00H, '&', 00H, '&', 00H, ' ', 00H, '0', 00H
	DB	00H, 00H					; `string'
CONST	ENDS
;	COMDAT ??_C@_0CI@FNPHFCCM@Standard?5C?$CL?$CL?5Libraries?5Invalid?5A@
CONST	SEGMENT
??_C@_0CI@FNPHFCCM@Standard?5C?$CL?$CL?5Libraries?5Invalid?5A@ DB 'Standa'
	DB	'rd C++ Libraries Invalid Argument', 00H	; `string'
CONST	ENDS
;	COMDAT ??_C@_1DO@CFEEPGGJ@?$AAm?$AAa?$AAp?$AA?1?$AAs?$AAe?$AAt?$AA?5?$AAi?$AAt?$AAe?$AAr?$AAa?$AAt?$AAo?$AAr?$AAs?$AA?5?$AAi?$AAn?$AAc?$AAo?$AAm?$AAp?$AAa?$AAt?$AAi?$AAb?$AAl?$AAe?$AA?$AA@
CONST	SEGMENT
??_C@_1DO@CFEEPGGJ@?$AAm?$AAa?$AAp?$AA?1?$AAs?$AAe?$AAt?$AA?5?$AAi?$AAt?$AAe?$AAr?$AAa?$AAt?$AAo?$AAr?$AAs?$AA?5?$AAi?$AAn?$AAc?$AAo?$AAm?$AAp?$AAa?$AAt?$AAi?$AAb?$AAl?$AAe?$AA?$AA@ DB 'm'
	DB	00H, 'a', 00H, 'p', 00H, '/', 00H, 's', 00H, 'e', 00H, 't', 00H
	DB	' ', 00H, 'i', 00H, 't', 00H, 'e', 00H, 'r', 00H, 'a', 00H, 't'
	DB	00H, 'o', 00H, 'r', 00H, 's', 00H, ' ', 00H, 'i', 00H, 'n', 00H
	DB	'c', 00H, 'o', 00H, 'm', 00H, 'p', 00H, 'a', 00H, 't', 00H, 'i'
	DB	00H, 'b', 00H, 'l', 00H, 'e', 00H, 00H, 00H	; `string'
CONST	ENDS
;	COMDAT ??_C@_1BNA@HKIAGLCE@?$AAs?$AAt?$AAd?$AA?3?$AA?3?$AA_?$AAT?$AAr?$AAe?$AAe?$AA_?$AAc?$AAo?$AAn?$AAs?$AAt?$AA_?$AAi?$AAt?$AAe?$AAr?$AAa?$AAt?$AAo?$AAr?$AA?$DM?$AAc?$AAl?$AAa?$AAs?$AAs?$AA?5@
CONST	SEGMENT
??_C@_1BNA@HKIAGLCE@?$AAs?$AAt?$AAd?$AA?3?$AA?3?$AA_?$AAT?$AAr?$AAe?$AAe?$AA_?$AAc?$AAo?$AAn?$AAs?$AAt?$AA_?$AAi?$AAt?$AAe?$AAr?$AAa?$AAt?$AAo?$AAr?$AA?$DM?$AAc?$AAl?$AAa?$AAs?$AAs?$AA?5@ DB 's'
	DB	00H, 't', 00H, 'd', 00H, ':', 00H, ':', 00H, '_', 00H, 'T', 00H
	DB	'r', 00H, 'e', 00H, 'e', 00H, '_', 00H, 'c', 00H, 'o', 00H, 'n'
	DB	00H, 's', 00H, 't', 00H, '_', 00H, 'i', 00H, 't', 00H, 'e', 00H
	DB	'r', 00H, 'a', 00H, 't', 00H, 'o', 00H, 'r', 00H, '<', 00H, 'c'
	DB	00H, 'l', 00H, 'a', 00H, 's', 00H, 's', 00H, ' ', 00H, 's', 00H
	DB	't', 00H, 'd', 00H, ':', 00H, ':', 00H, '_', 00H, 'T', 00H, 'r'
	DB	00H, 'e', 00H, 'e', 00H, '_', 00H, 'v', 00H, 'a', 00H, 'l', 00H
	DB	'<', 00H, 's', 00H, 't', 00H, 'r', 00H, 'u', 00H, 'c', 00H, 't'
	DB	00H, ' ', 00H, 's', 00H, 't', 00H, 'd', 00H, ':', 00H, ':', 00H
	DB	'_', 00H, 'T', 00H, 'r', 00H, 'e', 00H, 'e', 00H, '_', 00H, 's'
	DB	00H, 'i', 00H, 'm', 00H, 'p', 00H, 'l', 00H, 'e', 00H, '_', 00H
	DB	't', 00H, 'y', 00H, 'p', 00H, 'e', 00H, 's', 00H, '<', 00H, 's'
	DB	00H, 't', 00H, 'r', 00H, 'u', 00H, 'c', 00H, 't', 00H, ' ', 00H
	DB	's', 00H, 't', 00H, 'd', 00H, ':', 00H, ':', 00H, 'p', 00H, 'a'
	DB	00H, 'i', 00H, 'r', 00H, '<', 00H, 'c', 00H, 'l', 00H, 'a', 00H
	DB	's', 00H, 's', 00H, ' ', 00H, 's', 00H, 't', 00H, 'd', 00H, ':'
	DB	00H, ':', 00H, 'b', 00H, 'a', 00H, 's', 00H, 'i', 00H, 'c', 00H
	DB	'_', 00H, 's', 00H, 't', 00H, 'r', 00H, 'i', 00H, 'n', 00H, 'g'
	DB	00H, '<', 00H, 'c', 00H, 'h', 00H, 'a', 00H, 'r', 00H, ',', 00H
	DB	's', 00H, 't', 00H, 'r', 00H, 'u', 00H, 'c', 00H, 't', 00H, ' '
	DB	00H, 's', 00H, 't', 00H, 'd', 00H, ':', 00H, ':', 00H, 'c', 00H
	DB	'h', 00H, 'a', 00H, 'r', 00H, '_', 00H, 't', 00H, 'r', 00H, 'a'
	DB	00H, 'i', 00H, 't', 00H, 's', 00H, '<', 00H, 'c', 00H, 'h', 00H
	DB	'a', 00H, 'r', 00H, '>', 00H, ',', 00H, 'c', 00H, 'l', 00H, 'a'
	DB	00H, 's', 00H, 's', 00H, ' ', 00H, 's', 00H, 't', 00H, 'd', 00H
	DB	':', 00H, ':', 00H, 'a', 00H, 'l', 00H, 'l', 00H, 'o', 00H, 'c'
	DB	00H, 'a', 00H, 't', 00H, 'o', 00H, 'r', 00H, '<', 00H, 'c', 00H
	DB	'h', 00H, 'a', 00H, 'r', 00H, '>', 00H, ' ', 00H, '>', 00H, ' '
	DB	00H, 'c', 00H, 'o', 00H, 'n', 00H, 's', 00H, 't', 00H, ' ', 00H
	DB	',', 00H, 'c', 00H, 'l', 00H, 'a', 00H, 's', 00H, 's', 00H, ' '
	DB	00H, 'F', 00H, 'u', 00H, 'z', 00H, 'z', 00H, 'y', 00H, 'V', 00H
	DB	'a', 00H, 'r', 00H, 'i', 00H, 'a', 00H, 'b', 00H, 'l', 00H, 'e'
	DB	00H, ' ', 00H, '*', 00H, '>', 00H, ' ', 00H, '>', 00H, ' ', 00H
	DB	'>', 00H, ' ', 00H, '>', 00H, ':', 00H, ':', 00H, 'o', 00H, 'p'
	DB	00H, 'e', 00H, 'r', 00H, 'a', 00H, 't', 00H, 'o', 00H, 'r', 00H
	DB	' ', 00H, '+', 00H, '+', 00H, 00H, 00H	; `string'
CONST	ENDS
;	COMDAT ??_C@_1EG@EHJFMBHJ@?$AAm?$AAa?$AAp?$AA?1?$AAs?$AAe?$AAt?$AA?5?$AAi?$AAt?$AAe?$AAr?$AAa?$AAt?$AAo?$AAr?$AA?5?$AAn?$AAo?$AAt?$AA?5?$AAi?$AAn?$AAc?$AAr?$AAe?$AAm?$AAe?$AAn?$AAt?$AAa?$AAb@
CONST	SEGMENT
??_C@_1EG@EHJFMBHJ@?$AAm?$AAa?$AAp?$AA?1?$AAs?$AAe?$AAt?$AA?5?$AAi?$AAt?$AAe?$AAr?$AAa?$AAt?$AAo?$AAr?$AA?5?$AAn?$AAo?$AAt?$AA?5?$AAi?$AAn?$AAc?$AAr?$AAe?$AAm?$AAe?$AAn?$AAt?$AAa?$AAb@ DB 'm'
	DB	00H, 'a', 00H, 'p', 00H, '/', 00H, 's', 00H, 'e', 00H, 't', 00H
	DB	' ', 00H, 'i', 00H, 't', 00H, 'e', 00H, 'r', 00H, 'a', 00H, 't'
	DB	00H, 'o', 00H, 'r', 00H, ' ', 00H, 'n', 00H, 'o', 00H, 't', 00H
	DB	' ', 00H, 'i', 00H, 'n', 00H, 'c', 00H, 'r', 00H, 'e', 00H, 'm'
	DB	00H, 'e', 00H, 'n', 00H, 't', 00H, 'a', 00H, 'b', 00H, 'l', 00H
	DB	'e', 00H, 00H, 00H				; `string'
CONST	ENDS
;	COMDAT ??_C@_1IK@GEHGEPIJ@?$AAC?$AA?3?$AA?2?$AAP?$AAr?$AAo?$AAg?$AAr?$AAa?$AAm?$AA?5?$AAF?$AAi?$AAl?$AAe?$AAs?$AA?5?$AA?$CI?$AAx?$AA8?$AA6?$AA?$CJ?$AA?2?$AAM?$AAi?$AAc?$AAr?$AAo?$AAs?$AAo?$AAf?$AAt@
CONST	SEGMENT
??_C@_1IK@GEHGEPIJ@?$AAC?$AA?3?$AA?2?$AAP?$AAr?$AAo?$AAg?$AAr?$AAa?$AAm?$AA?5?$AAF?$AAi?$AAl?$AAe?$AAs?$AA?5?$AA?$CI?$AAx?$AA8?$AA6?$AA?$CJ?$AA?2?$AAM?$AAi?$AAc?$AAr?$AAo?$AAs?$AAo?$AAf?$AAt@ DB 'C'
	DB	00H, ':', 00H, '\', 00H, 'P', 00H, 'r', 00H, 'o', 00H, 'g', 00H
	DB	'r', 00H, 'a', 00H, 'm', 00H, ' ', 00H, 'F', 00H, 'i', 00H, 'l'
	DB	00H, 'e', 00H, 's', 00H, ' ', 00H, '(', 00H, 'x', 00H, '8', 00H
	DB	'6', 00H, ')', 00H, '\', 00H, 'M', 00H, 'i', 00H, 'c', 00H, 'r'
	DB	00H, 'o', 00H, 's', 00H, 'o', 00H, 'f', 00H, 't', 00H, ' ', 00H
	DB	'V', 00H, 'i', 00H, 's', 00H, 'u', 00H, 'a', 00H, 'l', 00H, ' '
	DB	00H, 'S', 00H, 't', 00H, 'u', 00H, 'd', 00H, 'i', 00H, 'o', 00H
	DB	' ', 00H, '1', 00H, '2', 00H, '.', 00H, '0', 00H, '\', 00H, 'V'
	DB	00H, 'C', 00H, '\', 00H, 'i', 00H, 'n', 00H, 'c', 00H, 'l', 00H
	DB	'u', 00H, 'd', 00H, 'e', 00H, '\', 00H, 'x', 00H, 't', 00H, 'r'
	DB	00H, 'e', 00H, 'e', 00H, 00H, 00H		; `string'
CONST	ENDS
;	COMDAT ??_C@_1BO@MEPPHOO@?$AA?$CC?$AAo?$AAu?$AAt?$AA?5?$AAo?$AAf?$AA?5?$AAr?$AAa?$AAn?$AAg?$AAe?$AA?$CC?$AA?$AA@
CONST	SEGMENT
??_C@_1BO@MEPPHOO@?$AA?$CC?$AAo?$AAu?$AAt?$AA?5?$AAo?$AAf?$AA?5?$AAr?$AAa?$AAn?$AAg?$AAe?$AA?$CC?$AA?$AA@ DB '"'
	DB	00H, 'o', 00H, 'u', 00H, 't', 00H, ' ', 00H, 'o', 00H, 'f', 00H
	DB	' ', 00H, 'r', 00H, 'a', 00H, 'n', 00H, 'g', 00H, 'e', 00H, '"'
	DB	00H, 00H, 00H				; `string'
CONST	ENDS
;	COMDAT ??_C@_15GANGMFKL@?$AA?$CF?$AAs?$AA?$AA@
CONST	SEGMENT
??_C@_15GANGMFKL@?$AA?$CF?$AAs?$AA?$AA@ DB '%', 00H, 's', 00H, 00H, 00H ; `string'
CONST	ENDS
;	COMDAT ??_C@_1FG@IBPIFFN@?$AA?$CC?$AAS?$AAt?$AAa?$AAn?$AAd?$AAa?$AAr?$AAd?$AA?5?$AAC?$AA?$CL?$AA?$CL?$AA?5?$AAL?$AAi?$AAb?$AAr?$AAa?$AAr?$AAi?$AAe?$AAs?$AA?5?$AAO?$AAu?$AAt?$AA?5?$AAo?$AAf?$AA?5?$AAR@
CONST	SEGMENT
??_C@_1FG@IBPIFFN@?$AA?$CC?$AAS?$AAt?$AAa?$AAn?$AAd?$AAa?$AAr?$AAd?$AA?5?$AAC?$AA?$CL?$AA?$CL?$AA?5?$AAL?$AAi?$AAb?$AAr?$AAa?$AAr?$AAi?$AAe?$AAs?$AA?5?$AAO?$AAu?$AAt?$AA?5?$AAo?$AAf?$AA?5?$AAR@ DB '"'
	DB	00H, 'S', 00H, 't', 00H, 'a', 00H, 'n', 00H, 'd', 00H, 'a', 00H
	DB	'r', 00H, 'd', 00H, ' ', 00H, 'C', 00H, '+', 00H, '+', 00H, ' '
	DB	00H, 'L', 00H, 'i', 00H, 'b', 00H, 'r', 00H, 'a', 00H, 'r', 00H
	DB	'i', 00H, 'e', 00H, 's', 00H, ' ', 00H, 'O', 00H, 'u', 00H, 't'
	DB	00H, ' ', 00H, 'o', 00H, 'f', 00H, ' ', 00H, 'R', 00H, 'a', 00H
	DB	'n', 00H, 'g', 00H, 'e', 00H, '"', 00H, ' ', 00H, '&', 00H, '&'
	DB	00H, ' ', 00H, '0', 00H, 00H, 00H		; `string'
CONST	ENDS
;	COMDAT ??_C@_0CE@OFMIGAMM@Standard?5C?$CL?$CL?5Libraries?5Out?5of?5Ra@
CONST	SEGMENT
??_C@_0CE@OFMIGAMM@Standard?5C?$CL?$CL?5Libraries?5Out?5of?5Ra@ DB 'Stand'
	DB	'ard C++ Libraries Out of Range', 00H	; `string'
CONST	ENDS
;	COMDAT ??_C@_1IM@EINEHPHE@?$AAC?$AA?3?$AA?2?$AAP?$AAr?$AAo?$AAg?$AAr?$AAa?$AAm?$AA?5?$AAF?$AAi?$AAl?$AAe?$AAs?$AA?5?$AA?$CI?$AAx?$AA8?$AA6?$AA?$CJ?$AA?2?$AAM?$AAi?$AAc?$AAr?$AAo?$AAs?$AAo?$AAf?$AAt@
CONST	SEGMENT
??_C@_1IM@EINEHPHE@?$AAC?$AA?3?$AA?2?$AAP?$AAr?$AAo?$AAg?$AAr?$AAa?$AAm?$AA?5?$AAF?$AAi?$AAl?$AAe?$AAs?$AA?5?$AA?$CI?$AAx?$AA8?$AA6?$AA?$CJ?$AA?2?$AAM?$AAi?$AAc?$AAr?$AAo?$AAs?$AAo?$AAf?$AAt@ DB 'C'
	DB	00H, ':', 00H, '\', 00H, 'P', 00H, 'r', 00H, 'o', 00H, 'g', 00H
	DB	'r', 00H, 'a', 00H, 'm', 00H, ' ', 00H, 'F', 00H, 'i', 00H, 'l'
	DB	00H, 'e', 00H, 's', 00H, ' ', 00H, '(', 00H, 'x', 00H, '8', 00H
	DB	'6', 00H, ')', 00H, '\', 00H, 'M', 00H, 'i', 00H, 'c', 00H, 'r'
	DB	00H, 'o', 00H, 's', 00H, 'o', 00H, 'f', 00H, 't', 00H, ' ', 00H
	DB	'V', 00H, 'i', 00H, 's', 00H, 'u', 00H, 'a', 00H, 'l', 00H, ' '
	DB	00H, 'S', 00H, 't', 00H, 'u', 00H, 'd', 00H, 'i', 00H, 'o', 00H
	DB	' ', 00H, '1', 00H, '2', 00H, '.', 00H, '0', 00H, '\', 00H, 'V'
	DB	00H, 'C', 00H, '\', 00H, 'i', 00H, 'n', 00H, 'c', 00H, 'l', 00H
	DB	'u', 00H, 'd', 00H, 'e', 00H, '\', 00H, 'v', 00H, 'e', 00H, 'c'
	DB	00H, 't', 00H, 'o', 00H, 'r', 00H, 00H, 00H	; `string'
CONST	ENDS
;	COMDAT ??_C@_1IO@IGJFOIAG@?$AAC?$AA?3?$AA?2?$AAP?$AAr?$AAo?$AAg?$AAr?$AAa?$AAm?$AA?5?$AAF?$AAi?$AAl?$AAe?$AAs?$AA?5?$AA?$CI?$AAx?$AA8?$AA6?$AA?$CJ?$AA?2?$AAM?$AAi?$AAc?$AAr?$AAo?$AAs?$AAo?$AAf?$AAt@
CONST	SEGMENT
??_C@_1IO@IGJFOIAG@?$AAC?$AA?3?$AA?2?$AAP?$AAr?$AAo?$AAg?$AAr?$AAa?$AAm?$AA?5?$AAF?$AAi?$AAl?$AAe?$AAs?$AA?5?$AA?$CI?$AAx?$AA8?$AA6?$AA?$CJ?$AA?2?$AAM?$AAi?$AAc?$AAr?$AAo?$AAs?$AAo?$AAf?$AAt@ DB 'C'
	DB	00H, ':', 00H, '\', 00H, 'P', 00H, 'r', 00H, 'o', 00H, 'g', 00H
	DB	'r', 00H, 'a', 00H, 'm', 00H, ' ', 00H, 'F', 00H, 'i', 00H, 'l'
	DB	00H, 'e', 00H, 's', 00H, ' ', 00H, '(', 00H, 'x', 00H, '8', 00H
	DB	'6', 00H, ')', 00H, '\', 00H, 'M', 00H, 'i', 00H, 'c', 00H, 'r'
	DB	00H, 'o', 00H, 's', 00H, 'o', 00H, 'f', 00H, 't', 00H, ' ', 00H
	DB	'V', 00H, 'i', 00H, 's', 00H, 'u', 00H, 'a', 00H, 'l', 00H, ' '
	DB	00H, 'S', 00H, 't', 00H, 'u', 00H, 'd', 00H, 'i', 00H, 'o', 00H
	DB	' ', 00H, '1', 00H, '2', 00H, '.', 00H, '0', 00H, '\', 00H, 'V'
	DB	00H, 'C', 00H, '\', 00H, 'i', 00H, 'n', 00H, 'c', 00H, 'l', 00H
	DB	'u', 00H, 'd', 00H, 'e', 00H, '\', 00H, 'o', 00H, 's', 00H, 't'
	DB	00H, 'r', 00H, 'e', 00H, 'a', 00H, 'm', 00H, 00H, 00H ; `string'
CONST	ENDS
;	COMDAT ??_C@_1IO@FEAPGJBD@?$AAC?$AA?3?$AA?2?$AAP?$AAr?$AAo?$AAg?$AAr?$AAa?$AAm?$AA?5?$AAF?$AAi?$AAl?$AAe?$AAs?$AA?5?$AA?$CI?$AAx?$AA8?$AA6?$AA?$CJ?$AA?2?$AAM?$AAi?$AAc?$AAr?$AAo?$AAs?$AAo?$AAf?$AAt@
CONST	SEGMENT
??_C@_1IO@FEAPGJBD@?$AAC?$AA?3?$AA?2?$AAP?$AAr?$AAo?$AAg?$AAr?$AAa?$AAm?$AA?5?$AAF?$AAi?$AAl?$AAe?$AAs?$AA?5?$AA?$CI?$AAx?$AA8?$AA6?$AA?$CJ?$AA?2?$AAM?$AAi?$AAc?$AAr?$AAo?$AAs?$AAo?$AAf?$AAt@ DB 'C'
	DB	00H, ':', 00H, '\', 00H, 'P', 00H, 'r', 00H, 'o', 00H, 'g', 00H
	DB	'r', 00H, 'a', 00H, 'm', 00H, ' ', 00H, 'F', 00H, 'i', 00H, 'l'
	DB	00H, 'e', 00H, 's', 00H, ' ', 00H, '(', 00H, 'x', 00H, '8', 00H
	DB	'6', 00H, ')', 00H, '\', 00H, 'M', 00H, 'i', 00H, 'c', 00H, 'r'
	DB	00H, 'o', 00H, 's', 00H, 'o', 00H, 'f', 00H, 't', 00H, ' ', 00H
	DB	'V', 00H, 'i', 00H, 's', 00H, 'u', 00H, 'a', 00H, 'l', 00H, ' '
	DB	00H, 'S', 00H, 't', 00H, 'u', 00H, 'd', 00H, 'i', 00H, 'o', 00H
	DB	' ', 00H, '1', 00H, '2', 00H, '.', 00H, '0', 00H, '\', 00H, 'V'
	DB	00H, 'C', 00H, '\', 00H, 'i', 00H, 'n', 00H, 'c', 00H, 'l', 00H
	DB	'u', 00H, 'd', 00H, 'e', 00H, '\', 00H, 'x', 00H, 's', 00H, 't'
	DB	00H, 'r', 00H, 'i', 00H, 'n', 00H, 'g', 00H, 00H, 00H ; `string'
CONST	ENDS
;	COMDAT ??_C@_0BF@OOHOMBOF@ios_base?3?3eofbit?5set?$AA@
CONST	SEGMENT
??_C@_0BF@OOHOMBOF@ios_base?3?3eofbit?5set?$AA@ DB 'ios_base::eofbit set', 00H ; `string'
CONST	ENDS
;	COMDAT ??_C@_0BG@FMKFHCIL@ios_base?3?3failbit?5set?$AA@
CONST	SEGMENT
??_C@_0BG@FMKFHCIL@ios_base?3?3failbit?5set?$AA@ DB 'ios_base::failbit se'
	DB	't', 00H					; `string'
CONST	ENDS
;	COMDAT ??_C@_0BF@PHHKMMFD@ios_base?3?3badbit?5set?$AA@
CONST	SEGMENT
??_C@_0BF@PHHKMMFD@ios_base?3?3badbit?5set?$AA@ DB 'ios_base::badbit set', 00H ; `string'
CONST	ENDS
;	COMDAT __CT??_R0?AV_System_error@std@@@8??0_System_error@std@@QAE@ABV01@@Z20
xdata$x	SEGMENT
__CT??_R0?AV_System_error@std@@@8??0_System_error@std@@QAE@ABV01@@Z20 DD 00H
	DD	FLAT:??_R0?AV_System_error@std@@@8
	DD	00H
	DD	0ffffffffH
	ORG $+4
	DD	014H
	DD	FLAT:??0_System_error@std@@QAE@ABV01@@Z
xdata$x	ENDS
;	COMDAT ??_R0?AV_System_error@std@@@8
data$r	SEGMENT
??_R0?AV_System_error@std@@@8 DD FLAT:??_7type_info@@6B@ ; std::_System_error `RTTI Type Descriptor'
	DD	00H
	DB	'.?AV_System_error@std@@', 00H
data$r	ENDS
;	COMDAT __CT??_R0?AVsystem_error@std@@@8??0system_error@std@@QAE@ABV01@@Z20
xdata$x	SEGMENT
__CT??_R0?AVsystem_error@std@@@8??0system_error@std@@QAE@ABV01@@Z20 DD 00H
	DD	FLAT:??_R0?AVsystem_error@std@@@8
	DD	00H
	DD	0ffffffffH
	ORG $+4
	DD	014H
	DD	FLAT:??0system_error@std@@QAE@ABV01@@Z
xdata$x	ENDS
;	COMDAT ??_R0?AVsystem_error@std@@@8
data$r	SEGMENT
??_R0?AVsystem_error@std@@@8 DD FLAT:??_7type_info@@6B@	; std::system_error `RTTI Type Descriptor'
	DD	00H
	DB	'.?AVsystem_error@std@@', 00H
data$r	ENDS
;	COMDAT __CT??_R0?AVfailure@ios_base@std@@@8??0failure@ios_base@std@@QAE@ABV012@@Z20
xdata$x	SEGMENT
__CT??_R0?AVfailure@ios_base@std@@@8??0failure@ios_base@std@@QAE@ABV012@@Z20 DD 00H
	DD	FLAT:??_R0?AVfailure@ios_base@std@@@8
	DD	00H
	DD	0ffffffffH
	ORG $+4
	DD	014H
	DD	FLAT:??0failure@ios_base@std@@QAE@ABV012@@Z
xdata$x	ENDS
;	COMDAT ??_R0?AVfailure@ios_base@std@@@8
data$r	SEGMENT
??_R0?AVfailure@ios_base@std@@@8 DD FLAT:??_7type_info@@6B@ ; std::ios_base::failure `RTTI Type Descriptor'
	DD	00H
	DB	'.?AVfailure@ios_base@std@@', 00H
data$r	ENDS
;	COMDAT __CTA5?AVfailure@ios_base@std@@
xdata$x	SEGMENT
__CTA5?AVfailure@ios_base@std@@ DD 05H
	DD	FLAT:__CT??_R0?AVfailure@ios_base@std@@@8??0failure@ios_base@std@@QAE@ABV012@@Z20
	DD	FLAT:__CT??_R0?AVsystem_error@std@@@8??0system_error@std@@QAE@ABV01@@Z20
	DD	FLAT:__CT??_R0?AV_System_error@std@@@8??0_System_error@std@@QAE@ABV01@@Z20
	DD	FLAT:__CT??_R0?AVruntime_error@std@@@8??0runtime_error@std@@QAE@ABV01@@Z12
	DD	FLAT:__CT??_R0?AVexception@std@@@8??0exception@std@@QAE@ABV01@@Z12
xdata$x	ENDS
;	COMDAT __TI5?AVfailure@ios_base@std@@
xdata$x	SEGMENT
__TI5?AVfailure@ios_base@std@@ DD 00H
	DD	FLAT:??1failure@ios_base@std@@UAE@XZ
	DD	00H
	DD	FLAT:__CTA5?AVfailure@ios_base@std@@
xdata$x	ENDS
;	COMDAT ??_7failure@ios_base@std@@6B@
CONST	SEGMENT
??_7failure@ios_base@std@@6B@ DD FLAT:??_R4failure@ios_base@std@@6B@ ; std::ios_base::failure::`vftable'
	DD	FLAT:??_Efailure@ios_base@std@@UAEPAXI@Z
	DD	FLAT:?what@exception@std@@UBEPBDXZ
CONST	ENDS
;	COMDAT ??_C@_06FHFOAHML@system?$AA@
CONST	SEGMENT
??_C@_06FHFOAHML@system?$AA@ DB 'system', 00H		; `string'
CONST	ENDS
;	COMDAT ??_7_System_error_category@std@@6B@
CONST	SEGMENT
??_7_System_error_category@std@@6B@ DD FLAT:??_R4_System_error_category@std@@6B@ ; std::_System_error_category::`vftable'
	DD	FLAT:??_E_System_error_category@std@@UAEPAXI@Z
	DD	FLAT:?name@_System_error_category@std@@UBEPBDXZ
	DD	FLAT:?message@_System_error_category@std@@UBE?AV?$basic_string@DU?$char_traits@D@std@@V?$allocator@D@2@@2@H@Z
	DD	FLAT:?default_error_condition@_System_error_category@std@@UBE?AVerror_condition@2@H@Z
	DD	FLAT:?equivalent@error_category@std@@UBE_NABVerror_code@2@H@Z
	DD	FLAT:?equivalent@error_category@std@@UBE_NHABVerror_condition@2@@Z
CONST	ENDS
;	COMDAT ??_C@_0BG@PADBLCHM@iostream?5stream?5error?$AA@
CONST	SEGMENT
??_C@_0BG@PADBLCHM@iostream?5stream?5error?$AA@ DB 'iostream stream error'
	DB	00H						; `string'
CONST	ENDS
;	COMDAT ??_C@_08LLGCOLLL@iostream?$AA@
CONST	SEGMENT
??_C@_08LLGCOLLL@iostream?$AA@ DB 'iostream', 00H	; `string'
CONST	ENDS
;	COMDAT ??_7_Iostream_error_category@std@@6B@
CONST	SEGMENT
??_7_Iostream_error_category@std@@6B@ DD FLAT:??_R4_Iostream_error_category@std@@6B@ ; std::_Iostream_error_category::`vftable'
	DD	FLAT:??_E_Iostream_error_category@std@@UAEPAXI@Z
	DD	FLAT:?name@_Iostream_error_category@std@@UBEPBDXZ
	DD	FLAT:?message@_Iostream_error_category@std@@UBE?AV?$basic_string@DU?$char_traits@D@std@@V?$allocator@D@2@@2@H@Z
	DD	FLAT:?default_error_condition@error_category@std@@UBE?AVerror_condition@2@H@Z
	DD	FLAT:?equivalent@error_category@std@@UBE_NABVerror_code@2@H@Z
	DD	FLAT:?equivalent@error_category@std@@UBE_NHABVerror_condition@2@@Z
CONST	ENDS
;	COMDAT ??_C@_0O@BFJCFAAK@unknown?5error?$AA@
CONST	SEGMENT
??_C@_0O@BFJCFAAK@unknown?5error?$AA@ DB 'unknown error', 00H ; `string'
CONST	ENDS
;	COMDAT ??_C@_07DCLBNMLN@generic?$AA@
CONST	SEGMENT
??_C@_07DCLBNMLN@generic?$AA@ DB 'generic', 00H		; `string'
CONST	ENDS
;	COMDAT ??_7_Generic_error_category@std@@6B@
CONST	SEGMENT
??_7_Generic_error_category@std@@6B@ DD FLAT:??_R4_Generic_error_category@std@@6B@ ; std::_Generic_error_category::`vftable'
	DD	FLAT:??_E_Generic_error_category@std@@UAEPAXI@Z
	DD	FLAT:?name@_Generic_error_category@std@@UBEPBDXZ
	DD	FLAT:?message@_Generic_error_category@std@@UBE?AV?$basic_string@DU?$char_traits@D@std@@V?$allocator@D@2@@2@H@Z
	DD	FLAT:?default_error_condition@error_category@std@@UBE?AVerror_condition@2@H@Z
	DD	FLAT:?equivalent@error_category@std@@UBE_NABVerror_code@2@H@Z
	DD	FLAT:?equivalent@error_category@std@@UBE_NHABVerror_condition@2@@Z
CONST	ENDS
;	COMDAT ??_7system_error@std@@6B@
CONST	SEGMENT
??_7system_error@std@@6B@ DD FLAT:??_R4system_error@std@@6B@ ; std::system_error::`vftable'
	DD	FLAT:??_Esystem_error@std@@UAEPAXI@Z
	DD	FLAT:?what@exception@std@@UBEPBDXZ
CONST	ENDS
;	COMDAT ??_C@_02LMMGGCAJ@?3?5?$AA@
CONST	SEGMENT
??_C@_02LMMGGCAJ@?3?5?$AA@ DB ': ', 00H			; `string'
CONST	ENDS
;	COMDAT ??_7_System_error@std@@6B@
CONST	SEGMENT
??_7_System_error@std@@6B@ DD FLAT:??_R4_System_error@std@@6B@ ; std::_System_error::`vftable'
	DD	FLAT:??_E_System_error@std@@UAEPAXI@Z
	DD	FLAT:?what@exception@std@@UBEPBDXZ
CONST	ENDS
;	COMDAT ??_7error_category@std@@6B@
CONST	SEGMENT
??_7error_category@std@@6B@ DD FLAT:??_R4error_category@std@@6B@ ; std::error_category::`vftable'
	DD	FLAT:??_Eerror_category@std@@UAEPAXI@Z
	DD	FLAT:__purecall
	DD	FLAT:__purecall
	DD	FLAT:?default_error_condition@error_category@std@@UBE?AVerror_condition@2@H@Z
	DD	FLAT:?equivalent@error_category@std@@UBE_NABVerror_code@2@H@Z
	DD	FLAT:?equivalent@error_category@std@@UBE_NHABVerror_condition@2@@Z
CONST	ENDS
;	COMDAT ??_7?$ctype@D@std@@6B@
CONST	SEGMENT
??_7?$ctype@D@std@@6B@ DD FLAT:??_R4?$ctype@D@std@@6B@	; std::ctype<char>::`vftable'
	DD	FLAT:??_E?$ctype@D@std@@MAEPAXI@Z
	DD	FLAT:?_Incref@facet@locale@std@@UAEXXZ
	DD	FLAT:?_Decref@facet@locale@std@@UAEPAV_Facet_base@3@XZ
	DD	FLAT:?do_tolower@?$ctype@D@std@@MBEPBDPADPBD@Z
	DD	FLAT:?do_tolower@?$ctype@D@std@@MBEDD@Z
	DD	FLAT:?do_toupper@?$ctype@D@std@@MBEPBDPADPBD@Z
	DD	FLAT:?do_toupper@?$ctype@D@std@@MBEDD@Z
	DD	FLAT:?do_widen@?$ctype@D@std@@MBEPBDPBD0PAD@Z
	DD	FLAT:?do_widen@?$ctype@D@std@@MBEDD@Z
	DD	FLAT:?do_narrow@?$ctype@D@std@@MBEPBDPBD0DPAD@Z
	DD	FLAT:?do_narrow@?$ctype@D@std@@MBEDDD@Z
CONST	ENDS
;	COMDAT ??_7ctype_base@std@@6B@
CONST	SEGMENT
??_7ctype_base@std@@6B@ DD FLAT:??_R4ctype_base@std@@6B@ ; std::ctype_base::`vftable'
	DD	FLAT:??_Ectype_base@std@@UAEPAXI@Z
	DD	FLAT:?_Incref@facet@locale@std@@UAEXXZ
	DD	FLAT:?_Decref@facet@locale@std@@UAEPAV_Facet_base@3@XZ
CONST	ENDS
;	COMDAT ??_C@_1IO@OFOLDAJI@?$AAC?$AA?3?$AA?2?$AAP?$AAr?$AAo?$AAg?$AAr?$AAa?$AAm?$AA?5?$AAF?$AAi?$AAl?$AAe?$AAs?$AA?5?$AA?$CI?$AAx?$AA8?$AA6?$AA?$CJ?$AA?2?$AAM?$AAi?$AAc?$AAr?$AAo?$AAs?$AAo?$AAf?$AAt@
CONST	SEGMENT
??_C@_1IO@OFOLDAJI@?$AAC?$AA?3?$AA?2?$AAP?$AAr?$AAo?$AAg?$AAr?$AAa?$AAm?$AA?5?$AAF?$AAi?$AAl?$AAe?$AAs?$AA?5?$AA?$CI?$AAx?$AA8?$AA6?$AA?$CJ?$AA?2?$AAM?$AAi?$AAc?$AAr?$AAo?$AAs?$AAo?$AAf?$AAt@ DB 'C'
	DB	00H, ':', 00H, '\', 00H, 'P', 00H, 'r', 00H, 'o', 00H, 'g', 00H
	DB	'r', 00H, 'a', 00H, 'm', 00H, ' ', 00H, 'F', 00H, 'i', 00H, 'l'
	DB	00H, 'e', 00H, 's', 00H, ' ', 00H, '(', 00H, 'x', 00H, '8', 00H
	DB	'6', 00H, ')', 00H, '\', 00H, 'M', 00H, 'i', 00H, 'c', 00H, 'r'
	DB	00H, 'o', 00H, 's', 00H, 'o', 00H, 'f', 00H, 't', 00H, ' ', 00H
	DB	'V', 00H, 'i', 00H, 's', 00H, 'u', 00H, 'a', 00H, 'l', 00H, ' '
	DB	00H, 'S', 00H, 't', 00H, 'u', 00H, 'd', 00H, 'i', 00H, 'o', 00H
	DB	' ', 00H, '1', 00H, '2', 00H, '.', 00H, '0', 00H, '\', 00H, 'V'
	DB	00H, 'C', 00H, '\', 00H, 'i', 00H, 'n', 00H, 'c', 00H, 'l', 00H
	DB	'u', 00H, 'd', 00H, 'e', 00H, '\', 00H, 'x', 00H, 'l', 00H, 'o'
	DB	00H, 'c', 00H, 'a', 00H, 'l', 00H, 'e', 00H, 00H, 00H ; `string'
CONST	ENDS
;	COMDAT ??_C@_00CNPNBAHC@?$AA@
CONST	SEGMENT
??_C@_00CNPNBAHC@?$AA@ DB 00H				; `string'
CONST	ENDS
;	COMDAT ??_C@_0EH@EPAENFJM@C?3?2Program?5Files?5?$CIx86?$CJ?2Microsoft@
CONST	SEGMENT
??_C@_0EH@EPAENFJM@C?3?2Program?5Files?5?$CIx86?$CJ?2Microsoft@ DB 'C:\Pr'
	DB	'ogram Files (x86)\Microsoft Visual Studio 12.0\VC\include\xlo'
	DB	'cale', 00H					; `string'
CONST	ENDS
;	COMDAT ??_7facet@locale@std@@6B@
CONST	SEGMENT
??_7facet@locale@std@@6B@ DD FLAT:??_R4facet@locale@std@@6B@ ; std::locale::facet::`vftable'
	DD	FLAT:??_Efacet@locale@std@@MAEPAXI@Z
	DD	FLAT:?_Incref@facet@locale@std@@UAEXXZ
	DD	FLAT:?_Decref@facet@locale@std@@UAEPAV_Facet_base@3@XZ
CONST	ENDS
;	COMDAT ??_7_Facet_base@std@@6B@
CONST	SEGMENT
??_7_Facet_base@std@@6B@ DD FLAT:??_R4_Facet_base@std@@6B@ ; std::_Facet_base::`vftable'
	DD	FLAT:??_E_Facet_base@std@@UAEPAXI@Z
	DD	FLAT:__purecall
	DD	FLAT:__purecall
CONST	ENDS
;	COMDAT ??_C@_0BA@ELKIONDK@bad?5locale?5name?$AA@
CONST	SEGMENT
??_C@_0BA@ELKIONDK@bad?5locale?5name?$AA@ DB 'bad locale name', 00H ; `string'
CONST	ENDS
;	COMDAT __CT??_R0?AVexception@std@@@8??0exception@std@@QAE@ABV01@@Z12
xdata$x	SEGMENT
__CT??_R0?AVexception@std@@@8??0exception@std@@QAE@ABV01@@Z12 DD 00H
	DD	FLAT:??_R0?AVexception@std@@@8
	DD	00H
	DD	0ffffffffH
	ORG $+4
	DD	0cH
	DD	FLAT:??0exception@std@@QAE@ABV01@@Z
xdata$x	ENDS
;	COMDAT ??_R0?AVexception@std@@@8
data$r	SEGMENT
??_R0?AVexception@std@@@8 DD FLAT:??_7type_info@@6B@	; std::exception `RTTI Type Descriptor'
	DD	00H
	DB	'.?AVexception@std@@', 00H
data$r	ENDS
;	COMDAT __CT??_R0?AVruntime_error@std@@@8??0runtime_error@std@@QAE@ABV01@@Z12
xdata$x	SEGMENT
__CT??_R0?AVruntime_error@std@@@8??0runtime_error@std@@QAE@ABV01@@Z12 DD 00H
	DD	FLAT:??_R0?AVruntime_error@std@@@8
	DD	00H
	DD	0ffffffffH
	ORG $+4
	DD	0cH
	DD	FLAT:??0runtime_error@std@@QAE@ABV01@@Z
xdata$x	ENDS
;	COMDAT ??_R0?AVruntime_error@std@@@8
data$r	SEGMENT
??_R0?AVruntime_error@std@@@8 DD FLAT:??_7type_info@@6B@ ; std::runtime_error `RTTI Type Descriptor'
	DD	00H
	DB	'.?AVruntime_error@std@@', 00H
data$r	ENDS
;	COMDAT __CTA2?AVruntime_error@std@@
xdata$x	SEGMENT
__CTA2?AVruntime_error@std@@ DD 02H
	DD	FLAT:__CT??_R0?AVruntime_error@std@@@8??0runtime_error@std@@QAE@ABV01@@Z12
	DD	FLAT:__CT??_R0?AVexception@std@@@8??0exception@std@@QAE@ABV01@@Z12
xdata$x	ENDS
;	COMDAT __TI2?AVruntime_error@std@@
xdata$x	SEGMENT
__TI2?AVruntime_error@std@@ DD 00H
	DD	FLAT:??1runtime_error@std@@UAE@XZ
	DD	00H
	DD	FLAT:__CTA2?AVruntime_error@std@@
xdata$x	ENDS
;	COMDAT ??_7runtime_error@std@@6B@
CONST	SEGMENT
??_7runtime_error@std@@6B@ DD FLAT:??_R4runtime_error@std@@6B@ ; std::runtime_error::`vftable'
	DD	FLAT:??_Eruntime_error@std@@UAEPAXI@Z
	DD	FLAT:?what@exception@std@@UBEPBDXZ
CONST	ENDS
;	COMDAT ?npos@?$basic_string@DU?$char_traits@D@std@@V?$allocator@D@2@@std@@2IB
CONST	SEGMENT
?npos@?$basic_string@DU?$char_traits@D@std@@V?$allocator@D@2@@std@@2IB DD 0ffffffffH ; std::basic_string<char,std::char_traits<char>,std::allocator<char> >::npos
CONST	ENDS
;	COMDAT ??_C@_1DC@POOIKBAO@?$AAI?$AAT?$AAE?$AAR?$AAA?$AAT?$AAO?$AAR?$AA?5?$AAL?$AAI?$AAS?$AAT?$AA?5?$AAC?$AAO?$AAR?$AAR?$AAU?$AAP?$AAT?$AAE?$AAD?$AA?$CB?$AA?$AA@
CONST	SEGMENT
??_C@_1DC@POOIKBAO@?$AAI?$AAT?$AAE?$AAR?$AAA?$AAT?$AAO?$AAR?$AA?5?$AAL?$AAI?$AAS?$AAT?$AA?5?$AAC?$AAO?$AAR?$AAR?$AAU?$AAP?$AAT?$AAE?$AAD?$AA?$CB?$AA?$AA@ DB 'I'
	DB	00H, 'T', 00H, 'E', 00H, 'R', 00H, 'A', 00H, 'T', 00H, 'O', 00H
	DB	'R', 00H, ' ', 00H, 'L', 00H, 'I', 00H, 'S', 00H, 'T', 00H, ' '
	DB	00H, 'C', 00H, 'O', 00H, 'R', 00H, 'R', 00H, 'U', 00H, 'P', 00H
	DB	'T', 00H, 'E', 00H, 'D', 00H, '!', 00H, 00H, 00H ; `string'
CONST	ENDS
;	COMDAT ??_C@_1JA@EADLBAJ@?$AAC?$AA?3?$AA?2?$AAP?$AAr?$AAo?$AAg?$AAr?$AAa?$AAm?$AA?5?$AAF?$AAi?$AAl?$AAe?$AAs?$AA?5?$AA?$CI?$AAx?$AA8?$AA6?$AA?$CJ?$AA?2?$AAM?$AAi?$AAc?$AAr?$AAo?$AAs?$AAo?$AAf?$AAt@
CONST	SEGMENT
??_C@_1JA@EADLBAJ@?$AAC?$AA?3?$AA?2?$AAP?$AAr?$AAo?$AAg?$AAr?$AAa?$AAm?$AA?5?$AAF?$AAi?$AAl?$AAe?$AAs?$AA?5?$AA?$CI?$AAx?$AA8?$AA6?$AA?$CJ?$AA?2?$AAM?$AAi?$AAc?$AAr?$AAo?$AAs?$AAo?$AAf?$AAt@ DB 'C'
	DB	00H, ':', 00H, '\', 00H, 'P', 00H, 'r', 00H, 'o', 00H, 'g', 00H
	DB	'r', 00H, 'a', 00H, 'm', 00H, ' ', 00H, 'F', 00H, 'i', 00H, 'l'
	DB	00H, 'e', 00H, 's', 00H, ' ', 00H, '(', 00H, 'x', 00H, '8', 00H
	DB	'6', 00H, ')', 00H, '\', 00H, 'M', 00H, 'i', 00H, 'c', 00H, 'r'
	DB	00H, 'o', 00H, 's', 00H, 'o', 00H, 'f', 00H, 't', 00H, ' ', 00H
	DB	'V', 00H, 'i', 00H, 's', 00H, 'u', 00H, 'a', 00H, 'l', 00H, ' '
	DB	00H, 'S', 00H, 't', 00H, 'u', 00H, 'd', 00H, 'i', 00H, 'o', 00H
	DB	' ', 00H, '1', 00H, '2', 00H, '.', 00H, '0', 00H, '\', 00H, 'V'
	DB	00H, 'C', 00H, '\', 00H, 'i', 00H, 'n', 00H, 'c', 00H, 'l', 00H
	DB	'u', 00H, 'd', 00H, 'e', 00H, '\', 00H, 'x', 00H, 'u', 00H, 't'
	DB	00H, 'i', 00H, 'l', 00H, 'i', 00H, 't', 00H, 'y', 00H, 00H, 00H ; `string'
CONST	ENDS
;	COMDAT xdata$x
xdata$x	SEGMENT
__unwindtable$??$construct@PAU?$_Tree_node@U?$pair@$$CBV?$basic_string@DU?$char_traits@D@std@@V?$allocator@D@2@@std@@PAVFuzzyVariable@@@std@@PAX@std@@AAPAU12@@?$allocator@U?$_Tree_node@U?$pair@$$CBV?$basic_string@DU?$char_traits@D@std@@V?$allocator@D@2@@std@@PAVFuzzyVariable@@@std@@PAX@std@@@std@@QAEXPAPAU?$_Tree_node@U?$pair@$$CBV?$basic_string@DU?$char_traits@D@std@@V?$allocator@D@2@@std@@PAVFuzzyVariable@@@std@@PAX@1@AAPAU21@@Z DD 0ffffffffH
	DD	FLAT:__unwindfunclet$??$construct@PAU?$_Tree_node@U?$pair@$$CBV?$basic_string@DU?$char_traits@D@std@@V?$allocator@D@2@@std@@PAVFuzzyVariable@@@std@@PAX@std@@AAPAU12@@?$allocator@U?$_Tree_node@U?$pair@$$CBV?$basic_string@DU?$char_traits@D@std@@V?$allocator@D@2@@std@@PAVFuzzyVariable@@@std@@PAX@std@@@std@@QAEXPAPAU?$_Tree_node@U?$pair@$$CBV?$basic_string@DU?$char_traits@D@std@@V?$allocator@D@2@@std@@PAVFuzzyVariable@@@std@@PAX@1@AAPAU21@@Z$0
__ehfuncinfo$??$construct@PAU?$_Tree_node@U?$pair@$$CBV?$basic_string@DU?$char_traits@D@std@@V?$allocator@D@2@@std@@PAVFuzzyVariable@@@std@@PAX@std@@AAPAU12@@?$allocator@U?$_Tree_node@U?$pair@$$CBV?$basic_string@DU?$char_traits@D@std@@V?$allocator@D@2@@std@@PAVFuzzyVariable@@@std@@PAX@std@@@std@@QAEXPAPAU?$_Tree_node@U?$pair@$$CBV?$basic_string@DU?$char_traits@D@std@@V?$allocator@D@2@@std@@PAVFuzzyVariable@@@std@@PAX@1@AAPAU21@@Z DD 019930522H
	DD	01H
	DD	FLAT:__unwindtable$??$construct@PAU?$_Tree_node@U?$pair@$$CBV?$basic_string@DU?$char_traits@D@std@@V?$allocator@D@2@@std@@PAVFuzzyVariable@@@std@@PAX@std@@AAPAU12@@?$allocator@U?$_Tree_node@U?$pair@$$CBV?$basic_string@DU?$char_traits@D@std@@V?$allocator@D@2@@std@@PAVFuzzyVariable@@@std@@PAX@std@@@std@@QAEXPAPAU?$_Tree_node@U?$pair@$$CBV?$basic_string@DU?$char_traits@D@std@@V?$allocator@D@2@@std@@PAVFuzzyVariable@@@std@@PAX@1@AAPAU21@@Z
	DD	2 DUP(00H)
	DD	2 DUP(00H)
	DD	00H
	DD	01H
xdata$x	ENDS
;	COMDAT xdata$x
xdata$x	SEGMENT
__unwindtable$??$construct@U?$pair@$$CBV?$basic_string@DU?$char_traits@D@std@@V?$allocator@D@2@@std@@PAVFuzzyVariable@@@std@@ABUpiecewise_construct_t@2@V?$tuple@ABV?$basic_string@DU?$char_traits@D@std@@V?$allocator@D@2@@std@@@2@V?$tuple@$$$V@2@@?$allocator@U?$_Tree_node@U?$pair@$$CBV?$basic_string@DU?$char_traits@D@std@@V?$allocator@D@2@@std@@PAVFuzzyVariable@@@std@@PAX@std@@@std@@QAEXPAU?$pair@$$CBV?$basic_string@DU?$char_traits@D@std@@V?$allocator@D@2@@std@@PAVFuzzyVariable@@@1@ABUpiecewise_construct_t@1@$$QAV?$tuple@ABV?$basic_string@DU?$char_traits@D@std@@V?$allocator@D@2@@std@@@1@$$QAV?$tuple@$$$V@1@@Z DD 0ffffffffH
	DD	FLAT:__unwindfunclet$??$construct@U?$pair@$$CBV?$basic_string@DU?$char_traits@D@std@@V?$allocator@D@2@@std@@PAVFuzzyVariable@@@std@@ABUpiecewise_construct_t@2@V?$tuple@ABV?$basic_string@DU?$char_traits@D@std@@V?$allocator@D@2@@std@@@2@V?$tuple@$$$V@2@@?$allocator@U?$_Tree_node@U?$pair@$$CBV?$basic_string@DU?$char_traits@D@std@@V?$allocator@D@2@@std@@PAVFuzzyVariable@@@std@@PAX@std@@@std@@QAEXPAU?$pair@$$CBV?$basic_string@DU?$char_traits@D@std@@V?$allocator@D@2@@std@@PAVFuzzyVariable@@@1@ABUpiecewise_construct_t@1@$$QAV?$tuple@ABV?$basic_string@DU?$char_traits@D@std@@V?$allocator@D@2@@std@@@1@$$QAV?$tuple@$$$V@1@@Z$0
__ehfuncinfo$??$construct@U?$pair@$$CBV?$basic_string@DU?$char_traits@D@std@@V?$allocator@D@2@@std@@PAVFuzzyVariable@@@std@@ABUpiecewise_construct_t@2@V?$tuple@ABV?$basic_string@DU?$char_traits@D@std@@V?$allocator@D@2@@std@@@2@V?$tuple@$$$V@2@@?$allocator@U?$_Tree_node@U?$pair@$$CBV?$basic_string@DU?$char_traits@D@std@@V?$allocator@D@2@@std@@PAVFuzzyVariable@@@std@@PAX@std@@@std@@QAEXPAU?$pair@$$CBV?$basic_string@DU?$char_traits@D@std@@V?$allocator@D@2@@std@@PAVFuzzyVariable@@@1@ABUpiecewise_construct_t@1@$$QAV?$tuple@ABV?$basic_string@DU?$char_traits@D@std@@V?$allocator@D@2@@std@@@1@$$QAV?$tuple@$$$V@1@@Z DD 019930522H
	DD	01H
	DD	FLAT:__unwindtable$??$construct@U?$pair@$$CBV?$basic_string@DU?$char_traits@D@std@@V?$allocator@D@2@@std@@PAVFuzzyVariable@@@std@@ABUpiecewise_construct_t@2@V?$tuple@ABV?$basic_string@DU?$char_traits@D@std@@V?$allocator@D@2@@std@@@2@V?$tuple@$$$V@2@@?$allocator@U?$_Tree_node@U?$pair@$$CBV?$basic_string@DU?$char_traits@D@std@@V?$allocator@D@2@@std@@PAVFuzzyVariable@@@std@@PAX@std@@@std@@QAEXPAU?$pair@$$CBV?$basic_string@DU?$char_traits@D@std@@V?$allocator@D@2@@std@@PAVFuzzyVariable@@@1@ABUpiecewise_construct_t@1@$$QAV?$tuple@ABV?$basic_string@DU?$char_traits@D@std@@V?$allocator@D@2@@std@@@1@$$QAV?$tuple@$$$V@1@@Z
	DD	2 DUP(00H)
	DD	2 DUP(00H)
	DD	00H
	DD	01H
xdata$x	ENDS
;	COMDAT xdata$x
xdata$x	SEGMENT
__unwindtable$??$?0AAV?$_Tree_iterator@V?$_Tree_val@U?$_Tree_simple_types@U?$pair@$$CBV?$basic_string@DU?$char_traits@D@std@@V?$allocator@D@2@@std@@PAVFuzzyVariable@@@std@@@std@@@std@@@std@@_NX@?$pair@V?$_Tree_iterator@V?$_Tree_val@U?$_Tree_simple_types@U?$pair@$$CBV?$basic_string@DU?$char_traits@D@std@@V?$allocator@D@2@@std@@PAVFuzzyVariable@@@std@@@std@@@std@@@std@@_N@std@@QAE@AAV?$_Tree_iterator@V?$_Tree_val@U?$_Tree_simple_types@U?$pair@$$CBV?$basic_string@DU?$char_traits@D@std@@V?$allocator@D@2@@std@@PAVFuzzyVariable@@@std@@@std@@@std@@@1@$$QA_N@Z DD 0ffffffffH
	DD	FLAT:__unwindfunclet$??$?0AAV?$_Tree_iterator@V?$_Tree_val@U?$_Tree_simple_types@U?$pair@$$CBV?$basic_string@DU?$char_traits@D@std@@V?$allocator@D@2@@std@@PAVFuzzyVariable@@@std@@@std@@@std@@@std@@_NX@?$pair@V?$_Tree_iterator@V?$_Tree_val@U?$_Tree_simple_types@U?$pair@$$CBV?$basic_string@DU?$char_traits@D@std@@V?$allocator@D@2@@std@@PAVFuzzyVariable@@@std@@@std@@@std@@@std@@_N@std@@QAE@AAV?$_Tree_iterator@V?$_Tree_val@U?$_Tree_simple_types@U?$pair@$$CBV?$basic_string@DU?$char_traits@D@std@@V?$allocator@D@2@@std@@PAVFuzzyVariable@@@std@@@std@@@std@@@1@$$QA_N@Z$0
__ehfuncinfo$??$?0AAV?$_Tree_iterator@V?$_Tree_val@U?$_Tree_simple_types@U?$pair@$$CBV?$basic_string@DU?$char_traits@D@std@@V?$allocator@D@2@@std@@PAVFuzzyVariable@@@std@@@std@@@std@@@std@@_NX@?$pair@V?$_Tree_iterator@V?$_Tree_val@U?$_Tree_simple_types@U?$pair@$$CBV?$basic_string@DU?$char_traits@D@std@@V?$allocator@D@2@@std@@PAVFuzzyVariable@@@std@@@std@@@std@@@std@@_N@std@@QAE@AAV?$_Tree_iterator@V?$_Tree_val@U?$_Tree_simple_types@U?$pair@$$CBV?$basic_string@DU?$char_traits@D@std@@V?$allocator@D@2@@std@@PAVFuzzyVariable@@@std@@@std@@@std@@@1@$$QA_N@Z DD 019930522H
	DD	01H
	DD	FLAT:__unwindtable$??$?0AAV?$_Tree_iterator@V?$_Tree_val@U?$_Tree_simple_types@U?$pair@$$CBV?$basic_string@DU?$char_traits@D@std@@V?$allocator@D@2@@std@@PAVFuzzyVariable@@@std@@@std@@@std@@@std@@_NX@?$pair@V?$_Tree_iterator@V?$_Tree_val@U?$_Tree_simple_types@U?$pair@$$CBV?$basic_string@DU?$char_traits@D@std@@V?$allocator@D@2@@std@@PAVFuzzyVariable@@@std@@@std@@@std@@@std@@_N@std@@QAE@AAV?$_Tree_iterator@V?$_Tree_val@U?$_Tree_simple_types@U?$pair@$$CBV?$basic_string@DU?$char_traits@D@std@@V?$allocator@D@2@@std@@PAVFuzzyVariable@@@std@@@std@@@std@@@1@$$QA_N@Z
	DD	2 DUP(00H)
	DD	2 DUP(00H)
	DD	00H
	DD	01H
xdata$x	ENDS
;	COMDAT xdata$x
xdata$x	SEGMENT
__unwindtable$??$?0V?$_Tree_iterator@V?$_Tree_val@U?$_Tree_simple_types@U?$pair@$$CBV?$basic_string@DU?$char_traits@D@std@@V?$allocator@D@2@@std@@PAVFuzzyVariable@@@std@@@std@@@std@@@std@@_NX@?$pair@V?$_Tree_iterator@V?$_Tree_val@U?$_Tree_simple_types@U?$pair@$$CBV?$basic_string@DU?$char_traits@D@std@@V?$allocator@D@2@@std@@PAVFuzzyVariable@@@std@@@std@@@std@@@std@@_N@std@@QAE@$$QAV?$_Tree_iterator@V?$_Tree_val@U?$_Tree_simple_types@U?$pair@$$CBV?$basic_string@DU?$char_traits@D@std@@V?$allocator@D@2@@std@@PAVFuzzyVariable@@@std@@@std@@@std@@@1@$$QA_N@Z DD 0ffffffffH
	DD	FLAT:__unwindfunclet$??$?0V?$_Tree_iterator@V?$_Tree_val@U?$_Tree_simple_types@U?$pair@$$CBV?$basic_string@DU?$char_traits@D@std@@V?$allocator@D@2@@std@@PAVFuzzyVariable@@@std@@@std@@@std@@@std@@_NX@?$pair@V?$_Tree_iterator@V?$_Tree_val@U?$_Tree_simple_types@U?$pair@$$CBV?$basic_string@DU?$char_traits@D@std@@V?$allocator@D@2@@std@@PAVFuzzyVariable@@@std@@@std@@@std@@@std@@_N@std@@QAE@$$QAV?$_Tree_iterator@V?$_Tree_val@U?$_Tree_simple_types@U?$pair@$$CBV?$basic_string@DU?$char_traits@D@std@@V?$allocator@D@2@@std@@PAVFuzzyVariable@@@std@@@std@@@std@@@1@$$QA_N@Z$0
__ehfuncinfo$??$?0V?$_Tree_iterator@V?$_Tree_val@U?$_Tree_simple_types@U?$pair@$$CBV?$basic_string@DU?$char_traits@D@std@@V?$allocator@D@2@@std@@PAVFuzzyVariable@@@std@@@std@@@std@@@std@@_NX@?$pair@V?$_Tree_iterator@V?$_Tree_val@U?$_Tree_simple_types@U?$pair@$$CBV?$basic_string@DU?$char_traits@D@std@@V?$allocator@D@2@@std@@PAVFuzzyVariable@@@std@@@std@@@std@@@std@@_N@std@@QAE@$$QAV?$_Tree_iterator@V?$_Tree_val@U?$_Tree_simple_types@U?$pair@$$CBV?$basic_string@DU?$char_traits@D@std@@V?$allocator@D@2@@std@@PAVFuzzyVariable@@@std@@@std@@@std@@@1@$$QA_N@Z DD 019930522H
	DD	01H
	DD	FLAT:__unwindtable$??$?0V?$_Tree_iterator@V?$_Tree_val@U?$_Tree_simple_types@U?$pair@$$CBV?$basic_string@DU?$char_traits@D@std@@V?$allocator@D@2@@std@@PAVFuzzyVariable@@@std@@@std@@@std@@@std@@_NX@?$pair@V?$_Tree_iterator@V?$_Tree_val@U?$_Tree_simple_types@U?$pair@$$CBV?$basic_string@DU?$char_traits@D@std@@V?$allocator@D@2@@std@@PAVFuzzyVariable@@@std@@@std@@@std@@@std@@_N@std@@QAE@$$QAV?$_Tree_iterator@V?$_Tree_val@U?$_Tree_simple_types@U?$pair@$$CBV?$basic_string@DU?$char_traits@D@std@@V?$allocator@D@2@@std@@PAVFuzzyVariable@@@std@@@std@@@std@@@1@$$QA_N@Z
	DD	2 DUP(00H)
	DD	2 DUP(00H)
	DD	00H
	DD	01H
xdata$x	ENDS
;	COMDAT xdata$x
xdata$x	SEGMENT
__unwindtable$??$construct@PAU?$_Tree_node@U?$pair@$$CBV?$basic_string@DU?$char_traits@D@std@@V?$allocator@D@2@@std@@PAVFuzzySet@@@std@@PAX@std@@AAPAU12@@?$allocator@U?$_Tree_node@U?$pair@$$CBV?$basic_string@DU?$char_traits@D@std@@V?$allocator@D@2@@std@@PAVFuzzySet@@@std@@PAX@std@@@std@@QAEXPAPAU?$_Tree_node@U?$pair@$$CBV?$basic_string@DU?$char_traits@D@std@@V?$allocator@D@2@@std@@PAVFuzzySet@@@std@@PAX@1@AAPAU21@@Z DD 0ffffffffH
	DD	FLAT:__unwindfunclet$??$construct@PAU?$_Tree_node@U?$pair@$$CBV?$basic_string@DU?$char_traits@D@std@@V?$allocator@D@2@@std@@PAVFuzzySet@@@std@@PAX@std@@AAPAU12@@?$allocator@U?$_Tree_node@U?$pair@$$CBV?$basic_string@DU?$char_traits@D@std@@V?$allocator@D@2@@std@@PAVFuzzySet@@@std@@PAX@std@@@std@@QAEXPAPAU?$_Tree_node@U?$pair@$$CBV?$basic_string@DU?$char_traits@D@std@@V?$allocator@D@2@@std@@PAVFuzzySet@@@std@@PAX@1@AAPAU21@@Z$0
__ehfuncinfo$??$construct@PAU?$_Tree_node@U?$pair@$$CBV?$basic_string@DU?$char_traits@D@std@@V?$allocator@D@2@@std@@PAVFuzzySet@@@std@@PAX@std@@AAPAU12@@?$allocator@U?$_Tree_node@U?$pair@$$CBV?$basic_string@DU?$char_traits@D@std@@V?$allocator@D@2@@std@@PAVFuzzySet@@@std@@PAX@std@@@std@@QAEXPAPAU?$_Tree_node@U?$pair@$$CBV?$basic_string@DU?$char_traits@D@std@@V?$allocator@D@2@@std@@PAVFuzzySet@@@std@@PAX@1@AAPAU21@@Z DD 019930522H
	DD	01H
	DD	FLAT:__unwindtable$??$construct@PAU?$_Tree_node@U?$pair@$$CBV?$basic_string@DU?$char_traits@D@std@@V?$allocator@D@2@@std@@PAVFuzzySet@@@std@@PAX@std@@AAPAU12@@?$allocator@U?$_Tree_node@U?$pair@$$CBV?$basic_string@DU?$char_traits@D@std@@V?$allocator@D@2@@std@@PAVFuzzySet@@@std@@PAX@std@@@std@@QAEXPAPAU?$_Tree_node@U?$pair@$$CBV?$basic_string@DU?$char_traits@D@std@@V?$allocator@D@2@@std@@PAVFuzzySet@@@std@@PAX@1@AAPAU21@@Z
	DD	2 DUP(00H)
	DD	2 DUP(00H)
	DD	00H
	DD	01H
xdata$x	ENDS
;	COMDAT xdata$x
xdata$x	SEGMENT
__unwindtable$??$construct@PADAAPAD@?$allocator@D@std@@QAEXPAPADAAPAD@Z DD 0ffffffffH
	DD	FLAT:__unwindfunclet$??$construct@PADAAPAD@?$allocator@D@std@@QAEXPAPADAAPAD@Z$0
__ehfuncinfo$??$construct@PADAAPAD@?$allocator@D@std@@QAEXPAPADAAPAD@Z DD 019930522H
	DD	01H
	DD	FLAT:__unwindtable$??$construct@PADAAPAD@?$allocator@D@std@@QAEXPAPADAAPAD@Z
	DD	2 DUP(00H)
	DD	2 DUP(00H)
	DD	00H
	DD	01H
xdata$x	ENDS
;	COMDAT xdata$x
xdata$x	SEGMENT
__unwindtable$??$construct@PAVFuzzyRule@@PAV1@@?$allocator@PAVFuzzyRule@@@std@@QAEXPAPAVFuzzyRule@@$$QAPAV2@@Z DD 0ffffffffH
	DD	FLAT:__unwindfunclet$??$construct@PAVFuzzyRule@@PAV1@@?$allocator@PAVFuzzyRule@@@std@@QAEXPAPAVFuzzyRule@@$$QAPAV2@@Z$0
__ehfuncinfo$??$construct@PAVFuzzyRule@@PAV1@@?$allocator@PAVFuzzyRule@@@std@@QAEXPAPAVFuzzyRule@@$$QAPAV2@@Z DD 019930522H
	DD	01H
	DD	FLAT:__unwindtable$??$construct@PAVFuzzyRule@@PAV1@@?$allocator@PAVFuzzyRule@@@std@@QAEXPAPAVFuzzyRule@@$$QAPAV2@@Z
	DD	2 DUP(00H)
	DD	2 DUP(00H)
	DD	00H
	DD	01H
xdata$x	ENDS
;	COMDAT xdata$x
xdata$x	SEGMENT
__catchsym$??$_Insert_nohint@AAU?$pair@$$CBV?$basic_string@DU?$char_traits@D@std@@V?$allocator@D@2@@std@@PAVFuzzyVariable@@@std@@PAU?$_Tree_node@U?$pair@$$CBV?$basic_string@DU?$char_traits@D@std@@V?$allocator@D@2@@std@@PAVFuzzyVariable@@@std@@PAX@2@@?$_Tree@V?$_Tmap_traits@V?$basic_string@DU?$char_traits@D@std@@V?$allocator@D@2@@std@@PAVFuzzyVariable@@U?$less@V?$basic_string@DU?$char_traits@D@std@@V?$allocator@D@2@@std@@@2@V?$allocator@U?$pair@$$CBV?$basic_string@DU?$char_traits@D@std@@V?$allocator@D@2@@std@@PAVFuzzyVariable@@@std@@@2@$0A@@std@@@std@@IAE?AU?$pair@V?$_Tree_iterator@V?$_Tree_val@U?$_Tree_simple_types@U?$pair@$$CBV?$basic_string@DU?$char_traits@D@std@@V?$allocator@D@2@@std@@PAVFuzzyVariable@@@std@@@std@@@std@@@std@@_N@1@_NAAU?$pair@$$CBV?$basic_string@DU?$char_traits@D@std@@V?$allocator@D@2@@std@@PAVFuzzyVariable@@@1@PAU?$_Tree_node@U?$pair@$$CBV?$basic_string@DU?$char_traits@D@std@@V?$allocator@D@2@@std@@PAVFuzzyVariable@@@std@@PAX@1@@Z$8 DD 040H
	DD	00H
	DD	00H
	DD	FLAT:__catch$??$_Insert_nohint@AAU?$pair@$$CBV?$basic_string@DU?$char_traits@D@std@@V?$allocator@D@2@@std@@PAVFuzzyVariable@@@std@@PAU?$_Tree_node@U?$pair@$$CBV?$basic_string@DU?$char_traits@D@std@@V?$allocator@D@2@@std@@PAVFuzzyVariable@@@std@@PAX@2@@?$_Tree@V?$_Tmap_traits@V?$basic_string@DU?$char_traits@D@std@@V?$allocator@D@2@@std@@PAVFuzzyVariable@@U?$less@V?$basic_string@DU?$char_traits@D@std@@V?$allocator@D@2@@std@@@2@V?$allocator@U?$pair@$$CBV?$basic_string@DU?$char_traits@D@std@@V?$allocator@D@2@@std@@PAVFuzzyVariable@@@std@@@2@$0A@@std@@@std@@IAE?AU?$pair@V?$_Tree_iterator@V?$_Tree_val@U?$_Tree_simple_types@U?$pair@$$CBV?$basic_string@DU?$char_traits@D@std@@V?$allocator@D@2@@std@@PAVFuzzyVariable@@@std@@@std@@@std@@@std@@_N@1@_NAAU?$pair@$$CBV?$basic_string@DU?$char_traits@D@std@@V?$allocator@D@2@@std@@PAVFuzzyVariable@@@1@PAU?$_Tree_node@U?$pair@$$CBV?$basic_string@DU?$char_traits@D@std@@V?$allocator@D@2@@std@@PAVFuzzyVariable@@@std@@PAX@1@@Z$0
__tryblocktable$??$_Insert_nohint@AAU?$pair@$$CBV?$basic_string@DU?$char_traits@D@std@@V?$allocator@D@2@@std@@PAVFuzzyVariable@@@std@@PAU?$_Tree_node@U?$pair@$$CBV?$basic_string@DU?$char_traits@D@std@@V?$allocator@D@2@@std@@PAVFuzzyVariable@@@std@@PAX@2@@?$_Tree@V?$_Tmap_traits@V?$basic_string@DU?$char_traits@D@std@@V?$allocator@D@2@@std@@PAVFuzzyVariable@@U?$less@V?$basic_string@DU?$char_traits@D@std@@V?$allocator@D@2@@std@@@2@V?$allocator@U?$pair@$$CBV?$basic_string@DU?$char_traits@D@std@@V?$allocator@D@2@@std@@PAVFuzzyVariable@@@std@@@2@$0A@@std@@@std@@IAE?AU?$pair@V?$_Tree_iterator@V?$_Tree_val@U?$_Tree_simple_types@U?$pair@$$CBV?$basic_string@DU?$char_traits@D@std@@V?$allocator@D@2@@std@@PAVFuzzyVariable@@@std@@@std@@@std@@@std@@_N@1@_NAAU?$pair@$$CBV?$basic_string@DU?$char_traits@D@std@@V?$allocator@D@2@@std@@PAVFuzzyVariable@@@1@PAU?$_Tree_node@U?$pair@$$CBV?$basic_string@DU?$char_traits@D@std@@V?$allocator@D@2@@std@@PAVFuzzyVariable@@@std@@PAX@1@@Z DD 00H
	DD	05H
	DD	06H
	DD	01H
	DD	FLAT:__catchsym$??$_Insert_nohint@AAU?$pair@$$CBV?$basic_string@DU?$char_traits@D@std@@V?$allocator@D@2@@std@@PAVFuzzyVariable@@@std@@PAU?$_Tree_node@U?$pair@$$CBV?$basic_string@DU?$char_traits@D@std@@V?$allocator@D@2@@std@@PAVFuzzyVariable@@@std@@PAX@2@@?$_Tree@V?$_Tmap_traits@V?$basic_string@DU?$char_traits@D@std@@V?$allocator@D@2@@std@@PAVFuzzyVariable@@U?$less@V?$basic_string@DU?$char_traits@D@std@@V?$allocator@D@2@@std@@@2@V?$allocator@U?$pair@$$CBV?$basic_string@DU?$char_traits@D@std@@V?$allocator@D@2@@std@@PAVFuzzyVariable@@@std@@@2@$0A@@std@@@std@@IAE?AU?$pair@V?$_Tree_iterator@V?$_Tree_val@U?$_Tree_simple_types@U?$pair@$$CBV?$basic_string@DU?$char_traits@D@std@@V?$allocator@D@2@@std@@PAVFuzzyVariable@@@std@@@std@@@std@@@std@@_N@1@_NAAU?$pair@$$CBV?$basic_string@DU?$char_traits@D@std@@V?$allocator@D@2@@std@@PAVFuzzyVariable@@@1@PAU?$_Tree_node@U?$pair@$$CBV?$basic_string@DU?$char_traits@D@std@@V?$allocator@D@2@@std@@PAVFuzzyVariable@@@std@@PAX@1@@Z$8
