; Listing generated by Microsoft (R) Optimizing Compiler Version 18.00.31101.0 

	TITLE	C:\Users\Maxime\Videos\TP IA\VS2010\Buckland_Chapter7 to 10_Raven\navigation\Raven_PathPlanner.cpp
	.686P
	.XMM
	include listing.inc
	.model	flat

INCLUDELIB LIBCMTD
INCLUDELIB OLDNAMES

CONST	SEGMENT
$SG162901 DB	'<Raven_PathPlanner::CycleOnce>: No search object instant'
	DB	'iated', 00H
	ORG $+2
$SG162902 DB	'n', 00H, 'a', 00H, 'v', 00H, 'i', 00H, 'g', 00H, 'a', 00H
	DB	't', 00H, 'i', 00H, 'o', 00H, 'n', 00H, '\', 00H, 'R', 00H, 'a'
	DB	00H, 'v', 00H, 'e', 00H, 'n', 00H, '_', 00H, 'P', 00H, 'a', 00H
	DB	't', 00H, 'h', 00H, 'P', 00H, 'l', 00H, 'a', 00H, 'n', 00H, 'n'
	DB	00H, 'e', 00H, 'r', 00H, '.', 00H, 'c', 00H, 'p', 00H, 'p', 00H
	DB	00H, 00H
	ORG $+6
$SG162903 DB	'm', 00H, '_', 00H, 'p', 00H, 'C', 00H, 'u', 00H, 'r', 00H
	DB	'r', 00H, 'e', 00H, 'n', 00H, 't', 00H, 'S', 00H, 'e', 00H, 'a'
	DB	00H, 'r', 00H, 'c', 00H, 'h', 00H, ' ', 00H, '&', 00H, '&', 00H
	DB	' ', 00H, '"', 00H, '<', 00H, 'R', 00H, 'a', 00H, 'v', 00H, 'e'
	DB	00H, 'n', 00H, '_', 00H, 'P', 00H, 'a', 00H, 't', 00H, 'h', 00H
	DB	'P', 00H, 'l', 00H, 'a', 00H, 'n', 00H, 'n', 00H, 'e', 00H, 'r'
	DB	00H, ':', 00H, ':', 00H, 'C', 00H, 'y', 00H, 'c', 00H, 'l', 00H
	DB	'e', 00H, 'O', 00H, 'n', 00H, 'c', 00H, 'e', 00H, '>', 00H, ':'
	DB	00H, ' ', 00H, 'N', 00H, 'o', 00H, ' ', 00H, 's', 00H, 'e', 00H
	DB	'a', 00H, 'r', 00H, 'c', 00H, 'h', 00H, ' ', 00H, 'o', 00H, 'b'
	DB	00H, 'j', 00H, 'e', 00H, 'c', 00H, 't', 00H, ' ', 00H, 'i', 00H
	DB	'n', 00H, 's', 00H, 't', 00H, 'a', 00H, 'n', 00H, 't', 00H, 'i'
	DB	00H, 'a', 00H, 't', 00H, 'e', 00H, 'd', 00H, '"', 00H, 00H, 00H
_pi	DQ	0400921f9f01b866er		; 3.14159
_SmallestDelay DQ 03fd0000000000000r		; 0.25
$SG176807 DB	'<SparseGraph::GetNode>: invalid index', 00H
	ORG $+2
$SG176808 DB	'C', 00H, ':', 00H, '\', 00H, 'U', 00H, 's', 00H, 'e', 00H
	DB	'r', 00H, 's', 00H, '\', 00H, 'M', 00H, 'a', 00H, 'x', 00H, 'i'
	DB	00H, 'm', 00H, 'e', 00H, '\', 00H, 'V', 00H, 'i', 00H, 'd', 00H
	DB	'e', 00H, 'o', 00H, 's', 00H, '\', 00H, 'T', 00H, 'P', 00H, ' '
	DB	00H, 'I', 00H, 'A', 00H, '\', 00H, 'V', 00H, 'S', 00H, '2', 00H
	DB	'0', 00H, '1', 00H, '0', 00H, '\', 00H, 'C', 00H, 'o', 00H, 'm'
	DB	00H, 'm', 00H, 'o', 00H, 'n', 00H, '\', 00H, 'g', 00H, 'r', 00H
	DB	'a', 00H, 'p', 00H, 'h', 00H, '/', 00H, 'S', 00H, 'p', 00H, 'a'
	DB	00H, 'r', 00H, 's', 00H, 'e', 00H, 'G', 00H, 'r', 00H, 'a', 00H
	DB	'p', 00H, 'h', 00H, '.', 00H, 'h', 00H, 00H, 00H
	ORG $+2
$SG176809 DB	'(', 00H, 'i', 00H, 'd', 00H, 'x', 00H, ' ', 00H, '<', 00H
	DB	' ', 00H, '(', 00H, 'i', 00H, 'n', 00H, 't', 00H, ')', 00H, 'm'
	DB	00H, '_', 00H, 'N', 00H, 'o', 00H, 'd', 00H, 'e', 00H, 's', 00H
	DB	'.', 00H, 's', 00H, 'i', 00H, 'z', 00H, 'e', 00H, '(', 00H, ')'
	DB	00H, ')', 00H, ' ', 00H, '&', 00H, '&', 00H, ' ', 00H, '(', 00H
	DB	'i', 00H, 'd', 00H, 'x', 00H, ' ', 00H, '>', 00H, '=', 00H, '0'
	DB	00H, ')', 00H, ' ', 00H, '&', 00H, '&', 00H, ' ', 00H, '"', 00H
	DB	'<', 00H, 'S', 00H, 'p', 00H, 'a', 00H, 'r', 00H, 's', 00H, 'e'
	DB	00H, 'G', 00H, 'r', 00H, 'a', 00H, 'p', 00H, 'h', 00H, ':', 00H
	DB	':', 00H, 'G', 00H, 'e', 00H, 't', 00H, 'N', 00H, 'o', 00H, 'd'
	DB	00H, 'e', 00H, '>', 00H, ':', 00H, ' ', 00H, 'i', 00H, 'n', 00H
	DB	'v', 00H, 'a', 00H, 'l', 00H, 'i', 00H, 'd', 00H, ' ', 00H, 'i'
	DB	00H, 'n', 00H, 'd', 00H, 'e', 00H, 'x', 00H, '"', 00H, 00H, 00H
_colors	DD	0ffH
	DD	0ff0000H
	DD	0ff00H
	DD	00H
	DD	0c8c8ffH
	DD	0c8c8c8H
	DD	0ffffH
	DD	0aaffH
	DD	0aa00ffH
	DD	05a85H
	DD	0ffffffH
	DD	06400H
	DD	0ffff00H
	DD	0c8c8c8H
	DD	0e6e6ffH
	ORG $+4
_SEND_MSG_IMMEDIATELY DQ 00000000000000000r	; 0
$SG162567 DB	'<Raven_PathPlanner::GetPathAsNodes>: no current search', 00H
	ORG $+1
$SG162568 DB	'n', 00H, 'a', 00H, 'v', 00H, 'i', 00H, 'g', 00H, 'a', 00H
	DB	't', 00H, 'i', 00H, 'o', 00H, 'n', 00H, '\', 00H, 'R', 00H, 'a'
	DB	00H, 'v', 00H, 'e', 00H, 'n', 00H, '_', 00H, 'P', 00H, 'a', 00H
	DB	't', 00H, 'h', 00H, 'P', 00H, 'l', 00H, 'a', 00H, 'n', 00H, 'n'
	DB	00H, 'e', 00H, 'r', 00H, '.', 00H, 'c', 00H, 'p', 00H, 'p', 00H
	DB	00H, 00H
	ORG $+6
$SG162569 DB	'm', 00H, '_', 00H, 'p', 00H, 'C', 00H, 'u', 00H, 'r', 00H
	DB	'r', 00H, 'e', 00H, 'n', 00H, 't', 00H, 'S', 00H, 'e', 00H, 'a'
	DB	00H, 'r', 00H, 'c', 00H, 'h', 00H, ' ', 00H, '&', 00H, '&', 00H
	DB	' ', 00H, '"', 00H, '<', 00H, 'R', 00H, 'a', 00H, 'v', 00H, 'e'
	DB	00H, 'n', 00H, '_', 00H, 'P', 00H, 'a', 00H, 't', 00H, 'h', 00H
	DB	'P', 00H, 'l', 00H, 'a', 00H, 'n', 00H, 'n', 00H, 'e', 00H, 'r'
	DB	00H, ':', 00H, ':', 00H, 'G', 00H, 'e', 00H, 't', 00H, 'P', 00H
	DB	'a', 00H, 't', 00H, 'h', 00H, 'A', 00H, 's', 00H, 'N', 00H, 'o'
	DB	00H, 'd', 00H, 'e', 00H, 's', 00H, '>', 00H, ':', 00H, ' ', 00H
	DB	'n', 00H, 'o', 00H, ' ', 00H, 'c', 00H, 'u', 00H, 'r', 00H, 'r'
	DB	00H, 'e', 00H, 'n', 00H, 't', 00H, ' ', 00H, 's', 00H, 'e', 00H
	DB	'a', 00H, 'r', 00H, 'c', 00H, 'h', 00H, '"', 00H, 00H, 00H
	ORG $+6
_Pi	DQ	0400921f9f01b866er		; 3.14159
CONST	ENDS
PUBLIC	_hypot
PUBLIC	?max@?$numeric_limits@H@std@@SAHXZ		; std::numeric_limits<int>::max
PUBLIC	?min@?$numeric_limits@M@std@@SAMXZ		; std::numeric_limits<float>::min
PUBLIC	?max@?$numeric_limits@M@std@@SAMXZ		; std::numeric_limits<float>::max
PUBLIC	?min@?$numeric_limits@N@std@@SANXZ		; std::numeric_limits<double>::min
PUBLIC	?max@?$numeric_limits@N@std@@SANXZ		; std::numeric_limits<double>::max
PUBLIC	??2@YAPAXIPAX@Z					; operator new
PUBLIC	??3@YAXPAX0@Z					; operator delete
PUBLIC	?length@?$char_traits@D@std@@SAIPBD@Z		; std::char_traits<char>::length
PUBLIC	?copy@?$char_traits@D@std@@SAPADPADPBDI@Z	; std::char_traits<char>::copy
PUBLIC	?move@?$char_traits@D@std@@SAPADPADPBDI@Z	; std::char_traits<char>::move
PUBLIC	?assign@?$char_traits@D@std@@SAXAADABD@Z	; std::char_traits<char>::assign
PUBLIC	?_Adopt@_Iterator_base0@std@@QAEXPBX@Z		; std::_Iterator_base0::_Adopt
PUBLIC	??0_Container_proxy@std@@QAE@XZ			; std::_Container_proxy::_Container_proxy
PUBLIC	??0_Container_base12@std@@QAE@XZ		; std::_Container_base12::_Container_base12
PUBLIC	??1_Container_base12@std@@QAE@XZ		; std::_Container_base12::~_Container_base12
PUBLIC	?_Getpfirst@_Container_base12@std@@QBEPAPAU_Iterator_base12@2@XZ ; std::_Container_base12::_Getpfirst
PUBLIC	?_Orphan_all@_Container_base12@std@@QAEXXZ	; std::_Container_base12::_Orphan_all
PUBLIC	?_Swap_all@_Container_base12@std@@QAEXAAU12@@Z	; std::_Container_base12::_Swap_all
PUBLIC	??0_Iterator_base12@std@@QAE@XZ			; std::_Iterator_base12::_Iterator_base12
PUBLIC	??0_Iterator_base12@std@@QAE@ABU01@@Z		; std::_Iterator_base12::_Iterator_base12
PUBLIC	??4_Iterator_base12@std@@QAEAAU01@ABU01@@Z	; std::_Iterator_base12::operator=
PUBLIC	??1_Iterator_base12@std@@QAE@XZ			; std::_Iterator_base12::~_Iterator_base12
PUBLIC	?_Adopt@_Iterator_base12@std@@QAEXPBU_Container_base12@2@@Z ; std::_Iterator_base12::_Adopt
PUBLIC	?_Clrcont@_Iterator_base12@std@@QAEXXZ		; std::_Iterator_base12::_Clrcont
PUBLIC	?_Getcont@_Iterator_base12@std@@QBEPBU_Container_base12@2@XZ ; std::_Iterator_base12::_Getcont
PUBLIC	?_Getpnext@_Iterator_base12@std@@QAEPAPAU12@XZ	; std::_Iterator_base12::_Getpnext
PUBLIC	?_Orphan_me@_Iterator_base12@std@@QAEXXZ	; std::_Iterator_base12::_Orphan_me
PUBLIC	??0?$allocator@D@std@@QAE@XZ			; std::allocator<char>::allocator<char>
PUBLIC	?deallocate@?$allocator@D@std@@QAEXPADI@Z	; std::allocator<char>::deallocate
PUBLIC	?allocate@?$allocator@D@std@@QAEPADI@Z		; std::allocator<char>::allocate
PUBLIC	?max_size@?$allocator@D@std@@QBEIXZ		; std::allocator<char>::max_size
PUBLIC	?max_size@?$allocator_traits@V?$allocator@D@std@@@std@@SAIABV?$allocator@D@2@@Z ; std::allocator_traits<std::allocator<char> >::max_size
PUBLIC	??0?$_Wrap_alloc@V?$allocator@D@std@@@std@@QAE@XZ ; std::_Wrap_alloc<std::allocator<char> >::_Wrap_alloc<std::allocator<char> >
PUBLIC	?allocate@?$_Wrap_alloc@V?$allocator@D@std@@@std@@QAEPADI@Z ; std::_Wrap_alloc<std::allocator<char> >::allocate
PUBLIC	?deallocate@?$_Wrap_alloc@V?$allocator@D@std@@@std@@QAEXPADI@Z ; std::_Wrap_alloc<std::allocator<char> >::deallocate
PUBLIC	?max_size@?$_Wrap_alloc@V?$allocator@D@std@@@std@@QBEIXZ ; std::_Wrap_alloc<std::allocator<char> >::max_size
PUBLIC	??0?$_String_val@U?$_Simple_types@D@std@@@std@@QAE@XZ ; std::_String_val<std::_Simple_types<char> >::_String_val<std::_Simple_types<char> >
PUBLIC	?_Myptr@?$_String_val@U?$_Simple_types@D@std@@@std@@QAEPADXZ ; std::_String_val<std::_Simple_types<char> >::_Myptr
PUBLIC	?_Myptr@?$_String_val@U?$_Simple_types@D@std@@@std@@QBEPBDXZ ; std::_String_val<std::_Simple_types<char> >::_Myptr
PUBLIC	??1?$_String_val@U?$_Simple_types@D@std@@@std@@QAE@XZ ; std::_String_val<std::_Simple_types<char> >::~_String_val<std::_Simple_types<char> >
PUBLIC	??0?$_String_alloc@$0A@U?$_String_base_types@DV?$allocator@D@std@@@std@@@std@@QAE@ABV?$allocator@D@1@@Z ; std::_String_alloc<0,std::_String_base_types<char,std::allocator<char> > >::_String_alloc<0,std::_String_base_types<char,std::allocator<char> > >
PUBLIC	??1?$_String_alloc@$0A@U?$_String_base_types@DV?$allocator@D@std@@@std@@@std@@QAE@XZ ; std::_String_alloc<0,std::_String_base_types<char,std::allocator<char> > >::~_String_alloc<0,std::_String_base_types<char,std::allocator<char> > >
PUBLIC	?_Alloc_proxy@?$_String_alloc@$0A@U?$_String_base_types@DV?$allocator@D@std@@@std@@@std@@QAEXXZ ; std::_String_alloc<0,std::_String_base_types<char,std::allocator<char> > >::_Alloc_proxy
PUBLIC	?_Free_proxy@?$_String_alloc@$0A@U?$_String_base_types@DV?$allocator@D@std@@@std@@@std@@QAEXXZ ; std::_String_alloc<0,std::_String_base_types<char,std::allocator<char> > >::_Free_proxy
PUBLIC	?_Getal@?$_String_alloc@$0A@U?$_String_base_types@DV?$allocator@D@std@@@std@@@std@@QBE?AU?$_Wrap_alloc@V?$allocator@D@std@@@2@XZ ; std::_String_alloc<0,std::_String_base_types<char,std::allocator<char> > >::_Getal
PUBLIC	??0?$basic_string@DU?$char_traits@D@std@@V?$allocator@D@2@@std@@QAE@PBD@Z ; std::basic_string<char,std::char_traits<char>,std::allocator<char> >::basic_string<char,std::char_traits<char>,std::allocator<char> >
PUBLIC	?assign@?$basic_string@DU?$char_traits@D@std@@V?$allocator@D@2@@std@@QAEAAV12@ABV12@II@Z ; std::basic_string<char,std::char_traits<char>,std::allocator<char> >::assign
PUBLIC	?assign@?$basic_string@DU?$char_traits@D@std@@V?$allocator@D@2@@std@@QAEAAV12@PBDI@Z ; std::basic_string<char,std::char_traits<char>,std::allocator<char> >::assign
PUBLIC	?assign@?$basic_string@DU?$char_traits@D@std@@V?$allocator@D@2@@std@@QAEAAV12@PBD@Z ; std::basic_string<char,std::char_traits<char>,std::allocator<char> >::assign
PUBLIC	?erase@?$basic_string@DU?$char_traits@D@std@@V?$allocator@D@2@@std@@QAEAAV12@I@Z ; std::basic_string<char,std::char_traits<char>,std::allocator<char> >::erase
PUBLIC	?erase@?$basic_string@DU?$char_traits@D@std@@V?$allocator@D@2@@std@@QAEAAV12@II@Z ; std::basic_string<char,std::char_traits<char>,std::allocator<char> >::erase
PUBLIC	?size@?$basic_string@DU?$char_traits@D@std@@V?$allocator@D@2@@std@@QBEIXZ ; std::basic_string<char,std::char_traits<char>,std::allocator<char> >::size
PUBLIC	?max_size@?$basic_string@DU?$char_traits@D@std@@V?$allocator@D@2@@std@@QBEIXZ ; std::basic_string<char,std::char_traits<char>,std::allocator<char> >::max_size
PUBLIC	?_Copy@?$basic_string@DU?$char_traits@D@std@@V?$allocator@D@2@@std@@QAEXII@Z ; std::basic_string<char,std::char_traits<char>,std::allocator<char> >::_Copy
PUBLIC	?_Eos@?$basic_string@DU?$char_traits@D@std@@V?$allocator@D@2@@std@@QAEXI@Z ; std::basic_string<char,std::char_traits<char>,std::allocator<char> >::_Eos
PUBLIC	?_Grow@?$basic_string@DU?$char_traits@D@std@@V?$allocator@D@2@@std@@QAE_NI_N@Z ; std::basic_string<char,std::char_traits<char>,std::allocator<char> >::_Grow
PUBLIC	?_Inside@?$basic_string@DU?$char_traits@D@std@@V?$allocator@D@2@@std@@QAE_NPBD@Z ; std::basic_string<char,std::char_traits<char>,std::allocator<char> >::_Inside
PUBLIC	?_Tidy@?$basic_string@DU?$char_traits@D@std@@V?$allocator@D@2@@std@@QAEX_NI@Z ; std::basic_string<char,std::char_traits<char>,std::allocator<char> >::_Tidy
PUBLIC	?_Xlen@?$basic_string@DU?$char_traits@D@std@@V?$allocator@D@2@@std@@QBEXXZ ; std::basic_string<char,std::char_traits<char>,std::allocator<char> >::_Xlen
PUBLIC	?_Xran@?$basic_string@DU?$char_traits@D@std@@V?$allocator@D@2@@std@@QBEXXZ ; std::basic_string<char,std::char_traits<char>,std::allocator<char> >::_Xran
PUBLIC	??0id@locale@std@@QAE@I@Z			; std::locale::id::id
PUBLIC	??$_Debug_pointer@D@std@@YAXPBDPB_WI@Z		; std::_Debug_pointer<char>
PUBLIC	?generic_category@std@@YAABVerror_category@1@XZ	; std::generic_category
PUBLIC	?system_category@std@@YAABVerror_category@1@XZ	; std::system_category
PUBLIC	??0error_category@std@@QAE@XZ			; std::error_category::error_category
PUBLIC	??1error_category@std@@UAE@XZ			; std::error_category::~error_category
PUBLIC	?default_error_condition@error_category@std@@UBE?AVerror_condition@2@H@Z ; std::error_category::default_error_condition
PUBLIC	?equivalent@error_category@std@@UBE_NHABVerror_condition@2@@Z ; std::error_category::equivalent
PUBLIC	?equivalent@error_category@std@@UBE_NABVerror_code@2@H@Z ; std::error_category::equivalent
PUBLIC	??8error_category@std@@QBE_NABV01@@Z		; std::error_category::operator==
PUBLIC	??_Gerror_category@std@@UAEPAXI@Z		; std::error_category::`scalar deleting destructor'
PUBLIC	?value@error_code@std@@QBEHXZ			; std::error_code::value
PUBLIC	?category@error_code@std@@QBEABVerror_category@2@XZ ; std::error_code::category
PUBLIC	??0error_condition@std@@QAE@HABVerror_category@1@@Z ; std::error_condition::error_condition
PUBLIC	?value@error_condition@std@@QBEHXZ		; std::error_condition::value
PUBLIC	?category@error_condition@std@@QBEABVerror_category@2@XZ ; std::error_condition::category
PUBLIC	??8error_condition@std@@QBE_NABV01@@Z		; std::error_condition::operator==
PUBLIC	??0_Generic_error_category@std@@QAE@XZ		; std::_Generic_error_category::_Generic_error_category
PUBLIC	?name@_Generic_error_category@std@@UBEPBDXZ	; std::_Generic_error_category::name
PUBLIC	?message@_Generic_error_category@std@@UBE?AV?$basic_string@DU?$char_traits@D@std@@V?$allocator@D@2@@2@H@Z ; std::_Generic_error_category::message
PUBLIC	??1_Generic_error_category@std@@UAE@XZ		; std::_Generic_error_category::~_Generic_error_category
PUBLIC	??_G_Generic_error_category@std@@UAEPAXI@Z	; std::_Generic_error_category::`scalar deleting destructor'
PUBLIC	??0_Iostream_error_category@std@@QAE@XZ		; std::_Iostream_error_category::_Iostream_error_category
PUBLIC	?name@_Iostream_error_category@std@@UBEPBDXZ	; std::_Iostream_error_category::name
PUBLIC	?message@_Iostream_error_category@std@@UBE?AV?$basic_string@DU?$char_traits@D@std@@V?$allocator@D@2@@2@H@Z ; std::_Iostream_error_category::message
PUBLIC	??1_Iostream_error_category@std@@UAE@XZ		; std::_Iostream_error_category::~_Iostream_error_category
PUBLIC	??_G_Iostream_error_category@std@@UAEPAXI@Z	; std::_Iostream_error_category::`scalar deleting destructor'
PUBLIC	??0_System_error_category@std@@QAE@XZ		; std::_System_error_category::_System_error_category
PUBLIC	?name@_System_error_category@std@@UBEPBDXZ	; std::_System_error_category::name
PUBLIC	?message@_System_error_category@std@@UBE?AV?$basic_string@DU?$char_traits@D@std@@V?$allocator@D@2@@2@H@Z ; std::_System_error_category::message
PUBLIC	?default_error_condition@_System_error_category@std@@UBE?AVerror_condition@2@H@Z ; std::_System_error_category::default_error_condition
PUBLIC	??1_System_error_category@std@@UAE@XZ		; std::_System_error_category::~_System_error_category
PUBLIC	??_G_System_error_category@std@@UAEPAXI@Z	; std::_System_error_category::`scalar deleting destructor'
PUBLIC	?isEqual@@YA_NNN@Z				; isEqual
PUBLIC	??0?$allocator@N@std@@QAE@XZ			; std::allocator<double>::allocator<double>
PUBLIC	?deallocate@?$allocator@N@std@@QAEXPANI@Z	; std::allocator<double>::deallocate
PUBLIC	?allocate@?$allocator@N@std@@QAEPANI@Z		; std::allocator<double>::allocate
PUBLIC	?max_size@?$allocator@N@std@@QBEIXZ		; std::allocator<double>::max_size
PUBLIC	?max_size@?$allocator_traits@V?$allocator@N@std@@@std@@SAIABV?$allocator@N@2@@Z ; std::allocator_traits<std::allocator<double> >::max_size
PUBLIC	??0?$_Wrap_alloc@V?$allocator@N@std@@@std@@QAE@XZ ; std::_Wrap_alloc<std::allocator<double> >::_Wrap_alloc<std::allocator<double> >
PUBLIC	?allocate@?$_Wrap_alloc@V?$allocator@N@std@@@std@@QAEPANI@Z ; std::_Wrap_alloc<std::allocator<double> >::allocate
PUBLIC	?deallocate@?$_Wrap_alloc@V?$allocator@N@std@@@std@@QAEXPANI@Z ; std::_Wrap_alloc<std::allocator<double> >::deallocate
PUBLIC	?max_size@?$_Wrap_alloc@V?$allocator@N@std@@@std@@QBEIXZ ; std::_Wrap_alloc<std::allocator<double> >::max_size
PUBLIC	??0?$_Vector_val@U?$_Simple_types@N@std@@@std@@QAE@XZ ; std::_Vector_val<std::_Simple_types<double> >::_Vector_val<std::_Simple_types<double> >
PUBLIC	??1?$_Vector_val@U?$_Simple_types@N@std@@@std@@QAE@XZ ; std::_Vector_val<std::_Simple_types<double> >::~_Vector_val<std::_Simple_types<double> >
PUBLIC	??0?$_Vector_alloc@$0A@U?$_Vec_base_types@NV?$allocator@N@std@@@std@@@std@@QAE@ABV?$allocator@N@1@@Z ; std::_Vector_alloc<0,std::_Vec_base_types<double,std::allocator<double> > >::_Vector_alloc<0,std::_Vec_base_types<double,std::allocator<double> > >
PUBLIC	??1?$_Vector_alloc@$0A@U?$_Vec_base_types@NV?$allocator@N@std@@@std@@@std@@QAE@XZ ; std::_Vector_alloc<0,std::_Vec_base_types<double,std::allocator<double> > >::~_Vector_alloc<0,std::_Vec_base_types<double,std::allocator<double> > >
PUBLIC	?_Alloc_proxy@?$_Vector_alloc@$0A@U?$_Vec_base_types@NV?$allocator@N@std@@@std@@@std@@QAEXXZ ; std::_Vector_alloc<0,std::_Vec_base_types<double,std::allocator<double> > >::_Alloc_proxy
PUBLIC	?_Free_proxy@?$_Vector_alloc@$0A@U?$_Vec_base_types@NV?$allocator@N@std@@@std@@@std@@QAEXXZ ; std::_Vector_alloc<0,std::_Vec_base_types<double,std::allocator<double> > >::_Free_proxy
PUBLIC	?_Getal@?$_Vector_alloc@$0A@U?$_Vec_base_types@NV?$allocator@N@std@@@std@@@std@@QBE?AU?$_Wrap_alloc@V?$allocator@N@std@@@2@XZ ; std::_Vector_alloc<0,std::_Vec_base_types<double,std::allocator<double> > >::_Getal
PUBLIC	??0?$vector@NV?$allocator@N@std@@@std@@QAE@IABN@Z ; std::vector<double,std::allocator<double> >::vector<double,std::allocator<double> >
PUBLIC	?_Construct_n@?$vector@NV?$allocator@N@std@@@std@@QAEXIPBN@Z ; std::vector<double,std::allocator<double> >::_Construct_n
PUBLIC	??1?$vector@NV?$allocator@N@std@@@std@@QAE@XZ	; std::vector<double,std::allocator<double> >::~vector<double,std::allocator<double> >
PUBLIC	?size@?$vector@NV?$allocator@N@std@@@std@@QBEIXZ ; std::vector<double,std::allocator<double> >::size
PUBLIC	?max_size@?$vector@NV?$allocator@N@std@@@std@@QBEIXZ ; std::vector<double,std::allocator<double> >::max_size
PUBLIC	??A?$vector@NV?$allocator@N@std@@@std@@QBEABNI@Z ; std::vector<double,std::allocator<double> >::operator[]
PUBLIC	??A?$vector@NV?$allocator@N@std@@@std@@QAEAANI@Z ; std::vector<double,std::allocator<double> >::operator[]
PUBLIC	?_Buy@?$vector@NV?$allocator@N@std@@@std@@IAE_NI@Z ; std::vector<double,std::allocator<double> >::_Buy
PUBLIC	?_Destroy@?$vector@NV?$allocator@N@std@@@std@@IAEXPAN0@Z ; std::vector<double,std::allocator<double> >::_Destroy
PUBLIC	?_Tidy@?$vector@NV?$allocator@N@std@@@std@@IAEXXZ ; std::vector<double,std::allocator<double> >::_Tidy
PUBLIC	?_Ufill@?$vector@NV?$allocator@N@std@@@std@@IAEPANPANIPBN@Z ; std::vector<double,std::allocator<double> >::_Ufill
PUBLIC	?_Xlen@?$vector@NV?$allocator@N@std@@@std@@IBEXXZ ; std::vector<double,std::allocator<double> >::_Xlen
PUBLIC	??0Vector2D@@QAE@XZ				; Vector2D::Vector2D
PUBLIC	??0Vector2D@@QAE@NN@Z				; Vector2D::Vector2D
PUBLIC	??G@YA?AUVector2D@@ABU0@0@Z			; operator-
PUBLIC	??H@YA?AUVector2D@@ABU0@0@Z			; operator+
PUBLIC	??K@YA?AUVector2D@@ABU0@N@Z			; operator/
PUBLIC	?Vec2DDistance@@YANABUVector2D@@0@Z		; Vec2DDistance
PUBLIC	?Vec2DDistanceSq@@YANABUVector2D@@0@Z		; Vec2DDistanceSq
PUBLIC	??0?$allocator@H@std@@QAE@XZ			; std::allocator<int>::allocator<int>
PUBLIC	?deallocate@?$allocator@H@std@@QAEXPAHI@Z	; std::allocator<int>::deallocate
PUBLIC	?allocate@?$allocator@H@std@@QAEPAHI@Z		; std::allocator<int>::allocate
PUBLIC	?max_size@?$allocator@H@std@@QBEIXZ		; std::allocator<int>::max_size
PUBLIC	?max_size@?$allocator_traits@V?$allocator@H@std@@@std@@SAIABV?$allocator@H@2@@Z ; std::allocator_traits<std::allocator<int> >::max_size
PUBLIC	??0?$_Wrap_alloc@V?$allocator@H@std@@@std@@QAE@XZ ; std::_Wrap_alloc<std::allocator<int> >::_Wrap_alloc<std::allocator<int> >
PUBLIC	?allocate@?$_Wrap_alloc@V?$allocator@H@std@@@std@@QAEPAHI@Z ; std::_Wrap_alloc<std::allocator<int> >::allocate
PUBLIC	?deallocate@?$_Wrap_alloc@V?$allocator@H@std@@@std@@QAEXPAHI@Z ; std::_Wrap_alloc<std::allocator<int> >::deallocate
PUBLIC	?max_size@?$_Wrap_alloc@V?$allocator@H@std@@@std@@QBEIXZ ; std::_Wrap_alloc<std::allocator<int> >::max_size
PUBLIC	??0?$_Vector_val@U?$_Simple_types@H@std@@@std@@QAE@XZ ; std::_Vector_val<std::_Simple_types<int> >::_Vector_val<std::_Simple_types<int> >
PUBLIC	??1?$_Vector_val@U?$_Simple_types@H@std@@@std@@QAE@XZ ; std::_Vector_val<std::_Simple_types<int> >::~_Vector_val<std::_Simple_types<int> >
PUBLIC	??0?$_Vector_alloc@$0A@U?$_Vec_base_types@HV?$allocator@H@std@@@std@@@std@@QAE@ABV?$allocator@H@1@@Z ; std::_Vector_alloc<0,std::_Vec_base_types<int,std::allocator<int> > >::_Vector_alloc<0,std::_Vec_base_types<int,std::allocator<int> > >
PUBLIC	??1?$_Vector_alloc@$0A@U?$_Vec_base_types@HV?$allocator@H@std@@@std@@@std@@QAE@XZ ; std::_Vector_alloc<0,std::_Vec_base_types<int,std::allocator<int> > >::~_Vector_alloc<0,std::_Vec_base_types<int,std::allocator<int> > >
PUBLIC	?_Alloc_proxy@?$_Vector_alloc@$0A@U?$_Vec_base_types@HV?$allocator@H@std@@@std@@@std@@QAEXXZ ; std::_Vector_alloc<0,std::_Vec_base_types<int,std::allocator<int> > >::_Alloc_proxy
PUBLIC	?_Free_proxy@?$_Vector_alloc@$0A@U?$_Vec_base_types@HV?$allocator@H@std@@@std@@@std@@QAEXXZ ; std::_Vector_alloc<0,std::_Vec_base_types<int,std::allocator<int> > >::_Free_proxy
PUBLIC	?_Getal@?$_Vector_alloc@$0A@U?$_Vec_base_types@HV?$allocator@H@std@@@std@@@std@@QBE?AU?$_Wrap_alloc@V?$allocator@H@std@@@2@XZ ; std::_Vector_alloc<0,std::_Vec_base_types<int,std::allocator<int> > >::_Getal
PUBLIC	??0?$vector@HV?$allocator@H@std@@@std@@QAE@XZ	; std::vector<int,std::allocator<int> >::vector<int,std::allocator<int> >
PUBLIC	??1?$vector@HV?$allocator@H@std@@@std@@QAE@XZ	; std::vector<int,std::allocator<int> >::~vector<int,std::allocator<int> >
PUBLIC	?capacity@?$vector@HV?$allocator@H@std@@@std@@QBEIXZ ; std::vector<int,std::allocator<int> >::capacity
PUBLIC	?_Unused_capacity@?$vector@HV?$allocator@H@std@@@std@@QBEIXZ ; std::vector<int,std::allocator<int> >::_Unused_capacity
PUBLIC	?begin@?$vector@HV?$allocator@H@std@@@std@@QAE?AV?$_Vector_iterator@V?$_Vector_val@U?$_Simple_types@H@std@@@std@@@2@XZ ; std::vector<int,std::allocator<int> >::begin
PUBLIC	?size@?$vector@HV?$allocator@H@std@@@std@@QBEIXZ ; std::vector<int,std::allocator<int> >::size
PUBLIC	?max_size@?$vector@HV?$allocator@H@std@@@std@@QBEIXZ ; std::vector<int,std::allocator<int> >::max_size
PUBLIC	??A?$vector@HV?$allocator@H@std@@@std@@QAEAAHI@Z ; std::vector<int,std::allocator<int> >::operator[]
PUBLIC	?assign@?$vector@HV?$allocator@H@std@@@std@@QAEXIABH@Z ; std::vector<int,std::allocator<int> >::assign
PUBLIC	?insert@?$vector@HV?$allocator@H@std@@@std@@QAE?AV?$_Vector_iterator@V?$_Vector_val@U?$_Simple_types@H@std@@@std@@@2@V?$_Vector_const_iterator@V?$_Vector_val@U?$_Simple_types@H@std@@@std@@@2@IABH@Z ; std::vector<int,std::allocator<int> >::insert
PUBLIC	?clear@?$vector@HV?$allocator@H@std@@@std@@QAEXXZ ; std::vector<int,std::allocator<int> >::clear
PUBLIC	?_Destroy@?$vector@HV?$allocator@H@std@@@std@@IAEXPAH0@Z ; std::vector<int,std::allocator<int> >::_Destroy
PUBLIC	?_Grow_to@?$vector@HV?$allocator@H@std@@@std@@IBEII@Z ; std::vector<int,std::allocator<int> >::_Grow_to
PUBLIC	?_Tidy@?$vector@HV?$allocator@H@std@@@std@@IAEXXZ ; std::vector<int,std::allocator<int> >::_Tidy
PUBLIC	?_Insert_n@?$vector@HV?$allocator@H@std@@@std@@IAE?AV?$_Vector_iterator@V?$_Vector_val@U?$_Simple_types@H@std@@@std@@@2@V?$_Vector_const_iterator@V?$_Vector_val@U?$_Simple_types@H@std@@@std@@@2@IABH@Z ; std::vector<int,std::allocator<int> >::_Insert_n
PUBLIC	?_Ufill@?$vector@HV?$allocator@H@std@@@std@@IAEPAHPAHIPBH@Z ; std::vector<int,std::allocator<int> >::_Ufill
PUBLIC	?_Xlen@?$vector@HV?$allocator@H@std@@@std@@IBEXXZ ; std::vector<int,std::allocator<int> >::_Xlen
PUBLIC	?_Orphan_range@?$vector@HV?$allocator@H@std@@@std@@IBEXPAH0@Z ; std::vector<int,std::allocator<int> >::_Orphan_range
PUBLIC	??0PathEdge@@QAE@UVector2D@@0HH@Z		; PathEdge::PathEdge
PUBLIC	?Destination@PathEdge@@QBE?AUVector2D@@XZ	; PathEdge::Destination
PUBLIC	?SetDestination@PathEdge@@QAEXUVector2D@@@Z	; PathEdge::SetDestination
PUBLIC	?Source@PathEdge@@QBE?AUVector2D@@XZ		; PathEdge::Source
PUBLIC	?Behavior@PathEdge@@QBEHXZ			; PathEdge::Behavior
PUBLIC	?Pos@BaseGameEntity@@QBE?AUVector2D@@XZ		; BaseGameEntity::Pos
PUBLIC	?ID@BaseGameEntity@@QBEHXZ			; BaseGameEntity::ID
PUBLIC	?EntityType@BaseGameEntity@@QBEHXZ		; BaseGameEntity::EntityType
PUBLIC	??0InvertedAABBox2D@@QAE@UVector2D@@0@Z		; InvertedAABBox2D::InvertedAABBox2D
PUBLIC	?isOverlappedWith@InvertedAABBox2D@@QBE_NABV1@@Z ; InvertedAABBox2D::isOverlappedWith
PUBLIC	?Top@InvertedAABBox2D@@QBENXZ			; InvertedAABBox2D::Top
PUBLIC	?Left@InvertedAABBox2D@@QBENXZ			; InvertedAABBox2D::Left
PUBLIC	?Bottom@InvertedAABBox2D@@QBENXZ		; InvertedAABBox2D::Bottom
PUBLIC	?Right@InvertedAABBox2D@@QBENXZ			; InvertedAABBox2D::Right
PUBLIC	??0_Ignore@std@@QAE@XZ				; std::_Ignore::_Ignore
PUBLIC	?GetWorld@Raven_Bot@@QAEQAVRaven_Game@@XZ	; Raven_Bot::GetWorld
PUBLIC	?From@GraphEdge@@QBEHXZ				; GraphEdge::From
PUBLIC	?To@GraphEdge@@QBEHXZ				; GraphEdge::To
PUBLIC	?Cost@GraphEdge@@QBENXZ				; GraphEdge::Cost
PUBLIC	?Flags@NavGraphEdge@@QBEHXZ			; NavGraphEdge::Flags
PUBLIC	?IDofIntersectingEntity@NavGraphEdge@@QBEHXZ	; NavGraphEdge::IDofIntersectingEntity
PUBLIC	?Index@GraphNode@@QBEHXZ			; GraphNode::Index
PUBLIC	?size@?$vector@V?$NavGraphNode@PAV?$Trigger@VRaven_Bot@@@@@@V?$allocator@V?$NavGraphNode@PAV?$Trigger@VRaven_Bot@@@@@@@std@@@std@@QBEIXZ ; std::vector<NavGraphNode<Trigger<Raven_Bot> *>,std::allocator<NavGraphNode<Trigger<Raven_Bot> *> > >::size
PUBLIC	??A?$vector@V?$NavGraphNode@PAV?$Trigger@VRaven_Bot@@@@@@V?$allocator@V?$NavGraphNode@PAV?$Trigger@VRaven_Bot@@@@@@@std@@@std@@QBEABV?$NavGraphNode@PAV?$Trigger@VRaven_Bot@@@@@@I@Z ; std::vector<NavGraphNode<Trigger<Raven_Bot> *>,std::allocator<NavGraphNode<Trigger<Raven_Bot> *> > >::operator[]
PUBLIC	?size@?$vector@V?$list@VNavGraphEdge@@V?$allocator@VNavGraphEdge@@@std@@@std@@V?$allocator@V?$list@VNavGraphEdge@@V?$allocator@VNavGraphEdge@@@std@@@std@@@2@@std@@QBEIXZ ; std::vector<std::list<NavGraphEdge,std::allocator<NavGraphEdge> >,std::allocator<std::list<NavGraphEdge,std::allocator<NavGraphEdge> > > >::size
PUBLIC	??A?$vector@V?$list@VNavGraphEdge@@V?$allocator@VNavGraphEdge@@@std@@@std@@V?$allocator@V?$list@VNavGraphEdge@@V?$allocator@VNavGraphEdge@@@std@@@std@@@2@@std@@QBEABV?$list@VNavGraphEdge@@V?$allocator@VNavGraphEdge@@@std@@@1@I@Z ; std::vector<std::list<NavGraphEdge,std::allocator<NavGraphEdge> >,std::allocator<std::list<NavGraphEdge,std::allocator<NavGraphEdge> > > >::operator[]
PUBLIC	?GetNode@?$SparseGraph@V?$NavGraphNode@PAV?$Trigger@VRaven_Bot@@@@@@VNavGraphEdge@@@@QBEABV?$NavGraphNode@PAV?$Trigger@VRaven_Bot@@@@@@H@Z ; SparseGraph<NavGraphNode<Trigger<Raven_Bot> *>,NavGraphEdge>::GetNode
PUBLIC	?NumNodes@?$SparseGraph@V?$NavGraphNode@PAV?$Trigger@VRaven_Bot@@@@@@VNavGraphEdge@@@@QBEHXZ ; SparseGraph<NavGraphNode<Trigger<Raven_Bot> *>,NavGraphEdge>::NumNodes
PUBLIC	?_Nextnode@?$_List_val@U?$_List_simple_types@PAV?$Trigger@VRaven_Bot@@@@@std@@@std@@SAAAPAU?$_List_node@PAV?$Trigger@VRaven_Bot@@@@PAX@2@PAU32@@Z ; std::_List_val<std::_List_simple_types<Trigger<Raven_Bot> *> >::_Nextnode
PUBLIC	?_Myval@?$_List_val@U?$_List_simple_types@PAV?$Trigger@VRaven_Bot@@@@@std@@@std@@SAAAPAV?$Trigger@VRaven_Bot@@@@PAU?$_List_node@PAV?$Trigger@VRaven_Bot@@@@PAX@2@@Z ; std::_List_val<std::_List_simple_types<Trigger<Raven_Bot> *> >::_Myval
PUBLIC	?begin@?$list@PAV?$Trigger@VRaven_Bot@@@@V?$allocator@PAV?$Trigger@VRaven_Bot@@@@@std@@@std@@QBE?AV?$_List_const_iterator@V?$_List_val@U?$_List_simple_types@PAV?$Trigger@VRaven_Bot@@@@@std@@@std@@@2@XZ ; std::list<Trigger<Raven_Bot> *,std::allocator<Trigger<Raven_Bot> *> >::begin
PUBLIC	?end@?$list@PAV?$Trigger@VRaven_Bot@@@@V?$allocator@PAV?$Trigger@VRaven_Bot@@@@@std@@@std@@QBE?AV?$_List_const_iterator@V?$_List_val@U?$_List_simple_types@PAV?$Trigger@VRaven_Bot@@@@@std@@@std@@@2@XZ ; std::list<Trigger<Raven_Bot> *,std::allocator<Trigger<Raven_Bot> *> >::end
PUBLIC	?GetTriggers@?$TriggerSystem@V?$Trigger@VRaven_Bot@@@@@@QBEABV?$list@PAV?$Trigger@VRaven_Bot@@@@V?$allocator@PAV?$Trigger@VRaven_Bot@@@@@std@@@std@@XZ ; TriggerSystem<Trigger<Raven_Bot> >::GetTriggers
PUBLIC	?GetTriggers@Raven_Map@@QBEABV?$list@PAV?$Trigger@VRaven_Bot@@@@V?$allocator@PAV?$Trigger@VRaven_Bot@@@@@std@@@std@@XZ ; Raven_Map::GetTriggers
PUBLIC	?GetNavGraph@Raven_Map@@QBEAAV?$SparseGraph@V?$NavGraphNode@PAV?$Trigger@VRaven_Bot@@@@@@VNavGraphEdge@@@@XZ ; Raven_Map::GetNavGraph
PUBLIC	?GetCellSpace@Raven_Map@@QBEQAV?$CellSpacePartition@PAV?$NavGraphNode@PAV?$Trigger@VRaven_Bot@@@@@@@@XZ ; Raven_Map::GetCellSpace
PUBLIC	?GetCellSpaceNeighborhoodRange@Raven_Map@@QBENXZ ; Raven_Map::GetCellSpaceNeighborhoodRange
PUBLIC	?GetClosestNodeToPosition@Raven_PathPlanner@@ABEHUVector2D@@@Z ; Raven_PathPlanner::GetClosestNodeToPosition
PUBLIC	?SmoothPathEdgesQuick@Raven_PathPlanner@@AAEXAAV?$list@VPathEdge@@V?$allocator@VPathEdge@@@std@@@std@@@Z ; Raven_PathPlanner::SmoothPathEdgesQuick
PUBLIC	?SmoothPathEdgesPrecise@Raven_PathPlanner@@AAEXAAV?$list@VPathEdge@@V?$allocator@VPathEdge@@@std@@@std@@@Z ; Raven_PathPlanner::SmoothPathEdgesPrecise
PUBLIC	?GetReadyForNewSearch@Raven_PathPlanner@@AAEXXZ	; Raven_PathPlanner::GetReadyForNewSearch
PUBLIC	??1Raven_PathPlanner@@QAE@XZ			; Raven_PathPlanner::~Raven_PathPlanner
PUBLIC	??0Raven_PathPlanner@@QAE@PAVRaven_Bot@@@Z	; Raven_PathPlanner::Raven_PathPlanner
PUBLIC	?RequestPathToItem@Raven_PathPlanner@@QAE_NI@Z	; Raven_PathPlanner::RequestPathToItem
PUBLIC	?RequestPathToPosition@Raven_PathPlanner@@QAE_NUVector2D@@@Z ; Raven_PathPlanner::RequestPathToPosition
PUBLIC	?GetPath@Raven_PathPlanner@@QAE?AV?$list@VPathEdge@@V?$allocator@VPathEdge@@@std@@@std@@XZ ; Raven_PathPlanner::GetPath
PUBLIC	?GetCostToNode@Raven_PathPlanner@@QBENI@Z	; Raven_PathPlanner::GetCostToNode
PUBLIC	?GetCostToClosestItem@Raven_PathPlanner@@QBENI@Z ; Raven_PathPlanner::GetCostToClosestItem
PUBLIC	?CycleOnce@Raven_PathPlanner@@QBEHXZ		; Raven_PathPlanner::CycleOnce
PUBLIC	?GetNodePosition@Raven_PathPlanner@@QBE?AUVector2D@@H@Z ; Raven_PathPlanner::GetNodePosition
PUBLIC	?GetMap@Raven_Game@@QAEQAVRaven_Map@@XZ		; Raven_Game::GetMap
PUBLIC	?GetPathManager@Raven_Game@@QAEQAV?$PathManager@VRaven_PathPlanner@@@@XZ ; Raven_Game::GetPathManager
PUBLIC	??0?$allocator@U?$_List_node@PAVRaven_PathPlanner@@PAX@std@@@std@@QAE@XZ ; std::allocator<std::_List_node<Raven_PathPlanner *,void *> >::allocator<std::_List_node<Raven_PathPlanner *,void *> >
PUBLIC	?deallocate@?$allocator@U?$_List_node@PAVRaven_PathPlanner@@PAX@std@@@std@@QAEXPAU?$_List_node@PAVRaven_PathPlanner@@PAX@2@I@Z ; std::allocator<std::_List_node<Raven_PathPlanner *,void *> >::deallocate
PUBLIC	?allocate@?$allocator@U?$_List_node@PAVRaven_PathPlanner@@PAX@std@@@std@@QAEPAU?$_List_node@PAVRaven_PathPlanner@@PAX@2@I@Z ; std::allocator<std::_List_node<Raven_PathPlanner *,void *> >::allocate
PUBLIC	?max_size@?$allocator@U?$_List_node@PAVRaven_PathPlanner@@PAX@std@@@std@@QBEIXZ ; std::allocator<std::_List_node<Raven_PathPlanner *,void *> >::max_size
PUBLIC	?max_size@?$allocator_traits@V?$allocator@U?$_List_node@PAVRaven_PathPlanner@@PAX@std@@@std@@@std@@SAIABV?$allocator@U?$_List_node@PAVRaven_PathPlanner@@PAX@std@@@2@@Z ; std::allocator_traits<std::allocator<std::_List_node<Raven_PathPlanner *,void *> > >::max_size
PUBLIC	??0?$_Wrap_alloc@V?$allocator@U?$_List_node@PAVRaven_PathPlanner@@PAX@std@@@std@@@std@@QAE@XZ ; std::_Wrap_alloc<std::allocator<std::_List_node<Raven_PathPlanner *,void *> > >::_Wrap_alloc<std::allocator<std::_List_node<Raven_PathPlanner *,void *> > >
PUBLIC	?allocate@?$_Wrap_alloc@V?$allocator@U?$_List_node@PAVRaven_PathPlanner@@PAX@std@@@std@@@std@@QAEPAU?$_List_node@PAVRaven_PathPlanner@@PAX@2@I@Z ; std::_Wrap_alloc<std::allocator<std::_List_node<Raven_PathPlanner *,void *> > >::allocate
PUBLIC	?deallocate@?$_Wrap_alloc@V?$allocator@U?$_List_node@PAVRaven_PathPlanner@@PAX@std@@@std@@@std@@QAEXPAU?$_List_node@PAVRaven_PathPlanner@@PAX@2@I@Z ; std::_Wrap_alloc<std::allocator<std::_List_node<Raven_PathPlanner *,void *> > >::deallocate
PUBLIC	?max_size@?$_Wrap_alloc@V?$allocator@U?$_List_node@PAVRaven_PathPlanner@@PAX@std@@@std@@@std@@QBEIXZ ; std::_Wrap_alloc<std::allocator<std::_List_node<Raven_PathPlanner *,void *> > >::max_size
PUBLIC	?_Nextnode@?$_List_val@U?$_List_simple_types@PAVRaven_PathPlanner@@@std@@@std@@SAAAPAU?$_List_node@PAVRaven_PathPlanner@@PAX@2@PAU32@@Z ; std::_List_val<std::_List_simple_types<Raven_PathPlanner *> >::_Nextnode
PUBLIC	?_Prevnode@?$_List_val@U?$_List_simple_types@PAVRaven_PathPlanner@@@std@@@std@@SAAAPAU?$_List_node@PAVRaven_PathPlanner@@PAX@2@PAU32@@Z ; std::_List_val<std::_List_simple_types<Raven_PathPlanner *> >::_Prevnode
PUBLIC	?_Myval@?$_List_val@U?$_List_simple_types@PAVRaven_PathPlanner@@@std@@@std@@SAAAPAVRaven_PathPlanner@@PAU?$_List_node@PAVRaven_PathPlanner@@PAX@2@@Z ; std::_List_val<std::_List_simple_types<Raven_PathPlanner *> >::_Myval
PUBLIC	?_Buynode0@?$_List_alloc@$0A@U?$_List_base_types@PAVRaven_PathPlanner@@V?$allocator@PAVRaven_PathPlanner@@@std@@@std@@@std@@QAEPAU?$_List_node@PAVRaven_PathPlanner@@PAX@2@PAU32@0@Z ; std::_List_alloc<0,std::_List_base_types<Raven_PathPlanner *,std::allocator<Raven_PathPlanner *> > >::_Buynode0
PUBLIC	?_Getal@?$_List_alloc@$0A@U?$_List_base_types@PAVRaven_PathPlanner@@V?$allocator@PAVRaven_PathPlanner@@@std@@@std@@@std@@QBE?AU?$_Wrap_alloc@V?$allocator@U?$_List_node@PAVRaven_PathPlanner@@PAX@std@@@std@@@2@XZ ; std::_List_alloc<0,std::_List_base_types<Raven_PathPlanner *,std::allocator<Raven_PathPlanner *> > >::_Getal
PUBLIC	?_Freenode@?$_List_buy@PAVRaven_PathPlanner@@V?$allocator@PAVRaven_PathPlanner@@@std@@@std@@QAEXPAU?$_List_node@PAVRaven_PathPlanner@@PAX@2@@Z ; std::_List_buy<Raven_PathPlanner *,std::allocator<Raven_PathPlanner *> >::_Freenode
PUBLIC	?begin@?$list@PAVRaven_PathPlanner@@V?$allocator@PAVRaven_PathPlanner@@@std@@@std@@QAE?AV?$_List_iterator@V?$_List_val@U?$_List_simple_types@PAVRaven_PathPlanner@@@std@@@std@@@2@XZ ; std::list<Raven_PathPlanner *,std::allocator<Raven_PathPlanner *> >::begin
PUBLIC	?end@?$list@PAVRaven_PathPlanner@@V?$allocator@PAVRaven_PathPlanner@@@std@@@std@@QAE?AV?$_List_iterator@V?$_List_val@U?$_List_simple_types@PAVRaven_PathPlanner@@@std@@@std@@@2@XZ ; std::list<Raven_PathPlanner *,std::allocator<Raven_PathPlanner *> >::end
PUBLIC	?_Unchecked_end@?$list@PAVRaven_PathPlanner@@V?$allocator@PAVRaven_PathPlanner@@@std@@@std@@QAE?AV?$_List_unchecked_iterator@V?$_List_val@U?$_List_simple_types@PAVRaven_PathPlanner@@@std@@@std@@@2@XZ ; std::list<Raven_PathPlanner *,std::allocator<Raven_PathPlanner *> >::_Unchecked_end
PUBLIC	?_Make_iter@?$list@PAVRaven_PathPlanner@@V?$allocator@PAVRaven_PathPlanner@@@std@@@std@@QBE?AV?$_List_iterator@V?$_List_val@U?$_List_simple_types@PAVRaven_PathPlanner@@@std@@@std@@@2@V?$_List_const_iterator@V?$_List_val@U?$_List_simple_types@PAVRaven_PathPlanner@@@std@@@std@@@2@@Z ; std::list<Raven_PathPlanner *,std::allocator<Raven_PathPlanner *> >::_Make_iter
PUBLIC	?max_size@?$list@PAVRaven_PathPlanner@@V?$allocator@PAVRaven_PathPlanner@@@std@@@std@@QBEIXZ ; std::list<Raven_PathPlanner *,std::allocator<Raven_PathPlanner *> >::max_size
PUBLIC	?push_back@?$list@PAVRaven_PathPlanner@@V?$allocator@PAVRaven_PathPlanner@@@std@@@std@@QAEXABQAVRaven_PathPlanner@@@Z ; std::list<Raven_PathPlanner *,std::allocator<Raven_PathPlanner *> >::push_back
PUBLIC	?_Unlinknode@?$list@PAVRaven_PathPlanner@@V?$allocator@PAVRaven_PathPlanner@@@std@@@std@@QAEPAU?$_List_node@PAVRaven_PathPlanner@@PAX@2@V?$_List_const_iterator@V?$_List_val@U?$_List_simple_types@PAVRaven_PathPlanner@@@std@@@std@@@2@@Z ; std::list<Raven_PathPlanner *,std::allocator<Raven_PathPlanner *> >::_Unlinknode
PUBLIC	?erase@?$list@PAVRaven_PathPlanner@@V?$allocator@PAVRaven_PathPlanner@@@std@@@std@@QAE?AV?$_List_iterator@V?$_List_val@U?$_List_simple_types@PAVRaven_PathPlanner@@@std@@@std@@@2@V?$_List_const_iterator@V?$_List_val@U?$_List_simple_types@PAVRaven_PathPlanner@@@std@@@std@@@2@@Z ; std::list<Raven_PathPlanner *,std::allocator<Raven_PathPlanner *> >::erase
PUBLIC	?remove@?$list@PAVRaven_PathPlanner@@V?$allocator@PAVRaven_PathPlanner@@@std@@@std@@QAEXABQAVRaven_PathPlanner@@@Z ; std::list<Raven_PathPlanner *,std::allocator<Raven_PathPlanner *> >::remove
PUBLIC	?_Incsize@?$list@PAVRaven_PathPlanner@@V?$allocator@PAVRaven_PathPlanner@@@std@@@std@@QAEXI@Z ; std::list<Raven_PathPlanner *,std::allocator<Raven_PathPlanner *> >::_Incsize
PUBLIC	?_Orphan_ptr@?$list@PAVRaven_PathPlanner@@V?$allocator@PAVRaven_PathPlanner@@@std@@@std@@QBEXAAV12@PAU?$_List_node@PAVRaven_PathPlanner@@PAX@2@@Z ; std::list<Raven_PathPlanner *,std::allocator<Raven_PathPlanner *> >::_Orphan_ptr
PUBLIC	?Register@?$PathManager@VRaven_PathPlanner@@@@QAEXPAVRaven_PathPlanner@@@Z ; PathManager<Raven_PathPlanner>::Register
PUBLIC	?UnRegister@?$PathManager@VRaven_PathPlanner@@@@QAEXPAVRaven_PathPlanner@@@Z ; PathManager<Raven_PathPlanner>::UnRegister
PUBLIC	??0?$Graph_SearchTimeSliced@VNavGraphEdge@@@@QAE@W4SearchType@0@@Z ; Graph_SearchTimeSliced<NavGraphEdge>::Graph_SearchTimeSliced<NavGraphEdge>
PUBLIC	??1?$Graph_SearchTimeSliced@VNavGraphEdge@@@@UAE@XZ ; Graph_SearchTimeSliced<NavGraphEdge>::~Graph_SearchTimeSliced<NavGraphEdge>
PUBLIC	?GetType@?$Graph_SearchTimeSliced@VNavGraphEdge@@@@QBE?AW4SearchType@1@XZ ; Graph_SearchTimeSliced<NavGraphEdge>::GetType
PUBLIC	??_G?$Graph_SearchTimeSliced@VNavGraphEdge@@@@UAEPAXI@Z ; Graph_SearchTimeSliced<NavGraphEdge>::`scalar deleting destructor'
PUBLIC	?Pos@?$NavGraphNode@PAV?$Trigger@VRaven_Bot@@@@@@QBE?AUVector2D@@XZ ; NavGraphNode<Trigger<Raven_Bot> *>::Pos
PUBLIC	?ExtraInfo@?$NavGraphNode@PAV?$Trigger@VRaven_Bot@@@@@@QBEPAV?$Trigger@VRaven_Bot@@@@XZ ; NavGraphNode<Trigger<Raven_Bot> *>::ExtraInfo
PUBLIC	??0?$_Iterator012@Ubidirectional_iterator_tag@std@@PAV?$Trigger@VRaven_Bot@@@@HPBQAV3@ABQAV3@U_Iterator_base12@2@@std@@QAE@XZ ; std::_Iterator012<std::bidirectional_iterator_tag,Trigger<Raven_Bot> *,int,Trigger<Raven_Bot> * const *,Trigger<Raven_Bot> * const &,std::_Iterator_base12>::_Iterator012<std::bidirectional_iterator_tag,Trigger<Raven_Bot> *,int,Trigger<Raven_Bot> * const *,Trigger<Raven_Bot> * const &,std::_Iterator_base12>
PUBLIC	??1?$_Iterator012@Ubidirectional_iterator_tag@std@@PAV?$Trigger@VRaven_Bot@@@@HPBQAV3@ABQAV3@U_Iterator_base12@2@@std@@QAE@XZ ; std::_Iterator012<std::bidirectional_iterator_tag,Trigger<Raven_Bot> *,int,Trigger<Raven_Bot> * const *,Trigger<Raven_Bot> * const &,std::_Iterator_base12>::~_Iterator012<std::bidirectional_iterator_tag,Trigger<Raven_Bot> *,int,Trigger<Raven_Bot> * const *,Trigger<Raven_Bot> * const &,std::_Iterator_base12>
PUBLIC	??4?$_Iterator012@Ubidirectional_iterator_tag@std@@PAV?$Trigger@VRaven_Bot@@@@HPBQAV3@ABQAV3@U_Iterator_base12@2@@std@@QAEAAU01@ABU01@@Z ; std::_Iterator012<std::bidirectional_iterator_tag,Trigger<Raven_Bot> *,int,Trigger<Raven_Bot> * const *,Trigger<Raven_Bot> * const &,std::_Iterator_base12>::operator=
PUBLIC	??0?$_List_unchecked_const_iterator@V?$_List_val@U?$_List_simple_types@PAV?$Trigger@VRaven_Bot@@@@@std@@@std@@U_Iterator_base12@2@@std@@QAE@XZ ; std::_List_unchecked_const_iterator<std::_List_val<std::_List_simple_types<Trigger<Raven_Bot> *> >,std::_Iterator_base12>::_List_unchecked_const_iterator<std::_List_val<std::_List_simple_types<Trigger<Raven_Bot> *> >,std::_Iterator_base12>
PUBLIC	??0?$_List_unchecked_const_iterator@V?$_List_val@U?$_List_simple_types@PAV?$Trigger@VRaven_Bot@@@@@std@@@std@@U_Iterator_base12@2@@std@@QAE@PAU?$_List_node@PAV?$Trigger@VRaven_Bot@@@@PAX@1@PBV?$_List_val@U?$_List_simple_types@PAV?$Trigger@VRaven_Bot@@@@@std@@@1@@Z ; std::_List_unchecked_const_iterator<std::_List_val<std::_List_simple_types<Trigger<Raven_Bot> *> >,std::_Iterator_base12>::_List_unchecked_const_iterator<std::_List_val<std::_List_simple_types<Trigger<Raven_Bot> *> >,std::_Iterator_base12>
PUBLIC	??1?$_List_unchecked_const_iterator@V?$_List_val@U?$_List_simple_types@PAV?$Trigger@VRaven_Bot@@@@@std@@@std@@U_Iterator_base12@2@@std@@QAE@XZ ; std::_List_unchecked_const_iterator<std::_List_val<std::_List_simple_types<Trigger<Raven_Bot> *> >,std::_Iterator_base12>::~_List_unchecked_const_iterator<std::_List_val<std::_List_simple_types<Trigger<Raven_Bot> *> >,std::_Iterator_base12>
PUBLIC	??4?$_List_unchecked_const_iterator@V?$_List_val@U?$_List_simple_types@PAV?$Trigger@VRaven_Bot@@@@@std@@@std@@U_Iterator_base12@2@@std@@QAEAAV01@ABV01@@Z ; std::_List_unchecked_const_iterator<std::_List_val<std::_List_simple_types<Trigger<Raven_Bot> *> >,std::_Iterator_base12>::operator=
PUBLIC	??0?$_List_const_iterator@V?$_List_val@U?$_List_simple_types@PAV?$Trigger@VRaven_Bot@@@@@std@@@std@@@std@@QAE@XZ ; std::_List_const_iterator<std::_List_val<std::_List_simple_types<Trigger<Raven_Bot> *> > >::_List_const_iterator<std::_List_val<std::_List_simple_types<Trigger<Raven_Bot> *> > >
PUBLIC	??0?$_List_const_iterator@V?$_List_val@U?$_List_simple_types@PAV?$Trigger@VRaven_Bot@@@@@std@@@std@@@std@@QAE@PAU?$_List_node@PAV?$Trigger@VRaven_Bot@@@@PAX@1@PBV?$_List_val@U?$_List_simple_types@PAV?$Trigger@VRaven_Bot@@@@@std@@@1@@Z ; std::_List_const_iterator<std::_List_val<std::_List_simple_types<Trigger<Raven_Bot> *> > >::_List_const_iterator<std::_List_val<std::_List_simple_types<Trigger<Raven_Bot> *> > >
PUBLIC	??D?$_List_const_iterator@V?$_List_val@U?$_List_simple_types@PAV?$Trigger@VRaven_Bot@@@@@std@@@std@@@std@@QBEABQAV?$Trigger@VRaven_Bot@@@@XZ ; std::_List_const_iterator<std::_List_val<std::_List_simple_types<Trigger<Raven_Bot> *> > >::operator*
PUBLIC	??E?$_List_const_iterator@V?$_List_val@U?$_List_simple_types@PAV?$Trigger@VRaven_Bot@@@@@std@@@std@@@std@@QAEAAV01@XZ ; std::_List_const_iterator<std::_List_val<std::_List_simple_types<Trigger<Raven_Bot> *> > >::operator++
PUBLIC	??8?$_List_const_iterator@V?$_List_val@U?$_List_simple_types@PAV?$Trigger@VRaven_Bot@@@@@std@@@std@@@std@@QBE_NABV01@@Z ; std::_List_const_iterator<std::_List_val<std::_List_simple_types<Trigger<Raven_Bot> *> > >::operator==
PUBLIC	??9?$_List_const_iterator@V?$_List_val@U?$_List_simple_types@PAV?$Trigger@VRaven_Bot@@@@@std@@@std@@@std@@QBE_NABV01@@Z ; std::_List_const_iterator<std::_List_val<std::_List_simple_types<Trigger<Raven_Bot> *> > >::operator!=
PUBLIC	??1?$_List_const_iterator@V?$_List_val@U?$_List_simple_types@PAV?$Trigger@VRaven_Bot@@@@@std@@@std@@@std@@QAE@XZ ; std::_List_const_iterator<std::_List_val<std::_List_simple_types<Trigger<Raven_Bot> *> > >::~_List_const_iterator<std::_List_val<std::_List_simple_types<Trigger<Raven_Bot> *> > >
PUBLIC	??4?$_List_const_iterator@V?$_List_val@U?$_List_simple_types@PAV?$Trigger@VRaven_Bot@@@@@std@@@std@@@std@@QAEAAV01@ABV01@@Z ; std::_List_const_iterator<std::_List_val<std::_List_simple_types<Trigger<Raven_Bot> *> > >::operator=
PUBLIC	?GraphNodeIndex@?$Trigger@VRaven_Bot@@@@QBEHXZ	; Trigger<Raven_Bot>::GraphNodeIndex
PUBLIC	?isActive@?$Trigger@VRaven_Bot@@@@QAE_NXZ	; Trigger<Raven_Bot>::isActive
PUBLIC	??0?$allocator@VPathEdge@@@std@@QAE@XZ		; std::allocator<PathEdge>::allocator<PathEdge>
PUBLIC	??0?$allocator@U?$_List_node@VPathEdge@@PAX@std@@@std@@QAE@XZ ; std::allocator<std::_List_node<PathEdge,void *> >::allocator<std::_List_node<PathEdge,void *> >
PUBLIC	?deallocate@?$allocator@U?$_List_node@VPathEdge@@PAX@std@@@std@@QAEXPAU?$_List_node@VPathEdge@@PAX@2@I@Z ; std::allocator<std::_List_node<PathEdge,void *> >::deallocate
PUBLIC	?allocate@?$allocator@U?$_List_node@VPathEdge@@PAX@std@@@std@@QAEPAU?$_List_node@VPathEdge@@PAX@2@I@Z ; std::allocator<std::_List_node<PathEdge,void *> >::allocate
PUBLIC	?max_size@?$allocator@U?$_List_node@VPathEdge@@PAX@std@@@std@@QBEIXZ ; std::allocator<std::_List_node<PathEdge,void *> >::max_size
PUBLIC	?max_size@?$allocator_traits@V?$allocator@U?$_List_node@VPathEdge@@PAX@std@@@std@@@std@@SAIABV?$allocator@U?$_List_node@VPathEdge@@PAX@std@@@2@@Z ; std::allocator_traits<std::allocator<std::_List_node<PathEdge,void *> > >::max_size
PUBLIC	??0?$_Wrap_alloc@V?$allocator@U?$_List_node@VPathEdge@@PAX@std@@@std@@@std@@QAE@XZ ; std::_Wrap_alloc<std::allocator<std::_List_node<PathEdge,void *> > >::_Wrap_alloc<std::allocator<std::_List_node<PathEdge,void *> > >
PUBLIC	?allocate@?$_Wrap_alloc@V?$allocator@U?$_List_node@VPathEdge@@PAX@std@@@std@@@std@@QAEPAU?$_List_node@VPathEdge@@PAX@2@I@Z ; std::_Wrap_alloc<std::allocator<std::_List_node<PathEdge,void *> > >::allocate
PUBLIC	?deallocate@?$_Wrap_alloc@V?$allocator@U?$_List_node@VPathEdge@@PAX@std@@@std@@@std@@QAEXPAU?$_List_node@VPathEdge@@PAX@2@I@Z ; std::_Wrap_alloc<std::allocator<std::_List_node<PathEdge,void *> > >::deallocate
PUBLIC	?max_size@?$_Wrap_alloc@V?$allocator@U?$_List_node@VPathEdge@@PAX@std@@@std@@@std@@QBEIXZ ; std::_Wrap_alloc<std::allocator<std::_List_node<PathEdge,void *> > >::max_size
PUBLIC	??0?$_List_val@U?$_List_simple_types@VPathEdge@@@std@@@std@@QAE@XZ ; std::_List_val<std::_List_simple_types<PathEdge> >::_List_val<std::_List_simple_types<PathEdge> >
PUBLIC	?_Nextnode@?$_List_val@U?$_List_simple_types@VPathEdge@@@std@@@std@@SAAAPAU?$_List_node@VPathEdge@@PAX@2@PAU32@@Z ; std::_List_val<std::_List_simple_types<PathEdge> >::_Nextnode
PUBLIC	?_Prevnode@?$_List_val@U?$_List_simple_types@VPathEdge@@@std@@@std@@SAAAPAU?$_List_node@VPathEdge@@PAX@2@PAU32@@Z ; std::_List_val<std::_List_simple_types<PathEdge> >::_Prevnode
PUBLIC	?_Myval@?$_List_val@U?$_List_simple_types@VPathEdge@@@std@@@std@@SAAAVPathEdge@@PAU?$_List_node@VPathEdge@@PAX@2@@Z ; std::_List_val<std::_List_simple_types<PathEdge> >::_Myval
PUBLIC	??1?$_List_val@U?$_List_simple_types@VPathEdge@@@std@@@std@@QAE@XZ ; std::_List_val<std::_List_simple_types<PathEdge> >::~_List_val<std::_List_simple_types<PathEdge> >
PUBLIC	??0?$_List_alloc@$0A@U?$_List_base_types@VPathEdge@@V?$allocator@VPathEdge@@@std@@@std@@@std@@QAE@ABV?$allocator@VPathEdge@@@1@@Z ; std::_List_alloc<0,std::_List_base_types<PathEdge,std::allocator<PathEdge> > >::_List_alloc<0,std::_List_base_types<PathEdge,std::allocator<PathEdge> > >
PUBLIC	??1?$_List_alloc@$0A@U?$_List_base_types@VPathEdge@@V?$allocator@VPathEdge@@@std@@@std@@@std@@QAE@XZ ; std::_List_alloc<0,std::_List_base_types<PathEdge,std::allocator<PathEdge> > >::~_List_alloc<0,std::_List_base_types<PathEdge,std::allocator<PathEdge> > >
PUBLIC	?_Alloc_proxy@?$_List_alloc@$0A@U?$_List_base_types@VPathEdge@@V?$allocator@VPathEdge@@@std@@@std@@@std@@QAEXXZ ; std::_List_alloc<0,std::_List_base_types<PathEdge,std::allocator<PathEdge> > >::_Alloc_proxy
PUBLIC	?_Free_proxy@?$_List_alloc@$0A@U?$_List_base_types@VPathEdge@@V?$allocator@VPathEdge@@@std@@@std@@@std@@QAEXXZ ; std::_List_alloc<0,std::_List_base_types<PathEdge,std::allocator<PathEdge> > >::_Free_proxy
PUBLIC	?_Buyheadnode@?$_List_alloc@$0A@U?$_List_base_types@VPathEdge@@V?$allocator@VPathEdge@@@std@@@std@@@std@@QAEPAU?$_List_node@VPathEdge@@PAX@2@XZ ; std::_List_alloc<0,std::_List_base_types<PathEdge,std::allocator<PathEdge> > >::_Buyheadnode
PUBLIC	?_Freeheadnode@?$_List_alloc@$0A@U?$_List_base_types@VPathEdge@@V?$allocator@VPathEdge@@@std@@@std@@@std@@QAEXPAU?$_List_node@VPathEdge@@PAX@2@@Z ; std::_List_alloc<0,std::_List_base_types<PathEdge,std::allocator<PathEdge> > >::_Freeheadnode
PUBLIC	?_Buynode0@?$_List_alloc@$0A@U?$_List_base_types@VPathEdge@@V?$allocator@VPathEdge@@@std@@@std@@@std@@QAEPAU?$_List_node@VPathEdge@@PAX@2@PAU32@0@Z ; std::_List_alloc<0,std::_List_base_types<PathEdge,std::allocator<PathEdge> > >::_Buynode0
PUBLIC	?_Getal@?$_List_alloc@$0A@U?$_List_base_types@VPathEdge@@V?$allocator@VPathEdge@@@std@@@std@@@std@@QBE?AU?$_Wrap_alloc@V?$allocator@U?$_List_node@VPathEdge@@PAX@std@@@std@@@2@XZ ; std::_List_alloc<0,std::_List_base_types<PathEdge,std::allocator<PathEdge> > >::_Getal
PUBLIC	??0?$_List_buy@VPathEdge@@V?$allocator@VPathEdge@@@std@@@std@@QAE@ABV?$allocator@VPathEdge@@@1@@Z ; std::_List_buy<PathEdge,std::allocator<PathEdge> >::_List_buy<PathEdge,std::allocator<PathEdge> >
PUBLIC	?_Freenode@?$_List_buy@VPathEdge@@V?$allocator@VPathEdge@@@std@@@std@@QAEXPAU?$_List_node@VPathEdge@@PAX@2@@Z ; std::_List_buy<PathEdge,std::allocator<PathEdge> >::_Freenode
PUBLIC	??1?$_List_buy@VPathEdge@@V?$allocator@VPathEdge@@@std@@@std@@QAE@XZ ; std::_List_buy<PathEdge,std::allocator<PathEdge> >::~_List_buy<PathEdge,std::allocator<PathEdge> >
PUBLIC	??0?$list@VPathEdge@@V?$allocator@VPathEdge@@@std@@@std@@QAE@XZ ; std::list<PathEdge,std::allocator<PathEdge> >::list<PathEdge,std::allocator<PathEdge> >
PUBLIC	??0?$list@VPathEdge@@V?$allocator@VPathEdge@@@std@@@std@@QAE@$$QAV01@@Z ; std::list<PathEdge,std::allocator<PathEdge> >::list<PathEdge,std::allocator<PathEdge> >
PUBLIC	?_Assign_rv@?$list@VPathEdge@@V?$allocator@VPathEdge@@@std@@@std@@QAEX$$QAV12@@Z ; std::list<PathEdge,std::allocator<PathEdge> >::_Assign_rv
PUBLIC	?push_front@?$list@VPathEdge@@V?$allocator@VPathEdge@@@std@@@std@@QAEX$$QAVPathEdge@@@Z ; std::list<PathEdge,std::allocator<PathEdge> >::push_front
PUBLIC	?push_back@?$list@VPathEdge@@V?$allocator@VPathEdge@@@std@@@std@@QAEX$$QAVPathEdge@@@Z ; std::list<PathEdge,std::allocator<PathEdge> >::push_back
PUBLIC	??1?$list@VPathEdge@@V?$allocator@VPathEdge@@@std@@@std@@QAE@XZ ; std::list<PathEdge,std::allocator<PathEdge> >::~list<PathEdge,std::allocator<PathEdge> >
PUBLIC	?begin@?$list@VPathEdge@@V?$allocator@VPathEdge@@@std@@@std@@QAE?AV?$_List_iterator@V?$_List_val@U?$_List_simple_types@VPathEdge@@@std@@@std@@@2@XZ ; std::list<PathEdge,std::allocator<PathEdge> >::begin
PUBLIC	?end@?$list@VPathEdge@@V?$allocator@VPathEdge@@@std@@@std@@QAE?AV?$_List_iterator@V?$_List_val@U?$_List_simple_types@VPathEdge@@@std@@@std@@@2@XZ ; std::list<PathEdge,std::allocator<PathEdge> >::end
PUBLIC	?_Unchecked_begin@?$list@VPathEdge@@V?$allocator@VPathEdge@@@std@@@std@@QAE?AV?$_List_unchecked_iterator@V?$_List_val@U?$_List_simple_types@VPathEdge@@@std@@@std@@@2@XZ ; std::list<PathEdge,std::allocator<PathEdge> >::_Unchecked_begin
PUBLIC	?_Unchecked_end@?$list@VPathEdge@@V?$allocator@VPathEdge@@@std@@@std@@QAE?AV?$_List_unchecked_iterator@V?$_List_val@U?$_List_simple_types@VPathEdge@@@std@@@std@@@2@XZ ; std::list<PathEdge,std::allocator<PathEdge> >::_Unchecked_end
PUBLIC	?_Make_iter@?$list@VPathEdge@@V?$allocator@VPathEdge@@@std@@@std@@QBE?AV?$_List_iterator@V?$_List_val@U?$_List_simple_types@VPathEdge@@@std@@@std@@@2@V?$_List_const_iterator@V?$_List_val@U?$_List_simple_types@VPathEdge@@@std@@@std@@@2@@Z ; std::list<PathEdge,std::allocator<PathEdge> >::_Make_iter
PUBLIC	?max_size@?$list@VPathEdge@@V?$allocator@VPathEdge@@@std@@@std@@QBEIXZ ; std::list<PathEdge,std::allocator<PathEdge> >::max_size
PUBLIC	?back@?$list@VPathEdge@@V?$allocator@VPathEdge@@@std@@@std@@QAEAAVPathEdge@@XZ ; std::list<PathEdge,std::allocator<PathEdge> >::back
PUBLIC	?_Unlinknode@?$list@VPathEdge@@V?$allocator@VPathEdge@@@std@@@std@@QAEPAU?$_List_node@VPathEdge@@PAX@2@V?$_List_const_iterator@V?$_List_val@U?$_List_simple_types@VPathEdge@@@std@@@std@@@2@@Z ; std::list<PathEdge,std::allocator<PathEdge> >::_Unlinknode
PUBLIC	?erase@?$list@VPathEdge@@V?$allocator@VPathEdge@@@std@@@std@@QAE?AV?$_List_iterator@V?$_List_val@U?$_List_simple_types@VPathEdge@@@std@@@std@@@2@V?$_List_const_iterator@V?$_List_val@U?$_List_simple_types@VPathEdge@@@std@@@std@@@2@@Z ; std::list<PathEdge,std::allocator<PathEdge> >::erase
PUBLIC	?erase@?$list@VPathEdge@@V?$allocator@VPathEdge@@@std@@@std@@QAE?AV?$_List_iterator@V?$_List_val@U?$_List_simple_types@VPathEdge@@@std@@@std@@@2@V?$_List_const_iterator@V?$_List_val@U?$_List_simple_types@VPathEdge@@@std@@@std@@@2@0@Z ; std::list<PathEdge,std::allocator<PathEdge> >::erase
PUBLIC	?clear@?$list@VPathEdge@@V?$allocator@VPathEdge@@@std@@@std@@QAEXXZ ; std::list<PathEdge,std::allocator<PathEdge> >::clear
PUBLIC	?_Tidy@?$list@VPathEdge@@V?$allocator@VPathEdge@@@std@@@std@@QAEXXZ ; std::list<PathEdge,std::allocator<PathEdge> >::_Tidy
PUBLIC	?_Incsize@?$list@VPathEdge@@V?$allocator@VPathEdge@@@std@@@std@@QAEXI@Z ; std::list<PathEdge,std::allocator<PathEdge> >::_Incsize
PUBLIC	?_Orphan_ptr@?$list@VPathEdge@@V?$allocator@VPathEdge@@@std@@@std@@QBEXAAV12@PAU?$_List_node@VPathEdge@@PAX@2@@Z ; std::list<PathEdge,std::allocator<PathEdge> >::_Orphan_ptr
PUBLIC	??0?$_Iterator012@Ubidirectional_iterator_tag@std@@VPathEdge@@HPBV3@ABV3@U_Iterator_base12@2@@std@@QAE@XZ ; std::_Iterator012<std::bidirectional_iterator_tag,PathEdge,int,PathEdge const *,PathEdge const &,std::_Iterator_base12>::_Iterator012<std::bidirectional_iterator_tag,PathEdge,int,PathEdge const *,PathEdge const &,std::_Iterator_base12>
PUBLIC	??1?$_Iterator012@Ubidirectional_iterator_tag@std@@VPathEdge@@HPBV3@ABV3@U_Iterator_base12@2@@std@@QAE@XZ ; std::_Iterator012<std::bidirectional_iterator_tag,PathEdge,int,PathEdge const *,PathEdge const &,std::_Iterator_base12>::~_Iterator012<std::bidirectional_iterator_tag,PathEdge,int,PathEdge const *,PathEdge const &,std::_Iterator_base12>
PUBLIC	??0?$_Iterator012@Ubidirectional_iterator_tag@std@@VPathEdge@@HPBV3@ABV3@U_Iterator_base12@2@@std@@QAE@ABU01@@Z ; std::_Iterator012<std::bidirectional_iterator_tag,PathEdge,int,PathEdge const *,PathEdge const &,std::_Iterator_base12>::_Iterator012<std::bidirectional_iterator_tag,PathEdge,int,PathEdge const *,PathEdge const &,std::_Iterator_base12>
PUBLIC	??4?$_Iterator012@Ubidirectional_iterator_tag@std@@VPathEdge@@HPBV3@ABV3@U_Iterator_base12@2@@std@@QAEAAU01@ABU01@@Z ; std::_Iterator012<std::bidirectional_iterator_tag,PathEdge,int,PathEdge const *,PathEdge const &,std::_Iterator_base12>::operator=
PUBLIC	??0?$_List_unchecked_const_iterator@V?$_List_val@U?$_List_simple_types@VPathEdge@@@std@@@std@@U_Iterator_base12@2@@std@@QAE@XZ ; std::_List_unchecked_const_iterator<std::_List_val<std::_List_simple_types<PathEdge> >,std::_Iterator_base12>::_List_unchecked_const_iterator<std::_List_val<std::_List_simple_types<PathEdge> >,std::_Iterator_base12>
PUBLIC	??0?$_List_unchecked_const_iterator@V?$_List_val@U?$_List_simple_types@VPathEdge@@@std@@@std@@U_Iterator_base12@2@@std@@QAE@PAU?$_List_node@VPathEdge@@PAX@1@PBV?$_List_val@U?$_List_simple_types@VPathEdge@@@std@@@1@@Z ; std::_List_unchecked_const_iterator<std::_List_val<std::_List_simple_types<PathEdge> >,std::_Iterator_base12>::_List_unchecked_const_iterator<std::_List_val<std::_List_simple_types<PathEdge> >,std::_Iterator_base12>
PUBLIC	?_Mynode@?$_List_unchecked_const_iterator@V?$_List_val@U?$_List_simple_types@VPathEdge@@@std@@@std@@U_Iterator_base12@2@@std@@QBEPAU?$_List_node@VPathEdge@@PAX@2@XZ ; std::_List_unchecked_const_iterator<std::_List_val<std::_List_simple_types<PathEdge> >,std::_Iterator_base12>::_Mynode
PUBLIC	??1?$_List_unchecked_const_iterator@V?$_List_val@U?$_List_simple_types@VPathEdge@@@std@@@std@@U_Iterator_base12@2@@std@@QAE@XZ ; std::_List_unchecked_const_iterator<std::_List_val<std::_List_simple_types<PathEdge> >,std::_Iterator_base12>::~_List_unchecked_const_iterator<std::_List_val<std::_List_simple_types<PathEdge> >,std::_Iterator_base12>
PUBLIC	??0?$_List_unchecked_const_iterator@V?$_List_val@U?$_List_simple_types@VPathEdge@@@std@@@std@@U_Iterator_base12@2@@std@@QAE@ABV01@@Z ; std::_List_unchecked_const_iterator<std::_List_val<std::_List_simple_types<PathEdge> >,std::_Iterator_base12>::_List_unchecked_const_iterator<std::_List_val<std::_List_simple_types<PathEdge> >,std::_Iterator_base12>
PUBLIC	??4?$_List_unchecked_const_iterator@V?$_List_val@U?$_List_simple_types@VPathEdge@@@std@@@std@@U_Iterator_base12@2@@std@@QAEAAV01@ABV01@@Z ; std::_List_unchecked_const_iterator<std::_List_val<std::_List_simple_types<PathEdge> >,std::_Iterator_base12>::operator=
PUBLIC	??0?$_List_const_iterator@V?$_List_val@U?$_List_simple_types@VPathEdge@@@std@@@std@@@std@@QAE@XZ ; std::_List_const_iterator<std::_List_val<std::_List_simple_types<PathEdge> > >::_List_const_iterator<std::_List_val<std::_List_simple_types<PathEdge> > >
PUBLIC	??0?$_List_const_iterator@V?$_List_val@U?$_List_simple_types@VPathEdge@@@std@@@std@@@std@@QAE@PAU?$_List_node@VPathEdge@@PAX@1@PBV?$_List_val@U?$_List_simple_types@VPathEdge@@@std@@@1@@Z ; std::_List_const_iterator<std::_List_val<std::_List_simple_types<PathEdge> > >::_List_const_iterator<std::_List_val<std::_List_simple_types<PathEdge> > >
PUBLIC	??D?$_List_const_iterator@V?$_List_val@U?$_List_simple_types@VPathEdge@@@std@@@std@@@std@@QBEABVPathEdge@@XZ ; std::_List_const_iterator<std::_List_val<std::_List_simple_types<PathEdge> > >::operator*
PUBLIC	??E?$_List_const_iterator@V?$_List_val@U?$_List_simple_types@VPathEdge@@@std@@@std@@@std@@QAEAAV01@XZ ; std::_List_const_iterator<std::_List_val<std::_List_simple_types<PathEdge> > >::operator++
PUBLIC	??E?$_List_const_iterator@V?$_List_val@U?$_List_simple_types@VPathEdge@@@std@@@std@@@std@@QAE?AV01@H@Z ; std::_List_const_iterator<std::_List_val<std::_List_simple_types<PathEdge> > >::operator++
PUBLIC	??F?$_List_const_iterator@V?$_List_val@U?$_List_simple_types@VPathEdge@@@std@@@std@@@std@@QAEAAV01@XZ ; std::_List_const_iterator<std::_List_val<std::_List_simple_types<PathEdge> > >::operator--
PUBLIC	??8?$_List_const_iterator@V?$_List_val@U?$_List_simple_types@VPathEdge@@@std@@@std@@@std@@QBE_NABV01@@Z ; std::_List_const_iterator<std::_List_val<std::_List_simple_types<PathEdge> > >::operator==
PUBLIC	??9?$_List_const_iterator@V?$_List_val@U?$_List_simple_types@VPathEdge@@@std@@@std@@@std@@QBE_NABV01@@Z ; std::_List_const_iterator<std::_List_val<std::_List_simple_types<PathEdge> > >::operator!=
PUBLIC	??1?$_List_const_iterator@V?$_List_val@U?$_List_simple_types@VPathEdge@@@std@@@std@@@std@@QAE@XZ ; std::_List_const_iterator<std::_List_val<std::_List_simple_types<PathEdge> > >::~_List_const_iterator<std::_List_val<std::_List_simple_types<PathEdge> > >
PUBLIC	??0?$_List_const_iterator@V?$_List_val@U?$_List_simple_types@VPathEdge@@@std@@@std@@@std@@QAE@ABV01@@Z ; std::_List_const_iterator<std::_List_val<std::_List_simple_types<PathEdge> > >::_List_const_iterator<std::_List_val<std::_List_simple_types<PathEdge> > >
PUBLIC	??4?$_List_const_iterator@V?$_List_val@U?$_List_simple_types@VPathEdge@@@std@@@std@@@std@@QAEAAV01@ABV01@@Z ; std::_List_const_iterator<std::_List_val<std::_List_simple_types<PathEdge> > >::operator=
PUBLIC	??0?$_List_iterator@V?$_List_val@U?$_List_simple_types@VPathEdge@@@std@@@std@@@std@@QAE@XZ ; std::_List_iterator<std::_List_val<std::_List_simple_types<PathEdge> > >::_List_iterator<std::_List_val<std::_List_simple_types<PathEdge> > >
PUBLIC	??0?$_List_iterator@V?$_List_val@U?$_List_simple_types@VPathEdge@@@std@@@std@@@std@@QAE@PAU?$_List_node@VPathEdge@@PAX@1@PBV?$_List_val@U?$_List_simple_types@VPathEdge@@@std@@@1@@Z ; std::_List_iterator<std::_List_val<std::_List_simple_types<PathEdge> > >::_List_iterator<std::_List_val<std::_List_simple_types<PathEdge> > >
PUBLIC	??D?$_List_iterator@V?$_List_val@U?$_List_simple_types@VPathEdge@@@std@@@std@@@std@@QBEAAVPathEdge@@XZ ; std::_List_iterator<std::_List_val<std::_List_simple_types<PathEdge> > >::operator*
PUBLIC	??C?$_List_iterator@V?$_List_val@U?$_List_simple_types@VPathEdge@@@std@@@std@@@std@@QBEPAVPathEdge@@XZ ; std::_List_iterator<std::_List_val<std::_List_simple_types<PathEdge> > >::operator->
PUBLIC	??E?$_List_iterator@V?$_List_val@U?$_List_simple_types@VPathEdge@@@std@@@std@@@std@@QAEAAV01@XZ ; std::_List_iterator<std::_List_val<std::_List_simple_types<PathEdge> > >::operator++
PUBLIC	??F?$_List_iterator@V?$_List_val@U?$_List_simple_types@VPathEdge@@@std@@@std@@@std@@QAEAAV01@XZ ; std::_List_iterator<std::_List_val<std::_List_simple_types<PathEdge> > >::operator--
PUBLIC	??1?$_List_iterator@V?$_List_val@U?$_List_simple_types@VPathEdge@@@std@@@std@@@std@@QAE@XZ ; std::_List_iterator<std::_List_val<std::_List_simple_types<PathEdge> > >::~_List_iterator<std::_List_val<std::_List_simple_types<PathEdge> > >
PUBLIC	??4?$_List_iterator@V?$_List_val@U?$_List_simple_types@VPathEdge@@@std@@@std@@@std@@QAEAAV01@ABV01@@Z ; std::_List_iterator<std::_List_val<std::_List_simple_types<PathEdge> > >::operator=
PUBLIC	??0?$allocator@U?$_List_node@HPAX@std@@@std@@QAE@XZ ; std::allocator<std::_List_node<int,void *> >::allocator<std::_List_node<int,void *> >
PUBLIC	?deallocate@?$allocator@U?$_List_node@HPAX@std@@@std@@QAEXPAU?$_List_node@HPAX@2@I@Z ; std::allocator<std::_List_node<int,void *> >::deallocate
PUBLIC	?allocate@?$allocator@U?$_List_node@HPAX@std@@@std@@QAEPAU?$_List_node@HPAX@2@I@Z ; std::allocator<std::_List_node<int,void *> >::allocate
PUBLIC	?max_size@?$allocator@U?$_List_node@HPAX@std@@@std@@QBEIXZ ; std::allocator<std::_List_node<int,void *> >::max_size
PUBLIC	?max_size@?$allocator_traits@V?$allocator@U?$_List_node@HPAX@std@@@std@@@std@@SAIABV?$allocator@U?$_List_node@HPAX@std@@@2@@Z ; std::allocator_traits<std::allocator<std::_List_node<int,void *> > >::max_size
PUBLIC	??0?$_Wrap_alloc@V?$allocator@U?$_List_node@HPAX@std@@@std@@@std@@QAE@XZ ; std::_Wrap_alloc<std::allocator<std::_List_node<int,void *> > >::_Wrap_alloc<std::allocator<std::_List_node<int,void *> > >
PUBLIC	?allocate@?$_Wrap_alloc@V?$allocator@U?$_List_node@HPAX@std@@@std@@@std@@QAEPAU?$_List_node@HPAX@2@I@Z ; std::_Wrap_alloc<std::allocator<std::_List_node<int,void *> > >::allocate
PUBLIC	?deallocate@?$_Wrap_alloc@V?$allocator@U?$_List_node@HPAX@std@@@std@@@std@@QAEXPAU?$_List_node@HPAX@2@I@Z ; std::_Wrap_alloc<std::allocator<std::_List_node<int,void *> > >::deallocate
PUBLIC	?max_size@?$_Wrap_alloc@V?$allocator@U?$_List_node@HPAX@std@@@std@@@std@@QBEIXZ ; std::_Wrap_alloc<std::allocator<std::_List_node<int,void *> > >::max_size
PUBLIC	??0?$_List_val@U?$_List_simple_types@H@std@@@std@@QAE@XZ ; std::_List_val<std::_List_simple_types<int> >::_List_val<std::_List_simple_types<int> >
PUBLIC	?_Nextnode@?$_List_val@U?$_List_simple_types@H@std@@@std@@SAAAPAU?$_List_node@HPAX@2@PAU32@@Z ; std::_List_val<std::_List_simple_types<int> >::_Nextnode
PUBLIC	?_Prevnode@?$_List_val@U?$_List_simple_types@H@std@@@std@@SAAAPAU?$_List_node@HPAX@2@PAU32@@Z ; std::_List_val<std::_List_simple_types<int> >::_Prevnode
PUBLIC	?_Myval@?$_List_val@U?$_List_simple_types@H@std@@@std@@SAAAHPAU?$_List_node@HPAX@2@@Z ; std::_List_val<std::_List_simple_types<int> >::_Myval
PUBLIC	??1?$_List_val@U?$_List_simple_types@H@std@@@std@@QAE@XZ ; std::_List_val<std::_List_simple_types<int> >::~_List_val<std::_List_simple_types<int> >
PUBLIC	??0?$_List_alloc@$0A@U?$_List_base_types@HV?$allocator@H@std@@@std@@@std@@QAE@ABV?$allocator@H@1@@Z ; std::_List_alloc<0,std::_List_base_types<int,std::allocator<int> > >::_List_alloc<0,std::_List_base_types<int,std::allocator<int> > >
PUBLIC	??1?$_List_alloc@$0A@U?$_List_base_types@HV?$allocator@H@std@@@std@@@std@@QAE@XZ ; std::_List_alloc<0,std::_List_base_types<int,std::allocator<int> > >::~_List_alloc<0,std::_List_base_types<int,std::allocator<int> > >
PUBLIC	?_Alloc_proxy@?$_List_alloc@$0A@U?$_List_base_types@HV?$allocator@H@std@@@std@@@std@@QAEXXZ ; std::_List_alloc<0,std::_List_base_types<int,std::allocator<int> > >::_Alloc_proxy
PUBLIC	?_Free_proxy@?$_List_alloc@$0A@U?$_List_base_types@HV?$allocator@H@std@@@std@@@std@@QAEXXZ ; std::_List_alloc<0,std::_List_base_types<int,std::allocator<int> > >::_Free_proxy
PUBLIC	?_Buyheadnode@?$_List_alloc@$0A@U?$_List_base_types@HV?$allocator@H@std@@@std@@@std@@QAEPAU?$_List_node@HPAX@2@XZ ; std::_List_alloc<0,std::_List_base_types<int,std::allocator<int> > >::_Buyheadnode
PUBLIC	?_Freeheadnode@?$_List_alloc@$0A@U?$_List_base_types@HV?$allocator@H@std@@@std@@@std@@QAEXPAU?$_List_node@HPAX@2@@Z ; std::_List_alloc<0,std::_List_base_types<int,std::allocator<int> > >::_Freeheadnode
PUBLIC	?_Buynode0@?$_List_alloc@$0A@U?$_List_base_types@HV?$allocator@H@std@@@std@@@std@@QAEPAU?$_List_node@HPAX@2@PAU32@0@Z ; std::_List_alloc<0,std::_List_base_types<int,std::allocator<int> > >::_Buynode0
PUBLIC	?_Getal@?$_List_alloc@$0A@U?$_List_base_types@HV?$allocator@H@std@@@std@@@std@@QBE?AU?$_Wrap_alloc@V?$allocator@U?$_List_node@HPAX@std@@@std@@@2@XZ ; std::_List_alloc<0,std::_List_base_types<int,std::allocator<int> > >::_Getal
PUBLIC	??0?$_List_buy@HV?$allocator@H@std@@@std@@QAE@ABV?$allocator@H@1@@Z ; std::_List_buy<int,std::allocator<int> >::_List_buy<int,std::allocator<int> >
PUBLIC	?_Freenode@?$_List_buy@HV?$allocator@H@std@@@std@@QAEXPAU?$_List_node@HPAX@2@@Z ; std::_List_buy<int,std::allocator<int> >::_Freenode
PUBLIC	??1?$_List_buy@HV?$allocator@H@std@@@std@@QAE@XZ ; std::_List_buy<int,std::allocator<int> >::~_List_buy<int,std::allocator<int> >
PUBLIC	??0?$list@HV?$allocator@H@std@@@std@@QAE@XZ	; std::list<int,std::allocator<int> >::list<int,std::allocator<int> >
PUBLIC	??0?$list@HV?$allocator@H@std@@@std@@QAE@$$QAV01@@Z ; std::list<int,std::allocator<int> >::list<int,std::allocator<int> >
PUBLIC	?_Assign_rv@?$list@HV?$allocator@H@std@@@std@@QAEX$$QAV12@@Z ; std::list<int,std::allocator<int> >::_Assign_rv
PUBLIC	??1?$list@HV?$allocator@H@std@@@std@@QAE@XZ	; std::list<int,std::allocator<int> >::~list<int,std::allocator<int> >
PUBLIC	?end@?$list@HV?$allocator@H@std@@@std@@QAE?AV?$_List_iterator@V?$_List_val@U?$_List_simple_types@H@std@@@std@@@2@XZ ; std::list<int,std::allocator<int> >::end
PUBLIC	?_Unchecked_begin@?$list@HV?$allocator@H@std@@@std@@QAE?AV?$_List_unchecked_iterator@V?$_List_val@U?$_List_simple_types@H@std@@@std@@@2@XZ ; std::list<int,std::allocator<int> >::_Unchecked_begin
PUBLIC	?_Unchecked_end@?$list@HV?$allocator@H@std@@@std@@QAE?AV?$_List_unchecked_iterator@V?$_List_val@U?$_List_simple_types@H@std@@@std@@@2@XZ ; std::list<int,std::allocator<int> >::_Unchecked_end
PUBLIC	?max_size@?$list@HV?$allocator@H@std@@@std@@QBEIXZ ; std::list<int,std::allocator<int> >::max_size
PUBLIC	?back@?$list@HV?$allocator@H@std@@@std@@QAEAAHXZ ; std::list<int,std::allocator<int> >::back
PUBLIC	?push_front@?$list@HV?$allocator@H@std@@@std@@QAEXABH@Z ; std::list<int,std::allocator<int> >::push_front
PUBLIC	?push_back@?$list@HV?$allocator@H@std@@@std@@QAEXABH@Z ; std::list<int,std::allocator<int> >::push_back
PUBLIC	?clear@?$list@HV?$allocator@H@std@@@std@@QAEXXZ	; std::list<int,std::allocator<int> >::clear
PUBLIC	?_Tidy@?$list@HV?$allocator@H@std@@@std@@QAEXXZ	; std::list<int,std::allocator<int> >::_Tidy
PUBLIC	?_Incsize@?$list@HV?$allocator@H@std@@@std@@QAEXI@Z ; std::list<int,std::allocator<int> >::_Incsize
PUBLIC	?_Orphan_ptr@?$list@HV?$allocator@H@std@@@std@@QBEXAAV12@PAU?$_List_node@HPAX@2@@Z ; std::list<int,std::allocator<int> >::_Orphan_ptr
PUBLIC	?begin@?$vector@U?$Cell@PAV?$NavGraphNode@PAV?$Trigger@VRaven_Bot@@@@@@@@V?$allocator@U?$Cell@PAV?$NavGraphNode@PAV?$Trigger@VRaven_Bot@@@@@@@@@std@@@std@@QAE?AV?$_Vector_iterator@V?$_Vector_val@U?$_Simple_types@U?$Cell@PAV?$NavGraphNode@PAV?$Trigger@VRaven_Bot@@@@@@@@@std@@@std@@@2@XZ ; std::vector<Cell<NavGraphNode<Trigger<Raven_Bot> *> *>,std::allocator<Cell<NavGraphNode<Trigger<Raven_Bot> *> *> > >::begin
PUBLIC	?end@?$vector@U?$Cell@PAV?$NavGraphNode@PAV?$Trigger@VRaven_Bot@@@@@@@@V?$allocator@U?$Cell@PAV?$NavGraphNode@PAV?$Trigger@VRaven_Bot@@@@@@@@@std@@@std@@QAE?AV?$_Vector_iterator@V?$_Vector_val@U?$_Simple_types@U?$Cell@PAV?$NavGraphNode@PAV?$Trigger@VRaven_Bot@@@@@@@@@std@@@std@@@2@XZ ; std::vector<Cell<NavGraphNode<Trigger<Raven_Bot> *> *>,std::allocator<Cell<NavGraphNode<Trigger<Raven_Bot> *> *> > >::end
PUBLIC	?begin@?$vector@PAV?$NavGraphNode@PAV?$Trigger@VRaven_Bot@@@@@@V?$allocator@PAV?$NavGraphNode@PAV?$Trigger@VRaven_Bot@@@@@@@std@@@std@@QAE?AV?$_Vector_iterator@V?$_Vector_val@U?$_Simple_types@PAV?$NavGraphNode@PAV?$Trigger@VRaven_Bot@@@@@@@std@@@std@@@2@XZ ; std::vector<NavGraphNode<Trigger<Raven_Bot> *> *,std::allocator<NavGraphNode<Trigger<Raven_Bot> *> *> >::begin
PUBLIC	?end@?$vector@PAV?$NavGraphNode@PAV?$Trigger@VRaven_Bot@@@@@@V?$allocator@PAV?$NavGraphNode@PAV?$Trigger@VRaven_Bot@@@@@@@std@@@std@@QAE?AV?$_Vector_iterator@V?$_Vector_val@U?$_Simple_types@PAV?$NavGraphNode@PAV?$Trigger@VRaven_Bot@@@@@@@std@@@std@@@2@XZ ; std::vector<NavGraphNode<Trigger<Raven_Bot> *> *,std::allocator<NavGraphNode<Trigger<Raven_Bot> *> *> >::end
PUBLIC	??0?$_Iterator012@Urandom_access_iterator_tag@std@@PAV?$NavGraphNode@PAV?$Trigger@VRaven_Bot@@@@@@HPBQAV3@ABQAV3@U_Iterator_base12@2@@std@@QAE@XZ ; std::_Iterator012<std::random_access_iterator_tag,NavGraphNode<Trigger<Raven_Bot> *> *,int,NavGraphNode<Trigger<Raven_Bot> *> * const *,NavGraphNode<Trigger<Raven_Bot> *> * const &,std::_Iterator_base12>::_Iterator012<std::random_access_iterator_tag,NavGraphNode<Trigger<Raven_Bot> *> *,int,NavGraphNode<Trigger<Raven_Bot> *> * const *,NavGraphNode<Trigger<Raven_Bot> *> * const &,std::_Iterator_base12>
PUBLIC	??1?$_Iterator012@Urandom_access_iterator_tag@std@@PAV?$NavGraphNode@PAV?$Trigger@VRaven_Bot@@@@@@HPBQAV3@ABQAV3@U_Iterator_base12@2@@std@@QAE@XZ ; std::_Iterator012<std::random_access_iterator_tag,NavGraphNode<Trigger<Raven_Bot> *> *,int,NavGraphNode<Trigger<Raven_Bot> *> * const *,NavGraphNode<Trigger<Raven_Bot> *> * const &,std::_Iterator_base12>::~_Iterator012<std::random_access_iterator_tag,NavGraphNode<Trigger<Raven_Bot> *> *,int,NavGraphNode<Trigger<Raven_Bot> *> * const *,NavGraphNode<Trigger<Raven_Bot> *> * const &,std::_Iterator_base12>
PUBLIC	??0?$_Iterator012@Urandom_access_iterator_tag@std@@PAV?$NavGraphNode@PAV?$Trigger@VRaven_Bot@@@@@@HPBQAV3@ABQAV3@U_Iterator_base12@2@@std@@QAE@ABU01@@Z ; std::_Iterator012<std::random_access_iterator_tag,NavGraphNode<Trigger<Raven_Bot> *> *,int,NavGraphNode<Trigger<Raven_Bot> *> * const *,NavGraphNode<Trigger<Raven_Bot> *> * const &,std::_Iterator_base12>::_Iterator012<std::random_access_iterator_tag,NavGraphNode<Trigger<Raven_Bot> *> *,int,NavGraphNode<Trigger<Raven_Bot> *> * const *,NavGraphNode<Trigger<Raven_Bot> *> * const &,std::_Iterator_base12>
PUBLIC	??4?$_Iterator012@Urandom_access_iterator_tag@std@@PAV?$NavGraphNode@PAV?$Trigger@VRaven_Bot@@@@@@HPBQAV3@ABQAV3@U_Iterator_base12@2@@std@@QAEAAU01@ABU01@@Z ; std::_Iterator012<std::random_access_iterator_tag,NavGraphNode<Trigger<Raven_Bot> *> *,int,NavGraphNode<Trigger<Raven_Bot> *> * const *,NavGraphNode<Trigger<Raven_Bot> *> * const &,std::_Iterator_base12>::operator=
PUBLIC	??0?$_Vector_const_iterator@V?$_Vector_val@U?$_Simple_types@PAV?$NavGraphNode@PAV?$Trigger@VRaven_Bot@@@@@@@std@@@std@@@std@@QAE@PAPAV?$NavGraphNode@PAV?$Trigger@VRaven_Bot@@@@@@PBU_Container_base12@1@@Z ; std::_Vector_const_iterator<std::_Vector_val<std::_Simple_types<NavGraphNode<Trigger<Raven_Bot> *> *> > >::_Vector_const_iterator<std::_Vector_val<std::_Simple_types<NavGraphNode<Trigger<Raven_Bot> *> *> > >
PUBLIC	??D?$_Vector_const_iterator@V?$_Vector_val@U?$_Simple_types@PAV?$NavGraphNode@PAV?$Trigger@VRaven_Bot@@@@@@@std@@@std@@@std@@QBEABQAV?$NavGraphNode@PAV?$Trigger@VRaven_Bot@@@@@@XZ ; std::_Vector_const_iterator<std::_Vector_val<std::_Simple_types<NavGraphNode<Trigger<Raven_Bot> *> *> > >::operator*
PUBLIC	??E?$_Vector_const_iterator@V?$_Vector_val@U?$_Simple_types@PAV?$NavGraphNode@PAV?$Trigger@VRaven_Bot@@@@@@@std@@@std@@@std@@QAEAAV01@XZ ; std::_Vector_const_iterator<std::_Vector_val<std::_Simple_types<NavGraphNode<Trigger<Raven_Bot> *> *> > >::operator++
PUBLIC	??8?$_Vector_const_iterator@V?$_Vector_val@U?$_Simple_types@PAV?$NavGraphNode@PAV?$Trigger@VRaven_Bot@@@@@@@std@@@std@@@std@@QBE_NABV01@@Z ; std::_Vector_const_iterator<std::_Vector_val<std::_Simple_types<NavGraphNode<Trigger<Raven_Bot> *> *> > >::operator==
PUBLIC	?_Compat@?$_Vector_const_iterator@V?$_Vector_val@U?$_Simple_types@PAV?$NavGraphNode@PAV?$Trigger@VRaven_Bot@@@@@@@std@@@std@@@std@@QBEXABV12@@Z ; std::_Vector_const_iterator<std::_Vector_val<std::_Simple_types<NavGraphNode<Trigger<Raven_Bot> *> *> > >::_Compat
PUBLIC	??1?$_Vector_const_iterator@V?$_Vector_val@U?$_Simple_types@PAV?$NavGraphNode@PAV?$Trigger@VRaven_Bot@@@@@@@std@@@std@@@std@@QAE@XZ ; std::_Vector_const_iterator<std::_Vector_val<std::_Simple_types<NavGraphNode<Trigger<Raven_Bot> *> *> > >::~_Vector_const_iterator<std::_Vector_val<std::_Simple_types<NavGraphNode<Trigger<Raven_Bot> *> *> > >
PUBLIC	??0?$_Vector_const_iterator@V?$_Vector_val@U?$_Simple_types@PAV?$NavGraphNode@PAV?$Trigger@VRaven_Bot@@@@@@@std@@@std@@@std@@QAE@ABV01@@Z ; std::_Vector_const_iterator<std::_Vector_val<std::_Simple_types<NavGraphNode<Trigger<Raven_Bot> *> *> > >::_Vector_const_iterator<std::_Vector_val<std::_Simple_types<NavGraphNode<Trigger<Raven_Bot> *> *> > >
PUBLIC	??4?$_Vector_const_iterator@V?$_Vector_val@U?$_Simple_types@PAV?$NavGraphNode@PAV?$Trigger@VRaven_Bot@@@@@@@std@@@std@@@std@@QAEAAV01@ABV01@@Z ; std::_Vector_const_iterator<std::_Vector_val<std::_Simple_types<NavGraphNode<Trigger<Raven_Bot> *> *> > >::operator=
PUBLIC	??0?$_Vector_iterator@V?$_Vector_val@U?$_Simple_types@PAV?$NavGraphNode@PAV?$Trigger@VRaven_Bot@@@@@@@std@@@std@@@std@@QAE@PAPAV?$NavGraphNode@PAV?$Trigger@VRaven_Bot@@@@@@PBU_Container_base12@1@@Z ; std::_Vector_iterator<std::_Vector_val<std::_Simple_types<NavGraphNode<Trigger<Raven_Bot> *> *> > >::_Vector_iterator<std::_Vector_val<std::_Simple_types<NavGraphNode<Trigger<Raven_Bot> *> *> > >
PUBLIC	??D?$_Vector_iterator@V?$_Vector_val@U?$_Simple_types@PAV?$NavGraphNode@PAV?$Trigger@VRaven_Bot@@@@@@@std@@@std@@@std@@QBEAAPAV?$NavGraphNode@PAV?$Trigger@VRaven_Bot@@@@@@XZ ; std::_Vector_iterator<std::_Vector_val<std::_Simple_types<NavGraphNode<Trigger<Raven_Bot> *> *> > >::operator*
PUBLIC	??E?$_Vector_iterator@V?$_Vector_val@U?$_Simple_types@PAV?$NavGraphNode@PAV?$Trigger@VRaven_Bot@@@@@@@std@@@std@@@std@@QAEAAV01@XZ ; std::_Vector_iterator<std::_Vector_val<std::_Simple_types<NavGraphNode<Trigger<Raven_Bot> *> *> > >::operator++
PUBLIC	??E?$_Vector_iterator@V?$_Vector_val@U?$_Simple_types@PAV?$NavGraphNode@PAV?$Trigger@VRaven_Bot@@@@@@@std@@@std@@@std@@QAE?AV01@H@Z ; std::_Vector_iterator<std::_Vector_val<std::_Simple_types<NavGraphNode<Trigger<Raven_Bot> *> *> > >::operator++
PUBLIC	??1?$_Vector_iterator@V?$_Vector_val@U?$_Simple_types@PAV?$NavGraphNode@PAV?$Trigger@VRaven_Bot@@@@@@@std@@@std@@@std@@QAE@XZ ; std::_Vector_iterator<std::_Vector_val<std::_Simple_types<NavGraphNode<Trigger<Raven_Bot> *> *> > >::~_Vector_iterator<std::_Vector_val<std::_Simple_types<NavGraphNode<Trigger<Raven_Bot> *> *> > >
PUBLIC	??0?$_Vector_iterator@V?$_Vector_val@U?$_Simple_types@PAV?$NavGraphNode@PAV?$Trigger@VRaven_Bot@@@@@@@std@@@std@@@std@@QAE@ABV01@@Z ; std::_Vector_iterator<std::_Vector_val<std::_Simple_types<NavGraphNode<Trigger<Raven_Bot> *> *> > >::_Vector_iterator<std::_Vector_val<std::_Simple_types<NavGraphNode<Trigger<Raven_Bot> *> *> > >
PUBLIC	??4?$_Vector_iterator@V?$_Vector_val@U?$_Simple_types@PAV?$NavGraphNode@PAV?$Trigger@VRaven_Bot@@@@@@@std@@@std@@@std@@QAEAAV01@ABV01@@Z ; std::_Vector_iterator<std::_Vector_val<std::_Simple_types<NavGraphNode<Trigger<Raven_Bot> *> *> > >::operator=
PUBLIC	?CalculateNeighbors@?$CellSpacePartition@PAV?$NavGraphNode@PAV?$Trigger@VRaven_Bot@@@@@@@@QAEXUVector2D@@N@Z ; CellSpacePartition<NavGraphNode<Trigger<Raven_Bot> *> *>::CalculateNeighbors
PUBLIC	?begin@?$CellSpacePartition@PAV?$NavGraphNode@PAV?$Trigger@VRaven_Bot@@@@@@@@QAEAAPAV?$NavGraphNode@PAV?$Trigger@VRaven_Bot@@@@@@XZ ; CellSpacePartition<NavGraphNode<Trigger<Raven_Bot> *> *>::begin
PUBLIC	?next@?$CellSpacePartition@PAV?$NavGraphNode@PAV?$Trigger@VRaven_Bot@@@@@@@@QAEAAPAV?$NavGraphNode@PAV?$Trigger@VRaven_Bot@@@@@@XZ ; CellSpacePartition<NavGraphNode<Trigger<Raven_Bot> *> *>::next
PUBLIC	?end@?$CellSpacePartition@PAV?$NavGraphNode@PAV?$Trigger@VRaven_Bot@@@@@@@@QAE_NXZ ; CellSpacePartition<NavGraphNode<Trigger<Raven_Bot> *> *>::end
PUBLIC	?select_on_container_copy_construction@?$allocator@PBVNavGraphEdge@@@std@@QBE?AV12@XZ ; std::allocator<NavGraphEdge const *>::select_on_container_copy_construction
PUBLIC	??0?$allocator@PBVNavGraphEdge@@@std@@QAE@XZ	; std::allocator<NavGraphEdge const *>::allocator<NavGraphEdge const *>
PUBLIC	??0?$allocator@PBVNavGraphEdge@@@std@@QAE@ABV01@@Z ; std::allocator<NavGraphEdge const *>::allocator<NavGraphEdge const *>
PUBLIC	?deallocate@?$allocator@PBVNavGraphEdge@@@std@@QAEXPAPBVNavGraphEdge@@I@Z ; std::allocator<NavGraphEdge const *>::deallocate
PUBLIC	?allocate@?$allocator@PBVNavGraphEdge@@@std@@QAEPAPBVNavGraphEdge@@I@Z ; std::allocator<NavGraphEdge const *>::allocate
PUBLIC	?max_size@?$allocator@PBVNavGraphEdge@@@std@@QBEIXZ ; std::allocator<NavGraphEdge const *>::max_size
PUBLIC	?max_size@?$allocator_traits@V?$allocator@PBVNavGraphEdge@@@std@@@std@@SAIABV?$allocator@PBVNavGraphEdge@@@2@@Z ; std::allocator_traits<std::allocator<NavGraphEdge const *> >::max_size
PUBLIC	?select_on_container_copy_construction@?$allocator_traits@V?$allocator@PBVNavGraphEdge@@@std@@@std@@SA?AV?$allocator@PBVNavGraphEdge@@@2@ABV32@@Z ; std::allocator_traits<std::allocator<NavGraphEdge const *> >::select_on_container_copy_construction
PUBLIC	?select_on_container_copy_construction@?$_Wrap_alloc@V?$allocator@PBVNavGraphEdge@@@std@@@std@@QBE?AU12@XZ ; std::_Wrap_alloc<std::allocator<NavGraphEdge const *> >::select_on_container_copy_construction
PUBLIC	??0?$_Wrap_alloc@V?$allocator@PBVNavGraphEdge@@@std@@@std@@QAE@XZ ; std::_Wrap_alloc<std::allocator<NavGraphEdge const *> >::_Wrap_alloc<std::allocator<NavGraphEdge const *> >
PUBLIC	??0?$_Wrap_alloc@V?$allocator@PBVNavGraphEdge@@@std@@@std@@QAE@ABV?$allocator@PBVNavGraphEdge@@@1@@Z ; std::_Wrap_alloc<std::allocator<NavGraphEdge const *> >::_Wrap_alloc<std::allocator<NavGraphEdge const *> >
PUBLIC	?allocate@?$_Wrap_alloc@V?$allocator@PBVNavGraphEdge@@@std@@@std@@QAEPAPBVNavGraphEdge@@I@Z ; std::_Wrap_alloc<std::allocator<NavGraphEdge const *> >::allocate
PUBLIC	?deallocate@?$_Wrap_alloc@V?$allocator@PBVNavGraphEdge@@@std@@@std@@QAEXPAPBVNavGraphEdge@@I@Z ; std::_Wrap_alloc<std::allocator<NavGraphEdge const *> >::deallocate
PUBLIC	?max_size@?$_Wrap_alloc@V?$allocator@PBVNavGraphEdge@@@std@@@std@@QBEIXZ ; std::_Wrap_alloc<std::allocator<NavGraphEdge const *> >::max_size
PUBLIC	??0?$_Vector_val@U?$_Simple_types@PBVNavGraphEdge@@@std@@@std@@QAE@XZ ; std::_Vector_val<std::_Simple_types<NavGraphEdge const *> >::_Vector_val<std::_Simple_types<NavGraphEdge const *> >
PUBLIC	??1?$_Vector_val@U?$_Simple_types@PBVNavGraphEdge@@@std@@@std@@QAE@XZ ; std::_Vector_val<std::_Simple_types<NavGraphEdge const *> >::~_Vector_val<std::_Simple_types<NavGraphEdge const *> >
PUBLIC	??0?$_Vector_alloc@$0A@U?$_Vec_base_types@PBVNavGraphEdge@@V?$allocator@PBVNavGraphEdge@@@std@@@std@@@std@@QAE@ABV?$allocator@PBVNavGraphEdge@@@1@@Z ; std::_Vector_alloc<0,std::_Vec_base_types<NavGraphEdge const *,std::allocator<NavGraphEdge const *> > >::_Vector_alloc<0,std::_Vec_base_types<NavGraphEdge const *,std::allocator<NavGraphEdge const *> > >
PUBLIC	??1?$_Vector_alloc@$0A@U?$_Vec_base_types@PBVNavGraphEdge@@V?$allocator@PBVNavGraphEdge@@@std@@@std@@@std@@QAE@XZ ; std::_Vector_alloc<0,std::_Vec_base_types<NavGraphEdge const *,std::allocator<NavGraphEdge const *> > >::~_Vector_alloc<0,std::_Vec_base_types<NavGraphEdge const *,std::allocator<NavGraphEdge const *> > >
PUBLIC	?_Alloc_proxy@?$_Vector_alloc@$0A@U?$_Vec_base_types@PBVNavGraphEdge@@V?$allocator@PBVNavGraphEdge@@@std@@@std@@@std@@QAEXXZ ; std::_Vector_alloc<0,std::_Vec_base_types<NavGraphEdge const *,std::allocator<NavGraphEdge const *> > >::_Alloc_proxy
PUBLIC	?_Free_proxy@?$_Vector_alloc@$0A@U?$_Vec_base_types@PBVNavGraphEdge@@V?$allocator@PBVNavGraphEdge@@@std@@@std@@@std@@QAEXXZ ; std::_Vector_alloc<0,std::_Vec_base_types<NavGraphEdge const *,std::allocator<NavGraphEdge const *> > >::_Free_proxy
PUBLIC	?_Getal@?$_Vector_alloc@$0A@U?$_Vec_base_types@PBVNavGraphEdge@@V?$allocator@PBVNavGraphEdge@@@std@@@std@@@std@@QBE?AU?$_Wrap_alloc@V?$allocator@PBVNavGraphEdge@@@std@@@2@XZ ; std::_Vector_alloc<0,std::_Vec_base_types<NavGraphEdge const *,std::allocator<NavGraphEdge const *> > >::_Getal
PUBLIC	??0?$vector@PBVNavGraphEdge@@V?$allocator@PBVNavGraphEdge@@@std@@@std@@QAE@I@Z ; std::vector<NavGraphEdge const *,std::allocator<NavGraphEdge const *> >::vector<NavGraphEdge const *,std::allocator<NavGraphEdge const *> >
PUBLIC	??0?$vector@PBVNavGraphEdge@@V?$allocator@PBVNavGraphEdge@@@std@@@std@@QAE@ABV01@@Z ; std::vector<NavGraphEdge const *,std::allocator<NavGraphEdge const *> >::vector<NavGraphEdge const *,std::allocator<NavGraphEdge const *> >
PUBLIC	??1?$vector@PBVNavGraphEdge@@V?$allocator@PBVNavGraphEdge@@@std@@@std@@QAE@XZ ; std::vector<NavGraphEdge const *,std::allocator<NavGraphEdge const *> >::~vector<NavGraphEdge const *,std::allocator<NavGraphEdge const *> >
PUBLIC	?begin@?$vector@PBVNavGraphEdge@@V?$allocator@PBVNavGraphEdge@@@std@@@std@@QBE?AV?$_Vector_const_iterator@V?$_Vector_val@U?$_Simple_types@PBVNavGraphEdge@@@std@@@std@@@2@XZ ; std::vector<NavGraphEdge const *,std::allocator<NavGraphEdge const *> >::begin
PUBLIC	?end@?$vector@PBVNavGraphEdge@@V?$allocator@PBVNavGraphEdge@@@std@@@std@@QBE?AV?$_Vector_const_iterator@V?$_Vector_val@U?$_Simple_types@PBVNavGraphEdge@@@std@@@std@@@2@XZ ; std::vector<NavGraphEdge const *,std::allocator<NavGraphEdge const *> >::end
PUBLIC	?size@?$vector@PBVNavGraphEdge@@V?$allocator@PBVNavGraphEdge@@@std@@@std@@QBEIXZ ; std::vector<NavGraphEdge const *,std::allocator<NavGraphEdge const *> >::size
PUBLIC	?max_size@?$vector@PBVNavGraphEdge@@V?$allocator@PBVNavGraphEdge@@@std@@@std@@QBEIXZ ; std::vector<NavGraphEdge const *,std::allocator<NavGraphEdge const *> >::max_size
PUBLIC	??A?$vector@PBVNavGraphEdge@@V?$allocator@PBVNavGraphEdge@@@std@@@std@@QBEABQBVNavGraphEdge@@I@Z ; std::vector<NavGraphEdge const *,std::allocator<NavGraphEdge const *> >::operator[]
PUBLIC	??A?$vector@PBVNavGraphEdge@@V?$allocator@PBVNavGraphEdge@@@std@@@std@@QAEAAPBVNavGraphEdge@@I@Z ; std::vector<NavGraphEdge const *,std::allocator<NavGraphEdge const *> >::operator[]
PUBLIC	?_Buy@?$vector@PBVNavGraphEdge@@V?$allocator@PBVNavGraphEdge@@@std@@@std@@IAE_NI@Z ; std::vector<NavGraphEdge const *,std::allocator<NavGraphEdge const *> >::_Buy
PUBLIC	?_Destroy@?$vector@PBVNavGraphEdge@@V?$allocator@PBVNavGraphEdge@@@std@@@std@@IAEXPAPBVNavGraphEdge@@0@Z ; std::vector<NavGraphEdge const *,std::allocator<NavGraphEdge const *> >::_Destroy
PUBLIC	?_Tidy@?$vector@PBVNavGraphEdge@@V?$allocator@PBVNavGraphEdge@@@std@@@std@@IAEXXZ ; std::vector<NavGraphEdge const *,std::allocator<NavGraphEdge const *> >::_Tidy
PUBLIC	?_Xlen@?$vector@PBVNavGraphEdge@@V?$allocator@PBVNavGraphEdge@@@std@@@std@@IBEXXZ ; std::vector<NavGraphEdge const *,std::allocator<NavGraphEdge const *> >::_Xlen
PUBLIC	??0?$Graph_SearchAStar_TS@V?$SparseGraph@V?$NavGraphNode@PAV?$Trigger@VRaven_Bot@@@@@@VNavGraphEdge@@@@VHeuristic_Euclid@@@@QAE@ABV?$SparseGraph@V?$NavGraphNode@PAV?$Trigger@VRaven_Bot@@@@@@VNavGraphEdge@@@@HH@Z ; Graph_SearchAStar_TS<SparseGraph<NavGraphNode<Trigger<Raven_Bot> *>,NavGraphEdge>,Heuristic_Euclid>::Graph_SearchAStar_TS<SparseGraph<NavGraphNode<Trigger<Raven_Bot> *>,NavGraphEdge>,Heuristic_Euclid>
PUBLIC	??1?$Graph_SearchAStar_TS@V?$SparseGraph@V?$NavGraphNode@PAV?$Trigger@VRaven_Bot@@@@@@VNavGraphEdge@@@@VHeuristic_Euclid@@@@UAE@XZ ; Graph_SearchAStar_TS<SparseGraph<NavGraphNode<Trigger<Raven_Bot> *>,NavGraphEdge>,Heuristic_Euclid>::~Graph_SearchAStar_TS<SparseGraph<NavGraphNode<Trigger<Raven_Bot> *>,NavGraphEdge>,Heuristic_Euclid>
PUBLIC	?CycleOnce@?$Graph_SearchAStar_TS@V?$SparseGraph@V?$NavGraphNode@PAV?$Trigger@VRaven_Bot@@@@@@VNavGraphEdge@@@@VHeuristic_Euclid@@@@UAEHXZ ; Graph_SearchAStar_TS<SparseGraph<NavGraphNode<Trigger<Raven_Bot> *>,NavGraphEdge>,Heuristic_Euclid>::CycleOnce
PUBLIC	?GetSPT@?$Graph_SearchAStar_TS@V?$SparseGraph@V?$NavGraphNode@PAV?$Trigger@VRaven_Bot@@@@@@VNavGraphEdge@@@@VHeuristic_Euclid@@@@UBE?AV?$vector@PBVNavGraphEdge@@V?$allocator@PBVNavGraphEdge@@@std@@@std@@XZ ; Graph_SearchAStar_TS<SparseGraph<NavGraphNode<Trigger<Raven_Bot> *>,NavGraphEdge>,Heuristic_Euclid>::GetSPT
PUBLIC	?GetPathToTarget@?$Graph_SearchAStar_TS@V?$SparseGraph@V?$NavGraphNode@PAV?$Trigger@VRaven_Bot@@@@@@VNavGraphEdge@@@@VHeuristic_Euclid@@@@UBE?AV?$list@HV?$allocator@H@std@@@std@@XZ ; Graph_SearchAStar_TS<SparseGraph<NavGraphNode<Trigger<Raven_Bot> *>,NavGraphEdge>,Heuristic_Euclid>::GetPathToTarget
PUBLIC	?GetPathAsPathEdges@?$Graph_SearchAStar_TS@V?$SparseGraph@V?$NavGraphNode@PAV?$Trigger@VRaven_Bot@@@@@@VNavGraphEdge@@@@VHeuristic_Euclid@@@@UBE?AV?$list@VPathEdge@@V?$allocator@VPathEdge@@@std@@@std@@XZ ; Graph_SearchAStar_TS<SparseGraph<NavGraphNode<Trigger<Raven_Bot> *>,NavGraphEdge>,Heuristic_Euclid>::GetPathAsPathEdges
PUBLIC	?GetCostToTarget@?$Graph_SearchAStar_TS@V?$SparseGraph@V?$NavGraphNode@PAV?$Trigger@VRaven_Bot@@@@@@VNavGraphEdge@@@@VHeuristic_Euclid@@@@UBENXZ ; Graph_SearchAStar_TS<SparseGraph<NavGraphNode<Trigger<Raven_Bot> *>,NavGraphEdge>,Heuristic_Euclid>::GetCostToTarget
PUBLIC	??_G?$Graph_SearchAStar_TS@V?$SparseGraph@V?$NavGraphNode@PAV?$Trigger@VRaven_Bot@@@@@@VNavGraphEdge@@@@VHeuristic_Euclid@@@@UAEPAXI@Z ; Graph_SearchAStar_TS<SparseGraph<NavGraphNode<Trigger<Raven_Bot> *>,NavGraphEdge>,Heuristic_Euclid>::`scalar deleting destructor'
PUBLIC	??0?$Graph_SearchDijkstras_TS@V?$SparseGraph@V?$NavGraphNode@PAV?$Trigger@VRaven_Bot@@@@@@VNavGraphEdge@@@@V?$FindActiveTrigger@V?$Trigger@VRaven_Bot@@@@@@@@QAE@ABV?$SparseGraph@V?$NavGraphNode@PAV?$Trigger@VRaven_Bot@@@@@@VNavGraphEdge@@@@HH@Z ; Graph_SearchDijkstras_TS<SparseGraph<NavGraphNode<Trigger<Raven_Bot> *>,NavGraphEdge>,FindActiveTrigger<Trigger<Raven_Bot> > >::Graph_SearchDijkstras_TS<SparseGraph<NavGraphNode<Trigger<Raven_Bot> *>,NavGraphEdge>,FindActiveTrigger<Trigger<Raven_Bot> > >
PUBLIC	??1?$Graph_SearchDijkstras_TS@V?$SparseGraph@V?$NavGraphNode@PAV?$Trigger@VRaven_Bot@@@@@@VNavGraphEdge@@@@V?$FindActiveTrigger@V?$Trigger@VRaven_Bot@@@@@@@@UAE@XZ ; Graph_SearchDijkstras_TS<SparseGraph<NavGraphNode<Trigger<Raven_Bot> *>,NavGraphEdge>,FindActiveTrigger<Trigger<Raven_Bot> > >::~Graph_SearchDijkstras_TS<SparseGraph<NavGraphNode<Trigger<Raven_Bot> *>,NavGraphEdge>,FindActiveTrigger<Trigger<Raven_Bot> > >
PUBLIC	?CycleOnce@?$Graph_SearchDijkstras_TS@V?$SparseGraph@V?$NavGraphNode@PAV?$Trigger@VRaven_Bot@@@@@@VNavGraphEdge@@@@V?$FindActiveTrigger@V?$Trigger@VRaven_Bot@@@@@@@@UAEHXZ ; Graph_SearchDijkstras_TS<SparseGraph<NavGraphNode<Trigger<Raven_Bot> *>,NavGraphEdge>,FindActiveTrigger<Trigger<Raven_Bot> > >::CycleOnce
PUBLIC	?GetSPT@?$Graph_SearchDijkstras_TS@V?$SparseGraph@V?$NavGraphNode@PAV?$Trigger@VRaven_Bot@@@@@@VNavGraphEdge@@@@V?$FindActiveTrigger@V?$Trigger@VRaven_Bot@@@@@@@@UBE?AV?$vector@PBVNavGraphEdge@@V?$allocator@PBVNavGraphEdge@@@std@@@std@@XZ ; Graph_SearchDijkstras_TS<SparseGraph<NavGraphNode<Trigger<Raven_Bot> *>,NavGraphEdge>,FindActiveTrigger<Trigger<Raven_Bot> > >::GetSPT
PUBLIC	?GetPathToTarget@?$Graph_SearchDijkstras_TS@V?$SparseGraph@V?$NavGraphNode@PAV?$Trigger@VRaven_Bot@@@@@@VNavGraphEdge@@@@V?$FindActiveTrigger@V?$Trigger@VRaven_Bot@@@@@@@@UBE?AV?$list@HV?$allocator@H@std@@@std@@XZ ; Graph_SearchDijkstras_TS<SparseGraph<NavGraphNode<Trigger<Raven_Bot> *>,NavGraphEdge>,FindActiveTrigger<Trigger<Raven_Bot> > >::GetPathToTarget
PUBLIC	?GetPathAsPathEdges@?$Graph_SearchDijkstras_TS@V?$SparseGraph@V?$NavGraphNode@PAV?$Trigger@VRaven_Bot@@@@@@VNavGraphEdge@@@@V?$FindActiveTrigger@V?$Trigger@VRaven_Bot@@@@@@@@UBE?AV?$list@VPathEdge@@V?$allocator@VPathEdge@@@std@@@std@@XZ ; Graph_SearchDijkstras_TS<SparseGraph<NavGraphNode<Trigger<Raven_Bot> *>,NavGraphEdge>,FindActiveTrigger<Trigger<Raven_Bot> > >::GetPathAsPathEdges
PUBLIC	?GetCostToTarget@?$Graph_SearchDijkstras_TS@V?$SparseGraph@V?$NavGraphNode@PAV?$Trigger@VRaven_Bot@@@@@@VNavGraphEdge@@@@V?$FindActiveTrigger@V?$Trigger@VRaven_Bot@@@@@@@@UBENXZ ; Graph_SearchDijkstras_TS<SparseGraph<NavGraphNode<Trigger<Raven_Bot> *>,NavGraphEdge>,FindActiveTrigger<Trigger<Raven_Bot> > >::GetCostToTarget
PUBLIC	??_G?$Graph_SearchDijkstras_TS@V?$SparseGraph@V?$NavGraphNode@PAV?$Trigger@VRaven_Bot@@@@@@VNavGraphEdge@@@@V?$FindActiveTrigger@V?$Trigger@VRaven_Bot@@@@@@@@UAEPAXI@Z ; Graph_SearchDijkstras_TS<SparseGraph<NavGraphNode<Trigger<Raven_Bot> *>,NavGraphEdge>,FindActiveTrigger<Trigger<Raven_Bot> > >::`scalar deleting destructor'
PUBLIC	??$?0U?$_List_node@VPathEdge@@PAX@std@@@?$allocator@VPathEdge@@@std@@QAE@ABV?$allocator@U?$_List_node@VPathEdge@@PAX@std@@@1@@Z ; std::allocator<PathEdge>::allocator<PathEdge><std::_List_node<PathEdge,void *> >
PUBLIC	??$forward@V?$list@VPathEdge@@V?$allocator@VPathEdge@@@std@@@std@@@std@@YA$$QAV?$list@VPathEdge@@V?$allocator@VPathEdge@@@std@@@0@AAV10@@Z ; std::forward<std::list<PathEdge,std::allocator<PathEdge> > >
PUBLIC	??0?$_List_unchecked_const_iterator@V?$_List_val@U?$_List_simple_types@VPathEdge@@@std@@@std@@U_Iterator_base0@2@@std@@QAE@PAU?$_List_node@VPathEdge@@PAX@1@PBV?$_List_val@U?$_List_simple_types@VPathEdge@@@std@@@1@@Z ; std::_List_unchecked_const_iterator<std::_List_val<std::_List_simple_types<PathEdge> >,std::_Iterator_base0>::_List_unchecked_const_iterator<std::_List_val<std::_List_simple_types<PathEdge> >,std::_Iterator_base0>
PUBLIC	?_Mynode@?$_List_unchecked_const_iterator@V?$_List_val@U?$_List_simple_types@VPathEdge@@@std@@@std@@U_Iterator_base0@2@@std@@QBEPAU?$_List_node@VPathEdge@@PAX@2@XZ ; std::_List_unchecked_const_iterator<std::_List_val<std::_List_simple_types<PathEdge> >,std::_Iterator_base0>::_Mynode
PUBLIC	??0?$_List_unchecked_iterator@V?$_List_val@U?$_List_simple_types@VPathEdge@@@std@@@std@@@std@@QAE@PAU?$_List_node@VPathEdge@@PAX@1@PBV?$_List_val@U?$_List_simple_types@VPathEdge@@@std@@@1@@Z ; std::_List_unchecked_iterator<std::_List_val<std::_List_simple_types<PathEdge> > >::_List_unchecked_iterator<std::_List_val<std::_List_simple_types<PathEdge> > >
PUBLIC	??$forward@VPathEdge@@@std@@YA$$QAVPathEdge@@AAV1@@Z ; std::forward<PathEdge>
PUBLIC	??$_Insert@VPathEdge@@@?$list@VPathEdge@@V?$allocator@VPathEdge@@@std@@@std@@QAEXV?$_List_unchecked_const_iterator@V?$_List_val@U?$_List_simple_types@VPathEdge@@@std@@@std@@U_Iterator_base0@2@@1@$$QAVPathEdge@@@Z ; std::list<PathEdge,std::allocator<PathEdge> >::_Insert<PathEdge>
PUBLIC	?pointer_to@?$pointer_traits@PAVPathEdge@@@std@@SAPAVPathEdge@@AAV3@@Z ; std::pointer_traits<PathEdge *>::pointer_to
PUBLIC	??0?$_Iterator012@Ubidirectional_iterator_tag@std@@HHPBHABHU_Iterator_base12@2@@std@@QAE@XZ ; std::_Iterator012<std::bidirectional_iterator_tag,int,int,int const *,int const &,std::_Iterator_base12>::_Iterator012<std::bidirectional_iterator_tag,int,int,int const *,int const &,std::_Iterator_base12>
PUBLIC	??1?$_Iterator012@Ubidirectional_iterator_tag@std@@HHPBHABHU_Iterator_base12@2@@std@@QAE@XZ ; std::_Iterator012<std::bidirectional_iterator_tag,int,int,int const *,int const &,std::_Iterator_base12>::~_Iterator012<std::bidirectional_iterator_tag,int,int,int const *,int const &,std::_Iterator_base12>
PUBLIC	??0?$_List_unchecked_const_iterator@V?$_List_val@U?$_List_simple_types@H@std@@@std@@U_Iterator_base12@2@@std@@QAE@PAU?$_List_node@HPAX@1@PBV?$_List_val@U?$_List_simple_types@H@std@@@1@@Z ; std::_List_unchecked_const_iterator<std::_List_val<std::_List_simple_types<int> >,std::_Iterator_base12>::_List_unchecked_const_iterator<std::_List_val<std::_List_simple_types<int> >,std::_Iterator_base12>
PUBLIC	??1?$_List_unchecked_const_iterator@V?$_List_val@U?$_List_simple_types@H@std@@@std@@U_Iterator_base12@2@@std@@QAE@XZ ; std::_List_unchecked_const_iterator<std::_List_val<std::_List_simple_types<int> >,std::_Iterator_base12>::~_List_unchecked_const_iterator<std::_List_val<std::_List_simple_types<int> >,std::_Iterator_base12>
PUBLIC	??0?$_List_const_iterator@V?$_List_val@U?$_List_simple_types@H@std@@@std@@@std@@QAE@PAU?$_List_node@HPAX@1@PBV?$_List_val@U?$_List_simple_types@H@std@@@1@@Z ; std::_List_const_iterator<std::_List_val<std::_List_simple_types<int> > >::_List_const_iterator<std::_List_val<std::_List_simple_types<int> > >
PUBLIC	??D?$_List_const_iterator@V?$_List_val@U?$_List_simple_types@H@std@@@std@@@std@@QBEABHXZ ; std::_List_const_iterator<std::_List_val<std::_List_simple_types<int> > >::operator*
PUBLIC	??F?$_List_const_iterator@V?$_List_val@U?$_List_simple_types@H@std@@@std@@@std@@QAEAAV01@XZ ; std::_List_const_iterator<std::_List_val<std::_List_simple_types<int> > >::operator--
PUBLIC	??1?$_List_const_iterator@V?$_List_val@U?$_List_simple_types@H@std@@@std@@@std@@QAE@XZ ; std::_List_const_iterator<std::_List_val<std::_List_simple_types<int> > >::~_List_const_iterator<std::_List_val<std::_List_simple_types<int> > >
PUBLIC	??0?$_List_iterator@V?$_List_val@U?$_List_simple_types@H@std@@@std@@@std@@QAE@PAU?$_List_node@HPAX@1@PBV?$_List_val@U?$_List_simple_types@H@std@@@1@@Z ; std::_List_iterator<std::_List_val<std::_List_simple_types<int> > >::_List_iterator<std::_List_val<std::_List_simple_types<int> > >
PUBLIC	??D?$_List_iterator@V?$_List_val@U?$_List_simple_types@H@std@@@std@@@std@@QBEAAHXZ ; std::_List_iterator<std::_List_val<std::_List_simple_types<int> > >::operator*
PUBLIC	??F?$_List_iterator@V?$_List_val@U?$_List_simple_types@H@std@@@std@@@std@@QAEAAV01@XZ ; std::_List_iterator<std::_List_val<std::_List_simple_types<int> > >::operator--
PUBLIC	??1?$_List_iterator@V?$_List_val@U?$_List_simple_types@H@std@@@std@@@std@@QAE@XZ ; std::_List_iterator<std::_List_val<std::_List_simple_types<int> > >::~_List_iterator<std::_List_val<std::_List_simple_types<int> > >
PUBLIC	?Swap@?$IndexedPriorityQLow@N@@AAEXHH@Z		; IndexedPriorityQLow<double>::Swap
PUBLIC	?ReorderUpwards@?$IndexedPriorityQLow@N@@AAEXH@Z ; IndexedPriorityQLow<double>::ReorderUpwards
PUBLIC	?ReorderDownwards@?$IndexedPriorityQLow@N@@AAEXHH@Z ; IndexedPriorityQLow<double>::ReorderDownwards
PUBLIC	??0?$IndexedPriorityQLow@N@@QAE@AAV?$vector@NV?$allocator@N@std@@@std@@H@Z ; IndexedPriorityQLow<double>::IndexedPriorityQLow<double>
PUBLIC	?empty@?$IndexedPriorityQLow@N@@QBE_NXZ		; IndexedPriorityQLow<double>::empty
PUBLIC	?insert@?$IndexedPriorityQLow@N@@QAEXH@Z	; IndexedPriorityQLow<double>::insert
PUBLIC	?Pop@?$IndexedPriorityQLow@N@@QAEHXZ		; IndexedPriorityQLow<double>::Pop
PUBLIC	?ChangePriority@?$IndexedPriorityQLow@N@@QAEXH@Z ; IndexedPriorityQLow<double>::ChangePriority
PUBLIC	??1?$IndexedPriorityQLow@N@@QAE@XZ		; IndexedPriorityQLow<double>::~IndexedPriorityQLow<double>
PUBLIC	??_G?$IndexedPriorityQLow@N@@QAEPAXI@Z		; IndexedPriorityQLow<double>::`scalar deleting destructor'
PUBLIC	??$construct@PADAAPAD@?$_Wrap_alloc@V?$allocator@D@std@@@std@@QAEXPAPADAAPAD@Z ; std::_Wrap_alloc<std::allocator<char> >::construct<char *,char * &>
PUBLIC	??$destroy@PAD@?$_Wrap_alloc@V?$allocator@D@std@@@std@@QAEXPAPAD@Z ; std::_Wrap_alloc<std::allocator<char> >::destroy<char *>
PUBLIC	??$addressof@D@std@@YAPADAAD@Z			; std::addressof<char>
PUBLIC	??$addressof@$$CBN@std@@YAPBNABN@Z		; std::addressof<double const >
PUBLIC	??$_Swap_adl@PAU?$_List_node@VPathEdge@@PAX@std@@@std@@YAXAAPAU?$_List_node@VPathEdge@@PAX@0@0@Z ; std::_Swap_adl<std::_List_node<PathEdge,void *> *>
PUBLIC	??$swap@I@std@@YAXAAI0@Z			; std::swap<unsigned int>
PUBLIC	??$addressof@PAU?$_List_node@VPathEdge@@PAX@std@@@std@@YAPAPAU?$_List_node@VPathEdge@@PAX@0@AAPAU10@@Z ; std::addressof<std::_List_node<PathEdge,void *> *>
PUBLIC	??$destroy@PAU?$_List_node@VPathEdge@@PAX@std@@@?$_Wrap_alloc@V?$allocator@U?$_List_node@VPathEdge@@PAX@std@@@std@@@std@@QAEXPAPAU?$_List_node@VPathEdge@@PAX@1@@Z ; std::_Wrap_alloc<std::allocator<std::_List_node<PathEdge,void *> > >::destroy<std::_List_node<PathEdge,void *> *>
PUBLIC	??$addressof@VPathEdge@@@std@@YAPAVPathEdge@@AAV1@@Z ; std::addressof<PathEdge>
PUBLIC	??$destroy@VPathEdge@@@?$_Wrap_alloc@V?$allocator@U?$_List_node@VPathEdge@@PAX@std@@@std@@@std@@QAEXPAVPathEdge@@@Z ; std::_Wrap_alloc<std::allocator<std::_List_node<PathEdge,void *> > >::destroy<PathEdge>
PUBLIC	??$_Uninitialized_default_fill_n@PAPBVNavGraphEdge@@IU?$_Wrap_alloc@V?$allocator@PBVNavGraphEdge@@@std@@@std@@@std@@YAXPAPBVNavGraphEdge@@IAAU?$_Wrap_alloc@V?$allocator@PBVNavGraphEdge@@@std@@@0@@Z ; std::_Uninitialized_default_fill_n<NavGraphEdge const * *,unsigned int,std::_Wrap_alloc<std::allocator<NavGraphEdge const *> > >
PUBLIC	??0?$_Iterator012@Urandom_access_iterator_tag@std@@PBVNavGraphEdge@@HPBQBV3@ABQBV3@U_Iterator_base12@2@@std@@QAE@XZ ; std::_Iterator012<std::random_access_iterator_tag,NavGraphEdge const *,int,NavGraphEdge const * const *,NavGraphEdge const * const &,std::_Iterator_base12>::_Iterator012<std::random_access_iterator_tag,NavGraphEdge const *,int,NavGraphEdge const * const *,NavGraphEdge const * const &,std::_Iterator_base12>
PUBLIC	??1?$_Iterator012@Urandom_access_iterator_tag@std@@PBVNavGraphEdge@@HPBQBV3@ABQBV3@U_Iterator_base12@2@@std@@QAE@XZ ; std::_Iterator012<std::random_access_iterator_tag,NavGraphEdge const *,int,NavGraphEdge const * const *,NavGraphEdge const * const &,std::_Iterator_base12>::~_Iterator012<std::random_access_iterator_tag,NavGraphEdge const *,int,NavGraphEdge const * const *,NavGraphEdge const * const &,std::_Iterator_base12>
PUBLIC	??0?$_Iterator012@Urandom_access_iterator_tag@std@@PBVNavGraphEdge@@HPBQBV3@ABQBV3@U_Iterator_base12@2@@std@@QAE@ABU01@@Z ; std::_Iterator012<std::random_access_iterator_tag,NavGraphEdge const *,int,NavGraphEdge const * const *,NavGraphEdge const * const &,std::_Iterator_base12>::_Iterator012<std::random_access_iterator_tag,NavGraphEdge const *,int,NavGraphEdge const * const *,NavGraphEdge const * const &,std::_Iterator_base12>
PUBLIC	??0?$_Vector_const_iterator@V?$_Vector_val@U?$_Simple_types@PBVNavGraphEdge@@@std@@@std@@@std@@QAE@PAPBVNavGraphEdge@@PBU_Container_base12@1@@Z ; std::_Vector_const_iterator<std::_Vector_val<std::_Simple_types<NavGraphEdge const *> > >::_Vector_const_iterator<std::_Vector_val<std::_Simple_types<NavGraphEdge const *> > >
PUBLIC	?_Unchecked@?$_Vector_const_iterator@V?$_Vector_val@U?$_Simple_types@PBVNavGraphEdge@@@std@@@std@@@std@@QBEPBQBVNavGraphEdge@@XZ ; std::_Vector_const_iterator<std::_Vector_val<std::_Simple_types<NavGraphEdge const *> > >::_Unchecked
PUBLIC	??1?$_Vector_const_iterator@V?$_Vector_val@U?$_Simple_types@PBVNavGraphEdge@@@std@@@std@@@std@@QAE@XZ ; std::_Vector_const_iterator<std::_Vector_val<std::_Simple_types<NavGraphEdge const *> > >::~_Vector_const_iterator<std::_Vector_val<std::_Simple_types<NavGraphEdge const *> > >
PUBLIC	??0?$_Vector_const_iterator@V?$_Vector_val@U?$_Simple_types@PBVNavGraphEdge@@@std@@@std@@@std@@QAE@ABV01@@Z ; std::_Vector_const_iterator<std::_Vector_val<std::_Simple_types<NavGraphEdge const *> > >::_Vector_const_iterator<std::_Vector_val<std::_Simple_types<NavGraphEdge const *> > >
PUBLIC	??$_Ucopy@V?$_Vector_const_iterator@V?$_Vector_val@U?$_Simple_types@PBVNavGraphEdge@@@std@@@std@@@std@@@?$vector@PBVNavGraphEdge@@V?$allocator@PBVNavGraphEdge@@@std@@@std@@IAEPAPBVNavGraphEdge@@V?$_Vector_const_iterator@V?$_Vector_val@U?$_Simple_types@PBVNavGraphEdge@@@std@@@std@@@1@0PAPBV2@@Z ; std::vector<NavGraphEdge const *,std::allocator<NavGraphEdge const *> >::_Ucopy<std::_Vector_const_iterator<std::_Vector_val<std::_Simple_types<NavGraphEdge const *> > > >
PUBLIC	??0?$allocator@U_Container_proxy@std@@@std@@QAE@XZ ; std::allocator<std::_Container_proxy>::allocator<std::_Container_proxy>
PUBLIC	?deallocate@?$allocator@U_Container_proxy@std@@@std@@QAEXPAU_Container_proxy@2@I@Z ; std::allocator<std::_Container_proxy>::deallocate
PUBLIC	?allocate@?$allocator@U_Container_proxy@std@@@std@@QAEPAU_Container_proxy@2@I@Z ; std::allocator<std::_Container_proxy>::allocate
PUBLIC	??$construct@U_Container_proxy@std@@U12@@?$allocator@U_Container_proxy@std@@@std@@QAEXPAU_Container_proxy@1@$$QAU21@@Z ; std::allocator<std::_Container_proxy>::construct<std::_Container_proxy,std::_Container_proxy>
PUBLIC	??$destroy@U_Container_proxy@std@@@?$allocator@U_Container_proxy@std@@@std@@QAEXPAU_Container_proxy@1@@Z ; std::allocator<std::_Container_proxy>::destroy<std::_Container_proxy>
PUBLIC	??0?$_Iterator012@Urandom_access_iterator_tag@std@@HHPBHABHU_Iterator_base12@2@@std@@QAE@XZ ; std::_Iterator012<std::random_access_iterator_tag,int,int,int const *,int const &,std::_Iterator_base12>::_Iterator012<std::random_access_iterator_tag,int,int,int const *,int const &,std::_Iterator_base12>
PUBLIC	??1?$_Iterator012@Urandom_access_iterator_tag@std@@HHPBHABHU_Iterator_base12@2@@std@@QAE@XZ ; std::_Iterator012<std::random_access_iterator_tag,int,int,int const *,int const &,std::_Iterator_base12>::~_Iterator012<std::random_access_iterator_tag,int,int,int const *,int const &,std::_Iterator_base12>
PUBLIC	??0?$_Iterator012@Urandom_access_iterator_tag@std@@HHPBHABHU_Iterator_base12@2@@std@@QAE@ABU01@@Z ; std::_Iterator012<std::random_access_iterator_tag,int,int,int const *,int const &,std::_Iterator_base12>::_Iterator012<std::random_access_iterator_tag,int,int,int const *,int const &,std::_Iterator_base12>
PUBLIC	??0?$_Vector_const_iterator@V?$_Vector_val@U?$_Simple_types@H@std@@@std@@@std@@QAE@PAHPBU_Container_base12@1@@Z ; std::_Vector_const_iterator<std::_Vector_val<std::_Simple_types<int> > >::_Vector_const_iterator<std::_Vector_val<std::_Simple_types<int> > >
PUBLIC	??Y?$_Vector_const_iterator@V?$_Vector_val@U?$_Simple_types@H@std@@@std@@@std@@QAEAAV01@H@Z ; std::_Vector_const_iterator<std::_Vector_val<std::_Simple_types<int> > >::operator+=
PUBLIC	??1?$_Vector_const_iterator@V?$_Vector_val@U?$_Simple_types@H@std@@@std@@@std@@QAE@XZ ; std::_Vector_const_iterator<std::_Vector_val<std::_Simple_types<int> > >::~_Vector_const_iterator<std::_Vector_val<std::_Simple_types<int> > >
PUBLIC	??0?$_Vector_const_iterator@V?$_Vector_val@U?$_Simple_types@H@std@@@std@@@std@@QAE@ABV01@@Z ; std::_Vector_const_iterator<std::_Vector_val<std::_Simple_types<int> > >::_Vector_const_iterator<std::_Vector_val<std::_Simple_types<int> > >
PUBLIC	??0?$_Vector_iterator@V?$_Vector_val@U?$_Simple_types@H@std@@@std@@@std@@QAE@PAHPBU_Container_base12@1@@Z ; std::_Vector_iterator<std::_Vector_val<std::_Simple_types<int> > >::_Vector_iterator<std::_Vector_val<std::_Simple_types<int> > >
PUBLIC	??Y?$_Vector_iterator@V?$_Vector_val@U?$_Simple_types@H@std@@@std@@@std@@QAEAAV01@H@Z ; std::_Vector_iterator<std::_Vector_val<std::_Simple_types<int> > >::operator+=
PUBLIC	??H?$_Vector_iterator@V?$_Vector_val@U?$_Simple_types@H@std@@@std@@@std@@QBE?AV01@H@Z ; std::_Vector_iterator<std::_Vector_val<std::_Simple_types<int> > >::operator+
PUBLIC	??1?$_Vector_iterator@V?$_Vector_val@U?$_Simple_types@H@std@@@std@@@std@@QAE@XZ ; std::_Vector_iterator<std::_Vector_val<std::_Simple_types<int> > >::~_Vector_iterator<std::_Vector_val<std::_Simple_types<int> > >
PUBLIC	??0?$_Vector_iterator@V?$_Vector_val@U?$_Simple_types@H@std@@@std@@@std@@QAE@ABV01@@Z ; std::_Vector_iterator<std::_Vector_val<std::_Simple_types<int> > >::_Vector_iterator<std::_Vector_val<std::_Simple_types<int> > >
PUBLIC	??0?$_Wrap_alloc@V?$allocator@U_Container_proxy@std@@@std@@@std@@QAE@XZ ; std::_Wrap_alloc<std::allocator<std::_Container_proxy> >::_Wrap_alloc<std::allocator<std::_Container_proxy> >
PUBLIC	?allocate@?$_Wrap_alloc@V?$allocator@U_Container_proxy@std@@@std@@@std@@QAEPAU_Container_proxy@2@I@Z ; std::_Wrap_alloc<std::allocator<std::_Container_proxy> >::allocate
PUBLIC	?deallocate@?$_Wrap_alloc@V?$allocator@U_Container_proxy@std@@@std@@@std@@QAEXPAU_Container_proxy@2@I@Z ; std::_Wrap_alloc<std::allocator<std::_Container_proxy> >::deallocate
PUBLIC	??$construct@U_Container_proxy@std@@U12@@?$_Wrap_alloc@V?$allocator@U_Container_proxy@std@@@std@@@std@@QAEXPAU_Container_proxy@1@$$QAU21@@Z ; std::_Wrap_alloc<std::allocator<std::_Container_proxy> >::construct<std::_Container_proxy,std::_Container_proxy>
PUBLIC	??$destroy@U_Container_proxy@std@@@?$_Wrap_alloc@V?$allocator@U_Container_proxy@std@@@std@@@std@@QAEXPAU_Container_proxy@1@@Z ; std::_Wrap_alloc<std::allocator<std::_Container_proxy> >::destroy<std::_Container_proxy>
PUBLIC	??$addressof@PAU?$_List_node@HPAX@std@@@std@@YAPAPAU?$_List_node@HPAX@0@AAPAU10@@Z ; std::addressof<std::_List_node<int,void *> *>
PUBLIC	??$destroy@PAU?$_List_node@HPAX@std@@@?$_Wrap_alloc@V?$allocator@U?$_List_node@HPAX@std@@@std@@@std@@QAEXPAPAU?$_List_node@HPAX@1@@Z ; std::_Wrap_alloc<std::allocator<std::_List_node<int,void *> > >::destroy<std::_List_node<int,void *> *>
PUBLIC	??$_Destroy_range@U?$_Wrap_alloc@V?$allocator@N@std@@@std@@@std@@YAXPAN0AAU?$_Wrap_alloc@V?$allocator@N@std@@@0@@Z ; std::_Destroy_range<std::_Wrap_alloc<std::allocator<double> > >
PUBLIC	??$_Uninitialized_fill_n@PANINU?$_Wrap_alloc@V?$allocator@N@std@@@std@@@std@@YAXPANIPBNAAU?$_Wrap_alloc@V?$allocator@N@std@@@0@@Z ; std::_Uninitialized_fill_n<double *,unsigned int,double,std::_Wrap_alloc<std::allocator<double> > >
PUBLIC	??$_Destroy_range@U?$_Wrap_alloc@V?$allocator@H@std@@@std@@@std@@YAXPAH0AAU?$_Wrap_alloc@V?$allocator@H@std@@@0@@Z ; std::_Destroy_range<std::_Wrap_alloc<std::allocator<int> > >
PUBLIC	??$addressof@H@std@@YAPAHAAH@Z			; std::addressof<int>
PUBLIC	??$destroy@H@?$_Wrap_alloc@V?$allocator@U?$_List_node@HPAX@std@@@std@@@std@@QAEXPAH@Z ; std::_Wrap_alloc<std::allocator<std::_List_node<int,void *> > >::destroy<int>
PUBLIC	??$_Destroy_range@U?$_Wrap_alloc@V?$allocator@PBVNavGraphEdge@@@std@@@std@@@std@@YAXPAPBVNavGraphEdge@@0AAU?$_Wrap_alloc@V?$allocator@PBVNavGraphEdge@@@std@@@0@@Z ; std::_Destroy_range<std::_Wrap_alloc<std::allocator<NavGraphEdge const *> > >
PUBLIC	??$_Allocate@U_Container_proxy@std@@@std@@YAPAU_Container_proxy@0@IPAU10@@Z ; std::_Allocate<std::_Container_proxy>
PUBLIC	??$addressof@$$CBH@std@@YAPBHABH@Z		; std::addressof<int const >
PUBLIC	??$_Umove@PAH@?$vector@HV?$allocator@H@std@@@std@@IAEPAHPAH00@Z ; std::vector<int,std::allocator<int> >::_Umove<int *>
PUBLIC	??$fill@PAHH@std@@YAXPAH0ABH@Z			; std::fill<int *,int>
PUBLIC	??$_Copy_backward@PAHPAH@std@@YAPAHPAH00@Z	; std::_Copy_backward<int *,int *>
PUBLIC	??$construct@PAU?$_List_node@VPathEdge@@PAX@std@@AAPAU12@@?$_Wrap_alloc@V?$allocator@U?$_List_node@VPathEdge@@PAX@std@@@std@@@std@@QAEXPAPAU?$_List_node@VPathEdge@@PAX@1@AAPAU21@@Z ; std::_Wrap_alloc<std::allocator<std::_List_node<PathEdge,void *> > >::construct<std::_List_node<PathEdge,void *> *,std::_List_node<PathEdge,void *> * &>
PUBLIC	??$_Allocate@PBVNavGraphEdge@@@std@@YAPAPBVNavGraphEdge@@IPAPBV1@@Z ; std::_Allocate<NavGraphEdge const *>
PUBLIC	??$_Allocate@D@std@@YAPADIPAD@Z			; std::_Allocate<char>
PUBLIC	??$_Allocate@N@std@@YAPANIPAN@Z			; std::_Allocate<double>
PUBLIC	??$_Uninitialized_fill_n@PAHIHU?$_Wrap_alloc@V?$allocator@H@std@@@std@@@std@@YAXPAHIPBHAAU?$_Wrap_alloc@V?$allocator@H@std@@@0@@Z ; std::_Uninitialized_fill_n<int *,unsigned int,int,std::_Wrap_alloc<std::allocator<int> > >
PUBLIC	??$_Allocate@H@std@@YAPAHIPAH@Z			; std::_Allocate<int>
PUBLIC	??$_Allocate@U?$_List_node@VPathEdge@@PAX@std@@@std@@YAPAU?$_List_node@VPathEdge@@PAX@0@IPAU10@@Z ; std::_Allocate<std::_List_node<PathEdge,void *> >
PUBLIC	??0?$_Iterator012@Ubidirectional_iterator_tag@std@@PAVRaven_PathPlanner@@HPBQAV3@ABQAV3@U_Iterator_base12@2@@std@@QAE@XZ ; std::_Iterator012<std::bidirectional_iterator_tag,Raven_PathPlanner *,int,Raven_PathPlanner * const *,Raven_PathPlanner * const &,std::_Iterator_base12>::_Iterator012<std::bidirectional_iterator_tag,Raven_PathPlanner *,int,Raven_PathPlanner * const *,Raven_PathPlanner * const &,std::_Iterator_base12>
PUBLIC	??1?$_Iterator012@Ubidirectional_iterator_tag@std@@PAVRaven_PathPlanner@@HPBQAV3@ABQAV3@U_Iterator_base12@2@@std@@QAE@XZ ; std::_Iterator012<std::bidirectional_iterator_tag,Raven_PathPlanner *,int,Raven_PathPlanner * const *,Raven_PathPlanner * const &,std::_Iterator_base12>::~_Iterator012<std::bidirectional_iterator_tag,Raven_PathPlanner *,int,Raven_PathPlanner * const *,Raven_PathPlanner * const &,std::_Iterator_base12>
PUBLIC	??0?$_Iterator012@Ubidirectional_iterator_tag@std@@PAVRaven_PathPlanner@@HPBQAV3@ABQAV3@U_Iterator_base12@2@@std@@QAE@ABU01@@Z ; std::_Iterator012<std::bidirectional_iterator_tag,Raven_PathPlanner *,int,Raven_PathPlanner * const *,Raven_PathPlanner * const &,std::_Iterator_base12>::_Iterator012<std::bidirectional_iterator_tag,Raven_PathPlanner *,int,Raven_PathPlanner * const *,Raven_PathPlanner * const &,std::_Iterator_base12>
PUBLIC	??4?$_Iterator012@Ubidirectional_iterator_tag@std@@PAVRaven_PathPlanner@@HPBQAV3@ABQAV3@U_Iterator_base12@2@@std@@QAEAAU01@ABU01@@Z ; std::_Iterator012<std::bidirectional_iterator_tag,Raven_PathPlanner *,int,Raven_PathPlanner * const *,Raven_PathPlanner * const &,std::_Iterator_base12>::operator=
PUBLIC	??0?$_List_unchecked_const_iterator@V?$_List_val@U?$_List_simple_types@PAVRaven_PathPlanner@@@std@@@std@@U_Iterator_base12@2@@std@@QAE@PAU?$_List_node@PAVRaven_PathPlanner@@PAX@1@PBV?$_List_val@U?$_List_simple_types@PAVRaven_PathPlanner@@@std@@@1@@Z ; std::_List_unchecked_const_iterator<std::_List_val<std::_List_simple_types<Raven_PathPlanner *> >,std::_Iterator_base12>::_List_unchecked_const_iterator<std::_List_val<std::_List_simple_types<Raven_PathPlanner *> >,std::_Iterator_base12>
PUBLIC	?_Mynode@?$_List_unchecked_const_iterator@V?$_List_val@U?$_List_simple_types@PAVRaven_PathPlanner@@@std@@@std@@U_Iterator_base12@2@@std@@QBEPAU?$_List_node@PAVRaven_PathPlanner@@PAX@2@XZ ; std::_List_unchecked_const_iterator<std::_List_val<std::_List_simple_types<Raven_PathPlanner *> >,std::_Iterator_base12>::_Mynode
PUBLIC	??1?$_List_unchecked_const_iterator@V?$_List_val@U?$_List_simple_types@PAVRaven_PathPlanner@@@std@@@std@@U_Iterator_base12@2@@std@@QAE@XZ ; std::_List_unchecked_const_iterator<std::_List_val<std::_List_simple_types<Raven_PathPlanner *> >,std::_Iterator_base12>::~_List_unchecked_const_iterator<std::_List_val<std::_List_simple_types<Raven_PathPlanner *> >,std::_Iterator_base12>
PUBLIC	??0?$_List_unchecked_const_iterator@V?$_List_val@U?$_List_simple_types@PAVRaven_PathPlanner@@@std@@@std@@U_Iterator_base12@2@@std@@QAE@ABV01@@Z ; std::_List_unchecked_const_iterator<std::_List_val<std::_List_simple_types<Raven_PathPlanner *> >,std::_Iterator_base12>::_List_unchecked_const_iterator<std::_List_val<std::_List_simple_types<Raven_PathPlanner *> >,std::_Iterator_base12>
PUBLIC	??4?$_List_unchecked_const_iterator@V?$_List_val@U?$_List_simple_types@PAVRaven_PathPlanner@@@std@@@std@@U_Iterator_base12@2@@std@@QAEAAV01@ABV01@@Z ; std::_List_unchecked_const_iterator<std::_List_val<std::_List_simple_types<Raven_PathPlanner *> >,std::_Iterator_base12>::operator=
PUBLIC	??0?$_List_const_iterator@V?$_List_val@U?$_List_simple_types@PAVRaven_PathPlanner@@@std@@@std@@@std@@QAE@PAU?$_List_node@PAVRaven_PathPlanner@@PAX@1@PBV?$_List_val@U?$_List_simple_types@PAVRaven_PathPlanner@@@std@@@1@@Z ; std::_List_const_iterator<std::_List_val<std::_List_simple_types<Raven_PathPlanner *> > >::_List_const_iterator<std::_List_val<std::_List_simple_types<Raven_PathPlanner *> > >
PUBLIC	??D?$_List_const_iterator@V?$_List_val@U?$_List_simple_types@PAVRaven_PathPlanner@@@std@@@std@@@std@@QBEABQAVRaven_PathPlanner@@XZ ; std::_List_const_iterator<std::_List_val<std::_List_simple_types<Raven_PathPlanner *> > >::operator*
PUBLIC	??E?$_List_const_iterator@V?$_List_val@U?$_List_simple_types@PAVRaven_PathPlanner@@@std@@@std@@@std@@QAEAAV01@XZ ; std::_List_const_iterator<std::_List_val<std::_List_simple_types<Raven_PathPlanner *> > >::operator++
PUBLIC	??E?$_List_const_iterator@V?$_List_val@U?$_List_simple_types@PAVRaven_PathPlanner@@@std@@@std@@@std@@QAE?AV01@H@Z ; std::_List_const_iterator<std::_List_val<std::_List_simple_types<Raven_PathPlanner *> > >::operator++
PUBLIC	??8?$_List_const_iterator@V?$_List_val@U?$_List_simple_types@PAVRaven_PathPlanner@@@std@@@std@@@std@@QBE_NABV01@@Z ; std::_List_const_iterator<std::_List_val<std::_List_simple_types<Raven_PathPlanner *> > >::operator==
PUBLIC	??9?$_List_const_iterator@V?$_List_val@U?$_List_simple_types@PAVRaven_PathPlanner@@@std@@@std@@@std@@QBE_NABV01@@Z ; std::_List_const_iterator<std::_List_val<std::_List_simple_types<Raven_PathPlanner *> > >::operator!=
PUBLIC	??1?$_List_const_iterator@V?$_List_val@U?$_List_simple_types@PAVRaven_PathPlanner@@@std@@@std@@@std@@QAE@XZ ; std::_List_const_iterator<std::_List_val<std::_List_simple_types<Raven_PathPlanner *> > >::~_List_const_iterator<std::_List_val<std::_List_simple_types<Raven_PathPlanner *> > >
PUBLIC	??0?$_List_const_iterator@V?$_List_val@U?$_List_simple_types@PAVRaven_PathPlanner@@@std@@@std@@@std@@QAE@ABV01@@Z ; std::_List_const_iterator<std::_List_val<std::_List_simple_types<Raven_PathPlanner *> > >::_List_const_iterator<std::_List_val<std::_List_simple_types<Raven_PathPlanner *> > >
PUBLIC	??4?$_List_const_iterator@V?$_List_val@U?$_List_simple_types@PAVRaven_PathPlanner@@@std@@@std@@@std@@QAEAAV01@ABV01@@Z ; std::_List_const_iterator<std::_List_val<std::_List_simple_types<Raven_PathPlanner *> > >::operator=
PUBLIC	??0?$_List_iterator@V?$_List_val@U?$_List_simple_types@PAVRaven_PathPlanner@@@std@@@std@@@std@@QAE@PAU?$_List_node@PAVRaven_PathPlanner@@PAX@1@PBV?$_List_val@U?$_List_simple_types@PAVRaven_PathPlanner@@@std@@@1@@Z ; std::_List_iterator<std::_List_val<std::_List_simple_types<Raven_PathPlanner *> > >::_List_iterator<std::_List_val<std::_List_simple_types<Raven_PathPlanner *> > >
PUBLIC	?_Rechecked@?$_List_iterator@V?$_List_val@U?$_List_simple_types@PAVRaven_PathPlanner@@@std@@@std@@@std@@QAEAAV12@V?$_List_unchecked_iterator@V?$_List_val@U?$_List_simple_types@PAVRaven_PathPlanner@@@std@@@std@@@2@@Z ; std::_List_iterator<std::_List_val<std::_List_simple_types<Raven_PathPlanner *> > >::_Rechecked
PUBLIC	?_Unchecked@?$_List_iterator@V?$_List_val@U?$_List_simple_types@PAVRaven_PathPlanner@@@std@@@std@@@std@@QBE?AV?$_List_unchecked_iterator@V?$_List_val@U?$_List_simple_types@PAVRaven_PathPlanner@@@std@@@std@@@2@XZ ; std::_List_iterator<std::_List_val<std::_List_simple_types<Raven_PathPlanner *> > >::_Unchecked
PUBLIC	??D?$_List_iterator@V?$_List_val@U?$_List_simple_types@PAVRaven_PathPlanner@@@std@@@std@@@std@@QBEAAPAVRaven_PathPlanner@@XZ ; std::_List_iterator<std::_List_val<std::_List_simple_types<Raven_PathPlanner *> > >::operator*
PUBLIC	??E?$_List_iterator@V?$_List_val@U?$_List_simple_types@PAVRaven_PathPlanner@@@std@@@std@@@std@@QAEAAV01@XZ ; std::_List_iterator<std::_List_val<std::_List_simple_types<Raven_PathPlanner *> > >::operator++
PUBLIC	??E?$_List_iterator@V?$_List_val@U?$_List_simple_types@PAVRaven_PathPlanner@@@std@@@std@@@std@@QAE?AV01@H@Z ; std::_List_iterator<std::_List_val<std::_List_simple_types<Raven_PathPlanner *> > >::operator++
PUBLIC	??1?$_List_iterator@V?$_List_val@U?$_List_simple_types@PAVRaven_PathPlanner@@@std@@@std@@@std@@QAE@XZ ; std::_List_iterator<std::_List_val<std::_List_simple_types<Raven_PathPlanner *> > >::~_List_iterator<std::_List_val<std::_List_simple_types<Raven_PathPlanner *> > >
PUBLIC	??0?$_List_iterator@V?$_List_val@U?$_List_simple_types@PAVRaven_PathPlanner@@@std@@@std@@@std@@QAE@ABV01@@Z ; std::_List_iterator<std::_List_val<std::_List_simple_types<Raven_PathPlanner *> > >::_List_iterator<std::_List_val<std::_List_simple_types<Raven_PathPlanner *> > >
PUBLIC	??4?$_List_iterator@V?$_List_val@U?$_List_simple_types@PAVRaven_PathPlanner@@@std@@@std@@@std@@QAEAAV01@ABV01@@Z ; std::_List_iterator<std::_List_val<std::_List_simple_types<Raven_PathPlanner *> > >::operator=
PUBLIC	??$find@V?$_List_iterator@V?$_List_val@U?$_List_simple_types@PAVRaven_PathPlanner@@@std@@@std@@@std@@PAVRaven_PathPlanner@@@std@@YA?AV?$_List_iterator@V?$_List_val@U?$_List_simple_types@PAVRaven_PathPlanner@@@std@@@std@@@0@V10@0ABQAVRaven_PathPlanner@@@Z ; std::find<std::_List_iterator<std::_List_val<std::_List_simple_types<Raven_PathPlanner *> > >,Raven_PathPlanner *>
PUBLIC	??0?$_Iterator012@Urandom_access_iterator_tag@std@@U?$Cell@PAV?$NavGraphNode@PAV?$Trigger@VRaven_Bot@@@@@@@@HPBU3@ABU3@U_Iterator_base12@2@@std@@QAE@XZ ; std::_Iterator012<std::random_access_iterator_tag,Cell<NavGraphNode<Trigger<Raven_Bot> *> *>,int,Cell<NavGraphNode<Trigger<Raven_Bot> *> *> const *,Cell<NavGraphNode<Trigger<Raven_Bot> *> *> const &,std::_Iterator_base12>::_Iterator012<std::random_access_iterator_tag,Cell<NavGraphNode<Trigger<Raven_Bot> *> *>,int,Cell<NavGraphNode<Trigger<Raven_Bot> *> *> const *,Cell<NavGraphNode<Trigger<Raven_Bot> *> *> const &,std::_Iterator_base12>
PUBLIC	??1?$_Iterator012@Urandom_access_iterator_tag@std@@U?$Cell@PAV?$NavGraphNode@PAV?$Trigger@VRaven_Bot@@@@@@@@HPBU3@ABU3@U_Iterator_base12@2@@std@@QAE@XZ ; std::_Iterator012<std::random_access_iterator_tag,Cell<NavGraphNode<Trigger<Raven_Bot> *> *>,int,Cell<NavGraphNode<Trigger<Raven_Bot> *> *> const *,Cell<NavGraphNode<Trigger<Raven_Bot> *> *> const &,std::_Iterator_base12>::~_Iterator012<std::random_access_iterator_tag,Cell<NavGraphNode<Trigger<Raven_Bot> *> *>,int,Cell<NavGraphNode<Trigger<Raven_Bot> *> *> const *,Cell<NavGraphNode<Trigger<Raven_Bot> *> *> const &,std::_Iterator_base12>
PUBLIC	??4?$_Iterator012@Urandom_access_iterator_tag@std@@U?$Cell@PAV?$NavGraphNode@PAV?$Trigger@VRaven_Bot@@@@@@@@HPBU3@ABU3@U_Iterator_base12@2@@std@@QAEAAU01@ABU01@@Z ; std::_Iterator012<std::random_access_iterator_tag,Cell<NavGraphNode<Trigger<Raven_Bot> *> *>,int,Cell<NavGraphNode<Trigger<Raven_Bot> *> *> const *,Cell<NavGraphNode<Trigger<Raven_Bot> *> *> const &,std::_Iterator_base12>::operator=
PUBLIC	??0?$_Vector_const_iterator@V?$_Vector_val@U?$_Simple_types@U?$Cell@PAV?$NavGraphNode@PAV?$Trigger@VRaven_Bot@@@@@@@@@std@@@std@@@std@@QAE@XZ ; std::_Vector_const_iterator<std::_Vector_val<std::_Simple_types<Cell<NavGraphNode<Trigger<Raven_Bot> *> *> > > >::_Vector_const_iterator<std::_Vector_val<std::_Simple_types<Cell<NavGraphNode<Trigger<Raven_Bot> *> *> > > >
PUBLIC	??0?$_Vector_const_iterator@V?$_Vector_val@U?$_Simple_types@U?$Cell@PAV?$NavGraphNode@PAV?$Trigger@VRaven_Bot@@@@@@@@@std@@@std@@@std@@QAE@PAU?$Cell@PAV?$NavGraphNode@PAV?$Trigger@VRaven_Bot@@@@@@@@PBU_Container_base12@1@@Z ; std::_Vector_const_iterator<std::_Vector_val<std::_Simple_types<Cell<NavGraphNode<Trigger<Raven_Bot> *> *> > > >::_Vector_const_iterator<std::_Vector_val<std::_Simple_types<Cell<NavGraphNode<Trigger<Raven_Bot> *> *> > > >
PUBLIC	??D?$_Vector_const_iterator@V?$_Vector_val@U?$_Simple_types@U?$Cell@PAV?$NavGraphNode@PAV?$Trigger@VRaven_Bot@@@@@@@@@std@@@std@@@std@@QBEABU?$Cell@PAV?$NavGraphNode@PAV?$Trigger@VRaven_Bot@@@@@@@@XZ ; std::_Vector_const_iterator<std::_Vector_val<std::_Simple_types<Cell<NavGraphNode<Trigger<Raven_Bot> *> *> > > >::operator*
PUBLIC	??E?$_Vector_const_iterator@V?$_Vector_val@U?$_Simple_types@U?$Cell@PAV?$NavGraphNode@PAV?$Trigger@VRaven_Bot@@@@@@@@@std@@@std@@@std@@QAEAAV01@XZ ; std::_Vector_const_iterator<std::_Vector_val<std::_Simple_types<Cell<NavGraphNode<Trigger<Raven_Bot> *> *> > > >::operator++
PUBLIC	??8?$_Vector_const_iterator@V?$_Vector_val@U?$_Simple_types@U?$Cell@PAV?$NavGraphNode@PAV?$Trigger@VRaven_Bot@@@@@@@@@std@@@std@@@std@@QBE_NABV01@@Z ; std::_Vector_const_iterator<std::_Vector_val<std::_Simple_types<Cell<NavGraphNode<Trigger<Raven_Bot> *> *> > > >::operator==
PUBLIC	??9?$_Vector_const_iterator@V?$_Vector_val@U?$_Simple_types@U?$Cell@PAV?$NavGraphNode@PAV?$Trigger@VRaven_Bot@@@@@@@@@std@@@std@@@std@@QBE_NABV01@@Z ; std::_Vector_const_iterator<std::_Vector_val<std::_Simple_types<Cell<NavGraphNode<Trigger<Raven_Bot> *> *> > > >::operator!=
PUBLIC	?_Compat@?$_Vector_const_iterator@V?$_Vector_val@U?$_Simple_types@U?$Cell@PAV?$NavGraphNode@PAV?$Trigger@VRaven_Bot@@@@@@@@@std@@@std@@@std@@QBEXABV12@@Z ; std::_Vector_const_iterator<std::_Vector_val<std::_Simple_types<Cell<NavGraphNode<Trigger<Raven_Bot> *> *> > > >::_Compat
PUBLIC	??1?$_Vector_const_iterator@V?$_Vector_val@U?$_Simple_types@U?$Cell@PAV?$NavGraphNode@PAV?$Trigger@VRaven_Bot@@@@@@@@@std@@@std@@@std@@QAE@XZ ; std::_Vector_const_iterator<std::_Vector_val<std::_Simple_types<Cell<NavGraphNode<Trigger<Raven_Bot> *> *> > > >::~_Vector_const_iterator<std::_Vector_val<std::_Simple_types<Cell<NavGraphNode<Trigger<Raven_Bot> *> *> > > >
PUBLIC	??4?$_Vector_const_iterator@V?$_Vector_val@U?$_Simple_types@U?$Cell@PAV?$NavGraphNode@PAV?$Trigger@VRaven_Bot@@@@@@@@@std@@@std@@@std@@QAEAAV01@ABV01@@Z ; std::_Vector_const_iterator<std::_Vector_val<std::_Simple_types<Cell<NavGraphNode<Trigger<Raven_Bot> *> *> > > >::operator=
PUBLIC	??0?$_Vector_iterator@V?$_Vector_val@U?$_Simple_types@U?$Cell@PAV?$NavGraphNode@PAV?$Trigger@VRaven_Bot@@@@@@@@@std@@@std@@@std@@QAE@XZ ; std::_Vector_iterator<std::_Vector_val<std::_Simple_types<Cell<NavGraphNode<Trigger<Raven_Bot> *> *> > > >::_Vector_iterator<std::_Vector_val<std::_Simple_types<Cell<NavGraphNode<Trigger<Raven_Bot> *> *> > > >
PUBLIC	??0?$_Vector_iterator@V?$_Vector_val@U?$_Simple_types@U?$Cell@PAV?$NavGraphNode@PAV?$Trigger@VRaven_Bot@@@@@@@@@std@@@std@@@std@@QAE@PAU?$Cell@PAV?$NavGraphNode@PAV?$Trigger@VRaven_Bot@@@@@@@@PBU_Container_base12@1@@Z ; std::_Vector_iterator<std::_Vector_val<std::_Simple_types<Cell<NavGraphNode<Trigger<Raven_Bot> *> *> > > >::_Vector_iterator<std::_Vector_val<std::_Simple_types<Cell<NavGraphNode<Trigger<Raven_Bot> *> *> > > >
PUBLIC	??D?$_Vector_iterator@V?$_Vector_val@U?$_Simple_types@U?$Cell@PAV?$NavGraphNode@PAV?$Trigger@VRaven_Bot@@@@@@@@@std@@@std@@@std@@QBEAAU?$Cell@PAV?$NavGraphNode@PAV?$Trigger@VRaven_Bot@@@@@@@@XZ ; std::_Vector_iterator<std::_Vector_val<std::_Simple_types<Cell<NavGraphNode<Trigger<Raven_Bot> *> *> > > >::operator*
PUBLIC	??C?$_Vector_iterator@V?$_Vector_val@U?$_Simple_types@U?$Cell@PAV?$NavGraphNode@PAV?$Trigger@VRaven_Bot@@@@@@@@@std@@@std@@@std@@QBEPAU?$Cell@PAV?$NavGraphNode@PAV?$Trigger@VRaven_Bot@@@@@@@@XZ ; std::_Vector_iterator<std::_Vector_val<std::_Simple_types<Cell<NavGraphNode<Trigger<Raven_Bot> *> *> > > >::operator->
PUBLIC	??E?$_Vector_iterator@V?$_Vector_val@U?$_Simple_types@U?$Cell@PAV?$NavGraphNode@PAV?$Trigger@VRaven_Bot@@@@@@@@@std@@@std@@@std@@QAEAAV01@XZ ; std::_Vector_iterator<std::_Vector_val<std::_Simple_types<Cell<NavGraphNode<Trigger<Raven_Bot> *> *> > > >::operator++
PUBLIC	??1?$_Vector_iterator@V?$_Vector_val@U?$_Simple_types@U?$Cell@PAV?$NavGraphNode@PAV?$Trigger@VRaven_Bot@@@@@@@@@std@@@std@@@std@@QAE@XZ ; std::_Vector_iterator<std::_Vector_val<std::_Simple_types<Cell<NavGraphNode<Trigger<Raven_Bot> *> *> > > >::~_Vector_iterator<std::_Vector_val<std::_Simple_types<Cell<NavGraphNode<Trigger<Raven_Bot> *> *> > > >
PUBLIC	??4?$_Vector_iterator@V?$_Vector_val@U?$_Simple_types@U?$Cell@PAV?$NavGraphNode@PAV?$Trigger@VRaven_Bot@@@@@@@@@std@@@std@@@std@@QAEAAV01@ABV01@@Z ; std::_Vector_iterator<std::_Vector_val<std::_Simple_types<Cell<NavGraphNode<Trigger<Raven_Bot> *> *> > > >::operator=
PUBLIC	?_Nextnode@?$_List_val@U?$_List_simple_types@PAV?$NavGraphNode@PAV?$Trigger@VRaven_Bot@@@@@@@std@@@std@@SAAAPAU?$_List_node@PAV?$NavGraphNode@PAV?$Trigger@VRaven_Bot@@@@@@PAX@2@PAU32@@Z ; std::_List_val<std::_List_simple_types<NavGraphNode<Trigger<Raven_Bot> *> *> >::_Nextnode
PUBLIC	?_Myval@?$_List_val@U?$_List_simple_types@PAV?$NavGraphNode@PAV?$Trigger@VRaven_Bot@@@@@@@std@@@std@@SAAAPAV?$NavGraphNode@PAV?$Trigger@VRaven_Bot@@@@@@PAU?$_List_node@PAV?$NavGraphNode@PAV?$Trigger@VRaven_Bot@@@@@@PAX@2@@Z ; std::_List_val<std::_List_simple_types<NavGraphNode<Trigger<Raven_Bot> *> *> >::_Myval
PUBLIC	?begin@?$list@PAV?$NavGraphNode@PAV?$Trigger@VRaven_Bot@@@@@@V?$allocator@PAV?$NavGraphNode@PAV?$Trigger@VRaven_Bot@@@@@@@std@@@std@@QAE?AV?$_List_iterator@V?$_List_val@U?$_List_simple_types@PAV?$NavGraphNode@PAV?$Trigger@VRaven_Bot@@@@@@@std@@@std@@@2@XZ ; std::list<NavGraphNode<Trigger<Raven_Bot> *> *,std::allocator<NavGraphNode<Trigger<Raven_Bot> *> *> >::begin
PUBLIC	?end@?$list@PAV?$NavGraphNode@PAV?$Trigger@VRaven_Bot@@@@@@V?$allocator@PAV?$NavGraphNode@PAV?$Trigger@VRaven_Bot@@@@@@@std@@@std@@QAE?AV?$_List_iterator@V?$_List_val@U?$_List_simple_types@PAV?$NavGraphNode@PAV?$Trigger@VRaven_Bot@@@@@@@std@@@std@@@2@XZ ; std::list<NavGraphNode<Trigger<Raven_Bot> *> *,std::allocator<NavGraphNode<Trigger<Raven_Bot> *> *> >::end
PUBLIC	?empty@?$list@PAV?$NavGraphNode@PAV?$Trigger@VRaven_Bot@@@@@@V?$allocator@PAV?$NavGraphNode@PAV?$Trigger@VRaven_Bot@@@@@@@std@@@std@@QBE_NXZ ; std::list<NavGraphNode<Trigger<Raven_Bot> *> *,std::allocator<NavGraphNode<Trigger<Raven_Bot> *> *> >::empty
PUBLIC	??0?$_Iterator012@Ubidirectional_iterator_tag@std@@PAV?$NavGraphNode@PAV?$Trigger@VRaven_Bot@@@@@@HPBQAV3@ABQAV3@U_Iterator_base12@2@@std@@QAE@XZ ; std::_Iterator012<std::bidirectional_iterator_tag,NavGraphNode<Trigger<Raven_Bot> *> *,int,NavGraphNode<Trigger<Raven_Bot> *> * const *,NavGraphNode<Trigger<Raven_Bot> *> * const &,std::_Iterator_base12>::_Iterator012<std::bidirectional_iterator_tag,NavGraphNode<Trigger<Raven_Bot> *> *,int,NavGraphNode<Trigger<Raven_Bot> *> * const *,NavGraphNode<Trigger<Raven_Bot> *> * const &,std::_Iterator_base12>
PUBLIC	??1?$_Iterator012@Ubidirectional_iterator_tag@std@@PAV?$NavGraphNode@PAV?$Trigger@VRaven_Bot@@@@@@HPBQAV3@ABQAV3@U_Iterator_base12@2@@std@@QAE@XZ ; std::_Iterator012<std::bidirectional_iterator_tag,NavGraphNode<Trigger<Raven_Bot> *> *,int,NavGraphNode<Trigger<Raven_Bot> *> * const *,NavGraphNode<Trigger<Raven_Bot> *> * const &,std::_Iterator_base12>::~_Iterator012<std::bidirectional_iterator_tag,NavGraphNode<Trigger<Raven_Bot> *> *,int,NavGraphNode<Trigger<Raven_Bot> *> * const *,NavGraphNode<Trigger<Raven_Bot> *> * const &,std::_Iterator_base12>
PUBLIC	??0?$_List_unchecked_const_iterator@V?$_List_val@U?$_List_simple_types@PAV?$NavGraphNode@PAV?$Trigger@VRaven_Bot@@@@@@@std@@@std@@U_Iterator_base12@2@@std@@QAE@PAU?$_List_node@PAV?$NavGraphNode@PAV?$Trigger@VRaven_Bot@@@@@@PAX@1@PBV?$_List_val@U?$_List_simple_types@PAV?$NavGraphNode@PAV?$Trigger@VRaven_Bot@@@@@@@std@@@1@@Z ; std::_List_unchecked_const_iterator<std::_List_val<std::_List_simple_types<NavGraphNode<Trigger<Raven_Bot> *> *> >,std::_Iterator_base12>::_List_unchecked_const_iterator<std::_List_val<std::_List_simple_types<NavGraphNode<Trigger<Raven_Bot> *> *> >,std::_Iterator_base12>
PUBLIC	??1?$_List_unchecked_const_iterator@V?$_List_val@U?$_List_simple_types@PAV?$NavGraphNode@PAV?$Trigger@VRaven_Bot@@@@@@@std@@@std@@U_Iterator_base12@2@@std@@QAE@XZ ; std::_List_unchecked_const_iterator<std::_List_val<std::_List_simple_types<NavGraphNode<Trigger<Raven_Bot> *> *> >,std::_Iterator_base12>::~_List_unchecked_const_iterator<std::_List_val<std::_List_simple_types<NavGraphNode<Trigger<Raven_Bot> *> *> >,std::_Iterator_base12>
PUBLIC	??0?$_List_const_iterator@V?$_List_val@U?$_List_simple_types@PAV?$NavGraphNode@PAV?$Trigger@VRaven_Bot@@@@@@@std@@@std@@@std@@QAE@PAU?$_List_node@PAV?$NavGraphNode@PAV?$Trigger@VRaven_Bot@@@@@@PAX@1@PBV?$_List_val@U?$_List_simple_types@PAV?$NavGraphNode@PAV?$Trigger@VRaven_Bot@@@@@@@std@@@1@@Z ; std::_List_const_iterator<std::_List_val<std::_List_simple_types<NavGraphNode<Trigger<Raven_Bot> *> *> > >::_List_const_iterator<std::_List_val<std::_List_simple_types<NavGraphNode<Trigger<Raven_Bot> *> *> > >
PUBLIC	??D?$_List_const_iterator@V?$_List_val@U?$_List_simple_types@PAV?$NavGraphNode@PAV?$Trigger@VRaven_Bot@@@@@@@std@@@std@@@std@@QBEABQAV?$NavGraphNode@PAV?$Trigger@VRaven_Bot@@@@@@XZ ; std::_List_const_iterator<std::_List_val<std::_List_simple_types<NavGraphNode<Trigger<Raven_Bot> *> *> > >::operator*
PUBLIC	??E?$_List_const_iterator@V?$_List_val@U?$_List_simple_types@PAV?$NavGraphNode@PAV?$Trigger@VRaven_Bot@@@@@@@std@@@std@@@std@@QAEAAV01@XZ ; std::_List_const_iterator<std::_List_val<std::_List_simple_types<NavGraphNode<Trigger<Raven_Bot> *> *> > >::operator++
PUBLIC	??8?$_List_const_iterator@V?$_List_val@U?$_List_simple_types@PAV?$NavGraphNode@PAV?$Trigger@VRaven_Bot@@@@@@@std@@@std@@@std@@QBE_NABV01@@Z ; std::_List_const_iterator<std::_List_val<std::_List_simple_types<NavGraphNode<Trigger<Raven_Bot> *> *> > >::operator==
PUBLIC	??9?$_List_const_iterator@V?$_List_val@U?$_List_simple_types@PAV?$NavGraphNode@PAV?$Trigger@VRaven_Bot@@@@@@@std@@@std@@@std@@QBE_NABV01@@Z ; std::_List_const_iterator<std::_List_val<std::_List_simple_types<NavGraphNode<Trigger<Raven_Bot> *> *> > >::operator!=
PUBLIC	??1?$_List_const_iterator@V?$_List_val@U?$_List_simple_types@PAV?$NavGraphNode@PAV?$Trigger@VRaven_Bot@@@@@@@std@@@std@@@std@@QAE@XZ ; std::_List_const_iterator<std::_List_val<std::_List_simple_types<NavGraphNode<Trigger<Raven_Bot> *> *> > >::~_List_const_iterator<std::_List_val<std::_List_simple_types<NavGraphNode<Trigger<Raven_Bot> *> *> > >
PUBLIC	??0?$_List_iterator@V?$_List_val@U?$_List_simple_types@PAV?$NavGraphNode@PAV?$Trigger@VRaven_Bot@@@@@@@std@@@std@@@std@@QAE@PAU?$_List_node@PAV?$NavGraphNode@PAV?$Trigger@VRaven_Bot@@@@@@PAX@1@PBV?$_List_val@U?$_List_simple_types@PAV?$NavGraphNode@PAV?$Trigger@VRaven_Bot@@@@@@@std@@@1@@Z ; std::_List_iterator<std::_List_val<std::_List_simple_types<NavGraphNode<Trigger<Raven_Bot> *> *> > >::_List_iterator<std::_List_val<std::_List_simple_types<NavGraphNode<Trigger<Raven_Bot> *> *> > >
PUBLIC	??D?$_List_iterator@V?$_List_val@U?$_List_simple_types@PAV?$NavGraphNode@PAV?$Trigger@VRaven_Bot@@@@@@@std@@@std@@@std@@QBEAAPAV?$NavGraphNode@PAV?$Trigger@VRaven_Bot@@@@@@XZ ; std::_List_iterator<std::_List_val<std::_List_simple_types<NavGraphNode<Trigger<Raven_Bot> *> *> > >::operator*
PUBLIC	??E?$_List_iterator@V?$_List_val@U?$_List_simple_types@PAV?$NavGraphNode@PAV?$Trigger@VRaven_Bot@@@@@@@std@@@std@@@std@@QAEAAV01@XZ ; std::_List_iterator<std::_List_val<std::_List_simple_types<NavGraphNode<Trigger<Raven_Bot> *> *> > >::operator++
PUBLIC	??1?$_List_iterator@V?$_List_val@U?$_List_simple_types@PAV?$NavGraphNode@PAV?$Trigger@VRaven_Bot@@@@@@@std@@@std@@@std@@QAE@XZ ; std::_List_iterator<std::_List_val<std::_List_simple_types<NavGraphNode<Trigger<Raven_Bot> *> *> > >::~_List_iterator<std::_List_val<std::_List_simple_types<NavGraphNode<Trigger<Raven_Bot> *> *> > >
PUBLIC	?_Nextnode@?$_List_val@U?$_List_simple_types@VNavGraphEdge@@@std@@@std@@SAAAPAU?$_List_node@VNavGraphEdge@@PAX@2@PAU32@@Z ; std::_List_val<std::_List_simple_types<NavGraphEdge> >::_Nextnode
PUBLIC	?_Myval@?$_List_val@U?$_List_simple_types@VNavGraphEdge@@@std@@@std@@SAAAVNavGraphEdge@@PAU?$_List_node@VNavGraphEdge@@PAX@2@@Z ; std::_List_val<std::_List_simple_types<NavGraphEdge> >::_Myval
PUBLIC	?begin@?$list@VNavGraphEdge@@V?$allocator@VNavGraphEdge@@@std@@@std@@QBE?AV?$_List_const_iterator@V?$_List_val@U?$_List_simple_types@VNavGraphEdge@@@std@@@std@@@2@XZ ; std::list<NavGraphEdge,std::allocator<NavGraphEdge> >::begin
PUBLIC	?end@?$list@VNavGraphEdge@@V?$allocator@VNavGraphEdge@@@std@@@std@@QBE?AV?$_List_const_iterator@V?$_List_val@U?$_List_simple_types@VNavGraphEdge@@@std@@@std@@@2@XZ ; std::list<NavGraphEdge,std::allocator<NavGraphEdge> >::end
PUBLIC	??0?$_Iterator012@Ubidirectional_iterator_tag@std@@VNavGraphEdge@@HPBV3@ABV3@U_Iterator_base12@2@@std@@QAE@XZ ; std::_Iterator012<std::bidirectional_iterator_tag,NavGraphEdge,int,NavGraphEdge const *,NavGraphEdge const &,std::_Iterator_base12>::_Iterator012<std::bidirectional_iterator_tag,NavGraphEdge,int,NavGraphEdge const *,NavGraphEdge const &,std::_Iterator_base12>
PUBLIC	??1?$_Iterator012@Ubidirectional_iterator_tag@std@@VNavGraphEdge@@HPBV3@ABV3@U_Iterator_base12@2@@std@@QAE@XZ ; std::_Iterator012<std::bidirectional_iterator_tag,NavGraphEdge,int,NavGraphEdge const *,NavGraphEdge const &,std::_Iterator_base12>::~_Iterator012<std::bidirectional_iterator_tag,NavGraphEdge,int,NavGraphEdge const *,NavGraphEdge const &,std::_Iterator_base12>
PUBLIC	??4?$_Iterator012@Ubidirectional_iterator_tag@std@@VNavGraphEdge@@HPBV3@ABV3@U_Iterator_base12@2@@std@@QAEAAU01@ABU01@@Z ; std::_Iterator012<std::bidirectional_iterator_tag,NavGraphEdge,int,NavGraphEdge const *,NavGraphEdge const &,std::_Iterator_base12>::operator=
PUBLIC	??0?$_List_unchecked_const_iterator@V?$_List_val@U?$_List_simple_types@VNavGraphEdge@@@std@@@std@@U_Iterator_base12@2@@std@@QAE@XZ ; std::_List_unchecked_const_iterator<std::_List_val<std::_List_simple_types<NavGraphEdge> >,std::_Iterator_base12>::_List_unchecked_const_iterator<std::_List_val<std::_List_simple_types<NavGraphEdge> >,std::_Iterator_base12>
PUBLIC	??0?$_List_unchecked_const_iterator@V?$_List_val@U?$_List_simple_types@VNavGraphEdge@@@std@@@std@@U_Iterator_base12@2@@std@@QAE@PAU?$_List_node@VNavGraphEdge@@PAX@1@PBV?$_List_val@U?$_List_simple_types@VNavGraphEdge@@@std@@@1@@Z ; std::_List_unchecked_const_iterator<std::_List_val<std::_List_simple_types<NavGraphEdge> >,std::_Iterator_base12>::_List_unchecked_const_iterator<std::_List_val<std::_List_simple_types<NavGraphEdge> >,std::_Iterator_base12>
PUBLIC	??1?$_List_unchecked_const_iterator@V?$_List_val@U?$_List_simple_types@VNavGraphEdge@@@std@@@std@@U_Iterator_base12@2@@std@@QAE@XZ ; std::_List_unchecked_const_iterator<std::_List_val<std::_List_simple_types<NavGraphEdge> >,std::_Iterator_base12>::~_List_unchecked_const_iterator<std::_List_val<std::_List_simple_types<NavGraphEdge> >,std::_Iterator_base12>
PUBLIC	??4?$_List_unchecked_const_iterator@V?$_List_val@U?$_List_simple_types@VNavGraphEdge@@@std@@@std@@U_Iterator_base12@2@@std@@QAEAAV01@ABV01@@Z ; std::_List_unchecked_const_iterator<std::_List_val<std::_List_simple_types<NavGraphEdge> >,std::_Iterator_base12>::operator=
PUBLIC	??0?$_List_const_iterator@V?$_List_val@U?$_List_simple_types@VNavGraphEdge@@@std@@@std@@@std@@QAE@XZ ; std::_List_const_iterator<std::_List_val<std::_List_simple_types<NavGraphEdge> > >::_List_const_iterator<std::_List_val<std::_List_simple_types<NavGraphEdge> > >
PUBLIC	??0?$_List_const_iterator@V?$_List_val@U?$_List_simple_types@VNavGraphEdge@@@std@@@std@@@std@@QAE@PAU?$_List_node@VNavGraphEdge@@PAX@1@PBV?$_List_val@U?$_List_simple_types@VNavGraphEdge@@@std@@@1@@Z ; std::_List_const_iterator<std::_List_val<std::_List_simple_types<NavGraphEdge> > >::_List_const_iterator<std::_List_val<std::_List_simple_types<NavGraphEdge> > >
PUBLIC	??D?$_List_const_iterator@V?$_List_val@U?$_List_simple_types@VNavGraphEdge@@@std@@@std@@@std@@QBEABVNavGraphEdge@@XZ ; std::_List_const_iterator<std::_List_val<std::_List_simple_types<NavGraphEdge> > >::operator*
PUBLIC	??E?$_List_const_iterator@V?$_List_val@U?$_List_simple_types@VNavGraphEdge@@@std@@@std@@@std@@QAEAAV01@XZ ; std::_List_const_iterator<std::_List_val<std::_List_simple_types<NavGraphEdge> > >::operator++
PUBLIC	??8?$_List_const_iterator@V?$_List_val@U?$_List_simple_types@VNavGraphEdge@@@std@@@std@@@std@@QBE_NABV01@@Z ; std::_List_const_iterator<std::_List_val<std::_List_simple_types<NavGraphEdge> > >::operator==
PUBLIC	??1?$_List_const_iterator@V?$_List_val@U?$_List_simple_types@VNavGraphEdge@@@std@@@std@@@std@@QAE@XZ ; std::_List_const_iterator<std::_List_val<std::_List_simple_types<NavGraphEdge> > >::~_List_const_iterator<std::_List_val<std::_List_simple_types<NavGraphEdge> > >
PUBLIC	??4?$_List_const_iterator@V?$_List_val@U?$_List_simple_types@VNavGraphEdge@@@std@@@std@@@std@@QAEAAV01@ABV01@@Z ; std::_List_const_iterator<std::_List_val<std::_List_simple_types<NavGraphEdge> > >::operator=
PUBLIC	??0ConstEdgeIterator@?$SparseGraph@V?$NavGraphNode@PAV?$Trigger@VRaven_Bot@@@@@@VNavGraphEdge@@@@QAE@ABV1@H@Z ; SparseGraph<NavGraphNode<Trigger<Raven_Bot> *>,NavGraphEdge>::ConstEdgeIterator::ConstEdgeIterator
PUBLIC	?begin@ConstEdgeIterator@?$SparseGraph@V?$NavGraphNode@PAV?$Trigger@VRaven_Bot@@@@@@VNavGraphEdge@@@@QAEPBVNavGraphEdge@@XZ ; SparseGraph<NavGraphNode<Trigger<Raven_Bot> *>,NavGraphEdge>::ConstEdgeIterator::begin
PUBLIC	?next@ConstEdgeIterator@?$SparseGraph@V?$NavGraphNode@PAV?$Trigger@VRaven_Bot@@@@@@VNavGraphEdge@@@@QAEPBVNavGraphEdge@@XZ ; SparseGraph<NavGraphNode<Trigger<Raven_Bot> *>,NavGraphEdge>::ConstEdgeIterator::next
PUBLIC	?end@ConstEdgeIterator@?$SparseGraph@V?$NavGraphNode@PAV?$Trigger@VRaven_Bot@@@@@@VNavGraphEdge@@@@QAE_NXZ ; SparseGraph<NavGraphNode<Trigger<Raven_Bot> *>,NavGraphEdge>::ConstEdgeIterator::end
PUBLIC	??1ConstEdgeIterator@?$SparseGraph@V?$NavGraphNode@PAV?$Trigger@VRaven_Bot@@@@@@VNavGraphEdge@@@@QAE@XZ ; SparseGraph<NavGraphNode<Trigger<Raven_Bot> *>,NavGraphEdge>::ConstEdgeIterator::~ConstEdgeIterator
PUBLIC	??$Calculate@V?$SparseGraph@V?$NavGraphNode@PAV?$Trigger@VRaven_Bot@@@@@@VNavGraphEdge@@@@@Heuristic_Euclid@@SANABV?$SparseGraph@V?$NavGraphNode@PAV?$Trigger@VRaven_Bot@@@@@@VNavGraphEdge@@@@HH@Z ; Heuristic_Euclid::Calculate<SparseGraph<NavGraphNode<Trigger<Raven_Bot> *>,NavGraphEdge> >
PUBLIC	??$isSatisfied@V?$SparseGraph@V?$NavGraphNode@PAV?$Trigger@VRaven_Bot@@@@@@VNavGraphEdge@@@@@?$FindActiveTrigger@V?$Trigger@VRaven_Bot@@@@@@SA_NABV?$SparseGraph@V?$NavGraphNode@PAV?$Trigger@VRaven_Bot@@@@@@VNavGraphEdge@@@@HH@Z ; FindActiveTrigger<Trigger<Raven_Bot> >::isSatisfied<SparseGraph<NavGraphNode<Trigger<Raven_Bot> *>,NavGraphEdge> >
PUBLIC	??$_Buynode@VPathEdge@@@?$_List_buy@VPathEdge@@V?$allocator@VPathEdge@@@std@@@std@@QAEPAU?$_List_node@VPathEdge@@PAX@1@PAU21@0$$QAVPathEdge@@@Z ; std::_List_buy<PathEdge,std::allocator<PathEdge> >::_Buynode<PathEdge>
PUBLIC	??$forward@AAPAD@std@@YAAAPADAAPAD@Z		; std::forward<char * &>
PUBLIC	??$construct@PADAAPAD@?$allocator_traits@V?$allocator@D@std@@@std@@SAXAAV?$allocator@D@1@PAPADAAPAD@Z ; std::allocator_traits<std::allocator<char> >::construct<char *,char * &>
PUBLIC	??$destroy@PAD@?$allocator_traits@V?$allocator@D@std@@@std@@SAXAAV?$allocator@D@1@PAPAD@Z ; std::allocator_traits<std::allocator<char> >::destroy<char *>
PUBLIC	??$swap@PAU?$_List_node@VPathEdge@@PAX@std@@@std@@YAXAAPAU?$_List_node@VPathEdge@@PAX@0@0@Z ; std::swap<std::_List_node<PathEdge,void *> *>
PUBLIC	??$_Move@AAI@std@@YA$$QAIAAI@Z			; std::_Move<unsigned int &>
PUBLIC	??$destroy@PAU?$_List_node@VPathEdge@@PAX@std@@@?$allocator_traits@V?$allocator@U?$_List_node@VPathEdge@@PAX@std@@@std@@@std@@SAXAAV?$allocator@U?$_List_node@VPathEdge@@PAX@std@@@1@PAPAU?$_List_node@VPathEdge@@PAX@1@@Z ; std::allocator_traits<std::allocator<std::_List_node<PathEdge,void *> > >::destroy<std::_List_node<PathEdge,void *> *>
PUBLIC	??$destroy@VPathEdge@@@?$allocator_traits@V?$allocator@U?$_List_node@VPathEdge@@PAX@std@@@std@@@std@@SAXAAV?$allocator@U?$_List_node@VPathEdge@@PAX@std@@@1@PAVPathEdge@@@Z ; std::allocator_traits<std::allocator<std::_List_node<PathEdge,void *> > >::destroy<PathEdge>
PUBLIC	??$_Val_type@PAPBVNavGraphEdge@@@std@@YAPAPBVNavGraphEdge@@PAPBV1@@Z ; std::_Val_type<NavGraphEdge const * *>
PUBLIC	??$_Ptr_cat@PBVNavGraphEdge@@PBV1@@std@@YA?AU_Scalar_ptr_iterator_tag@0@PBQBVNavGraphEdge@@PAPBV2@@Z ; std::_Ptr_cat<NavGraphEdge const *,NavGraphEdge const *>
PUBLIC	??$_Ptr_cat@PBVNavGraphEdge@@PBV1@@std@@YA?AU_Scalar_ptr_iterator_tag@0@PAPBVNavGraphEdge@@0@Z ; std::_Ptr_cat<NavGraphEdge const *,NavGraphEdge const *>
PUBLIC	??$_Uninit_def_fill_n@PBVNavGraphEdge@@IPBV1@@std@@YAXPAPBVNavGraphEdge@@IAAU?$_Wrap_alloc@V?$allocator@PBVNavGraphEdge@@@std@@@0@0U_Scalar_ptr_iterator_tag@0@@Z ; std::_Uninit_def_fill_n<NavGraphEdge const *,unsigned int,NavGraphEdge const *>
PUBLIC	??$_Uninitialized_copy@V?$_Vector_const_iterator@V?$_Vector_val@U?$_Simple_types@PBVNavGraphEdge@@@std@@@std@@@std@@PAPBVNavGraphEdge@@U?$_Wrap_alloc@V?$allocator@PBVNavGraphEdge@@@std@@@2@@std@@YAPAPBVNavGraphEdge@@V?$_Vector_const_iterator@V?$_Vector_val@U?$_Simple_types@PBVNavGraphEdge@@@std@@@std@@@0@0PAPBV1@AAU?$_Wrap_alloc@V?$allocator@PBVNavGraphEdge@@@std@@@0@@Z ; std::_Uninitialized_copy<std::_Vector_const_iterator<std::_Vector_val<std::_Simple_types<NavGraphEdge const *> > >,NavGraphEdge const * *,std::_Wrap_alloc<std::allocator<NavGraphEdge const *> > >
PUBLIC	??$forward@U_Container_proxy@std@@@std@@YA$$QAU_Container_proxy@0@AAU10@@Z ; std::forward<std::_Container_proxy>
PUBLIC	??$construct@U_Container_proxy@std@@U12@@?$allocator_traits@V?$allocator@U_Container_proxy@std@@@std@@@std@@SAXAAV?$allocator@U_Container_proxy@std@@@1@PAU_Container_proxy@1@$$QAU31@@Z ; std::allocator_traits<std::allocator<std::_Container_proxy> >::construct<std::_Container_proxy,std::_Container_proxy>
PUBLIC	??$destroy@U_Container_proxy@std@@@?$allocator_traits@V?$allocator@U_Container_proxy@std@@@std@@@std@@SAXAAV?$allocator@U_Container_proxy@std@@@1@PAU_Container_proxy@1@@Z ; std::allocator_traits<std::allocator<std::_Container_proxy> >::destroy<std::_Container_proxy>
PUBLIC	??$destroy@PAU?$_List_node@HPAX@std@@@?$allocator_traits@V?$allocator@U?$_List_node@HPAX@std@@@std@@@std@@SAXAAV?$allocator@U?$_List_node@HPAX@std@@@1@PAPAU?$_List_node@HPAX@1@@Z ; std::allocator_traits<std::allocator<std::_List_node<int,void *> > >::destroy<std::_List_node<int,void *> *>
PUBLIC	??$_Ptr_cat@NN@std@@YA?AU_Scalar_ptr_iterator_tag@0@PAN0@Z ; std::_Ptr_cat<double,double>
PUBLIC	??$_Destroy_range@U?$_Wrap_alloc@V?$allocator@N@std@@@std@@@std@@YAXPAN0AAU?$_Wrap_alloc@V?$allocator@N@std@@@0@U_Scalar_ptr_iterator_tag@0@@Z ; std::_Destroy_range<std::_Wrap_alloc<std::allocator<double> > >
PUBLIC	??$_Val_type@PAN@std@@YAPANPAN@Z		; std::_Val_type<double *>
PUBLIC	??$_Uninit_fill_n@NINN@std@@YAXPANIPBNAAU?$_Wrap_alloc@V?$allocator@N@std@@@0@0U_Scalar_ptr_iterator_tag@0@@Z ; std::_Uninit_fill_n<double,unsigned int,double,double>
PUBLIC	??$_Ptr_cat@HH@std@@YA?AU_Scalar_ptr_iterator_tag@0@PAH0@Z ; std::_Ptr_cat<int,int>
PUBLIC	??$_Destroy_range@U?$_Wrap_alloc@V?$allocator@H@std@@@std@@@std@@YAXPAH0AAU?$_Wrap_alloc@V?$allocator@H@std@@@0@U_Scalar_ptr_iterator_tag@0@@Z ; std::_Destroy_range<std::_Wrap_alloc<std::allocator<int> > >
PUBLIC	??$destroy@H@?$allocator_traits@V?$allocator@U?$_List_node@HPAX@std@@@std@@@std@@SAXAAV?$allocator@U?$_List_node@HPAX@std@@@1@PAH@Z ; std::allocator_traits<std::allocator<std::_List_node<int,void *> > >::destroy<int>
PUBLIC	??$_Destroy_range@U?$_Wrap_alloc@V?$allocator@PBVNavGraphEdge@@@std@@@std@@@std@@YAXPAPBVNavGraphEdge@@0AAU?$_Wrap_alloc@V?$allocator@PBVNavGraphEdge@@@std@@@0@U_Scalar_ptr_iterator_tag@0@@Z ; std::_Destroy_range<std::_Wrap_alloc<std::allocator<NavGraphEdge const *> > >
PUBLIC	??$_Uninitialized_move@PAHPAHU?$_Wrap_alloc@V?$allocator@H@std@@@std@@@std@@YAPAHPAH00AAU?$_Wrap_alloc@V?$allocator@H@std@@@0@@Z ; std::_Uninitialized_move<int *,int *,std::_Wrap_alloc<std::allocator<int> > >
PUBLIC	??$_Debug_range@PAH@std@@YAXPAH0PB_WI@Z		; std::_Debug_range<int *>
PUBLIC	??$_Unchecked@PAH@std@@YAPAHPAH@Z		; std::_Unchecked<int *>
PUBLIC	??$_Fill@PAHH@std@@YAXPAH0ABH@Z			; std::_Fill<int *,int>
PUBLIC	??$_Copy_backward@PAHPAH@std@@YAPAHPAH00U_Scalar_ptr_iterator_tag@0@@Z ; std::_Copy_backward<int *,int *>
PUBLIC	??$forward@AAPAU?$_List_node@VPathEdge@@PAX@std@@@std@@YAAAPAU?$_List_node@VPathEdge@@PAX@0@AAPAU10@@Z ; std::forward<std::_List_node<PathEdge,void *> * &>
PUBLIC	??$construct@PAU?$_List_node@VPathEdge@@PAX@std@@AAPAU12@@?$allocator_traits@V?$allocator@U?$_List_node@VPathEdge@@PAX@std@@@std@@@std@@SAXAAV?$allocator@U?$_List_node@VPathEdge@@PAX@std@@@1@PAPAU?$_List_node@VPathEdge@@PAX@1@AAPAU31@@Z ; std::allocator_traits<std::allocator<std::_List_node<PathEdge,void *> > >::construct<std::_List_node<PathEdge,void *> *,std::_List_node<PathEdge,void *> * &>
PUBLIC	??$_Val_type@PAH@std@@YAPAHPAH@Z		; std::_Val_type<int *>
PUBLIC	??$_Uninit_fill_n@HIHH@std@@YAXPAHIPBHAAU?$_Wrap_alloc@V?$allocator@H@std@@@0@0U_Scalar_ptr_iterator_tag@0@@Z ; std::_Uninit_fill_n<int,unsigned int,int,int>
PUBLIC	??0?$_List_unchecked_const_iterator@V?$_List_val@U?$_List_simple_types@PAVRaven_PathPlanner@@@std@@@std@@U_Iterator_base0@2@@std@@QAE@PAU?$_List_node@PAVRaven_PathPlanner@@PAX@1@PBV?$_List_val@U?$_List_simple_types@PAVRaven_PathPlanner@@@std@@@1@@Z ; std::_List_unchecked_const_iterator<std::_List_val<std::_List_simple_types<Raven_PathPlanner *> >,std::_Iterator_base0>::_List_unchecked_const_iterator<std::_List_val<std::_List_simple_types<Raven_PathPlanner *> >,std::_Iterator_base0>
PUBLIC	??D?$_List_unchecked_const_iterator@V?$_List_val@U?$_List_simple_types@PAVRaven_PathPlanner@@@std@@@std@@U_Iterator_base0@2@@std@@QBEABQAVRaven_PathPlanner@@XZ ; std::_List_unchecked_const_iterator<std::_List_val<std::_List_simple_types<Raven_PathPlanner *> >,std::_Iterator_base0>::operator*
PUBLIC	??E?$_List_unchecked_const_iterator@V?$_List_val@U?$_List_simple_types@PAVRaven_PathPlanner@@@std@@@std@@U_Iterator_base0@2@@std@@QAEAAV01@XZ ; std::_List_unchecked_const_iterator<std::_List_val<std::_List_simple_types<Raven_PathPlanner *> >,std::_Iterator_base0>::operator++
PUBLIC	??8?$_List_unchecked_const_iterator@V?$_List_val@U?$_List_simple_types@PAVRaven_PathPlanner@@@std@@@std@@U_Iterator_base0@2@@std@@QBE_NABV01@@Z ; std::_List_unchecked_const_iterator<std::_List_val<std::_List_simple_types<Raven_PathPlanner *> >,std::_Iterator_base0>::operator==
PUBLIC	??9?$_List_unchecked_const_iterator@V?$_List_val@U?$_List_simple_types@PAVRaven_PathPlanner@@@std@@@std@@U_Iterator_base0@2@@std@@QBE_NABV01@@Z ; std::_List_unchecked_const_iterator<std::_List_val<std::_List_simple_types<Raven_PathPlanner *> >,std::_Iterator_base0>::operator!=
PUBLIC	?_Mynode@?$_List_unchecked_const_iterator@V?$_List_val@U?$_List_simple_types@PAVRaven_PathPlanner@@@std@@@std@@U_Iterator_base0@2@@std@@QBEPAU?$_List_node@PAVRaven_PathPlanner@@PAX@2@XZ ; std::_List_unchecked_const_iterator<std::_List_val<std::_List_simple_types<Raven_PathPlanner *> >,std::_Iterator_base0>::_Mynode
PUBLIC	??0?$_List_unchecked_iterator@V?$_List_val@U?$_List_simple_types@PAVRaven_PathPlanner@@@std@@@std@@@std@@QAE@PAU?$_List_node@PAVRaven_PathPlanner@@PAX@1@PBV?$_List_val@U?$_List_simple_types@PAVRaven_PathPlanner@@@std@@@1@@Z ; std::_List_unchecked_iterator<std::_List_val<std::_List_simple_types<Raven_PathPlanner *> > >::_List_unchecked_iterator<std::_List_val<std::_List_simple_types<Raven_PathPlanner *> > >
PUBLIC	??D?$_List_unchecked_iterator@V?$_List_val@U?$_List_simple_types@PAVRaven_PathPlanner@@@std@@@std@@@std@@QBEAAPAVRaven_PathPlanner@@XZ ; std::_List_unchecked_iterator<std::_List_val<std::_List_simple_types<Raven_PathPlanner *> > >::operator*
PUBLIC	??E?$_List_unchecked_iterator@V?$_List_val@U?$_List_simple_types@PAVRaven_PathPlanner@@@std@@@std@@@std@@QAEAAV01@XZ ; std::_List_unchecked_iterator<std::_List_val<std::_List_simple_types<Raven_PathPlanner *> > >::operator++
PUBLIC	??$_Insert@ABQAVRaven_PathPlanner@@@?$list@PAVRaven_PathPlanner@@V?$allocator@PAVRaven_PathPlanner@@@std@@@std@@QAEXV?$_List_unchecked_const_iterator@V?$_List_val@U?$_List_simple_types@PAVRaven_PathPlanner@@@std@@@std@@U_Iterator_base0@2@@1@ABQAVRaven_PathPlanner@@@Z ; std::list<Raven_PathPlanner *,std::allocator<Raven_PathPlanner *> >::_Insert<Raven_PathPlanner * const &>
PUBLIC	??$addressof@PAVRaven_PathPlanner@@@std@@YAPAPAVRaven_PathPlanner@@AAPAV1@@Z ; std::addressof<Raven_PathPlanner *>
PUBLIC	??$addressof@QAVRaven_PathPlanner@@@std@@YAPBQAVRaven_PathPlanner@@ABQAV1@@Z ; std::addressof<Raven_PathPlanner * const>
PUBLIC	??$?0U?$_List_node@HPAX@std@@@?$allocator@H@std@@QAE@ABV?$allocator@U?$_List_node@HPAX@std@@@1@@Z ; std::allocator<int>::allocator<int><std::_List_node<int,void *> >
PUBLIC	??$forward@V?$list@HV?$allocator@H@std@@@std@@@std@@YA$$QAV?$list@HV?$allocator@H@std@@@0@AAV10@@Z ; std::forward<std::list<int,std::allocator<int> > >
PUBLIC	??0?$_List_unchecked_const_iterator@V?$_List_val@U?$_List_simple_types@H@std@@@std@@U_Iterator_base0@2@@std@@QAE@PAU?$_List_node@HPAX@1@PBV?$_List_val@U?$_List_simple_types@H@std@@@1@@Z ; std::_List_unchecked_const_iterator<std::_List_val<std::_List_simple_types<int> >,std::_Iterator_base0>::_List_unchecked_const_iterator<std::_List_val<std::_List_simple_types<int> >,std::_Iterator_base0>
PUBLIC	?_Mynode@?$_List_unchecked_const_iterator@V?$_List_val@U?$_List_simple_types@H@std@@@std@@U_Iterator_base0@2@@std@@QBEPAU?$_List_node@HPAX@2@XZ ; std::_List_unchecked_const_iterator<std::_List_val<std::_List_simple_types<int> >,std::_Iterator_base0>::_Mynode
PUBLIC	??0?$_List_unchecked_iterator@V?$_List_val@U?$_List_simple_types@H@std@@@std@@@std@@QAE@PAU?$_List_node@HPAX@1@PBV?$_List_val@U?$_List_simple_types@H@std@@@1@@Z ; std::_List_unchecked_iterator<std::_List_val<std::_List_simple_types<int> > >::_List_unchecked_iterator<std::_List_val<std::_List_simple_types<int> > >
PUBLIC	??$_Insert@ABH@?$list@HV?$allocator@H@std@@@std@@QAEXV?$_List_unchecked_const_iterator@V?$_List_val@U?$_List_simple_types@H@std@@@std@@U_Iterator_base0@2@@1@ABH@Z ; std::list<int,std::allocator<int> >::_Insert<int const &>
PUBLIC	?pointer_to@?$pointer_traits@PAU?$Cell@PAV?$NavGraphNode@PAV?$Trigger@VRaven_Bot@@@@@@@@@std@@SAPAU?$Cell@PAV?$NavGraphNode@PAV?$Trigger@VRaven_Bot@@@@@@@@AAU3@@Z ; std::pointer_traits<Cell<NavGraphNode<Trigger<Raven_Bot> *> *> *>::pointer_to
PUBLIC	??$_Swap_adl@PAU?$_List_node@HPAX@std@@@std@@YAXAAPAU?$_List_node@HPAX@0@0@Z ; std::_Swap_adl<std::_List_node<int,void *> *>
PUBLIC	??$addressof@U?$Cell@PAV?$NavGraphNode@PAV?$Trigger@VRaven_Bot@@@@@@@@@std@@YAPAU?$Cell@PAV?$NavGraphNode@PAV?$Trigger@VRaven_Bot@@@@@@@@AAU1@@Z ; std::addressof<Cell<NavGraphNode<Trigger<Raven_Bot> *> *> >
PUBLIC	??$addressof@PAU?$_List_node@PAVRaven_PathPlanner@@PAX@std@@@std@@YAPAPAU?$_List_node@PAVRaven_PathPlanner@@PAX@0@AAPAU10@@Z ; std::addressof<std::_List_node<Raven_PathPlanner *,void *> *>
PUBLIC	??$destroy@PAU?$_List_node@PAVRaven_PathPlanner@@PAX@std@@@?$_Wrap_alloc@V?$allocator@U?$_List_node@PAVRaven_PathPlanner@@PAX@std@@@std@@@std@@QAEXPAPAU?$_List_node@PAVRaven_PathPlanner@@PAX@1@@Z ; std::_Wrap_alloc<std::allocator<std::_List_node<Raven_PathPlanner *,void *> > >::destroy<std::_List_node<Raven_PathPlanner *,void *> *>
PUBLIC	??$destroy@PAVRaven_PathPlanner@@@?$_Wrap_alloc@V?$allocator@U?$_List_node@PAVRaven_PathPlanner@@PAX@std@@@std@@@std@@QAEXPAPAVRaven_PathPlanner@@@Z ; std::_Wrap_alloc<std::allocator<std::_List_node<Raven_PathPlanner *,void *> > >::destroy<Raven_PathPlanner *>
PUBLIC	??$construct@PAU?$_List_node@HPAX@std@@AAPAU12@@?$_Wrap_alloc@V?$allocator@U?$_List_node@HPAX@std@@@std@@@std@@QAEXPAPAU?$_List_node@HPAX@1@AAPAU21@@Z ; std::_Wrap_alloc<std::allocator<std::_List_node<int,void *> > >::construct<std::_List_node<int,void *> *,std::_List_node<int,void *> * &>
PUBLIC	??$_Allocate@U?$_List_node@HPAX@std@@@std@@YAPAU?$_List_node@HPAX@0@IPAU10@@Z ; std::_Allocate<std::_List_node<int,void *> >
PUBLIC	??$_Debug_range@V?$_List_iterator@V?$_List_val@U?$_List_simple_types@PAVRaven_PathPlanner@@@std@@@std@@@std@@@std@@YAXV?$_List_iterator@V?$_List_val@U?$_List_simple_types@PAVRaven_PathPlanner@@@std@@@std@@@0@0PB_WI@Z ; std::_Debug_range<std::_List_iterator<std::_List_val<std::_List_simple_types<Raven_PathPlanner *> > > >
PUBLIC	??$_Unchecked@V?$_List_val@U?$_List_simple_types@PAVRaven_PathPlanner@@@std@@@std@@@std@@YA?AV?$_List_unchecked_iterator@V?$_List_val@U?$_List_simple_types@PAVRaven_PathPlanner@@@std@@@std@@@0@V?$_List_iterator@V?$_List_val@U?$_List_simple_types@PAVRaven_PathPlanner@@@std@@@std@@@0@@Z ; std::_Unchecked<std::_List_val<std::_List_simple_types<Raven_PathPlanner *> > >
PUBLIC	??$_Find@V?$_List_unchecked_iterator@V?$_List_val@U?$_List_simple_types@PAVRaven_PathPlanner@@@std@@@std@@@std@@PAVRaven_PathPlanner@@@std@@YA?AV?$_List_unchecked_iterator@V?$_List_val@U?$_List_simple_types@PAVRaven_PathPlanner@@@std@@@std@@@0@V10@0ABQAVRaven_PathPlanner@@@Z ; std::_Find<std::_List_unchecked_iterator<std::_List_val<std::_List_simple_types<Raven_PathPlanner *> > >,Raven_PathPlanner *>
PUBLIC	??$_Rechecked@V?$_List_val@U?$_List_simple_types@PAVRaven_PathPlanner@@@std@@@std@@@std@@YAAAV?$_List_iterator@V?$_List_val@U?$_List_simple_types@PAVRaven_PathPlanner@@@std@@@std@@@0@AAV10@V?$_List_unchecked_iterator@V?$_List_val@U?$_List_simple_types@PAVRaven_PathPlanner@@@std@@@std@@@0@@Z ; std::_Rechecked<std::_List_val<std::_List_simple_types<Raven_PathPlanner *> > >
PUBLIC	??$construct@VPathEdge@@V1@@?$_Wrap_alloc@V?$allocator@U?$_List_node@VPathEdge@@PAX@std@@@std@@@std@@QAEXPAVPathEdge@@$$QAV2@@Z ; std::_Wrap_alloc<std::allocator<std::_List_node<PathEdge,void *> > >::construct<PathEdge,PathEdge>
PUBLIC	??$construct@PADAAPAD@?$allocator@D@std@@QAEXPAPADAAPAD@Z ; std::allocator<char>::construct<char *,char * &>
PUBLIC	??$destroy@PAD@?$allocator@D@std@@QAEXPAPAD@Z	; std::allocator<char>::destroy<char *>
PUBLIC	??$_Move@AAPAU?$_List_node@VPathEdge@@PAX@std@@@std@@YA$$QAPAU?$_List_node@VPathEdge@@PAX@0@AAPAU10@@Z ; std::_Move<std::_List_node<PathEdge,void *> * &>
PUBLIC	??$destroy@PAU?$_List_node@VPathEdge@@PAX@std@@@?$allocator@U?$_List_node@VPathEdge@@PAX@std@@@std@@QAEXPAPAU?$_List_node@VPathEdge@@PAX@1@@Z ; std::allocator<std::_List_node<PathEdge,void *> >::destroy<std::_List_node<PathEdge,void *> *>
PUBLIC	??$destroy@VPathEdge@@@?$allocator@U?$_List_node@VPathEdge@@PAX@std@@@std@@QAEXPAVPathEdge@@@Z ; std::allocator<std::_List_node<PathEdge,void *> >::destroy<PathEdge>
PUBLIC	??$_Fill_n@PAPBVNavGraphEdge@@IPBV1@@std@@YAPAPBVNavGraphEdge@@PAPBV1@IABQBV1@@Z ; std::_Fill_n<NavGraphEdge const * *,unsigned int,NavGraphEdge const *>
PUBLIC	??$_Unchecked@V?$_Vector_val@U?$_Simple_types@PBVNavGraphEdge@@@std@@@std@@@std@@YAPBQBVNavGraphEdge@@V?$_Vector_const_iterator@V?$_Vector_val@U?$_Simple_types@PBVNavGraphEdge@@@std@@@std@@@0@@Z ; std::_Unchecked<std::_Vector_val<std::_Simple_types<NavGraphEdge const *> > >
PUBLIC	??$_Unchecked@PAPBVNavGraphEdge@@@std@@YAPAPBVNavGraphEdge@@PAPBV1@@Z ; std::_Unchecked<NavGraphEdge const * *>
PUBLIC	??$_Uninit_copy@PBQBVNavGraphEdge@@PAPBV1@U?$_Wrap_alloc@V?$allocator@PBVNavGraphEdge@@@std@@@std@@@std@@YAPAPBVNavGraphEdge@@PBQBV1@0PAPBV1@AAU?$_Wrap_alloc@V?$allocator@PBVNavGraphEdge@@@std@@@0@@Z ; std::_Uninit_copy<NavGraphEdge const * const *,NavGraphEdge const * *,std::_Wrap_alloc<std::allocator<NavGraphEdge const *> > >
PUBLIC	??$_Rechecked@PAPBVNavGraphEdge@@PAPBV1@@std@@YAAAPAPBVNavGraphEdge@@AAPAPBV1@PAPBV1@@Z ; std::_Rechecked<NavGraphEdge const * *,NavGraphEdge const * *>
PUBLIC	??$destroy@PAU?$_List_node@HPAX@std@@@?$allocator@U?$_List_node@HPAX@std@@@std@@QAEXPAPAU?$_List_node@HPAX@1@@Z ; std::allocator<std::_List_node<int,void *> >::destroy<std::_List_node<int,void *> *>
PUBLIC	??$_Fill_n@PANIN@std@@YAPANPANIABN@Z		; std::_Fill_n<double *,unsigned int,double>
PUBLIC	??$destroy@H@?$allocator@U?$_List_node@HPAX@std@@@std@@QAEXPAH@Z ; std::allocator<std::_List_node<int,void *> >::destroy<int>
PUBLIC	??$_Uninit_move@PAHPAHU?$_Wrap_alloc@V?$allocator@H@std@@@std@@@std@@YAPAHPAH00AAU?$_Wrap_alloc@V?$allocator@H@std@@@0@@Z ; std::_Uninit_move<int *,int *,std::_Wrap_alloc<std::allocator<int> > >
PUBLIC	??$_Rechecked@PAHPAH@std@@YAAAPAHAAPAHPAH@Z	; std::_Rechecked<int *,int *>
PUBLIC	??$_Iter_cat@PAH@std@@YA?AUrandom_access_iterator_tag@0@ABQAH@Z ; std::_Iter_cat<int *>
PUBLIC	??$_Debug_range2@PAH@std@@YAXPAH0PB_WIUrandom_access_iterator_tag@0@@Z ; std::_Debug_range2<int *>
PUBLIC	??$construct@PAU?$_List_node@VPathEdge@@PAX@std@@AAPAU12@@?$allocator@U?$_List_node@VPathEdge@@PAX@std@@@std@@QAEXPAPAU?$_List_node@VPathEdge@@PAX@1@AAPAU21@@Z ; std::allocator<std::_List_node<PathEdge,void *> >::construct<std::_List_node<PathEdge,void *> *,std::_List_node<PathEdge,void *> * &>
PUBLIC	??$_Fill_n@PAHIH@std@@YAPAHPAHIABH@Z		; std::_Fill_n<int *,unsigned int,int>
PUBLIC	??$forward@ABQAVRaven_PathPlanner@@@std@@YAABQAVRaven_PathPlanner@@ABQAV1@@Z ; std::forward<Raven_PathPlanner * const &>
PUBLIC	??$_Buynode@ABQAVRaven_PathPlanner@@@?$_List_buy@PAVRaven_PathPlanner@@V?$allocator@PAVRaven_PathPlanner@@@std@@@std@@QAEPAU?$_List_node@PAVRaven_PathPlanner@@PAX@1@PAU21@0ABQAVRaven_PathPlanner@@@Z ; std::_List_buy<Raven_PathPlanner *,std::allocator<Raven_PathPlanner *> >::_Buynode<Raven_PathPlanner * const &>
PUBLIC	??$forward@ABH@std@@YAABHABH@Z			; std::forward<int const &>
PUBLIC	??$_Buynode@ABH@?$_List_buy@HV?$allocator@H@std@@@std@@QAEPAU?$_List_node@HPAX@1@PAU21@0ABH@Z ; std::_List_buy<int,std::allocator<int> >::_Buynode<int const &>
PUBLIC	??$swap@PAU?$_List_node@HPAX@std@@@std@@YAXAAPAU?$_List_node@HPAX@0@0@Z ; std::swap<std::_List_node<int,void *> *>
PUBLIC	??$destroy@PAU?$_List_node@PAVRaven_PathPlanner@@PAX@std@@@?$allocator_traits@V?$allocator@U?$_List_node@PAVRaven_PathPlanner@@PAX@std@@@std@@@std@@SAXAAV?$allocator@U?$_List_node@PAVRaven_PathPlanner@@PAX@std@@@1@PAPAU?$_List_node@PAVRaven_PathPlanner@@PAX@1@@Z ; std::allocator_traits<std::allocator<std::_List_node<Raven_PathPlanner *,void *> > >::destroy<std::_List_node<Raven_PathPlanner *,void *> *>
PUBLIC	??$destroy@PAVRaven_PathPlanner@@@?$allocator_traits@V?$allocator@U?$_List_node@PAVRaven_PathPlanner@@PAX@std@@@std@@@std@@SAXAAV?$allocator@U?$_List_node@PAVRaven_PathPlanner@@PAX@std@@@1@PAPAVRaven_PathPlanner@@@Z ; std::allocator_traits<std::allocator<std::_List_node<Raven_PathPlanner *,void *> > >::destroy<Raven_PathPlanner *>
PUBLIC	??$forward@AAPAU?$_List_node@HPAX@std@@@std@@YAAAPAU?$_List_node@HPAX@0@AAPAU10@@Z ; std::forward<std::_List_node<int,void *> * &>
PUBLIC	??$construct@PAU?$_List_node@HPAX@std@@AAPAU12@@?$allocator_traits@V?$allocator@U?$_List_node@HPAX@std@@@std@@@std@@SAXAAV?$allocator@U?$_List_node@HPAX@std@@@1@PAPAU?$_List_node@HPAX@1@AAPAU31@@Z ; std::allocator_traits<std::allocator<std::_List_node<int,void *> > >::construct<std::_List_node<int,void *> *,std::_List_node<int,void *> * &>
PUBLIC	??$_Iter_cat@V?$_List_iterator@V?$_List_val@U?$_List_simple_types@PAVRaven_PathPlanner@@@std@@@std@@@std@@@std@@YA?AUbidirectional_iterator_tag@0@ABV?$_List_iterator@V?$_List_val@U?$_List_simple_types@PAVRaven_PathPlanner@@@std@@@std@@@0@@Z ; std::_Iter_cat<std::_List_iterator<std::_List_val<std::_List_simple_types<Raven_PathPlanner *> > > >
PUBLIC	??$_Debug_range2@V?$_List_iterator@V?$_List_val@U?$_List_simple_types@PAVRaven_PathPlanner@@@std@@@std@@@std@@@std@@YAXV?$_List_iterator@V?$_List_val@U?$_List_simple_types@PAVRaven_PathPlanner@@@std@@@std@@@0@0PB_WIUinput_iterator_tag@0@@Z ; std::_Debug_range2<std::_List_iterator<std::_List_val<std::_List_simple_types<Raven_PathPlanner *> > > >
PUBLIC	??$_Find@V?$_List_unchecked_iterator@V?$_List_val@U?$_List_simple_types@PAVRaven_PathPlanner@@@std@@@std@@@std@@PAVRaven_PathPlanner@@@std@@YA?AV?$_List_unchecked_iterator@V?$_List_val@U?$_List_simple_types@PAVRaven_PathPlanner@@@std@@@std@@@0@V10@0ABQAVRaven_PathPlanner@@U?$integral_constant@_N$0A@@0@@Z ; std::_Find<std::_List_unchecked_iterator<std::_List_val<std::_List_simple_types<Raven_PathPlanner *> > >,Raven_PathPlanner *>
PUBLIC	??$construct@VPathEdge@@V1@@?$allocator_traits@V?$allocator@U?$_List_node@VPathEdge@@PAX@std@@@std@@@std@@SAXAAV?$allocator@U?$_List_node@VPathEdge@@PAX@std@@@1@PAVPathEdge@@$$QAV3@@Z ; std::allocator_traits<std::allocator<std::_List_node<PathEdge,void *> > >::construct<PathEdge,PathEdge>
PUBLIC	??$_Uninit_copy@QBVNavGraphEdge@@PBV1@@std@@YAPAPBVNavGraphEdge@@PBQBV1@0PAPBV1@AAU?$_Wrap_alloc@V?$allocator@PBVNavGraphEdge@@@std@@@0@U_Scalar_ptr_iterator_tag@0@@Z ; std::_Uninit_copy<NavGraphEdge const * const,NavGraphEdge const *>
PUBLIC	??$_Uninit_move@HHH@std@@YAPAHPAH00AAU?$_Wrap_alloc@V?$allocator@H@std@@@0@0U_Scalar_ptr_iterator_tag@0@@Z ; std::_Uninit_move<int,int,int>
PUBLIC	??$_Debug_pointer@H@std@@YAXPAHPB_WI@Z		; std::_Debug_pointer<int>
PUBLIC	??$construct@PAVRaven_PathPlanner@@ABQAV1@@?$_Wrap_alloc@V?$allocator@U?$_List_node@PAVRaven_PathPlanner@@PAX@std@@@std@@@std@@QAEXPAPAVRaven_PathPlanner@@ABQAV2@@Z ; std::_Wrap_alloc<std::allocator<std::_List_node<Raven_PathPlanner *,void *> > >::construct<Raven_PathPlanner *,Raven_PathPlanner * const &>
PUBLIC	??$construct@HABH@?$_Wrap_alloc@V?$allocator@U?$_List_node@HPAX@std@@@std@@@std@@QAEXPAHABH@Z ; std::_Wrap_alloc<std::allocator<std::_List_node<int,void *> > >::construct<int,int const &>
PUBLIC	??$_Move@AAPAU?$_List_node@HPAX@std@@@std@@YA$$QAPAU?$_List_node@HPAX@0@AAPAU10@@Z ; std::_Move<std::_List_node<int,void *> * &>
PUBLIC	??$destroy@PAU?$_List_node@PAVRaven_PathPlanner@@PAX@std@@@?$allocator@U?$_List_node@PAVRaven_PathPlanner@@PAX@std@@@std@@QAEXPAPAU?$_List_node@PAVRaven_PathPlanner@@PAX@1@@Z ; std::allocator<std::_List_node<Raven_PathPlanner *,void *> >::destroy<std::_List_node<Raven_PathPlanner *,void *> *>
PUBLIC	??$destroy@PAVRaven_PathPlanner@@@?$allocator@U?$_List_node@PAVRaven_PathPlanner@@PAX@std@@@std@@QAEXPAPAVRaven_PathPlanner@@@Z ; std::allocator<std::_List_node<Raven_PathPlanner *,void *> >::destroy<Raven_PathPlanner *>
PUBLIC	??$construct@PAU?$_List_node@HPAX@std@@AAPAU12@@?$allocator@U?$_List_node@HPAX@std@@@std@@QAEXPAPAU?$_List_node@HPAX@1@AAPAU21@@Z ; std::allocator<std::_List_node<int,void *> >::construct<std::_List_node<int,void *> *,std::_List_node<int,void *> * &>
PUBLIC	??$construct@PAU?$_List_node@PAVRaven_PathPlanner@@PAX@std@@AAPAU12@@?$_Wrap_alloc@V?$allocator@U?$_List_node@PAVRaven_PathPlanner@@PAX@std@@@std@@@std@@QAEXPAPAU?$_List_node@PAVRaven_PathPlanner@@PAX@1@AAPAU21@@Z ; std::_Wrap_alloc<std::allocator<std::_List_node<Raven_PathPlanner *,void *> > >::construct<std::_List_node<Raven_PathPlanner *,void *> *,std::_List_node<Raven_PathPlanner *,void *> * &>
PUBLIC	??$_Allocate@U?$_List_node@PAVRaven_PathPlanner@@PAX@std@@@std@@YAPAU?$_List_node@PAVRaven_PathPlanner@@PAX@0@IPAU10@@Z ; std::_Allocate<std::_List_node<Raven_PathPlanner *,void *> >
PUBLIC	??$construct@VPathEdge@@V1@@?$allocator@U?$_List_node@VPathEdge@@PAX@std@@@std@@QAEXPAVPathEdge@@$$QAV2@@Z ; std::allocator<std::_List_node<PathEdge,void *> >::construct<PathEdge,PathEdge>
PUBLIC	??$_Debug_range@PBQBVNavGraphEdge@@@std@@YAXPBQBVNavGraphEdge@@0PB_WI@Z ; std::_Debug_range<NavGraphEdge const * const *>
PUBLIC	??$_Debug_pointer@PBVNavGraphEdge@@@std@@YAXPAPBVNavGraphEdge@@PB_WI@Z ; std::_Debug_pointer<NavGraphEdge const *>
PUBLIC	??$_Debug_pointer@PBVNavGraphEdge@@@std@@YAXPBQBVNavGraphEdge@@PB_WI@Z ; std::_Debug_pointer<NavGraphEdge const *>
PUBLIC	??$construct@PAVRaven_PathPlanner@@ABQAV1@@?$allocator_traits@V?$allocator@U?$_List_node@PAVRaven_PathPlanner@@PAX@std@@@std@@@std@@SAXAAV?$allocator@U?$_List_node@PAVRaven_PathPlanner@@PAX@std@@@1@PAPAVRaven_PathPlanner@@ABQAV3@@Z ; std::allocator_traits<std::allocator<std::_List_node<Raven_PathPlanner *,void *> > >::construct<Raven_PathPlanner *,Raven_PathPlanner * const &>
PUBLIC	??$construct@HABH@?$allocator_traits@V?$allocator@U?$_List_node@HPAX@std@@@std@@@std@@SAXAAV?$allocator@U?$_List_node@HPAX@std@@@1@PAHABH@Z ; std::allocator_traits<std::allocator<std::_List_node<int,void *> > >::construct<int,int const &>
PUBLIC	??$forward@AAPAU?$_List_node@PAVRaven_PathPlanner@@PAX@std@@@std@@YAAAPAU?$_List_node@PAVRaven_PathPlanner@@PAX@0@AAPAU10@@Z ; std::forward<std::_List_node<Raven_PathPlanner *,void *> * &>
PUBLIC	??$construct@PAU?$_List_node@PAVRaven_PathPlanner@@PAX@std@@AAPAU12@@?$allocator_traits@V?$allocator@U?$_List_node@PAVRaven_PathPlanner@@PAX@std@@@std@@@std@@SAXAAV?$allocator@U?$_List_node@PAVRaven_PathPlanner@@PAX@std@@@1@PAPAU?$_List_node@PAVRaven_PathPlanner@@PAX@1@AAPAU31@@Z ; std::allocator_traits<std::allocator<std::_List_node<Raven_PathPlanner *,void *> > >::construct<std::_List_node<Raven_PathPlanner *,void *> *,std::_List_node<Raven_PathPlanner *,void *> * &>
PUBLIC	??$_Iter_cat@PBQBVNavGraphEdge@@@std@@YA?AUrandom_access_iterator_tag@0@ABQBQBVNavGraphEdge@@@Z ; std::_Iter_cat<NavGraphEdge const * const *>
PUBLIC	??$_Debug_range2@PBQBVNavGraphEdge@@@std@@YAXPBQBVNavGraphEdge@@0PB_WIUrandom_access_iterator_tag@0@@Z ; std::_Debug_range2<NavGraphEdge const * const *>
PUBLIC	??$construct@PAVRaven_PathPlanner@@ABQAV1@@?$allocator@U?$_List_node@PAVRaven_PathPlanner@@PAX@std@@@std@@QAEXPAPAVRaven_PathPlanner@@ABQAV2@@Z ; std::allocator<std::_List_node<Raven_PathPlanner *,void *> >::construct<Raven_PathPlanner *,Raven_PathPlanner * const &>
PUBLIC	??$construct@HABH@?$allocator@U?$_List_node@HPAX@std@@@std@@QAEXPAHABH@Z ; std::allocator<std::_List_node<int,void *> >::construct<int,int const &>
PUBLIC	??$construct@PAU?$_List_node@PAVRaven_PathPlanner@@PAX@std@@AAPAU12@@?$allocator@U?$_List_node@PAVRaven_PathPlanner@@PAX@std@@@std@@QAEXPAPAU?$_List_node@PAVRaven_PathPlanner@@PAX@1@AAPAU21@@Z ; std::allocator<std::_List_node<Raven_PathPlanner *,void *> >::construct<std::_List_node<Raven_PathPlanner *,void *> *,std::_List_node<Raven_PathPlanner *,void *> * &>
PUBLIC	??_C@_1JA@EADLBAJ@?$AAC?$AA?3?$AA?2?$AAP?$AAr?$AAo?$AAg?$AAr?$AAa?$AAm?$AA?5?$AAF?$AAi?$AAl?$AAe?$AAs?$AA?5?$AA?$CI?$AAx?$AA8?$AA6?$AA?$CJ?$AA?2?$AAM?$AAi?$AAc?$AAr?$AAo?$AAs?$AAo?$AAf?$AAt@ ; `string'
PUBLIC	??_C@_1DC@POOIKBAO@?$AAI?$AAT?$AAE?$AAR?$AAA?$AAT?$AAO?$AAR?$AA?5?$AAL?$AAI?$AAS?$AAT?$AA?5?$AAC?$AAO?$AAR?$AAR?$AAU?$AAP?$AAT?$AAE?$AAD?$AA?$CB?$AA?$AA@ ; `string'
PUBLIC	??_7error_category@std@@6B@			; std::error_category::`vftable'
PUBLIC	??_7_Generic_error_category@std@@6B@		; std::_Generic_error_category::`vftable'
PUBLIC	??_C@_07DCLBNMLN@generic?$AA@			; `string'
PUBLIC	??_C@_0O@BFJCFAAK@unknown?5error?$AA@		; `string'
PUBLIC	??_7_Iostream_error_category@std@@6B@		; std::_Iostream_error_category::`vftable'
PUBLIC	??_C@_08LLGCOLLL@iostream?$AA@			; `string'
PUBLIC	??_C@_0BG@PADBLCHM@iostream?5stream?5error?$AA@	; `string'
PUBLIC	??_7_System_error_category@std@@6B@		; std::_System_error_category::`vftable'
PUBLIC	??_C@_06FHFOAHML@system?$AA@			; `string'
PUBLIC	?_Generic_object@?$_Error_objects@H@std@@2V_Generic_error_category@2@A ; std::_Error_objects<int>::_Generic_object
PUBLIC	?_Iostream_object@?$_Error_objects@H@std@@2V_Iostream_error_category@2@A ; std::_Error_objects<int>::_Iostream_object
PUBLIC	?_System_object@?$_Error_objects@H@std@@2V_System_error_category@2@A ; std::_Error_objects<int>::_System_object
PUBLIC	?id@?$num_put@DV?$back_insert_iterator@V?$basic_string@DU?$char_traits@D@std@@V?$allocator@D@2@@std@@@std@@@std@@2V0locale@2@A ; std::num_put<char,std::back_insert_iterator<std::basic_string<char,std::char_traits<char>,std::allocator<char> > > >::id
PUBLIC	?id@?$num_put@_WV?$back_insert_iterator@V?$basic_string@_WU?$char_traits@_W@std@@V?$allocator@_W@2@@std@@@std@@@std@@2V0locale@2@A ; std::num_put<wchar_t,std::back_insert_iterator<std::basic_string<wchar_t,std::char_traits<wchar_t>,std::allocator<wchar_t> > > >::id
PUBLIC	??_7?$Graph_SearchTimeSliced@VNavGraphEdge@@@@6B@ ; Graph_SearchTimeSliced<NavGraphEdge>::`vftable'
PUBLIC	??_7?$Graph_SearchAStar_TS@V?$SparseGraph@V?$NavGraphNode@PAV?$Trigger@VRaven_Bot@@@@@@VNavGraphEdge@@@@VHeuristic_Euclid@@@@6B@ ; Graph_SearchAStar_TS<SparseGraph<NavGraphNode<Trigger<Raven_Bot> *>,NavGraphEdge>,Heuristic_Euclid>::`vftable'
PUBLIC	??_7?$Graph_SearchDijkstras_TS@V?$SparseGraph@V?$NavGraphNode@PAV?$Trigger@VRaven_Bot@@@@@@VNavGraphEdge@@@@V?$FindActiveTrigger@V?$Trigger@VRaven_Bot@@@@@@@@6B@ ; Graph_SearchDijkstras_TS<SparseGraph<NavGraphNode<Trigger<Raven_Bot> *>,NavGraphEdge>,FindActiveTrigger<Trigger<Raven_Bot> > >::`vftable'
PUBLIC	??_C@_1IO@FEAPGJBD@?$AAC?$AA?3?$AA?2?$AAP?$AAr?$AAo?$AAg?$AAr?$AAa?$AAm?$AA?5?$AAF?$AAi?$AAl?$AAe?$AAs?$AA?5?$AA?$CI?$AAx?$AA8?$AA6?$AA?$CJ?$AA?2?$AAM?$AAi?$AAc?$AAr?$AAo?$AAs?$AAo?$AAf?$AAt@ ; `string'
PUBLIC	?id@?$num_get@DV?$istreambuf_iterator@DU?$char_traits@D@std@@@std@@@std@@2V0locale@2@A ; std::num_get<char,std::istreambuf_iterator<char,std::char_traits<char> > >::id
PUBLIC	?id@?$num_put@DV?$ostreambuf_iterator@DU?$char_traits@D@std@@@std@@@std@@2V0locale@2@A ; std::num_put<char,std::ostreambuf_iterator<char,std::char_traits<char> > >::id
PUBLIC	?id@?$numpunct@D@std@@2V0locale@2@A		; std::numpunct<char>::id
PUBLIC	?id@?$numpunct@_W@std@@2V0locale@2@A		; std::numpunct<wchar_t>::id
PUBLIC	??_C@_1IM@EINEHPHE@?$AAC?$AA?3?$AA?2?$AAP?$AAr?$AAo?$AAg?$AAr?$AAa?$AAm?$AA?5?$AAF?$AAi?$AAl?$AAe?$AAs?$AA?5?$AA?$CI?$AAx?$AA8?$AA6?$AA?$CJ?$AA?2?$AAM?$AAi?$AAc?$AAr?$AAo?$AAs?$AAo?$AAf?$AAt@ ; `string'
PUBLIC	??_C@_1DM@LHGCHCBA@?$AAv?$AAe?$AAc?$AAt?$AAo?$AAr?$AA?5?$AAs?$AAu?$AAb?$AAs?$AAc?$AAr?$AAi?$AAp?$AAt?$AA?5?$AAo?$AAu?$AAt?$AA?5?$AAo?$AAf?$AA?5?$AAr?$AAa?$AAn?$AAg?$AAe?$AA?$AA@ ; `string'
PUBLIC	??_C@_0CE@OFMIGAMM@Standard?5C?$CL?$CL?5Libraries?5Out?5of?5Ra@ ; `string'
PUBLIC	??_C@_1FG@IBPIFFN@?$AA?$CC?$AAS?$AAt?$AAa?$AAn?$AAd?$AAa?$AAr?$AAd?$AA?5?$AAC?$AA?$CL?$AA?$CL?$AA?5?$AAL?$AAi?$AAb?$AAr?$AAa?$AAr?$AAi?$AAe?$AAs?$AA?5?$AAO?$AAu?$AAt?$AA?5?$AAo?$AAf?$AA?5?$AAR@ ; `string'
PUBLIC	??_C@_15GANGMFKL@?$AA?$CF?$AAs?$AA?$AA@		; `string'
PUBLIC	??_C@_1HO@GLEAPAMD@?$AAs?$AAt?$AAd?$AA?3?$AA?3?$AAv?$AAe?$AAc?$AAt?$AAo?$AAr?$AA?$DM?$AAd?$AAo?$AAu?$AAb?$AAl?$AAe?$AA?0?$AAc?$AAl?$AAa?$AAs?$AAs?$AA?5?$AAs?$AAt?$AAd?$AA?3?$AA?3?$AAa?$AAl@ ; `string'
PUBLIC	??_C@_1BO@MEPPHOO@?$AA?$CC?$AAo?$AAu?$AAt?$AA?5?$AAo?$AAf?$AA?5?$AAr?$AAa?$AAn?$AAg?$AAe?$AA?$CC?$AA?$AA@ ; `string'
PUBLIC	?id@?$codecvt@DDH@std@@2V0locale@2@A		; std::codecvt<char,char,int>::id
PUBLIC	??_C@_1II@KCNBAEMF@?$AAC?$AA?3?$AA?2?$AAP?$AAr?$AAo?$AAg?$AAr?$AAa?$AAm?$AA?5?$AAF?$AAi?$AAl?$AAe?$AAs?$AA?5?$AA?$CI?$AAx?$AA8?$AA6?$AA?$CJ?$AA?2?$AAM?$AAi?$AAc?$AAr?$AAo?$AAs?$AAo?$AAf?$AAt@ ; `string'
PUBLIC	??_C@_1EC@HILJLMMC@?$AAl?$AAi?$AAs?$AAt?$AA?5?$AAi?$AAt?$AAe?$AAr?$AAa?$AAt?$AAo?$AAr?$AA?5?$AAn?$AAo?$AAt?$AA?5?$AAd?$AAe?$AAr?$AAe?$AAf?$AAe?$AAr?$AAe?$AAn?$AAc?$AAa?$AAb?$AAl?$AAe@ ; `string'
PUBLIC	??_C@_1BAA@MNPJGKFJ@?$AAs?$AAt?$AAd?$AA?3?$AA?3?$AA_?$AAL?$AAi?$AAs?$AAt?$AA_?$AAc?$AAo?$AAn?$AAs?$AAt?$AA_?$AAi?$AAt?$AAe?$AAr?$AAa?$AAt?$AAo?$AAr?$AA?$DM?$AAc?$AAl?$AAa?$AAs?$AAs?$AA?5@ ; `string'
PUBLIC	??_C@_1EA@DOGAGKDH@?$AAl?$AAi?$AAs?$AAt?$AA?5?$AAi?$AAt?$AAe?$AAr?$AAa?$AAt?$AAo?$AAr?$AA?5?$AAn?$AAo?$AAt?$AA?5?$AAi?$AAn?$AAc?$AAr?$AAe?$AAm?$AAe?$AAn?$AAt?$AAa?$AAb?$AAl?$AAe?$AA?$AA@ ; `string'
PUBLIC	??_C@_1BAC@HKHBFIDI@?$AAs?$AAt?$AAd?$AA?3?$AA?3?$AA_?$AAL?$AAi?$AAs?$AAt?$AA_?$AAc?$AAo?$AAn?$AAs?$AAt?$AA_?$AAi?$AAt?$AAe?$AAr?$AAa?$AAt?$AAo?$AAr?$AA?$DM?$AAc?$AAl?$AAa?$AAs?$AAs?$AA?5@ ; `string'
PUBLIC	??_C@_1DI@MDELDGPI@?$AAl?$AAi?$AAs?$AAt?$AA?5?$AAi?$AAt?$AAe?$AAr?$AAa?$AAt?$AAo?$AAr?$AAs?$AA?5?$AAi?$AAn?$AAc?$AAo?$AAm?$AAp?$AAa?$AAt?$AAi?$AAb?$AAl?$AAe?$AA?$AA@ ; `string'
PUBLIC	??_C@_0CI@FNPHFCCM@Standard?5C?$CL?$CL?5Libraries?5Invalid?5A@ ; `string'
PUBLIC	??_C@_1FO@GJIHNDLM@?$AA?$CC?$AAS?$AAt?$AAa?$AAn?$AAd?$AAa?$AAr?$AAd?$AA?5?$AAC?$AA?$CL?$AA?$CL?$AA?5?$AAL?$AAi?$AAb?$AAr?$AAa?$AAr?$AAi?$AAe?$AAs?$AA?5?$AAI?$AAn?$AAv?$AAa?$AAl?$AAi?$AAd?$AA?5@ ; `string'
PUBLIC	??_C@_1BAC@NKIMLBPN@?$AAs?$AAt?$AAd?$AA?3?$AA?3?$AA_?$AAL?$AAi?$AAs?$AAt?$AA_?$AAc?$AAo?$AAn?$AAs?$AAt?$AA_?$AAi?$AAt?$AAe?$AAr?$AAa?$AAt?$AAo?$AAr?$AA?$DM?$AAc?$AAl?$AAa?$AAs?$AAs?$AA?5@ ; `string'
PUBLIC	??_C@_1CG@JNLFBNGN@?$AA?$CC?$AAi?$AAn?$AAv?$AAa?$AAl?$AAi?$AAd?$AA?5?$AAa?$AAr?$AAg?$AAu?$AAm?$AAe?$AAn?$AAt?$AA?$CC?$AA?$AA@ ; `string'
PUBLIC	??_C@_1EE@BBMFLDOC@?$AAl?$AAi?$AAs?$AAt?$AA?5?$AAe?$AAr?$AAa?$AAs?$AAe?$AA?5?$AAi?$AAt?$AAe?$AAr?$AAa?$AAt?$AAo?$AAr?$AA?5?$AAo?$AAu?$AAt?$AAs?$AAi?$AAd?$AAe?$AA?5?$AAr?$AAa?$AAn?$AAg@ ; `string'
PUBLIC	??_C@_1NO@NMPGMCFD@?$AAs?$AAt?$AAd?$AA?3?$AA?3?$AA_?$AAL?$AAi?$AAs?$AAt?$AA_?$AAc?$AAo?$AAn?$AAs?$AAt?$AA_?$AAi?$AAt?$AAe?$AAr?$AAa?$AAt?$AAo?$AAr?$AA?$DM?$AAc?$AAl?$AAa?$AAs?$AAs?$AA?5@ ; `string'
PUBLIC	??_C@_1EA@JDNDELPC@?$AAl?$AAi?$AAs?$AAt?$AA?5?$AAi?$AAt?$AAe?$AAr?$AAa?$AAt?$AAo?$AAr?$AA?5?$AAn?$AAo?$AAt?$AA?5?$AAd?$AAe?$AAc?$AAr?$AAe?$AAm?$AAe?$AAn?$AAt?$AAa?$AAb?$AAl?$AAe?$AA?$AA@ ; `string'
PUBLIC	??_C@_1NO@CPMEHOJC@?$AAs?$AAt?$AAd?$AA?3?$AA?3?$AA_?$AAL?$AAi?$AAs?$AAt?$AA_?$AAc?$AAo?$AAn?$AAs?$AAt?$AA_?$AAi?$AAt?$AAe?$AAr?$AAa?$AAt?$AAo?$AAr?$AA?$DM?$AAc?$AAl?$AAa?$AAs?$AAs?$AA?5@ ; `string'
PUBLIC	??_C@_1NO@HMALCLJG@?$AAs?$AAt?$AAd?$AA?3?$AA?3?$AA_?$AAL?$AAi?$AAs?$AAt?$AA_?$AAc?$AAo?$AAn?$AAs?$AAt?$AA_?$AAi?$AAt?$AAe?$AAr?$AAa?$AAt?$AAo?$AAr?$AA?$DM?$AAc?$AAl?$AAa?$AAs?$AAs?$AA?5@ ; `string'
PUBLIC	??_C@_1IA@LGMJJIFP@?$AAC?$AA?3?$AA?2?$AAU?$AAs?$AAe?$AAr?$AAs?$AA?2?$AAM?$AAa?$AAx?$AAi?$AAm?$AAe?$AA?2?$AAV?$AAi?$AAd?$AAe?$AAo?$AAs?$AA?2?$AAT?$AAP?$AA?5?$AAI?$AAA?$AA?2?$AAV?$AAS?$AA2@ ; `string'
PUBLIC	??_C@_1DA@HEIDPBNG@?$AAm?$AA_?$AAi?$AAS?$AAi?$AAz?$AAe?$AA?$CL?$AA1?$AA?5?$AA?$DM?$AA?$DN?$AA?5?$AAm?$AA_?$AAi?$AAM?$AAa?$AAx?$AAS?$AAi?$AAz?$AAe?$AA?$AA@ ; `string'
PUBLIC	??_C@_0BA@JFNIOLAK@string?5too?5long?$AA@	; `string'
PUBLIC	??_C@_0BI@CFPLBAOH@invalid?5string?5position?$AA@ ; `string'
PUBLIC	??_C@_1HC@HBCEAHKD@?$AAs?$AAt?$AAd?$AA?3?$AA?3?$AAv?$AAe?$AAc?$AAt?$AAo?$AAr?$AA?$DM?$AAi?$AAn?$AAt?$AA?0?$AAc?$AAl?$AAa?$AAs?$AAs?$AA?5?$AAs?$AAt?$AAd?$AA?3?$AA?3?$AAa?$AAl?$AAl?$AAo?$AAc@ ; `string'
PUBLIC	??_C@_0BD@OLBABOEK@vector?$DMT?$DO?5too?5long?$AA@ ; `string'
PUBLIC	??_C@_1NM@GONFAHHJ@?$AAs?$AAt?$AAd?$AA?3?$AA?3?$AA_?$AAL?$AAi?$AAs?$AAt?$AA_?$AAc?$AAo?$AAn?$AAs?$AAt?$AA_?$AAi?$AAt?$AAe?$AAr?$AAa?$AAt?$AAo?$AAr?$AA?$DM?$AAc?$AAl?$AAa?$AAs?$AAs?$AA?5@ ; `string'
PUBLIC	??_C@_1EG@FOHJJHAC@?$AAv?$AAe?$AAc?$AAt?$AAo?$AAr?$AA?5?$AAi?$AAt?$AAe?$AAr?$AAa?$AAt?$AAo?$AAr?$AA?5?$AAn?$AAo?$AAt?$AA?5?$AAd?$AAe?$AAr?$AAe?$AAf?$AAe?$AAr?$AAe?$AAn?$AAc?$AAa?$AAb@ ; `string'
PUBLIC	??_C@_1BCK@BOMLPPEO@?$AAs?$AAt?$AAd?$AA?3?$AA?3?$AA_?$AAV?$AAe?$AAc?$AAt?$AAo?$AAr?$AA_?$AAc?$AAo?$AAn?$AAs?$AAt?$AA_?$AAi?$AAt?$AAe?$AAr?$AAa?$AAt?$AAo?$AAr?$AA?$DM?$AAc?$AAl?$AAa?$AAs@ ; `string'
PUBLIC	??_C@_1EE@EJDKCLKB@?$AAv?$AAe?$AAc?$AAt?$AAo?$AAr?$AA?5?$AAi?$AAt?$AAe?$AAr?$AAa?$AAt?$AAo?$AAr?$AA?5?$AAn?$AAo?$AAt?$AA?5?$AAi?$AAn?$AAc?$AAr?$AAe?$AAm?$AAe?$AAn?$AAt?$AAa?$AAb?$AAl@ ; `string'
PUBLIC	??_C@_1BCM@PPJHGIFH@?$AAs?$AAt?$AAd?$AA?3?$AA?3?$AA_?$AAV?$AAe?$AAc?$AAt?$AAo?$AAr?$AA_?$AAc?$AAo?$AAn?$AAs?$AAt?$AA_?$AAi?$AAt?$AAe?$AAr?$AAa?$AAt?$AAo?$AAr?$AA?$DM?$AAc?$AAl?$AAa?$AAs@ ; `string'
PUBLIC	??_C@_1DM@HINDPMBP@?$AAv?$AAe?$AAc?$AAt?$AAo?$AAr?$AA?5?$AAi?$AAt?$AAe?$AAr?$AAa?$AAt?$AAo?$AAr?$AAs?$AA?5?$AAi?$AAn?$AAc?$AAo?$AAm?$AAp?$AAa?$AAt?$AAi?$AAb?$AAl?$AAe?$AA?$AA@ ; `string'
PUBLIC	??_C@_1BCE@OCGHGJBH@?$AAs?$AAt?$AAd?$AA?3?$AA?3?$AA_?$AAV?$AAe?$AAc?$AAt?$AAo?$AAr?$AA_?$AAc?$AAo?$AAn?$AAs?$AAt?$AA_?$AAi?$AAt?$AAe?$AAr?$AAa?$AAt?$AAo?$AAr?$AA?$DM?$AAc?$AAl?$AAa?$AAs@ ; `string'
PUBLIC	??_C@_1MG@EPLOJHHC@?$AAs?$AAt?$AAd?$AA?3?$AA?3?$AA_?$AAL?$AAi?$AAs?$AAt?$AA_?$AAc?$AAo?$AAn?$AAs?$AAt?$AA_?$AAi?$AAt?$AAe?$AAr?$AAa?$AAt?$AAo?$AAr?$AA?$DM?$AAc?$AAl?$AAa?$AAs?$AAs?$AA?5@ ; `string'
PUBLIC	??_C@_1MI@DMDPBFHG@?$AAs?$AAt?$AAd?$AA?3?$AA?3?$AA_?$AAL?$AAi?$AAs?$AAt?$AA_?$AAc?$AAo?$AAn?$AAs?$AAt?$AA_?$AAi?$AAt?$AAe?$AAr?$AAa?$AAt?$AAo?$AAr?$AA?$DM?$AAc?$AAl?$AAa?$AAs?$AAs?$AA?5@ ; `string'
PUBLIC	??_C@_1EK@EEHFMKDC@?$AAv?$AAe?$AAc?$AAt?$AAo?$AAr?$AA?5?$AAi?$AAn?$AAs?$AAe?$AAr?$AAt?$AA?5?$AAi?$AAt?$AAe?$AAr?$AAa?$AAt?$AAo?$AAr?$AA?5?$AAo?$AAu?$AAt?$AAs?$AAi?$AAd?$AAe?$AA?5?$AAr@ ; `string'
PUBLIC	??_C@_1EM@FKAOCOMF@?$AAv?$AAe?$AAc?$AAt?$AAo?$AAr?$AA?5?$AAi?$AAt?$AAe?$AAr?$AAa?$AAt?$AAo?$AAr?$AA?5?$AA?$CL?$AA?5?$AAo?$AAf?$AAf?$AAs?$AAe?$AAt?$AA?5?$AAo?$AAu?$AAt?$AA?5?$AAo?$AAf?$AA?5@ ; `string'
PUBLIC	??_C@_1MG@JKKENLGC@?$AAs?$AAt?$AAd?$AA?3?$AA?3?$AA_?$AAV?$AAe?$AAc?$AAt?$AAo?$AAr?$AA_?$AAc?$AAo?$AAn?$AAs?$AAt?$AA_?$AAi?$AAt?$AAe?$AAr?$AAa?$AAt?$AAo?$AAr?$AA?$DM?$AAc?$AAl?$AAa?$AAs@ ; `string'
PUBLIC	??_C@_1CK@EOPGIILJ@?$AAi?$AAn?$AAv?$AAa?$AAl?$AAi?$AAd?$AA?5?$AAn?$AAu?$AAl?$AAl?$AA?5?$AAp?$AAo?$AAi?$AAn?$AAt?$AAe?$AAr?$AA?$AA@ ; `string'
PUBLIC	??_C@_1BDI@JCBOAGAM@?$AAs?$AAt?$AAd?$AA?3?$AA?3?$AAv?$AAe?$AAc?$AAt?$AAo?$AAr?$AA?$DM?$AAc?$AAl?$AAa?$AAs?$AAs?$AA?5?$AAN?$AAa?$AAv?$AAG?$AAr?$AAa?$AAp?$AAh?$AAN?$AAo?$AAd?$AAe?$AA?$DM?$AAc@ ; `string'
PUBLIC	??_C@_0BB@MOGOBHAF@list?$DMT?$DO?5too?5long?$AA@ ; `string'
PUBLIC	??_C@_1MO@IGMNEFGG@?$AAs?$AAt?$AAd?$AA?3?$AA?3?$AAv?$AAe?$AAc?$AAt?$AAo?$AAr?$AA?$DM?$AAc?$AAl?$AAa?$AAs?$AAs?$AA?5?$AAN?$AAa?$AAv?$AAG?$AAr?$AAa?$AAp?$AAh?$AAE?$AAd?$AAg?$AAe?$AA?5?$AAc@ ; `string'
PUBLIC	??_C@_1PE@KDKMFEPD@?$AAs?$AAt?$AAd?$AA?3?$AA?3?$AA_?$AAL?$AAi?$AAs?$AAt?$AA_?$AAc?$AAo?$AAn?$AAs?$AAt?$AA_?$AAi?$AAt?$AAe?$AAr?$AAa?$AAt?$AAo?$AAr?$AA?$DM?$AAc?$AAl?$AAa?$AAs?$AAs?$AA?5@ ; `string'
PUBLIC	??_C@_1BJM@IJPNJFA@?$AAs?$AAt?$AAd?$AA?3?$AA?3?$AAv?$AAe?$AAc?$AAt?$AAo?$AAr?$AA?$DM?$AAc?$AAl?$AAa?$AAs?$AAs?$AA?5?$AAs?$AAt?$AAd?$AA?3?$AA?3?$AAl?$AAi?$AAs?$AAt?$AA?$DM?$AAc?$AAl?$AAa?$AAs@ ; `string'
PUBLIC	??_C@_1BEI@LMFHBODB@?$AAs?$AAt?$AAd?$AA?3?$AA?3?$AA_?$AAV?$AAe?$AAc?$AAt?$AAo?$AAr?$AA_?$AAc?$AAo?$AAn?$AAs?$AAt?$AA_?$AAi?$AAt?$AAe?$AAr?$AAa?$AAt?$AAo?$AAr?$AA?$DM?$AAc?$AAl?$AAa?$AAs@ ; `string'
PUBLIC	??_C@_1BCM@KPIKOJFJ@?$AAs?$AAt?$AAd?$AA?3?$AA?3?$AA_?$AAL?$AAi?$AAs?$AAt?$AA_?$AAc?$AAo?$AAn?$AAs?$AAt?$AA_?$AAi?$AAt?$AAe?$AAr?$AAa?$AAt?$AAo?$AAr?$AA?$DM?$AAc?$AAl?$AAa?$AAs?$AAs?$AA?5@ ; `string'
PUBLIC	??_C@_1BCO@OMAOINB@?$AAs?$AAt?$AAd?$AA?3?$AA?3?$AA_?$AAL?$AAi?$AAs?$AAt?$AA_?$AAc?$AAo?$AAn?$AAs?$AAt?$AA_?$AAi?$AAt?$AAe?$AAr?$AAa?$AAt?$AAo?$AAr?$AA?$DM?$AAc?$AAl?$AAa?$AAs?$AAs?$AA?5@ ; `string'
PUBLIC	??_C@_1BCO@KODNABBE@?$AAs?$AAt?$AAd?$AA?3?$AA?3?$AA_?$AAL?$AAi?$AAs?$AAt?$AA_?$AAc?$AAo?$AAn?$AAs?$AAt?$AA_?$AAi?$AAt?$AAe?$AAr?$AAa?$AAt?$AAo?$AAr?$AA?$DM?$AAc?$AAl?$AAa?$AAs?$AAs?$AA?5@ ; `string'
PUBLIC	??_C@_1OE@FGJDIBAM@?$AAs?$AAt?$AAd?$AA?3?$AA?3?$AA_?$AAL?$AAi?$AAs?$AAt?$AA_?$AAc?$AAo?$AAn?$AAs?$AAt?$AA_?$AAi?$AAt?$AAe?$AAr?$AAa?$AAt?$AAo?$AAr?$AA?$DM?$AAc?$AAl?$AAa?$AAs?$AAs?$AA?5@ ; `string'
PUBLIC	??_C@_1OG@IKGFFBLD@?$AAs?$AAt?$AAd?$AA?3?$AA?3?$AA_?$AAL?$AAi?$AAs?$AAt?$AA_?$AAc?$AAo?$AAn?$AAs?$AAt?$AA_?$AAi?$AAt?$AAe?$AAr?$AAa?$AAt?$AAo?$AAr?$AA?$DM?$AAc?$AAl?$AAa?$AAs?$AAs?$AA?5@ ; `string'
PUBLIC	??_C@_1OG@CKJILIHG@?$AAs?$AAt?$AAd?$AA?3?$AA?3?$AA_?$AAL?$AAi?$AAs?$AAt?$AA_?$AAc?$AAo?$AAn?$AAs?$AAt?$AA_?$AAi?$AAt?$AAe?$AAr?$AAa?$AAt?$AAo?$AAr?$AA?$DM?$AAc?$AAl?$AAa?$AAs?$AAs?$AA?5@ ; `string'
PUBLIC	??_C@_1PC@CJNLBPAC@?$AAs?$AAt?$AAd?$AA?3?$AA?3?$AA_?$AAL?$AAi?$AAs?$AAt?$AA_?$AAc?$AAo?$AAn?$AAs?$AAt?$AA_?$AAi?$AAt?$AAe?$AAr?$AAa?$AAt?$AAo?$AAr?$AA?$DM?$AAc?$AAl?$AAa?$AAs?$AAs?$AA?5@ ; `string'
PUBLIC	??_C@_1PE@DFBLNDG@?$AAs?$AAt?$AAd?$AA?3?$AA?3?$AA_?$AAL?$AAi?$AAs?$AAt?$AA_?$AAc?$AAo?$AAn?$AAs?$AAt?$AA_?$AAi?$AAt?$AAe?$AAr?$AAa?$AAt?$AAo?$AAr?$AA?$DM?$AAc?$AAl?$AAa?$AAs?$AAs?$AA?5@ ; `string'
PUBLIC	??_C@_1BEG@DNGJMEKC@?$AAs?$AAt?$AAd?$AA?3?$AA?3?$AA_?$AAV?$AAe?$AAc?$AAt?$AAo?$AAr?$AA_?$AAc?$AAo?$AAn?$AAs?$AAt?$AA_?$AAi?$AAt?$AAe?$AAr?$AAa?$AAt?$AAo?$AAr?$AA?$DM?$AAc?$AAl?$AAa?$AAs@ ; `string'
PUBLIC	??_C@_1BEA@ECIHAALN@?$AAs?$AAt?$AAd?$AA?3?$AA?3?$AA_?$AAV?$AAe?$AAc?$AAt?$AAo?$AAr?$AA_?$AAc?$AAo?$AAn?$AAs?$AAt?$AA_?$AAi?$AAt?$AAe?$AAr?$AAa?$AAt?$AAo?$AAr?$AA?$DM?$AAc?$AAl?$AAa?$AAs@ ; `string'
PUBLIC	??_C@_1CO@DGLIKNHI@?$AAi?$AAn?$AAv?$AAa?$AAl?$AAi?$AAd?$AA?5?$AAi?$AAt?$AAe?$AAr?$AAa?$AAt?$AAo?$AAr?$AA?5?$AAr?$AAa?$AAn?$AAg?$AAe?$AA?$AA@ ; `string'
PUBLIC	??_C@_1IO@LKIDJAMC@?$AAC?$AA?3?$AA?2?$AAP?$AAr?$AAo?$AAg?$AAr?$AAa?$AAm?$AA?5?$AAF?$AAi?$AAl?$AAe?$AAs?$AA?5?$AA?$CI?$AAx?$AA8?$AA6?$AA?$CJ?$AA?2?$AAM?$AAi?$AAc?$AAr?$AAo?$AAs?$AAo?$AAf?$AAt@ ; `string'
PUBLIC	??_R4error_category@std@@6B@			; std::error_category::`RTTI Complete Object Locator'
PUBLIC	??_R0?AVerror_category@std@@@8			; std::error_category `RTTI Type Descriptor'
PUBLIC	??_R3error_category@std@@8			; std::error_category::`RTTI Class Hierarchy Descriptor'
PUBLIC	??_R2error_category@std@@8			; std::error_category::`RTTI Base Class Array'
PUBLIC	??_R1A@?0A@EA@error_category@std@@8		; std::error_category::`RTTI Base Class Descriptor at (0,-1,0,64)'
PUBLIC	??_R4_Generic_error_category@std@@6B@		; std::_Generic_error_category::`RTTI Complete Object Locator'
PUBLIC	??_R0?AV_Generic_error_category@std@@@8		; std::_Generic_error_category `RTTI Type Descriptor'
PUBLIC	??_R3_Generic_error_category@std@@8		; std::_Generic_error_category::`RTTI Class Hierarchy Descriptor'
PUBLIC	??_R2_Generic_error_category@std@@8		; std::_Generic_error_category::`RTTI Base Class Array'
PUBLIC	??_R1A@?0A@EA@_Generic_error_category@std@@8	; std::_Generic_error_category::`RTTI Base Class Descriptor at (0,-1,0,64)'
PUBLIC	??_R4_Iostream_error_category@std@@6B@		; std::_Iostream_error_category::`RTTI Complete Object Locator'
PUBLIC	??_R0?AV_Iostream_error_category@std@@@8	; std::_Iostream_error_category `RTTI Type Descriptor'
PUBLIC	??_R3_Iostream_error_category@std@@8		; std::_Iostream_error_category::`RTTI Class Hierarchy Descriptor'
PUBLIC	??_R2_Iostream_error_category@std@@8		; std::_Iostream_error_category::`RTTI Base Class Array'
PUBLIC	??_R1A@?0A@EA@_Iostream_error_category@std@@8	; std::_Iostream_error_category::`RTTI Base Class Descriptor at (0,-1,0,64)'
PUBLIC	??_R4_System_error_category@std@@6B@		; std::_System_error_category::`RTTI Complete Object Locator'
PUBLIC	??_R0?AV_System_error_category@std@@@8		; std::_System_error_category `RTTI Type Descriptor'
PUBLIC	??_R3_System_error_category@std@@8		; std::_System_error_category::`RTTI Class Hierarchy Descriptor'
PUBLIC	??_R2_System_error_category@std@@8		; std::_System_error_category::`RTTI Base Class Array'
PUBLIC	??_R1A@?0A@EA@_System_error_category@std@@8	; std::_System_error_category::`RTTI Base Class Descriptor at (0,-1,0,64)'
PUBLIC	??_R4?$Graph_SearchTimeSliced@VNavGraphEdge@@@@6B@ ; Graph_SearchTimeSliced<NavGraphEdge>::`RTTI Complete Object Locator'
PUBLIC	??_R0?AV?$Graph_SearchTimeSliced@VNavGraphEdge@@@@@8 ; Graph_SearchTimeSliced<NavGraphEdge> `RTTI Type Descriptor'
PUBLIC	??_R3?$Graph_SearchTimeSliced@VNavGraphEdge@@@@8 ; Graph_SearchTimeSliced<NavGraphEdge>::`RTTI Class Hierarchy Descriptor'
PUBLIC	??_R2?$Graph_SearchTimeSliced@VNavGraphEdge@@@@8 ; Graph_SearchTimeSliced<NavGraphEdge>::`RTTI Base Class Array'
PUBLIC	??_R1A@?0A@EA@?$Graph_SearchTimeSliced@VNavGraphEdge@@@@8 ; Graph_SearchTimeSliced<NavGraphEdge>::`RTTI Base Class Descriptor at (0,-1,0,64)'
PUBLIC	??_R4?$Graph_SearchAStar_TS@V?$SparseGraph@V?$NavGraphNode@PAV?$Trigger@VRaven_Bot@@@@@@VNavGraphEdge@@@@VHeuristic_Euclid@@@@6B@ ; Graph_SearchAStar_TS<SparseGraph<NavGraphNode<Trigger<Raven_Bot> *>,NavGraphEdge>,Heuristic_Euclid>::`RTTI Complete Object Locator'
PUBLIC	??_R0?AV?$Graph_SearchAStar_TS@V?$SparseGraph@V?$NavGraphNode@PAV?$Trigger@VRaven_Bot@@@@@@VNavGraphEdge@@@@VHeuristic_Euclid@@@@@8 ; Graph_SearchAStar_TS<SparseGraph<NavGraphNode<Trigger<Raven_Bot> *>,NavGraphEdge>,Heuristic_Euclid> `RTTI Type Descriptor'
PUBLIC	??_R3?$Graph_SearchAStar_TS@V?$SparseGraph@V?$NavGraphNode@PAV?$Trigger@VRaven_Bot@@@@@@VNavGraphEdge@@@@VHeuristic_Euclid@@@@8 ; Graph_SearchAStar_TS<SparseGraph<NavGraphNode<Trigger<Raven_Bot> *>,NavGraphEdge>,Heuristic_Euclid>::`RTTI Class Hierarchy Descriptor'
PUBLIC	??_R2?$Graph_SearchAStar_TS@V?$SparseGraph@V?$NavGraphNode@PAV?$Trigger@VRaven_Bot@@@@@@VNavGraphEdge@@@@VHeuristic_Euclid@@@@8 ; Graph_SearchAStar_TS<SparseGraph<NavGraphNode<Trigger<Raven_Bot> *>,NavGraphEdge>,Heuristic_Euclid>::`RTTI Base Class Array'
PUBLIC	??_R1A@?0A@EA@?$Graph_SearchAStar_TS@V?$SparseGraph@V?$NavGraphNode@PAV?$Trigger@VRaven_Bot@@@@@@VNavGraphEdge@@@@VHeuristic_Euclid@@@@8 ; Graph_SearchAStar_TS<SparseGraph<NavGraphNode<Trigger<Raven_Bot> *>,NavGraphEdge>,Heuristic_Euclid>::`RTTI Base Class Descriptor at (0,-1,0,64)'
PUBLIC	??_R4?$Graph_SearchDijkstras_TS@V?$SparseGraph@V?$NavGraphNode@PAV?$Trigger@VRaven_Bot@@@@@@VNavGraphEdge@@@@V?$FindActiveTrigger@V?$Trigger@VRaven_Bot@@@@@@@@6B@ ; Graph_SearchDijkstras_TS<SparseGraph<NavGraphNode<Trigger<Raven_Bot> *>,NavGraphEdge>,FindActiveTrigger<Trigger<Raven_Bot> > >::`RTTI Complete Object Locator'
PUBLIC	??_R0?AV?$Graph_SearchDijkstras_TS@V?$SparseGraph@V?$NavGraphNode@PAV?$Trigger@VRaven_Bot@@@@@@VNavGraphEdge@@@@V?$FindActiveTrigger@V?$Trigger@VRaven_Bot@@@@@@@@@8 ; Graph_SearchDijkstras_TS<SparseGraph<NavGraphNode<Trigger<Raven_Bot> *>,NavGraphEdge>,FindActiveTrigger<Trigger<Raven_Bot> > > `RTTI Type Descriptor'
PUBLIC	??_R3?$Graph_SearchDijkstras_TS@V?$SparseGraph@V?$NavGraphNode@PAV?$Trigger@VRaven_Bot@@@@@@VNavGraphEdge@@@@V?$FindActiveTrigger@V?$Trigger@VRaven_Bot@@@@@@@@8 ; Graph_SearchDijkstras_TS<SparseGraph<NavGraphNode<Trigger<Raven_Bot> *>,NavGraphEdge>,FindActiveTrigger<Trigger<Raven_Bot> > >::`RTTI Class Hierarchy Descriptor'
PUBLIC	??_R2?$Graph_SearchDijkstras_TS@V?$SparseGraph@V?$NavGraphNode@PAV?$Trigger@VRaven_Bot@@@@@@VNavGraphEdge@@@@V?$FindActiveTrigger@V?$Trigger@VRaven_Bot@@@@@@@@8 ; Graph_SearchDijkstras_TS<SparseGraph<NavGraphNode<Trigger<Raven_Bot> *>,NavGraphEdge>,FindActiveTrigger<Trigger<Raven_Bot> > >::`RTTI Base Class Array'
PUBLIC	??_R1A@?0A@EA@?$Graph_SearchDijkstras_TS@V?$SparseGraph@V?$NavGraphNode@PAV?$Trigger@VRaven_Bot@@@@@@VNavGraphEdge@@@@V?$FindActiveTrigger@V?$Trigger@VRaven_Bot@@@@@@@@8 ; Graph_SearchDijkstras_TS<SparseGraph<NavGraphNode<Trigger<Raven_Bot> *>,NavGraphEdge>,FindActiveTrigger<Trigger<Raven_Bot> > >::`RTTI Base Class Descriptor at (0,-1,0,64)'
PUBLIC	__real@0000000000000000
PUBLIC	__real@0010000000000000
PUBLIC	__real@00800000
PUBLIC	__real@3d719799812dea11
PUBLIC	__real@4000000000000000
PUBLIC	__real@4010000000000000
PUBLIC	__real@7f7fffff
PUBLIC	__real@7fefffffffffffff
PUBLIC	__real@bff0000000000000
EXTRN	__purecall:PROC
EXTRN	??2@YAPAXI@Z:PROC				; operator new
EXTRN	??3@YAXPAX@Z:PROC				; operator delete
EXTRN	_atexit:PROC
EXTRN	__invalid_parameter:PROC
EXTRN	??0_Lockit@std@@QAE@H@Z:PROC			; std::_Lockit::_Lockit
EXTRN	??1_Lockit@std@@QAE@XZ:PROC			; std::_Lockit::~_Lockit
EXTRN	_fabs:PROC
EXTRN	_sqrt:PROC
EXTRN	__hypot:PROC
EXTRN	_memmove:PROC
EXTRN	_memcpy:PROC
EXTRN	_strlen:PROC
EXTRN	__CrtDbgReportW:PROC
EXTRN	?_Debug_message@std@@YAXPB_W0I@Z:PROC		; std::_Debug_message
EXTRN	?_Xbad_alloc@std@@YAXXZ:PROC			; std::_Xbad_alloc
EXTRN	?_Xlength_error@std@@YAXPBD@Z:PROC		; std::_Xlength_error
EXTRN	?_Xout_of_range@std@@YAXPBD@Z:PROC		; std::_Xout_of_range
EXTRN	__wassert:PROC
EXTRN	??_Eerror_category@std@@UAEPAXI@Z:PROC		; std::error_category::`vector deleting destructor'
EXTRN	?_Syserror_map@std@@YAPBDH@Z:PROC		; std::_Syserror_map
EXTRN	?_Winerror_map@std@@YAPBDH@Z:PROC		; std::_Winerror_map
EXTRN	??_E_Generic_error_category@std@@UAEPAXI@Z:PROC	; std::_Generic_error_category::`vector deleting destructor'
EXTRN	??_E_Iostream_error_category@std@@UAEPAXI@Z:PROC ; std::_Iostream_error_category::`vector deleting destructor'
EXTRN	??_E_System_error_category@std@@UAEPAXI@Z:PROC	; std::_System_error_category::`vector deleting destructor'
EXTRN	?canWalkTo@Raven_Bot@@QBE_NUVector2D@@@Z:PROC	; Raven_Bot::canWalkTo
EXTRN	?canWalkBetween@Raven_Bot@@QBE_NUVector2D@@0@Z:PROC ; Raven_Bot::canWalkBetween
EXTRN	?CalculateCostToTravelBetweenNodes@Raven_Map@@QBENHH@Z:PROC ; Raven_Map::CalculateCostToTravelBetweenNodes
EXTRN	?Instance@Raven_UserOptions@@SAPAV1@XZ:PROC	; Raven_UserOptions::Instance
EXTRN	?Instance@MessageDispatcher@@SAPAV1@XZ:PROC	; MessageDispatcher::Instance
EXTRN	?DispatchMsg@MessageDispatcher@@QAEXNHHHPAX@Z:PROC ; MessageDispatcher::DispatchMsg
EXTRN	??_E?$Graph_SearchTimeSliced@VNavGraphEdge@@@@UAEPAXI@Z:PROC ; Graph_SearchTimeSliced<NavGraphEdge>::`vector deleting destructor'
EXTRN	??_E?$Graph_SearchAStar_TS@V?$SparseGraph@V?$NavGraphNode@PAV?$Trigger@VRaven_Bot@@@@@@VNavGraphEdge@@@@VHeuristic_Euclid@@@@UAEPAXI@Z:PROC ; Graph_SearchAStar_TS<SparseGraph<NavGraphNode<Trigger<Raven_Bot> *>,NavGraphEdge>,Heuristic_Euclid>::`vector deleting destructor'
EXTRN	??_E?$Graph_SearchDijkstras_TS@V?$SparseGraph@V?$NavGraphNode@PAV?$Trigger@VRaven_Bot@@@@@@VNavGraphEdge@@@@V?$FindActiveTrigger@V?$Trigger@VRaven_Bot@@@@@@@@UAEPAXI@Z:PROC ; Graph_SearchDijkstras_TS<SparseGraph<NavGraphNode<Trigger<Raven_Bot> *>,NavGraphEdge>,FindActiveTrigger<Trigger<Raven_Bot> > >::`vector deleting destructor'
EXTRN	@_RTC_CheckStackVars@8:PROC
EXTRN	@__security_check_cookie@4:PROC
EXTRN	__CxxThrowException@8:PROC
EXTRN	__RTC_CheckEsp:PROC
EXTRN	__RTC_InitBase:PROC
EXTRN	__RTC_Shutdown:PROC
EXTRN	___CxxFrameHandler3:PROC
EXTRN	??_7type_info@@6B@:QWORD			; type_info::`vftable'
EXTRN	___security_cookie:DWORD
EXTRN	__fltused:DWORD
_BSS	SEGMENT
_piecewise_construct DB 01H DUP (?)
	ALIGN	4

_allocator_arg DB 01H DUP (?)
_BSS	ENDS
;	COMDAT ?_Generic_object@?$_Error_objects@H@std@@2V_Generic_error_category@2@A
_BSS	SEGMENT
?_Generic_object@?$_Error_objects@H@std@@2V_Generic_error_category@2@A DD 01H DUP (?) ; std::_Error_objects<int>::_Generic_object
_BSS	ENDS
;	COMDAT ?_Iostream_object@?$_Error_objects@H@std@@2V_Iostream_error_category@2@A
_BSS	SEGMENT
?_Iostream_object@?$_Error_objects@H@std@@2V_Iostream_error_category@2@A DD 01H DUP (?) ; std::_Error_objects<int>::_Iostream_object
_BSS	ENDS
;	COMDAT ?_System_object@?$_Error_objects@H@std@@2V_System_error_category@2@A
_BSS	SEGMENT
?_System_object@?$_Error_objects@H@std@@2V_System_error_category@2@A DD 01H DUP (?) ; std::_Error_objects<int>::_System_object
_BSS	ENDS
;	COMDAT ?id@?$num_put@DV?$back_insert_iterator@V?$basic_string@DU?$char_traits@D@std@@V?$allocator@D@2@@std@@@std@@@std@@2V0locale@2@A
_BSS	SEGMENT
?id@?$num_put@DV?$back_insert_iterator@V?$basic_string@DU?$char_traits@D@std@@V?$allocator@D@2@@std@@@std@@@std@@2V0locale@2@A DD 01H DUP (?) ; std::num_put<char,std::back_insert_iterator<std::basic_string<char,std::char_traits<char>,std::allocator<char> > > >::id
_BSS	ENDS
;	COMDAT ?id@?$num_put@_WV?$back_insert_iterator@V?$basic_string@_WU?$char_traits@_W@std@@V?$allocator@_W@2@@std@@@std@@@std@@2V0locale@2@A
_BSS	SEGMENT
?id@?$num_put@_WV?$back_insert_iterator@V?$basic_string@_WU?$char_traits@_W@std@@V?$allocator@_W@2@@std@@@std@@@std@@2V0locale@2@A DD 01H DUP (?) ; std::num_put<wchar_t,std::back_insert_iterator<std::basic_string<wchar_t,std::char_traits<wchar_t>,std::allocator<wchar_t> > > >::id
_BSS	ENDS
_BSS	SEGMENT
	ALIGN	4

_MaxInt	DD	01H DUP (?)
	ALIGN	8

_MaxDouble DQ	01H DUP (?)
_MinDouble DQ	01H DUP (?)
_MaxFloat DD	01H DUP (?)
_MinFloat DD	01H DUP (?)
_TwoPi	DQ	01H DUP (?)
_HalfPi	DQ	01H DUP (?)
_QuarterPi DQ	01H DUP (?)
_ignore	DB	01H DUP (?)
	ALIGN	4

__Tuple_alloc DB 01H DUP (?)
_BSS	ENDS
;	COMDAT ?id@?$num_get@DV?$istreambuf_iterator@DU?$char_traits@D@std@@@std@@@std@@2V0locale@2@A
_BSS	SEGMENT
?id@?$num_get@DV?$istreambuf_iterator@DU?$char_traits@D@std@@@std@@@std@@2V0locale@2@A DD 01H DUP (?) ; std::num_get<char,std::istreambuf_iterator<char,std::char_traits<char> > >::id
_BSS	ENDS
;	COMDAT ?id@?$num_put@DV?$ostreambuf_iterator@DU?$char_traits@D@std@@@std@@@std@@2V0locale@2@A
_BSS	SEGMENT
?id@?$num_put@DV?$ostreambuf_iterator@DU?$char_traits@D@std@@@std@@@std@@2V0locale@2@A DD 01H DUP (?) ; std::num_put<char,std::ostreambuf_iterator<char,std::char_traits<char> > >::id
_BSS	ENDS
;	COMDAT ?id@?$numpunct@D@std@@2V0locale@2@A
_BSS	SEGMENT
?id@?$numpunct@D@std@@2V0locale@2@A DD 01H DUP (?)	; std::numpunct<char>::id
_BSS	ENDS
;	COMDAT ?id@?$numpunct@_W@std@@2V0locale@2@A
_BSS	SEGMENT
?id@?$numpunct@_W@std@@2V0locale@2@A DD 01H DUP (?)	; std::numpunct<wchar_t>::id
_BSS	ENDS
;	COMDAT ?id@?$codecvt@DDH@std@@2V0locale@2@A
_BSS	SEGMENT
?id@?$codecvt@DDH@std@@2V0locale@2@A DD 01H DUP (?)	; std::codecvt<char,char,int>::id
_BSS	ENDS
CRT$XCU	SEGMENT
_piecewise_construct$initializer$ DD FLAT:??__Epiecewise_construct@std@@YAXXZ
CRT$XCU	ENDS
;	COMDAT __real@bff0000000000000
CONST	SEGMENT
__real@bff0000000000000 DQ 0bff0000000000000r	; -1
CONST	ENDS
;	COMDAT __real@7fefffffffffffff
CONST	SEGMENT
__real@7fefffffffffffff DQ 07fefffffffffffffr	; 1.79769e+308
CONST	ENDS
;	COMDAT __real@7f7fffff
CONST	SEGMENT
__real@7f7fffff DD 07f7fffffr			; 3.40282e+038
CONST	ENDS
;	COMDAT __real@4010000000000000
CONST	SEGMENT
__real@4010000000000000 DQ 04010000000000000r	; 4
CONST	ENDS
;	COMDAT __real@4000000000000000
CONST	SEGMENT
__real@4000000000000000 DQ 04000000000000000r	; 2
CONST	ENDS
;	COMDAT __real@3d719799812dea11
CONST	SEGMENT
__real@3d719799812dea11 DQ 03d719799812dea11r	; 1e-012
CONST	ENDS
;	COMDAT __real@00800000
CONST	SEGMENT
__real@00800000 DD 000800000r			; 1.17549e-038
CONST	ENDS
;	COMDAT __real@0010000000000000
CONST	SEGMENT
__real@0010000000000000 DQ 00010000000000000r	; 2.22507e-308
CONST	ENDS
;	COMDAT __real@0000000000000000
CONST	SEGMENT
__real@0000000000000000 DQ 00000000000000000r	; 0
CONST	ENDS
;	COMDAT rtc$TMZ
rtc$TMZ	SEGMENT
__RTC_Shutdown.rtc$TMZ DD FLAT:__RTC_Shutdown
rtc$TMZ	ENDS
;	COMDAT rtc$IMZ
rtc$IMZ	SEGMENT
__RTC_InitBase.rtc$IMZ DD FLAT:__RTC_InitBase
rtc$IMZ	ENDS
;	COMDAT ??_R1A@?0A@EA@?$Graph_SearchDijkstras_TS@V?$SparseGraph@V?$NavGraphNode@PAV?$Trigger@VRaven_Bot@@@@@@VNavGraphEdge@@@@V?$FindActiveTrigger@V?$Trigger@VRaven_Bot@@@@@@@@8
rdata$r	SEGMENT
??_R1A@?0A@EA@?$Graph_SearchDijkstras_TS@V?$SparseGraph@V?$NavGraphNode@PAV?$Trigger@VRaven_Bot@@@@@@VNavGraphEdge@@@@V?$FindActiveTrigger@V?$Trigger@VRaven_Bot@@@@@@@@8 DD FLAT:??_R0?AV?$Graph_SearchDijkstras_TS@V?$SparseGraph@V?$NavGraphNode@PAV?$Trigger@VRaven_Bot@@@@@@VNavGraphEdge@@@@V?$FindActiveTrigger@V?$Trigger@VRaven_Bot@@@@@@@@@8 ; Graph_SearchDijkstras_TS<SparseGraph<NavGraphNode<Trigger<Raven_Bot> *>,NavGraphEdge>,FindActiveTrigger<Trigger<Raven_Bot> > >::`RTTI Base Class Descriptor at (0,-1,0,64)'
	DD	01H
	DD	00H
	DD	0ffffffffH
	DD	00H
	DD	040H
	DD	FLAT:??_R3?$Graph_SearchDijkstras_TS@V?$SparseGraph@V?$NavGraphNode@PAV?$Trigger@VRaven_Bot@@@@@@VNavGraphEdge@@@@V?$FindActiveTrigger@V?$Trigger@VRaven_Bot@@@@@@@@8
rdata$r	ENDS
;	COMDAT ??_R2?$Graph_SearchDijkstras_TS@V?$SparseGraph@V?$NavGraphNode@PAV?$Trigger@VRaven_Bot@@@@@@VNavGraphEdge@@@@V?$FindActiveTrigger@V?$Trigger@VRaven_Bot@@@@@@@@8
rdata$r	SEGMENT
??_R2?$Graph_SearchDijkstras_TS@V?$SparseGraph@V?$NavGraphNode@PAV?$Trigger@VRaven_Bot@@@@@@VNavGraphEdge@@@@V?$FindActiveTrigger@V?$Trigger@VRaven_Bot@@@@@@@@8 DD FLAT:??_R1A@?0A@EA@?$Graph_SearchDijkstras_TS@V?$SparseGraph@V?$NavGraphNode@PAV?$Trigger@VRaven_Bot@@@@@@VNavGraphEdge@@@@V?$FindActiveTrigger@V?$Trigger@VRaven_Bot@@@@@@@@8 ; Graph_SearchDijkstras_TS<SparseGraph<NavGraphNode<Trigger<Raven_Bot> *>,NavGraphEdge>,FindActiveTrigger<Trigger<Raven_Bot> > >::`RTTI Base Class Array'
	DD	FLAT:??_R1A@?0A@EA@?$Graph_SearchTimeSliced@VNavGraphEdge@@@@8
rdata$r	ENDS
;	COMDAT ??_R3?$Graph_SearchDijkstras_TS@V?$SparseGraph@V?$NavGraphNode@PAV?$Trigger@VRaven_Bot@@@@@@VNavGraphEdge@@@@V?$FindActiveTrigger@V?$Trigger@VRaven_Bot@@@@@@@@8
rdata$r	SEGMENT
??_R3?$Graph_SearchDijkstras_TS@V?$SparseGraph@V?$NavGraphNode@PAV?$Trigger@VRaven_Bot@@@@@@VNavGraphEdge@@@@V?$FindActiveTrigger@V?$Trigger@VRaven_Bot@@@@@@@@8 DD 00H ; Graph_SearchDijkstras_TS<SparseGraph<NavGraphNode<Trigger<Raven_Bot> *>,NavGraphEdge>,FindActiveTrigger<Trigger<Raven_Bot> > >::`RTTI Class Hierarchy Descriptor'
	DD	00H
	DD	02H
	DD	FLAT:??_R2?$Graph_SearchDijkstras_TS@V?$SparseGraph@V?$NavGraphNode@PAV?$Trigger@VRaven_Bot@@@@@@VNavGraphEdge@@@@V?$FindActiveTrigger@V?$Trigger@VRaven_Bot@@@@@@@@8
rdata$r	ENDS
;	COMDAT ??_R0?AV?$Graph_SearchDijkstras_TS@V?$SparseGraph@V?$NavGraphNode@PAV?$Trigger@VRaven_Bot@@@@@@VNavGraphEdge@@@@V?$FindActiveTrigger@V?$Trigger@VRaven_Bot@@@@@@@@@8
data$r	SEGMENT
??_R0?AV?$Graph_SearchDijkstras_TS@V?$SparseGraph@V?$NavGraphNode@PAV?$Trigger@VRaven_Bot@@@@@@VNavGraphEdge@@@@V?$FindActiveTrigger@V?$Trigger@VRaven_Bot@@@@@@@@@8 DD FLAT:??_7type_info@@6B@ ; Graph_SearchDijkstras_TS<SparseGraph<NavGraphNode<Trigger<Raven_Bot> *>,NavGraphEdge>,FindActiveTrigger<Trigger<Raven_Bot> > > `RTTI Type Descriptor'
	DD	00H
	DB	'.?AV?$Graph_SearchDijkstras_TS@V?$SparseGraph@V?$NavGrap'
	DB	'hNode@PAV?$Trigger@VRaven_Bot@@@@@@VNavGraphEdge@@@@V?$FindAc'
	DB	'tiveTrigger@V?$Trigger@VRaven_Bot@@@@@@@@', 00H
data$r	ENDS
;	COMDAT ??_R4?$Graph_SearchDijkstras_TS@V?$SparseGraph@V?$NavGraphNode@PAV?$Trigger@VRaven_Bot@@@@@@VNavGraphEdge@@@@V?$FindActiveTrigger@V?$Trigger@VRaven_Bot@@@@@@@@6B@
rdata$r	SEGMENT
??_R4?$Graph_SearchDijkstras_TS@V?$SparseGraph@V?$NavGraphNode@PAV?$Trigger@VRaven_Bot@@@@@@VNavGraphEdge@@@@V?$FindActiveTrigger@V?$Trigger@VRaven_Bot@@@@@@@@6B@ DD 00H ; Graph_SearchDijkstras_TS<SparseGraph<NavGraphNode<Trigger<Raven_Bot> *>,NavGraphEdge>,FindActiveTrigger<Trigger<Raven_Bot> > >::`RTTI Complete Object Locator'
	DD	00H
	DD	00H
	DD	FLAT:??_R0?AV?$Graph_SearchDijkstras_TS@V?$SparseGraph@V?$NavGraphNode@PAV?$Trigger@VRaven_Bot@@@@@@VNavGraphEdge@@@@V?$FindActiveTrigger@V?$Trigger@VRaven_Bot@@@@@@@@@8
	DD	FLAT:??_R3?$Graph_SearchDijkstras_TS@V?$SparseGraph@V?$NavGraphNode@PAV?$Trigger@VRaven_Bot@@@@@@VNavGraphEdge@@@@V?$FindActiveTrigger@V?$Trigger@VRaven_Bot@@@@@@@@8
rdata$r	ENDS
;	COMDAT ??_R1A@?0A@EA@?$Graph_SearchAStar_TS@V?$SparseGraph@V?$NavGraphNode@PAV?$Trigger@VRaven_Bot@@@@@@VNavGraphEdge@@@@VHeuristic_Euclid@@@@8
rdata$r	SEGMENT
??_R1A@?0A@EA@?$Graph_SearchAStar_TS@V?$SparseGraph@V?$NavGraphNode@PAV?$Trigger@VRaven_Bot@@@@@@VNavGraphEdge@@@@VHeuristic_Euclid@@@@8 DD FLAT:??_R0?AV?$Graph_SearchAStar_TS@V?$SparseGraph@V?$NavGraphNode@PAV?$Trigger@VRaven_Bot@@@@@@VNavGraphEdge@@@@VHeuristic_Euclid@@@@@8 ; Graph_SearchAStar_TS<SparseGraph<NavGraphNode<Trigger<Raven_Bot> *>,NavGraphEdge>,Heuristic_Euclid>::`RTTI Base Class Descriptor at (0,-1,0,64)'
	DD	01H
	DD	00H
	DD	0ffffffffH
	DD	00H
	DD	040H
	DD	FLAT:??_R3?$Graph_SearchAStar_TS@V?$SparseGraph@V?$NavGraphNode@PAV?$Trigger@VRaven_Bot@@@@@@VNavGraphEdge@@@@VHeuristic_Euclid@@@@8
rdata$r	ENDS
;	COMDAT ??_R2?$Graph_SearchAStar_TS@V?$SparseGraph@V?$NavGraphNode@PAV?$Trigger@VRaven_Bot@@@@@@VNavGraphEdge@@@@VHeuristic_Euclid@@@@8
rdata$r	SEGMENT
??_R2?$Graph_SearchAStar_TS@V?$SparseGraph@V?$NavGraphNode@PAV?$Trigger@VRaven_Bot@@@@@@VNavGraphEdge@@@@VHeuristic_Euclid@@@@8 DD FLAT:??_R1A@?0A@EA@?$Graph_SearchAStar_TS@V?$SparseGraph@V?$NavGraphNode@PAV?$Trigger@VRaven_Bot@@@@@@VNavGraphEdge@@@@VHeuristic_Euclid@@@@8 ; Graph_SearchAStar_TS<SparseGraph<NavGraphNode<Trigger<Raven_Bot> *>,NavGraphEdge>,Heuristic_Euclid>::`RTTI Base Class Array'
	DD	FLAT:??_R1A@?0A@EA@?$Graph_SearchTimeSliced@VNavGraphEdge@@@@8
rdata$r	ENDS
;	COMDAT ??_R3?$Graph_SearchAStar_TS@V?$SparseGraph@V?$NavGraphNode@PAV?$Trigger@VRaven_Bot@@@@@@VNavGraphEdge@@@@VHeuristic_Euclid@@@@8
rdata$r	SEGMENT
??_R3?$Graph_SearchAStar_TS@V?$SparseGraph@V?$NavGraphNode@PAV?$Trigger@VRaven_Bot@@@@@@VNavGraphEdge@@@@VHeuristic_Euclid@@@@8 DD 00H ; Graph_SearchAStar_TS<SparseGraph<NavGraphNode<Trigger<Raven_Bot> *>,NavGraphEdge>,Heuristic_Euclid>::`RTTI Class Hierarchy Descriptor'
	DD	00H
	DD	02H
	DD	FLAT:??_R2?$Graph_SearchAStar_TS@V?$SparseGraph@V?$NavGraphNode@PAV?$Trigger@VRaven_Bot@@@@@@VNavGraphEdge@@@@VHeuristic_Euclid@@@@8
rdata$r	ENDS
;	COMDAT ??_R0?AV?$Graph_SearchAStar_TS@V?$SparseGraph@V?$NavGraphNode@PAV?$Trigger@VRaven_Bot@@@@@@VNavGraphEdge@@@@VHeuristic_Euclid@@@@@8
data$r	SEGMENT
??_R0?AV?$Graph_SearchAStar_TS@V?$SparseGraph@V?$NavGraphNode@PAV?$Trigger@VRaven_Bot@@@@@@VNavGraphEdge@@@@VHeuristic_Euclid@@@@@8 DD FLAT:??_7type_info@@6B@ ; Graph_SearchAStar_TS<SparseGraph<NavGraphNode<Trigger<Raven_Bot> *>,NavGraphEdge>,Heuristic_Euclid> `RTTI Type Descriptor'
	DD	00H
	DB	'.?AV?$Graph_SearchAStar_TS@V?$SparseGraph@V?$NavGraphNod'
	DB	'e@PAV?$Trigger@VRaven_Bot@@@@@@VNavGraphEdge@@@@VHeuristic_Eu'
	DB	'clid@@@@', 00H
data$r	ENDS
;	COMDAT ??_R4?$Graph_SearchAStar_TS@V?$SparseGraph@V?$NavGraphNode@PAV?$Trigger@VRaven_Bot@@@@@@VNavGraphEdge@@@@VHeuristic_Euclid@@@@6B@
rdata$r	SEGMENT
??_R4?$Graph_SearchAStar_TS@V?$SparseGraph@V?$NavGraphNode@PAV?$Trigger@VRaven_Bot@@@@@@VNavGraphEdge@@@@VHeuristic_Euclid@@@@6B@ DD 00H ; Graph_SearchAStar_TS<SparseGraph<NavGraphNode<Trigger<Raven_Bot> *>,NavGraphEdge>,Heuristic_Euclid>::`RTTI Complete Object Locator'
	DD	00H
	DD	00H
	DD	FLAT:??_R0?AV?$Graph_SearchAStar_TS@V?$SparseGraph@V?$NavGraphNode@PAV?$Trigger@VRaven_Bot@@@@@@VNavGraphEdge@@@@VHeuristic_Euclid@@@@@8
	DD	FLAT:??_R3?$Graph_SearchAStar_TS@V?$SparseGraph@V?$NavGraphNode@PAV?$Trigger@VRaven_Bot@@@@@@VNavGraphEdge@@@@VHeuristic_Euclid@@@@8
rdata$r	ENDS
;	COMDAT ??_R1A@?0A@EA@?$Graph_SearchTimeSliced@VNavGraphEdge@@@@8
rdata$r	SEGMENT
??_R1A@?0A@EA@?$Graph_SearchTimeSliced@VNavGraphEdge@@@@8 DD FLAT:??_R0?AV?$Graph_SearchTimeSliced@VNavGraphEdge@@@@@8 ; Graph_SearchTimeSliced<NavGraphEdge>::`RTTI Base Class Descriptor at (0,-1,0,64)'
	DD	00H
	DD	00H
	DD	0ffffffffH
	DD	00H
	DD	040H
	DD	FLAT:??_R3?$Graph_SearchTimeSliced@VNavGraphEdge@@@@8
rdata$r	ENDS
;	COMDAT ??_R2?$Graph_SearchTimeSliced@VNavGraphEdge@@@@8
rdata$r	SEGMENT
??_R2?$Graph_SearchTimeSliced@VNavGraphEdge@@@@8 DD FLAT:??_R1A@?0A@EA@?$Graph_SearchTimeSliced@VNavGraphEdge@@@@8 ; Graph_SearchTimeSliced<NavGraphEdge>::`RTTI Base Class Array'
rdata$r	ENDS
;	COMDAT ??_R3?$Graph_SearchTimeSliced@VNavGraphEdge@@@@8
rdata$r	SEGMENT
??_R3?$Graph_SearchTimeSliced@VNavGraphEdge@@@@8 DD 00H	; Graph_SearchTimeSliced<NavGraphEdge>::`RTTI Class Hierarchy Descriptor'
	DD	00H
	DD	01H
	DD	FLAT:??_R2?$Graph_SearchTimeSliced@VNavGraphEdge@@@@8
rdata$r	ENDS
;	COMDAT ??_R0?AV?$Graph_SearchTimeSliced@VNavGraphEdge@@@@@8
data$r	SEGMENT
??_R0?AV?$Graph_SearchTimeSliced@VNavGraphEdge@@@@@8 DD FLAT:??_7type_info@@6B@ ; Graph_SearchTimeSliced<NavGraphEdge> `RTTI Type Descriptor'
	DD	00H
	DB	'.?AV?$Graph_SearchTimeSliced@VNavGraphEdge@@@@', 00H
data$r	ENDS
;	COMDAT ??_R4?$Graph_SearchTimeSliced@VNavGraphEdge@@@@6B@
rdata$r	SEGMENT
??_R4?$Graph_SearchTimeSliced@VNavGraphEdge@@@@6B@ DD 00H ; Graph_SearchTimeSliced<NavGraphEdge>::`RTTI Complete Object Locator'
	DD	00H
	DD	00H
	DD	FLAT:??_R0?AV?$Graph_SearchTimeSliced@VNavGraphEdge@@@@@8
	DD	FLAT:??_R3?$Graph_SearchTimeSliced@VNavGraphEdge@@@@8
rdata$r	ENDS
;	COMDAT ??_R1A@?0A@EA@_System_error_category@std@@8
rdata$r	SEGMENT
??_R1A@?0A@EA@_System_error_category@std@@8 DD FLAT:??_R0?AV_System_error_category@std@@@8 ; std::_System_error_category::`RTTI Base Class Descriptor at (0,-1,0,64)'
	DD	02H
	DD	00H
	DD	0ffffffffH
	DD	00H
	DD	040H
	DD	FLAT:??_R3_System_error_category@std@@8
rdata$r	ENDS
;	COMDAT ??_R2_System_error_category@std@@8
rdata$r	SEGMENT
??_R2_System_error_category@std@@8 DD FLAT:??_R1A@?0A@EA@_System_error_category@std@@8 ; std::_System_error_category::`RTTI Base Class Array'
	DD	FLAT:??_R1A@?0A@EA@_Generic_error_category@std@@8
	DD	FLAT:??_R1A@?0A@EA@error_category@std@@8
rdata$r	ENDS
;	COMDAT ??_R3_System_error_category@std@@8
rdata$r	SEGMENT
??_R3_System_error_category@std@@8 DD 00H		; std::_System_error_category::`RTTI Class Hierarchy Descriptor'
	DD	00H
	DD	03H
	DD	FLAT:??_R2_System_error_category@std@@8
rdata$r	ENDS
;	COMDAT ??_R0?AV_System_error_category@std@@@8
data$r	SEGMENT
??_R0?AV_System_error_category@std@@@8 DD FLAT:??_7type_info@@6B@ ; std::_System_error_category `RTTI Type Descriptor'
	DD	00H
	DB	'.?AV_System_error_category@std@@', 00H
data$r	ENDS
;	COMDAT ??_R4_System_error_category@std@@6B@
rdata$r	SEGMENT
??_R4_System_error_category@std@@6B@ DD 00H		; std::_System_error_category::`RTTI Complete Object Locator'
	DD	00H
	DD	00H
	DD	FLAT:??_R0?AV_System_error_category@std@@@8
	DD	FLAT:??_R3_System_error_category@std@@8
rdata$r	ENDS
;	COMDAT ??_R1A@?0A@EA@_Iostream_error_category@std@@8
rdata$r	SEGMENT
??_R1A@?0A@EA@_Iostream_error_category@std@@8 DD FLAT:??_R0?AV_Iostream_error_category@std@@@8 ; std::_Iostream_error_category::`RTTI Base Class Descriptor at (0,-1,0,64)'
	DD	02H
	DD	00H
	DD	0ffffffffH
	DD	00H
	DD	040H
	DD	FLAT:??_R3_Iostream_error_category@std@@8
rdata$r	ENDS
;	COMDAT ??_R2_Iostream_error_category@std@@8
rdata$r	SEGMENT
??_R2_Iostream_error_category@std@@8 DD FLAT:??_R1A@?0A@EA@_Iostream_error_category@std@@8 ; std::_Iostream_error_category::`RTTI Base Class Array'
	DD	FLAT:??_R1A@?0A@EA@_Generic_error_category@std@@8
	DD	FLAT:??_R1A@?0A@EA@error_category@std@@8
rdata$r	ENDS
;	COMDAT ??_R3_Iostream_error_category@std@@8
rdata$r	SEGMENT
??_R3_Iostream_error_category@std@@8 DD 00H		; std::_Iostream_error_category::`RTTI Class Hierarchy Descriptor'
	DD	00H
	DD	03H
	DD	FLAT:??_R2_Iostream_error_category@std@@8
rdata$r	ENDS
;	COMDAT ??_R0?AV_Iostream_error_category@std@@@8
data$r	SEGMENT
??_R0?AV_Iostream_error_category@std@@@8 DD FLAT:??_7type_info@@6B@ ; std::_Iostream_error_category `RTTI Type Descriptor'
	DD	00H
	DB	'.?AV_Iostream_error_category@std@@', 00H
data$r	ENDS
;	COMDAT ??_R4_Iostream_error_category@std@@6B@
rdata$r	SEGMENT
??_R4_Iostream_error_category@std@@6B@ DD 00H		; std::_Iostream_error_category::`RTTI Complete Object Locator'
	DD	00H
	DD	00H
	DD	FLAT:??_R0?AV_Iostream_error_category@std@@@8
	DD	FLAT:??_R3_Iostream_error_category@std@@8
rdata$r	ENDS
;	COMDAT ??_R1A@?0A@EA@_Generic_error_category@std@@8
rdata$r	SEGMENT
??_R1A@?0A@EA@_Generic_error_category@std@@8 DD FLAT:??_R0?AV_Generic_error_category@std@@@8 ; std::_Generic_error_category::`RTTI Base Class Descriptor at (0,-1,0,64)'
	DD	01H
	DD	00H
	DD	0ffffffffH
	DD	00H
	DD	040H
	DD	FLAT:??_R3_Generic_error_category@std@@8
rdata$r	ENDS
;	COMDAT ??_R2_Generic_error_category@std@@8
rdata$r	SEGMENT
??_R2_Generic_error_category@std@@8 DD FLAT:??_R1A@?0A@EA@_Generic_error_category@std@@8 ; std::_Generic_error_category::`RTTI Base Class Array'
	DD	FLAT:??_R1A@?0A@EA@error_category@std@@8
rdata$r	ENDS
;	COMDAT ??_R3_Generic_error_category@std@@8
rdata$r	SEGMENT
??_R3_Generic_error_category@std@@8 DD 00H		; std::_Generic_error_category::`RTTI Class Hierarchy Descriptor'
	DD	00H
	DD	02H
	DD	FLAT:??_R2_Generic_error_category@std@@8
rdata$r	ENDS
;	COMDAT ??_R0?AV_Generic_error_category@std@@@8
data$r	SEGMENT
??_R0?AV_Generic_error_category@std@@@8 DD FLAT:??_7type_info@@6B@ ; std::_Generic_error_category `RTTI Type Descriptor'
	DD	00H
	DB	'.?AV_Generic_error_category@std@@', 00H
data$r	ENDS
;	COMDAT ??_R4_Generic_error_category@std@@6B@
rdata$r	SEGMENT
??_R4_Generic_error_category@std@@6B@ DD 00H		; std::_Generic_error_category::`RTTI Complete Object Locator'
	DD	00H
	DD	00H
	DD	FLAT:??_R0?AV_Generic_error_category@std@@@8
	DD	FLAT:??_R3_Generic_error_category@std@@8
rdata$r	ENDS
;	COMDAT ??_R1A@?0A@EA@error_category@std@@8
rdata$r	SEGMENT
??_R1A@?0A@EA@error_category@std@@8 DD FLAT:??_R0?AVerror_category@std@@@8 ; std::error_category::`RTTI Base Class Descriptor at (0,-1,0,64)'
	DD	00H
	DD	00H
	DD	0ffffffffH
	DD	00H
	DD	040H
	DD	FLAT:??_R3error_category@std@@8
rdata$r	ENDS
;	COMDAT ??_R2error_category@std@@8
rdata$r	SEGMENT
??_R2error_category@std@@8 DD FLAT:??_R1A@?0A@EA@error_category@std@@8 ; std::error_category::`RTTI Base Class Array'
rdata$r	ENDS
;	COMDAT ??_R3error_category@std@@8
rdata$r	SEGMENT
??_R3error_category@std@@8 DD 00H			; std::error_category::`RTTI Class Hierarchy Descriptor'
	DD	00H
	DD	01H
	DD	FLAT:??_R2error_category@std@@8
rdata$r	ENDS
;	COMDAT ??_R0?AVerror_category@std@@@8
data$r	SEGMENT
??_R0?AVerror_category@std@@@8 DD FLAT:??_7type_info@@6B@ ; std::error_category `RTTI Type Descriptor'
	DD	00H
	DB	'.?AVerror_category@std@@', 00H
data$r	ENDS
;	COMDAT ??_R4error_category@std@@6B@
rdata$r	SEGMENT
??_R4error_category@std@@6B@ DD 00H			; std::error_category::`RTTI Complete Object Locator'
	DD	00H
	DD	00H
	DD	FLAT:??_R0?AVerror_category@std@@@8
	DD	FLAT:??_R3error_category@std@@8
rdata$r	ENDS
;	COMDAT ??_C@_1IO@LKIDJAMC@?$AAC?$AA?3?$AA?2?$AAP?$AAr?$AAo?$AAg?$AAr?$AAa?$AAm?$AA?5?$AAF?$AAi?$AAl?$AAe?$AAs?$AA?5?$AA?$CI?$AAx?$AA8?$AA6?$AA?$CJ?$AA?2?$AAM?$AAi?$AAc?$AAr?$AAo?$AAs?$AAo?$AAf?$AAt@
CONST	SEGMENT
??_C@_1IO@LKIDJAMC@?$AAC?$AA?3?$AA?2?$AAP?$AAr?$AAo?$AAg?$AAr?$AAa?$AAm?$AA?5?$AAF?$AAi?$AAl?$AAe?$AAs?$AA?5?$AA?$CI?$AAx?$AA8?$AA6?$AA?$CJ?$AA?2?$AAM?$AAi?$AAc?$AAr?$AAo?$AAs?$AAo?$AAf?$AAt@ DB 'C'
	DB	00H, ':', 00H, '\', 00H, 'P', 00H, 'r', 00H, 'o', 00H, 'g', 00H
	DB	'r', 00H, 'a', 00H, 'm', 00H, ' ', 00H, 'F', 00H, 'i', 00H, 'l'
	DB	00H, 'e', 00H, 's', 00H, ' ', 00H, '(', 00H, 'x', 00H, '8', 00H
	DB	'6', 00H, ')', 00H, '\', 00H, 'M', 00H, 'i', 00H, 'c', 00H, 'r'
	DB	00H, 'o', 00H, 's', 00H, 'o', 00H, 'f', 00H, 't', 00H, ' ', 00H
	DB	'V', 00H, 'i', 00H, 's', 00H, 'u', 00H, 'a', 00H, 'l', 00H, ' '
	DB	00H, 'S', 00H, 't', 00H, 'u', 00H, 'd', 00H, 'i', 00H, 'o', 00H
	DB	' ', 00H, '1', 00H, '2', 00H, '.', 00H, '0', 00H, '\', 00H, 'V'
	DB	00H, 'C', 00H, '\', 00H, 'i', 00H, 'n', 00H, 'c', 00H, 'l', 00H
	DB	'u', 00H, 'd', 00H, 'e', 00H, '\', 00H, 'x', 00H, 'm', 00H, 'e'
	DB	00H, 'm', 00H, 'o', 00H, 'r', 00H, 'y', 00H, 00H, 00H ; `string'
CONST	ENDS
;	COMDAT ??_C@_1CO@DGLIKNHI@?$AAi?$AAn?$AAv?$AAa?$AAl?$AAi?$AAd?$AA?5?$AAi?$AAt?$AAe?$AAr?$AAa?$AAt?$AAo?$AAr?$AA?5?$AAr?$AAa?$AAn?$AAg?$AAe?$AA?$AA@
CONST	SEGMENT
??_C@_1CO@DGLIKNHI@?$AAi?$AAn?$AAv?$AAa?$AAl?$AAi?$AAd?$AA?5?$AAi?$AAt?$AAe?$AAr?$AAa?$AAt?$AAo?$AAr?$AA?5?$AAr?$AAa?$AAn?$AAg?$AAe?$AA?$AA@ DB 'i'
	DB	00H, 'n', 00H, 'v', 00H, 'a', 00H, 'l', 00H, 'i', 00H, 'd', 00H
	DB	' ', 00H, 'i', 00H, 't', 00H, 'e', 00H, 'r', 00H, 'a', 00H, 't'
	DB	00H, 'o', 00H, 'r', 00H, ' ', 00H, 'r', 00H, 'a', 00H, 'n', 00H
	DB	'g', 00H, 'e', 00H, 00H, 00H			; `string'
CONST	ENDS
;	COMDAT ??_C@_1BEA@ECIHAALN@?$AAs?$AAt?$AAd?$AA?3?$AA?3?$AA_?$AAV?$AAe?$AAc?$AAt?$AAo?$AAr?$AA_?$AAc?$AAo?$AAn?$AAs?$AAt?$AA_?$AAi?$AAt?$AAe?$AAr?$AAa?$AAt?$AAo?$AAr?$AA?$DM?$AAc?$AAl?$AAa?$AAs@
CONST	SEGMENT
??_C@_1BEA@ECIHAALN@?$AAs?$AAt?$AAd?$AA?3?$AA?3?$AA_?$AAV?$AAe?$AAc?$AAt?$AAo?$AAr?$AA_?$AAc?$AAo?$AAn?$AAs?$AAt?$AA_?$AAi?$AAt?$AAe?$AAr?$AAa?$AAt?$AAo?$AAr?$AA?$DM?$AAc?$AAl?$AAa?$AAs@ DB 's'
	DB	00H, 't', 00H, 'd', 00H, ':', 00H, ':', 00H, '_', 00H, 'V', 00H
	DB	'e', 00H, 'c', 00H, 't', 00H, 'o', 00H, 'r', 00H, '_', 00H, 'c'
	DB	00H, 'o', 00H, 'n', 00H, 's', 00H, 't', 00H, '_', 00H, 'i', 00H
	DB	't', 00H, 'e', 00H, 'r', 00H, 'a', 00H, 't', 00H, 'o', 00H, 'r'
	DB	00H, '<', 00H, 'c', 00H, 'l', 00H, 'a', 00H, 's', 00H, 's', 00H
	DB	' ', 00H, 's', 00H, 't', 00H, 'd', 00H, ':', 00H, ':', 00H, '_'
	DB	00H, 'V', 00H, 'e', 00H, 'c', 00H, 't', 00H, 'o', 00H, 'r', 00H
	DB	'_', 00H, 'v', 00H, 'a', 00H, 'l', 00H, '<', 00H, 's', 00H, 't'
	DB	00H, 'r', 00H, 'u', 00H, 'c', 00H, 't', 00H, ' ', 00H, 's', 00H
	DB	't', 00H, 'd', 00H, ':', 00H, ':', 00H, '_', 00H, 'S', 00H, 'i'
	DB	00H, 'm', 00H, 'p', 00H, 'l', 00H, 'e', 00H, '_', 00H, 't', 00H
	DB	'y', 00H, 'p', 00H, 'e', 00H, 's', 00H, '<', 00H, 's', 00H, 't'
	DB	00H, 'r', 00H, 'u', 00H, 'c', 00H, 't', 00H, ' ', 00H, 'C', 00H
	DB	'e', 00H, 'l', 00H, 'l', 00H, '<', 00H, 'c', 00H, 'l', 00H, 'a'
	DB	00H, 's', 00H, 's', 00H, ' ', 00H, 'N', 00H, 'a', 00H, 'v', 00H
	DB	'G', 00H, 'r', 00H, 'a', 00H, 'p', 00H, 'h', 00H, 'N', 00H, 'o'
	DB	00H, 'd', 00H, 'e', 00H, '<', 00H, 'c', 00H, 'l', 00H, 'a', 00H
	DB	's', 00H, 's', 00H, ' ', 00H, 'T', 00H, 'r', 00H, 'i', 00H, 'g'
	DB	00H, 'g', 00H, 'e', 00H, 'r', 00H, '<', 00H, 'c', 00H, 'l', 00H
	DB	'a', 00H, 's', 00H, 's', 00H, ' ', 00H, 'R', 00H, 'a', 00H, 'v'
	DB	00H, 'e', 00H, 'n', 00H, '_', 00H, 'B', 00H, 'o', 00H, 't', 00H
	DB	'>', 00H, ' ', 00H, '*', 00H, '>', 00H, ' ', 00H, '*', 00H, '>'
	DB	00H, ' ', 00H, '>', 00H, ' ', 00H, '>', 00H, ' ', 00H, '>', 00H
	DB	':', 00H, ':', 00H, '_', 00H, 'C', 00H, 'o', 00H, 'm', 00H, 'p'
	DB	00H, 'a', 00H, 't', 00H, 00H, 00H		; `string'
CONST	ENDS
;	COMDAT ??_C@_1BEG@DNGJMEKC@?$AAs?$AAt?$AAd?$AA?3?$AA?3?$AA_?$AAV?$AAe?$AAc?$AAt?$AAo?$AAr?$AA_?$AAc?$AAo?$AAn?$AAs?$AAt?$AA_?$AAi?$AAt?$AAe?$AAr?$AAa?$AAt?$AAo?$AAr?$AA?$DM?$AAc?$AAl?$AAa?$AAs@
CONST	SEGMENT
??_C@_1BEG@DNGJMEKC@?$AAs?$AAt?$AAd?$AA?3?$AA?3?$AA_?$AAV?$AAe?$AAc?$AAt?$AAo?$AAr?$AA_?$AAc?$AAo?$AAn?$AAs?$AAt?$AA_?$AAi?$AAt?$AAe?$AAr?$AAa?$AAt?$AAo?$AAr?$AA?$DM?$AAc?$AAl?$AAa?$AAs@ DB 's'
	DB	00H, 't', 00H, 'd', 00H, ':', 00H, ':', 00H, '_', 00H, 'V', 00H
	DB	'e', 00H, 'c', 00H, 't', 00H, 'o', 00H, 'r', 00H, '_', 00H, 'c'
	DB	00H, 'o', 00H, 'n', 00H, 's', 00H, 't', 00H, '_', 00H, 'i', 00H
	DB	't', 00H, 'e', 00H, 'r', 00H, 'a', 00H, 't', 00H, 'o', 00H, 'r'
	DB	00H, '<', 00H, 'c', 00H, 'l', 00H, 'a', 00H, 's', 00H, 's', 00H
	DB	' ', 00H, 's', 00H, 't', 00H, 'd', 00H, ':', 00H, ':', 00H, '_'
	DB	00H, 'V', 00H, 'e', 00H, 'c', 00H, 't', 00H, 'o', 00H, 'r', 00H
	DB	'_', 00H, 'v', 00H, 'a', 00H, 'l', 00H, '<', 00H, 's', 00H, 't'
	DB	00H, 'r', 00H, 'u', 00H, 'c', 00H, 't', 00H, ' ', 00H, 's', 00H
	DB	't', 00H, 'd', 00H, ':', 00H, ':', 00H, '_', 00H, 'S', 00H, 'i'
	DB	00H, 'm', 00H, 'p', 00H, 'l', 00H, 'e', 00H, '_', 00H, 't', 00H
	DB	'y', 00H, 'p', 00H, 'e', 00H, 's', 00H, '<', 00H, 's', 00H, 't'
	DB	00H, 'r', 00H, 'u', 00H, 'c', 00H, 't', 00H, ' ', 00H, 'C', 00H
	DB	'e', 00H, 'l', 00H, 'l', 00H, '<', 00H, 'c', 00H, 'l', 00H, 'a'
	DB	00H, 's', 00H, 's', 00H, ' ', 00H, 'N', 00H, 'a', 00H, 'v', 00H
	DB	'G', 00H, 'r', 00H, 'a', 00H, 'p', 00H, 'h', 00H, 'N', 00H, 'o'
	DB	00H, 'd', 00H, 'e', 00H, '<', 00H, 'c', 00H, 'l', 00H, 'a', 00H
	DB	's', 00H, 's', 00H, ' ', 00H, 'T', 00H, 'r', 00H, 'i', 00H, 'g'
	DB	00H, 'g', 00H, 'e', 00H, 'r', 00H, '<', 00H, 'c', 00H, 'l', 00H
	DB	'a', 00H, 's', 00H, 's', 00H, ' ', 00H, 'R', 00H, 'a', 00H, 'v'
	DB	00H, 'e', 00H, 'n', 00H, '_', 00H, 'B', 00H, 'o', 00H, 't', 00H
	DB	'>', 00H, ' ', 00H, '*', 00H, '>', 00H, ' ', 00H, '*', 00H, '>'
	DB	00H, ' ', 00H, '>', 00H, ' ', 00H, '>', 00H, ' ', 00H, '>', 00H
	DB	':', 00H, ':', 00H, 'o', 00H, 'p', 00H, 'e', 00H, 'r', 00H, 'a'
	DB	00H, 't', 00H, 'o', 00H, 'r', 00H, ' ', 00H, '*', 00H, 00H, 00H ; `string'
CONST	ENDS
;	COMDAT ??_C@_1PE@DFBLNDG@?$AAs?$AAt?$AAd?$AA?3?$AA?3?$AA_?$AAL?$AAi?$AAs?$AAt?$AA_?$AAc?$AAo?$AAn?$AAs?$AAt?$AA_?$AAi?$AAt?$AAe?$AAr?$AAa?$AAt?$AAo?$AAr?$AA?$DM?$AAc?$AAl?$AAa?$AAs?$AAs?$AA?5@
CONST	SEGMENT
??_C@_1PE@DFBLNDG@?$AAs?$AAt?$AAd?$AA?3?$AA?3?$AA_?$AAL?$AAi?$AAs?$AAt?$AA_?$AAc?$AAo?$AAn?$AAs?$AAt?$AA_?$AAi?$AAt?$AAe?$AAr?$AAa?$AAt?$AAo?$AAr?$AA?$DM?$AAc?$AAl?$AAa?$AAs?$AAs?$AA?5@ DB 's'
	DB	00H, 't', 00H, 'd', 00H, ':', 00H, ':', 00H, '_', 00H, 'L', 00H
	DB	'i', 00H, 's', 00H, 't', 00H, '_', 00H, 'c', 00H, 'o', 00H, 'n'
	DB	00H, 's', 00H, 't', 00H, '_', 00H, 'i', 00H, 't', 00H, 'e', 00H
	DB	'r', 00H, 'a', 00H, 't', 00H, 'o', 00H, 'r', 00H, '<', 00H, 'c'
	DB	00H, 'l', 00H, 'a', 00H, 's', 00H, 's', 00H, ' ', 00H, 's', 00H
	DB	't', 00H, 'd', 00H, ':', 00H, ':', 00H, '_', 00H, 'L', 00H, 'i'
	DB	00H, 's', 00H, 't', 00H, '_', 00H, 'v', 00H, 'a', 00H, 'l', 00H
	DB	'<', 00H, 's', 00H, 't', 00H, 'r', 00H, 'u', 00H, 'c', 00H, 't'
	DB	00H, ' ', 00H, 's', 00H, 't', 00H, 'd', 00H, ':', 00H, ':', 00H
	DB	'_', 00H, 'L', 00H, 'i', 00H, 's', 00H, 't', 00H, '_', 00H, 's'
	DB	00H, 'i', 00H, 'm', 00H, 'p', 00H, 'l', 00H, 'e', 00H, '_', 00H
	DB	't', 00H, 'y', 00H, 'p', 00H, 'e', 00H, 's', 00H, '<', 00H, 'c'
	DB	00H, 'l', 00H, 'a', 00H, 's', 00H, 's', 00H, ' ', 00H, 'R', 00H
	DB	'a', 00H, 'v', 00H, 'e', 00H, 'n', 00H, '_', 00H, 'P', 00H, 'a'
	DB	00H, 't', 00H, 'h', 00H, 'P', 00H, 'l', 00H, 'a', 00H, 'n', 00H
	DB	'n', 00H, 'e', 00H, 'r', 00H, ' ', 00H, '*', 00H, '>', 00H, ' '
	DB	00H, '>', 00H, ' ', 00H, '>', 00H, ':', 00H, ':', 00H, 'o', 00H
	DB	'p', 00H, 'e', 00H, 'r', 00H, 'a', 00H, 't', 00H, 'o', 00H, 'r'
	DB	00H, ' ', 00H, '+', 00H, '+', 00H, 00H, 00H	; `string'
CONST	ENDS
;	COMDAT ??_C@_1PC@CJNLBPAC@?$AAs?$AAt?$AAd?$AA?3?$AA?3?$AA_?$AAL?$AAi?$AAs?$AAt?$AA_?$AAc?$AAo?$AAn?$AAs?$AAt?$AA_?$AAi?$AAt?$AAe?$AAr?$AAa?$AAt?$AAo?$AAr?$AA?$DM?$AAc?$AAl?$AAa?$AAs?$AAs?$AA?5@
CONST	SEGMENT
??_C@_1PC@CJNLBPAC@?$AAs?$AAt?$AAd?$AA?3?$AA?3?$AA_?$AAL?$AAi?$AAs?$AAt?$AA_?$AAc?$AAo?$AAn?$AAs?$AAt?$AA_?$AAi?$AAt?$AAe?$AAr?$AAa?$AAt?$AAo?$AAr?$AA?$DM?$AAc?$AAl?$AAa?$AAs?$AAs?$AA?5@ DB 's'
	DB	00H, 't', 00H, 'd', 00H, ':', 00H, ':', 00H, '_', 00H, 'L', 00H
	DB	'i', 00H, 's', 00H, 't', 00H, '_', 00H, 'c', 00H, 'o', 00H, 'n'
	DB	00H, 's', 00H, 't', 00H, '_', 00H, 'i', 00H, 't', 00H, 'e', 00H
	DB	'r', 00H, 'a', 00H, 't', 00H, 'o', 00H, 'r', 00H, '<', 00H, 'c'
	DB	00H, 'l', 00H, 'a', 00H, 's', 00H, 's', 00H, ' ', 00H, 's', 00H
	DB	't', 00H, 'd', 00H, ':', 00H, ':', 00H, '_', 00H, 'L', 00H, 'i'
	DB	00H, 's', 00H, 't', 00H, '_', 00H, 'v', 00H, 'a', 00H, 'l', 00H
	DB	'<', 00H, 's', 00H, 't', 00H, 'r', 00H, 'u', 00H, 'c', 00H, 't'
	DB	00H, ' ', 00H, 's', 00H, 't', 00H, 'd', 00H, ':', 00H, ':', 00H
	DB	'_', 00H, 'L', 00H, 'i', 00H, 's', 00H, 't', 00H, '_', 00H, 's'
	DB	00H, 'i', 00H, 'm', 00H, 'p', 00H, 'l', 00H, 'e', 00H, '_', 00H
	DB	't', 00H, 'y', 00H, 'p', 00H, 'e', 00H, 's', 00H, '<', 00H, 'c'
	DB	00H, 'l', 00H, 'a', 00H, 's', 00H, 's', 00H, ' ', 00H, 'R', 00H
	DB	'a', 00H, 'v', 00H, 'e', 00H, 'n', 00H, '_', 00H, 'P', 00H, 'a'
	DB	00H, 't', 00H, 'h', 00H, 'P', 00H, 'l', 00H, 'a', 00H, 'n', 00H
	DB	'n', 00H, 'e', 00H, 'r', 00H, ' ', 00H, '*', 00H, '>', 00H, ' '
	DB	00H, '>', 00H, ' ', 00H, '>', 00H, ':', 00H, ':', 00H, 'o', 00H
	DB	'p', 00H, 'e', 00H, 'r', 00H, 'a', 00H, 't', 00H, 'o', 00H, 'r'
	DB	00H, ' ', 00H, '*', 00H, 00H, 00H		; `string'
CONST	ENDS
;	COMDAT ??_C@_1OG@CKJILIHG@?$AAs?$AAt?$AAd?$AA?3?$AA?3?$AA_?$AAL?$AAi?$AAs?$AAt?$AA_?$AAc?$AAo?$AAn?$AAs?$AAt?$AA_?$AAi?$AAt?$AAe?$AAr?$AAa?$AAt?$AAo?$AAr?$AA?$DM?$AAc?$AAl?$AAa?$AAs?$AAs?$AA?5@
CONST	SEGMENT
??_C@_1OG@CKJILIHG@?$AAs?$AAt?$AAd?$AA?3?$AA?3?$AA_?$AAL?$AAi?$AAs?$AAt?$AA_?$AAc?$AAo?$AAn?$AAs?$AAt?$AA_?$AAi?$AAt?$AAe?$AAr?$AAa?$AAt?$AAo?$AAr?$AA?$DM?$AAc?$AAl?$AAa?$AAs?$AAs?$AA?5@ DB 's'
	DB	00H, 't', 00H, 'd', 00H, ':', 00H, ':', 00H, '_', 00H, 'L', 00H
	DB	'i', 00H, 's', 00H, 't', 00H, '_', 00H, 'c', 00H, 'o', 00H, 'n'
	DB	00H, 's', 00H, 't', 00H, '_', 00H, 'i', 00H, 't', 00H, 'e', 00H
	DB	'r', 00H, 'a', 00H, 't', 00H, 'o', 00H, 'r', 00H, '<', 00H, 'c'
	DB	00H, 'l', 00H, 'a', 00H, 's', 00H, 's', 00H, ' ', 00H, 's', 00H
	DB	't', 00H, 'd', 00H, ':', 00H, ':', 00H, '_', 00H, 'L', 00H, 'i'
	DB	00H, 's', 00H, 't', 00H, '_', 00H, 'v', 00H, 'a', 00H, 'l', 00H
	DB	'<', 00H, 's', 00H, 't', 00H, 'r', 00H, 'u', 00H, 'c', 00H, 't'
	DB	00H, ' ', 00H, 's', 00H, 't', 00H, 'd', 00H, ':', 00H, ':', 00H
	DB	'_', 00H, 'L', 00H, 'i', 00H, 's', 00H, 't', 00H, '_', 00H, 's'
	DB	00H, 'i', 00H, 'm', 00H, 'p', 00H, 'l', 00H, 'e', 00H, '_', 00H
	DB	't', 00H, 'y', 00H, 'p', 00H, 'e', 00H, 's', 00H, '<', 00H, 'c'
	DB	00H, 'l', 00H, 'a', 00H, 's', 00H, 's', 00H, ' ', 00H, 'N', 00H
	DB	'a', 00H, 'v', 00H, 'G', 00H, 'r', 00H, 'a', 00H, 'p', 00H, 'h'
	DB	00H, 'E', 00H, 'd', 00H, 'g', 00H, 'e', 00H, '>', 00H, ' ', 00H
	DB	'>', 00H, ' ', 00H, '>', 00H, ':', 00H, ':', 00H, 'o', 00H, 'p'
	DB	00H, 'e', 00H, 'r', 00H, 'a', 00H, 't', 00H, 'o', 00H, 'r', 00H
	DB	' ', 00H, '=', 00H, '=', 00H, 00H, 00H	; `string'
CONST	ENDS
;	COMDAT ??_C@_1OG@IKGFFBLD@?$AAs?$AAt?$AAd?$AA?3?$AA?3?$AA_?$AAL?$AAi?$AAs?$AAt?$AA_?$AAc?$AAo?$AAn?$AAs?$AAt?$AA_?$AAi?$AAt?$AAe?$AAr?$AAa?$AAt?$AAo?$AAr?$AA?$DM?$AAc?$AAl?$AAa?$AAs?$AAs?$AA?5@
CONST	SEGMENT
??_C@_1OG@IKGFFBLD@?$AAs?$AAt?$AAd?$AA?3?$AA?3?$AA_?$AAL?$AAi?$AAs?$AAt?$AA_?$AAc?$AAo?$AAn?$AAs?$AAt?$AA_?$AAi?$AAt?$AAe?$AAr?$AAa?$AAt?$AAo?$AAr?$AA?$DM?$AAc?$AAl?$AAa?$AAs?$AAs?$AA?5@ DB 's'
	DB	00H, 't', 00H, 'd', 00H, ':', 00H, ':', 00H, '_', 00H, 'L', 00H
	DB	'i', 00H, 's', 00H, 't', 00H, '_', 00H, 'c', 00H, 'o', 00H, 'n'
	DB	00H, 's', 00H, 't', 00H, '_', 00H, 'i', 00H, 't', 00H, 'e', 00H
	DB	'r', 00H, 'a', 00H, 't', 00H, 'o', 00H, 'r', 00H, '<', 00H, 'c'
	DB	00H, 'l', 00H, 'a', 00H, 's', 00H, 's', 00H, ' ', 00H, 's', 00H
	DB	't', 00H, 'd', 00H, ':', 00H, ':', 00H, '_', 00H, 'L', 00H, 'i'
	DB	00H, 's', 00H, 't', 00H, '_', 00H, 'v', 00H, 'a', 00H, 'l', 00H
	DB	'<', 00H, 's', 00H, 't', 00H, 'r', 00H, 'u', 00H, 'c', 00H, 't'
	DB	00H, ' ', 00H, 's', 00H, 't', 00H, 'd', 00H, ':', 00H, ':', 00H
	DB	'_', 00H, 'L', 00H, 'i', 00H, 's', 00H, 't', 00H, '_', 00H, 's'
	DB	00H, 'i', 00H, 'm', 00H, 'p', 00H, 'l', 00H, 'e', 00H, '_', 00H
	DB	't', 00H, 'y', 00H, 'p', 00H, 'e', 00H, 's', 00H, '<', 00H, 'c'
	DB	00H, 'l', 00H, 'a', 00H, 's', 00H, 's', 00H, ' ', 00H, 'N', 00H
	DB	'a', 00H, 'v', 00H, 'G', 00H, 'r', 00H, 'a', 00H, 'p', 00H, 'h'
	DB	00H, 'E', 00H, 'd', 00H, 'g', 00H, 'e', 00H, '>', 00H, ' ', 00H
	DB	'>', 00H, ' ', 00H, '>', 00H, ':', 00H, ':', 00H, 'o', 00H, 'p'
	DB	00H, 'e', 00H, 'r', 00H, 'a', 00H, 't', 00H, 'o', 00H, 'r', 00H
	DB	' ', 00H, '+', 00H, '+', 00H, 00H, 00H	; `string'
CONST	ENDS
;	COMDAT ??_C@_1OE@FGJDIBAM@?$AAs?$AAt?$AAd?$AA?3?$AA?3?$AA_?$AAL?$AAi?$AAs?$AAt?$AA_?$AAc?$AAo?$AAn?$AAs?$AAt?$AA_?$AAi?$AAt?$AAe?$AAr?$AAa?$AAt?$AAo?$AAr?$AA?$DM?$AAc?$AAl?$AAa?$AAs?$AAs?$AA?5@
CONST	SEGMENT
??_C@_1OE@FGJDIBAM@?$AAs?$AAt?$AAd?$AA?3?$AA?3?$AA_?$AAL?$AAi?$AAs?$AAt?$AA_?$AAc?$AAo?$AAn?$AAs?$AAt?$AA_?$AAi?$AAt?$AAe?$AAr?$AAa?$AAt?$AAo?$AAr?$AA?$DM?$AAc?$AAl?$AAa?$AAs?$AAs?$AA?5@ DB 's'
	DB	00H, 't', 00H, 'd', 00H, ':', 00H, ':', 00H, '_', 00H, 'L', 00H
	DB	'i', 00H, 's', 00H, 't', 00H, '_', 00H, 'c', 00H, 'o', 00H, 'n'
	DB	00H, 's', 00H, 't', 00H, '_', 00H, 'i', 00H, 't', 00H, 'e', 00H
	DB	'r', 00H, 'a', 00H, 't', 00H, 'o', 00H, 'r', 00H, '<', 00H, 'c'
	DB	00H, 'l', 00H, 'a', 00H, 's', 00H, 's', 00H, ' ', 00H, 's', 00H
	DB	't', 00H, 'd', 00H, ':', 00H, ':', 00H, '_', 00H, 'L', 00H, 'i'
	DB	00H, 's', 00H, 't', 00H, '_', 00H, 'v', 00H, 'a', 00H, 'l', 00H
	DB	'<', 00H, 's', 00H, 't', 00H, 'r', 00H, 'u', 00H, 'c', 00H, 't'
	DB	00H, ' ', 00H, 's', 00H, 't', 00H, 'd', 00H, ':', 00H, ':', 00H
	DB	'_', 00H, 'L', 00H, 'i', 00H, 's', 00H, 't', 00H, '_', 00H, 's'
	DB	00H, 'i', 00H, 'm', 00H, 'p', 00H, 'l', 00H, 'e', 00H, '_', 00H
	DB	't', 00H, 'y', 00H, 'p', 00H, 'e', 00H, 's', 00H, '<', 00H, 'c'
	DB	00H, 'l', 00H, 'a', 00H, 's', 00H, 's', 00H, ' ', 00H, 'N', 00H
	DB	'a', 00H, 'v', 00H, 'G', 00H, 'r', 00H, 'a', 00H, 'p', 00H, 'h'
	DB	00H, 'E', 00H, 'd', 00H, 'g', 00H, 'e', 00H, '>', 00H, ' ', 00H
	DB	'>', 00H, ' ', 00H, '>', 00H, ':', 00H, ':', 00H, 'o', 00H, 'p'
	DB	00H, 'e', 00H, 'r', 00H, 'a', 00H, 't', 00H, 'o', 00H, 'r', 00H
	DB	' ', 00H, '*', 00H, 00H, 00H			; `string'
CONST	ENDS
;	COMDAT ??_C@_1BCO@KODNABBE@?$AAs?$AAt?$AAd?$AA?3?$AA?3?$AA_?$AAL?$AAi?$AAs?$AAt?$AA_?$AAc?$AAo?$AAn?$AAs?$AAt?$AA_?$AAi?$AAt?$AAe?$AAr?$AAa?$AAt?$AAo?$AAr?$AA?$DM?$AAc?$AAl?$AAa?$AAs?$AAs?$AA?5@
CONST	SEGMENT
??_C@_1BCO@KODNABBE@?$AAs?$AAt?$AAd?$AA?3?$AA?3?$AA_?$AAL?$AAi?$AAs?$AAt?$AA_?$AAc?$AAo?$AAn?$AAs?$AAt?$AA_?$AAi?$AAt?$AAe?$AAr?$AAa?$AAt?$AAo?$AAr?$AA?$DM?$AAc?$AAl?$AAa?$AAs?$AAs?$AA?5@ DB 's'
	DB	00H, 't', 00H, 'd', 00H, ':', 00H, ':', 00H, '_', 00H, 'L', 00H
	DB	'i', 00H, 's', 00H, 't', 00H, '_', 00H, 'c', 00H, 'o', 00H, 'n'
	DB	00H, 's', 00H, 't', 00H, '_', 00H, 'i', 00H, 't', 00H, 'e', 00H
	DB	'r', 00H, 'a', 00H, 't', 00H, 'o', 00H, 'r', 00H, '<', 00H, 'c'
	DB	00H, 'l', 00H, 'a', 00H, 's', 00H, 's', 00H, ' ', 00H, 's', 00H
	DB	't', 00H, 'd', 00H, ':', 00H, ':', 00H, '_', 00H, 'L', 00H, 'i'
	DB	00H, 's', 00H, 't', 00H, '_', 00H, 'v', 00H, 'a', 00H, 'l', 00H
	DB	'<', 00H, 's', 00H, 't', 00H, 'r', 00H, 'u', 00H, 'c', 00H, 't'
	DB	00H, ' ', 00H, 's', 00H, 't', 00H, 'd', 00H, ':', 00H, ':', 00H
	DB	'_', 00H, 'L', 00H, 'i', 00H, 's', 00H, 't', 00H, '_', 00H, 's'
	DB	00H, 'i', 00H, 'm', 00H, 'p', 00H, 'l', 00H, 'e', 00H, '_', 00H
	DB	't', 00H, 'y', 00H, 'p', 00H, 'e', 00H, 's', 00H, '<', 00H, 'c'
	DB	00H, 'l', 00H, 'a', 00H, 's', 00H, 's', 00H, ' ', 00H, 'N', 00H
	DB	'a', 00H, 'v', 00H, 'G', 00H, 'r', 00H, 'a', 00H, 'p', 00H, 'h'
	DB	00H, 'N', 00H, 'o', 00H, 'd', 00H, 'e', 00H, '<', 00H, 'c', 00H
	DB	'l', 00H, 'a', 00H, 's', 00H, 's', 00H, ' ', 00H, 'T', 00H, 'r'
	DB	00H, 'i', 00H, 'g', 00H, 'g', 00H, 'e', 00H, 'r', 00H, '<', 00H
	DB	'c', 00H, 'l', 00H, 'a', 00H, 's', 00H, 's', 00H, ' ', 00H, 'R'
	DB	00H, 'a', 00H, 'v', 00H, 'e', 00H, 'n', 00H, '_', 00H, 'B', 00H
	DB	'o', 00H, 't', 00H, '>', 00H, ' ', 00H, '*', 00H, '>', 00H, ' '
	DB	00H, '*', 00H, '>', 00H, ' ', 00H, '>', 00H, ' ', 00H, '>', 00H
	DB	':', 00H, ':', 00H, 'o', 00H, 'p', 00H, 'e', 00H, 'r', 00H, 'a'
	DB	00H, 't', 00H, 'o', 00H, 'r', 00H, ' ', 00H, '=', 00H, '=', 00H
	DB	00H, 00H					; `string'
CONST	ENDS
;	COMDAT ??_C@_1BCO@OMAOINB@?$AAs?$AAt?$AAd?$AA?3?$AA?3?$AA_?$AAL?$AAi?$AAs?$AAt?$AA_?$AAc?$AAo?$AAn?$AAs?$AAt?$AA_?$AAi?$AAt?$AAe?$AAr?$AAa?$AAt?$AAo?$AAr?$AA?$DM?$AAc?$AAl?$AAa?$AAs?$AAs?$AA?5@
CONST	SEGMENT
??_C@_1BCO@OMAOINB@?$AAs?$AAt?$AAd?$AA?3?$AA?3?$AA_?$AAL?$AAi?$AAs?$AAt?$AA_?$AAc?$AAo?$AAn?$AAs?$AAt?$AA_?$AAi?$AAt?$AAe?$AAr?$AAa?$AAt?$AAo?$AAr?$AA?$DM?$AAc?$AAl?$AAa?$AAs?$AAs?$AA?5@ DB 's'
	DB	00H, 't', 00H, 'd', 00H, ':', 00H, ':', 00H, '_', 00H, 'L', 00H
	DB	'i', 00H, 's', 00H, 't', 00H, '_', 00H, 'c', 00H, 'o', 00H, 'n'
	DB	00H, 's', 00H, 't', 00H, '_', 00H, 'i', 00H, 't', 00H, 'e', 00H
	DB	'r', 00H, 'a', 00H, 't', 00H, 'o', 00H, 'r', 00H, '<', 00H, 'c'
	DB	00H, 'l', 00H, 'a', 00H, 's', 00H, 's', 00H, ' ', 00H, 's', 00H
	DB	't', 00H, 'd', 00H, ':', 00H, ':', 00H, '_', 00H, 'L', 00H, 'i'
	DB	00H, 's', 00H, 't', 00H, '_', 00H, 'v', 00H, 'a', 00H, 'l', 00H
	DB	'<', 00H, 's', 00H, 't', 00H, 'r', 00H, 'u', 00H, 'c', 00H, 't'
	DB	00H, ' ', 00H, 's', 00H, 't', 00H, 'd', 00H, ':', 00H, ':', 00H
	DB	'_', 00H, 'L', 00H, 'i', 00H, 's', 00H, 't', 00H, '_', 00H, 's'
	DB	00H, 'i', 00H, 'm', 00H, 'p', 00H, 'l', 00H, 'e', 00H, '_', 00H
	DB	't', 00H, 'y', 00H, 'p', 00H, 'e', 00H, 's', 00H, '<', 00H, 'c'
	DB	00H, 'l', 00H, 'a', 00H, 's', 00H, 's', 00H, ' ', 00H, 'N', 00H
	DB	'a', 00H, 'v', 00H, 'G', 00H, 'r', 00H, 'a', 00H, 'p', 00H, 'h'
	DB	00H, 'N', 00H, 'o', 00H, 'd', 00H, 'e', 00H, '<', 00H, 'c', 00H
	DB	'l', 00H, 'a', 00H, 's', 00H, 's', 00H, ' ', 00H, 'T', 00H, 'r'
	DB	00H, 'i', 00H, 'g', 00H, 'g', 00H, 'e', 00H, 'r', 00H, '<', 00H
	DB	'c', 00H, 'l', 00H, 'a', 00H, 's', 00H, 's', 00H, ' ', 00H, 'R'
	DB	00H, 'a', 00H, 'v', 00H, 'e', 00H, 'n', 00H, '_', 00H, 'B', 00H
	DB	'o', 00H, 't', 00H, '>', 00H, ' ', 00H, '*', 00H, '>', 00H, ' '
	DB	00H, '*', 00H, '>', 00H, ' ', 00H, '>', 00H, ' ', 00H, '>', 00H
	DB	':', 00H, ':', 00H, 'o', 00H, 'p', 00H, 'e', 00H, 'r', 00H, 'a'
	DB	00H, 't', 00H, 'o', 00H, 'r', 00H, ' ', 00H, '+', 00H, '+', 00H
	DB	00H, 00H					; `string'
CONST	ENDS
;	COMDAT ??_C@_1BCM@KPIKOJFJ@?$AAs?$AAt?$AAd?$AA?3?$AA?3?$AA_?$AAL?$AAi?$AAs?$AAt?$AA_?$AAc?$AAo?$AAn?$AAs?$AAt?$AA_?$AAi?$AAt?$AAe?$AAr?$AAa?$AAt?$AAo?$AAr?$AA?$DM?$AAc?$AAl?$AAa?$AAs?$AAs?$AA?5@
CONST	SEGMENT
??_C@_1BCM@KPIKOJFJ@?$AAs?$AAt?$AAd?$AA?3?$AA?3?$AA_?$AAL?$AAi?$AAs?$AAt?$AA_?$AAc?$AAo?$AAn?$AAs?$AAt?$AA_?$AAi?$AAt?$AAe?$AAr?$AAa?$AAt?$AAo?$AAr?$AA?$DM?$AAc?$AAl?$AAa?$AAs?$AAs?$AA?5@ DB 's'
	DB	00H, 't', 00H, 'd', 00H, ':', 00H, ':', 00H, '_', 00H, 'L', 00H
	DB	'i', 00H, 's', 00H, 't', 00H, '_', 00H, 'c', 00H, 'o', 00H, 'n'
	DB	00H, 's', 00H, 't', 00H, '_', 00H, 'i', 00H, 't', 00H, 'e', 00H
	DB	'r', 00H, 'a', 00H, 't', 00H, 'o', 00H, 'r', 00H, '<', 00H, 'c'
	DB	00H, 'l', 00H, 'a', 00H, 's', 00H, 's', 00H, ' ', 00H, 's', 00H
	DB	't', 00H, 'd', 00H, ':', 00H, ':', 00H, '_', 00H, 'L', 00H, 'i'
	DB	00H, 's', 00H, 't', 00H, '_', 00H, 'v', 00H, 'a', 00H, 'l', 00H
	DB	'<', 00H, 's', 00H, 't', 00H, 'r', 00H, 'u', 00H, 'c', 00H, 't'
	DB	00H, ' ', 00H, 's', 00H, 't', 00H, 'd', 00H, ':', 00H, ':', 00H
	DB	'_', 00H, 'L', 00H, 'i', 00H, 's', 00H, 't', 00H, '_', 00H, 's'
	DB	00H, 'i', 00H, 'm', 00H, 'p', 00H, 'l', 00H, 'e', 00H, '_', 00H
	DB	't', 00H, 'y', 00H, 'p', 00H, 'e', 00H, 's', 00H, '<', 00H, 'c'
	DB	00H, 'l', 00H, 'a', 00H, 's', 00H, 's', 00H, ' ', 00H, 'N', 00H
	DB	'a', 00H, 'v', 00H, 'G', 00H, 'r', 00H, 'a', 00H, 'p', 00H, 'h'
	DB	00H, 'N', 00H, 'o', 00H, 'd', 00H, 'e', 00H, '<', 00H, 'c', 00H
	DB	'l', 00H, 'a', 00H, 's', 00H, 's', 00H, ' ', 00H, 'T', 00H, 'r'
	DB	00H, 'i', 00H, 'g', 00H, 'g', 00H, 'e', 00H, 'r', 00H, '<', 00H
	DB	'c', 00H, 'l', 00H, 'a', 00H, 's', 00H, 's', 00H, ' ', 00H, 'R'
	DB	00H, 'a', 00H, 'v', 00H, 'e', 00H, 'n', 00H, '_', 00H, 'B', 00H
	DB	'o', 00H, 't', 00H, '>', 00H, ' ', 00H, '*', 00H, '>', 00H, ' '
	DB	00H, '*', 00H, '>', 00H, ' ', 00H, '>', 00H, ' ', 00H, '>', 00H
	DB	':', 00H, ':', 00H, 'o', 00H, 'p', 00H, 'e', 00H, 'r', 00H, 'a'
	DB	00H, 't', 00H, 'o', 00H, 'r', 00H, ' ', 00H, '*', 00H, 00H, 00H ; `string'
CONST	ENDS
;	COMDAT ??_C@_1BEI@LMFHBODB@?$AAs?$AAt?$AAd?$AA?3?$AA?3?$AA_?$AAV?$AAe?$AAc?$AAt?$AAo?$AAr?$AA_?$AAc?$AAo?$AAn?$AAs?$AAt?$AA_?$AAi?$AAt?$AAe?$AAr?$AAa?$AAt?$AAo?$AAr?$AA?$DM?$AAc?$AAl?$AAa?$AAs@
CONST	SEGMENT
??_C@_1BEI@LMFHBODB@?$AAs?$AAt?$AAd?$AA?3?$AA?3?$AA_?$AAV?$AAe?$AAc?$AAt?$AAo?$AAr?$AA_?$AAc?$AAo?$AAn?$AAs?$AAt?$AA_?$AAi?$AAt?$AAe?$AAr?$AAa?$AAt?$AAo?$AAr?$AA?$DM?$AAc?$AAl?$AAa?$AAs@ DB 's'
	DB	00H, 't', 00H, 'd', 00H, ':', 00H, ':', 00H, '_', 00H, 'V', 00H
	DB	'e', 00H, 'c', 00H, 't', 00H, 'o', 00H, 'r', 00H, '_', 00H, 'c'
	DB	00H, 'o', 00H, 'n', 00H, 's', 00H, 't', 00H, '_', 00H, 'i', 00H
	DB	't', 00H, 'e', 00H, 'r', 00H, 'a', 00H, 't', 00H, 'o', 00H, 'r'
	DB	00H, '<', 00H, 'c', 00H, 'l', 00H, 'a', 00H, 's', 00H, 's', 00H
	DB	' ', 00H, 's', 00H, 't', 00H, 'd', 00H, ':', 00H, ':', 00H, '_'
	DB	00H, 'V', 00H, 'e', 00H, 'c', 00H, 't', 00H, 'o', 00H, 'r', 00H
	DB	'_', 00H, 'v', 00H, 'a', 00H, 'l', 00H, '<', 00H, 's', 00H, 't'
	DB	00H, 'r', 00H, 'u', 00H, 'c', 00H, 't', 00H, ' ', 00H, 's', 00H
	DB	't', 00H, 'd', 00H, ':', 00H, ':', 00H, '_', 00H, 'S', 00H, 'i'
	DB	00H, 'm', 00H, 'p', 00H, 'l', 00H, 'e', 00H, '_', 00H, 't', 00H
	DB	'y', 00H, 'p', 00H, 'e', 00H, 's', 00H, '<', 00H, 's', 00H, 't'
	DB	00H, 'r', 00H, 'u', 00H, 'c', 00H, 't', 00H, ' ', 00H, 'C', 00H
	DB	'e', 00H, 'l', 00H, 'l', 00H, '<', 00H, 'c', 00H, 'l', 00H, 'a'
	DB	00H, 's', 00H, 's', 00H, ' ', 00H, 'N', 00H, 'a', 00H, 'v', 00H
	DB	'G', 00H, 'r', 00H, 'a', 00H, 'p', 00H, 'h', 00H, 'N', 00H, 'o'
	DB	00H, 'd', 00H, 'e', 00H, '<', 00H, 'c', 00H, 'l', 00H, 'a', 00H
	DB	's', 00H, 's', 00H, ' ', 00H, 'T', 00H, 'r', 00H, 'i', 00H, 'g'
	DB	00H, 'g', 00H, 'e', 00H, 'r', 00H, '<', 00H, 'c', 00H, 'l', 00H
	DB	'a', 00H, 's', 00H, 's', 00H, ' ', 00H, 'R', 00H, 'a', 00H, 'v'
	DB	00H, 'e', 00H, 'n', 00H, '_', 00H, 'B', 00H, 'o', 00H, 't', 00H
	DB	'>', 00H, ' ', 00H, '*', 00H, '>', 00H, ' ', 00H, '*', 00H, '>'
	DB	00H, ' ', 00H, '>', 00H, ' ', 00H, '>', 00H, ' ', 00H, '>', 00H
	DB	':', 00H, ':', 00H, 'o', 00H, 'p', 00H, 'e', 00H, 'r', 00H, 'a'
	DB	00H, 't', 00H, 'o', 00H, 'r', 00H, ' ', 00H, '+', 00H, '+', 00H
	DB	00H, 00H					; `string'
CONST	ENDS
;	COMDAT ??_C@_1BJM@IJPNJFA@?$AAs?$AAt?$AAd?$AA?3?$AA?3?$AAv?$AAe?$AAc?$AAt?$AAo?$AAr?$AA?$DM?$AAc?$AAl?$AAa?$AAs?$AAs?$AA?5?$AAs?$AAt?$AAd?$AA?3?$AA?3?$AAl?$AAi?$AAs?$AAt?$AA?$DM?$AAc?$AAl?$AAa?$AAs@
CONST	SEGMENT
??_C@_1BJM@IJPNJFA@?$AAs?$AAt?$AAd?$AA?3?$AA?3?$AAv?$AAe?$AAc?$AAt?$AAo?$AAr?$AA?$DM?$AAc?$AAl?$AAa?$AAs?$AAs?$AA?5?$AAs?$AAt?$AAd?$AA?3?$AA?3?$AAl?$AAi?$AAs?$AAt?$AA?$DM?$AAc?$AAl?$AAa?$AAs@ DB 's'
	DB	00H, 't', 00H, 'd', 00H, ':', 00H, ':', 00H, 'v', 00H, 'e', 00H
	DB	'c', 00H, 't', 00H, 'o', 00H, 'r', 00H, '<', 00H, 'c', 00H, 'l'
	DB	00H, 'a', 00H, 's', 00H, 's', 00H, ' ', 00H, 's', 00H, 't', 00H
	DB	'd', 00H, ':', 00H, ':', 00H, 'l', 00H, 'i', 00H, 's', 00H, 't'
	DB	00H, '<', 00H, 'c', 00H, 'l', 00H, 'a', 00H, 's', 00H, 's', 00H
	DB	' ', 00H, 'N', 00H, 'a', 00H, 'v', 00H, 'G', 00H, 'r', 00H, 'a'
	DB	00H, 'p', 00H, 'h', 00H, 'E', 00H, 'd', 00H, 'g', 00H, 'e', 00H
	DB	',', 00H, 'c', 00H, 'l', 00H, 'a', 00H, 's', 00H, 's', 00H, ' '
	DB	00H, 's', 00H, 't', 00H, 'd', 00H, ':', 00H, ':', 00H, 'a', 00H
	DB	'l', 00H, 'l', 00H, 'o', 00H, 'c', 00H, 'a', 00H, 't', 00H, 'o'
	DB	00H, 'r', 00H, '<', 00H, 'c', 00H, 'l', 00H, 'a', 00H, 's', 00H
	DB	's', 00H, ' ', 00H, 'N', 00H, 'a', 00H, 'v', 00H, 'G', 00H, 'r'
	DB	00H, 'a', 00H, 'p', 00H, 'h', 00H, 'E', 00H, 'd', 00H, 'g', 00H
	DB	'e', 00H, '>', 00H, ' ', 00H, '>', 00H, ',', 00H, 'c', 00H, 'l'
	DB	00H, 'a', 00H, 's', 00H, 's', 00H, ' ', 00H, 's', 00H, 't', 00H
	DB	'd', 00H, ':', 00H, ':', 00H, 'a', 00H, 'l', 00H, 'l', 00H, 'o'
	DB	00H, 'c', 00H, 'a', 00H, 't', 00H, 'o', 00H, 'r', 00H, '<', 00H
	DB	'c', 00H, 'l', 00H, 'a', 00H, 's', 00H, 's', 00H, ' ', 00H, 's'
	DB	00H, 't', 00H, 'd', 00H, ':', 00H, ':', 00H, 'l', 00H, 'i', 00H
	DB	's', 00H, 't', 00H, '<', 00H, 'c', 00H, 'l', 00H, 'a', 00H, 's'
	DB	00H, 's', 00H, ' ', 00H, 'N', 00H, 'a', 00H, 'v', 00H, 'G', 00H
	DB	'r', 00H, 'a', 00H, 'p', 00H, 'h', 00H, 'E', 00H, 'd', 00H, 'g'
	DB	00H, 'e', 00H, ',', 00H, 'c', 00H, 'l', 00H, 'a', 00H, 's', 00H
	DB	's', 00H, ' ', 00H, 's', 00H, 't', 00H, 'd', 00H, ':', 00H, ':'
	DB	00H, 'a', 00H, 'l', 00H, 'l', 00H, 'o', 00H, 'c', 00H, 'a', 00H
	DB	't', 00H, 'o', 00H, 'r', 00H, '<', 00H, 'c', 00H, 'l', 00H, 'a'
	DB	00H, 's', 00H, 's', 00H, ' ', 00H, 'N', 00H, 'a', 00H, 'v', 00H
	DB	'G', 00H, 'r', 00H, 'a', 00H, 'p', 00H, 'h', 00H, 'E', 00H, 'd'
	DB	00H, 'g', 00H, 'e', 00H, '>', 00H, ' ', 00H, '>', 00H, ' ', 00H
	DB	'>', 00H, ' ', 00H, '>', 00H, ':', 00H, ':', 00H, 'o', 00H, 'p'
	DB	00H, 'e', 00H, 'r', 00H, 'a', 00H, 't', 00H, 'o', 00H, 'r', 00H
	DB	' ', 00H, '[', 00H, ']', 00H, 00H, 00H	; `string'
CONST	ENDS
;	COMDAT ??_C@_1PE@KDKMFEPD@?$AAs?$AAt?$AAd?$AA?3?$AA?3?$AA_?$AAL?$AAi?$AAs?$AAt?$AA_?$AAc?$AAo?$AAn?$AAs?$AAt?$AA_?$AAi?$AAt?$AAe?$AAr?$AAa?$AAt?$AAo?$AAr?$AA?$DM?$AAc?$AAl?$AAa?$AAs?$AAs?$AA?5@
CONST	SEGMENT
??_C@_1PE@KDKMFEPD@?$AAs?$AAt?$AAd?$AA?3?$AA?3?$AA_?$AAL?$AAi?$AAs?$AAt?$AA_?$AAc?$AAo?$AAn?$AAs?$AAt?$AA_?$AAi?$AAt?$AAe?$AAr?$AAa?$AAt?$AAo?$AAr?$AA?$DM?$AAc?$AAl?$AAa?$AAs?$AAs?$AA?5@ DB 's'
	DB	00H, 't', 00H, 'd', 00H, ':', 00H, ':', 00H, '_', 00H, 'L', 00H
	DB	'i', 00H, 's', 00H, 't', 00H, '_', 00H, 'c', 00H, 'o', 00H, 'n'
	DB	00H, 's', 00H, 't', 00H, '_', 00H, 'i', 00H, 't', 00H, 'e', 00H
	DB	'r', 00H, 'a', 00H, 't', 00H, 'o', 00H, 'r', 00H, '<', 00H, 'c'
	DB	00H, 'l', 00H, 'a', 00H, 's', 00H, 's', 00H, ' ', 00H, 's', 00H
	DB	't', 00H, 'd', 00H, ':', 00H, ':', 00H, '_', 00H, 'L', 00H, 'i'
	DB	00H, 's', 00H, 't', 00H, '_', 00H, 'v', 00H, 'a', 00H, 'l', 00H
	DB	'<', 00H, 's', 00H, 't', 00H, 'r', 00H, 'u', 00H, 'c', 00H, 't'
	DB	00H, ' ', 00H, 's', 00H, 't', 00H, 'd', 00H, ':', 00H, ':', 00H
	DB	'_', 00H, 'L', 00H, 'i', 00H, 's', 00H, 't', 00H, '_', 00H, 's'
	DB	00H, 'i', 00H, 'm', 00H, 'p', 00H, 'l', 00H, 'e', 00H, '_', 00H
	DB	't', 00H, 'y', 00H, 'p', 00H, 'e', 00H, 's', 00H, '<', 00H, 'c'
	DB	00H, 'l', 00H, 'a', 00H, 's', 00H, 's', 00H, ' ', 00H, 'R', 00H
	DB	'a', 00H, 'v', 00H, 'e', 00H, 'n', 00H, '_', 00H, 'P', 00H, 'a'
	DB	00H, 't', 00H, 'h', 00H, 'P', 00H, 'l', 00H, 'a', 00H, 'n', 00H
	DB	'n', 00H, 'e', 00H, 'r', 00H, ' ', 00H, '*', 00H, '>', 00H, ' '
	DB	00H, '>', 00H, ' ', 00H, '>', 00H, ':', 00H, ':', 00H, 'o', 00H
	DB	'p', 00H, 'e', 00H, 'r', 00H, 'a', 00H, 't', 00H, 'o', 00H, 'r'
	DB	00H, ' ', 00H, '=', 00H, '=', 00H, 00H, 00H	; `string'
CONST	ENDS
;	COMDAT ??_C@_1MO@IGMNEFGG@?$AAs?$AAt?$AAd?$AA?3?$AA?3?$AAv?$AAe?$AAc?$AAt?$AAo?$AAr?$AA?$DM?$AAc?$AAl?$AAa?$AAs?$AAs?$AA?5?$AAN?$AAa?$AAv?$AAG?$AAr?$AAa?$AAp?$AAh?$AAE?$AAd?$AAg?$AAe?$AA?5?$AAc@
CONST	SEGMENT
??_C@_1MO@IGMNEFGG@?$AAs?$AAt?$AAd?$AA?3?$AA?3?$AAv?$AAe?$AAc?$AAt?$AAo?$AAr?$AA?$DM?$AAc?$AAl?$AAa?$AAs?$AAs?$AA?5?$AAN?$AAa?$AAv?$AAG?$AAr?$AAa?$AAp?$AAh?$AAE?$AAd?$AAg?$AAe?$AA?5?$AAc@ DB 's'
	DB	00H, 't', 00H, 'd', 00H, ':', 00H, ':', 00H, 'v', 00H, 'e', 00H
	DB	'c', 00H, 't', 00H, 'o', 00H, 'r', 00H, '<', 00H, 'c', 00H, 'l'
	DB	00H, 'a', 00H, 's', 00H, 's', 00H, ' ', 00H, 'N', 00H, 'a', 00H
	DB	'v', 00H, 'G', 00H, 'r', 00H, 'a', 00H, 'p', 00H, 'h', 00H, 'E'
	DB	00H, 'd', 00H, 'g', 00H, 'e', 00H, ' ', 00H, 'c', 00H, 'o', 00H
	DB	'n', 00H, 's', 00H, 't', 00H, ' ', 00H, '*', 00H, ',', 00H, 'c'
	DB	00H, 'l', 00H, 'a', 00H, 's', 00H, 's', 00H, ' ', 00H, 's', 00H
	DB	't', 00H, 'd', 00H, ':', 00H, ':', 00H, 'a', 00H, 'l', 00H, 'l'
	DB	00H, 'o', 00H, 'c', 00H, 'a', 00H, 't', 00H, 'o', 00H, 'r', 00H
	DB	'<', 00H, 'c', 00H, 'l', 00H, 'a', 00H, 's', 00H, 's', 00H, ' '
	DB	00H, 'N', 00H, 'a', 00H, 'v', 00H, 'G', 00H, 'r', 00H, 'a', 00H
	DB	'p', 00H, 'h', 00H, 'E', 00H, 'd', 00H, 'g', 00H, 'e', 00H, ' '
	DB	00H, 'c', 00H, 'o', 00H, 'n', 00H, 's', 00H, 't', 00H, ' ', 00H
	DB	'*', 00H, '>', 00H, ' ', 00H, '>', 00H, ':', 00H, ':', 00H, 'o'
	DB	00H, 'p', 00H, 'e', 00H, 'r', 00H, 'a', 00H, 't', 00H, 'o', 00H
	DB	'r', 00H, ' ', 00H, '[', 00H, ']', 00H, 00H, 00H ; `string'
CONST	ENDS
;	COMDAT ??_C@_0BB@MOGOBHAF@list?$DMT?$DO?5too?5long?$AA@
CONST	SEGMENT
??_C@_0BB@MOGOBHAF@list?$DMT?$DO?5too?5long?$AA@ DB 'list<T> too long', 00H ; `string'
CONST	ENDS
;	COMDAT ??_C@_1BDI@JCBOAGAM@?$AAs?$AAt?$AAd?$AA?3?$AA?3?$AAv?$AAe?$AAc?$AAt?$AAo?$AAr?$AA?$DM?$AAc?$AAl?$AAa?$AAs?$AAs?$AA?5?$AAN?$AAa?$AAv?$AAG?$AAr?$AAa?$AAp?$AAh?$AAN?$AAo?$AAd?$AAe?$AA?$DM?$AAc@
CONST	SEGMENT
??_C@_1BDI@JCBOAGAM@?$AAs?$AAt?$AAd?$AA?3?$AA?3?$AAv?$AAe?$AAc?$AAt?$AAo?$AAr?$AA?$DM?$AAc?$AAl?$AAa?$AAs?$AAs?$AA?5?$AAN?$AAa?$AAv?$AAG?$AAr?$AAa?$AAp?$AAh?$AAN?$AAo?$AAd?$AAe?$AA?$DM?$AAc@ DB 's'
	DB	00H, 't', 00H, 'd', 00H, ':', 00H, ':', 00H, 'v', 00H, 'e', 00H
	DB	'c', 00H, 't', 00H, 'o', 00H, 'r', 00H, '<', 00H, 'c', 00H, 'l'
	DB	00H, 'a', 00H, 's', 00H, 's', 00H, ' ', 00H, 'N', 00H, 'a', 00H
	DB	'v', 00H, 'G', 00H, 'r', 00H, 'a', 00H, 'p', 00H, 'h', 00H, 'N'
	DB	00H, 'o', 00H, 'd', 00H, 'e', 00H, '<', 00H, 'c', 00H, 'l', 00H
	DB	'a', 00H, 's', 00H, 's', 00H, ' ', 00H, 'T', 00H, 'r', 00H, 'i'
	DB	00H, 'g', 00H, 'g', 00H, 'e', 00H, 'r', 00H, '<', 00H, 'c', 00H
	DB	'l', 00H, 'a', 00H, 's', 00H, 's', 00H, ' ', 00H, 'R', 00H, 'a'
	DB	00H, 'v', 00H, 'e', 00H, 'n', 00H, '_', 00H, 'B', 00H, 'o', 00H
	DB	't', 00H, '>', 00H, ' ', 00H, '*', 00H, '>', 00H, ',', 00H, 'c'
	DB	00H, 'l', 00H, 'a', 00H, 's', 00H, 's', 00H, ' ', 00H, 's', 00H
	DB	't', 00H, 'd', 00H, ':', 00H, ':', 00H, 'a', 00H, 'l', 00H, 'l'
	DB	00H, 'o', 00H, 'c', 00H, 'a', 00H, 't', 00H, 'o', 00H, 'r', 00H
	DB	'<', 00H, 'c', 00H, 'l', 00H, 'a', 00H, 's', 00H, 's', 00H, ' '
	DB	00H, 'N', 00H, 'a', 00H, 'v', 00H, 'G', 00H, 'r', 00H, 'a', 00H
	DB	'p', 00H, 'h', 00H, 'N', 00H, 'o', 00H, 'd', 00H, 'e', 00H, '<'
	DB	00H, 'c', 00H, 'l', 00H, 'a', 00H, 's', 00H, 's', 00H, ' ', 00H
	DB	'T', 00H, 'r', 00H, 'i', 00H, 'g', 00H, 'g', 00H, 'e', 00H, 'r'
	DB	00H, '<', 00H, 'c', 00H, 'l', 00H, 'a', 00H, 's', 00H, 's', 00H
	DB	' ', 00H, 'R', 00H, 'a', 00H, 'v', 00H, 'e', 00H, 'n', 00H, '_'
	DB	00H, 'B', 00H, 'o', 00H, 't', 00H, '>', 00H, ' ', 00H, '*', 00H
	DB	'>', 00H, ' ', 00H, '>', 00H, ' ', 00H, '>', 00H, ':', 00H, ':'
	DB	00H, 'o', 00H, 'p', 00H, 'e', 00H, 'r', 00H, 'a', 00H, 't', 00H
	DB	'o', 00H, 'r', 00H, ' ', 00H, '[', 00H, ']', 00H, 00H, 00H ; `string'
CONST	ENDS
;	COMDAT ??_C@_1CK@EOPGIILJ@?$AAi?$AAn?$AAv?$AAa?$AAl?$AAi?$AAd?$AA?5?$AAn?$AAu?$AAl?$AAl?$AA?5?$AAp?$AAo?$AAi?$AAn?$AAt?$AAe?$AAr?$AA?$AA@
CONST	SEGMENT
??_C@_1CK@EOPGIILJ@?$AAi?$AAn?$AAv?$AAa?$AAl?$AAi?$AAd?$AA?5?$AAn?$AAu?$AAl?$AAl?$AA?5?$AAp?$AAo?$AAi?$AAn?$AAt?$AAe?$AAr?$AA?$AA@ DB 'i'
	DB	00H, 'n', 00H, 'v', 00H, 'a', 00H, 'l', 00H, 'i', 00H, 'd', 00H
	DB	' ', 00H, 'n', 00H, 'u', 00H, 'l', 00H, 'l', 00H, ' ', 00H, 'p'
	DB	00H, 'o', 00H, 'i', 00H, 'n', 00H, 't', 00H, 'e', 00H, 'r', 00H
	DB	00H, 00H					; `string'
CONST	ENDS
;	COMDAT ??_C@_1MG@JKKENLGC@?$AAs?$AAt?$AAd?$AA?3?$AA?3?$AA_?$AAV?$AAe?$AAc?$AAt?$AAo?$AAr?$AA_?$AAc?$AAo?$AAn?$AAs?$AAt?$AA_?$AAi?$AAt?$AAe?$AAr?$AAa?$AAt?$AAo?$AAr?$AA?$DM?$AAc?$AAl?$AAa?$AAs@
CONST	SEGMENT
??_C@_1MG@JKKENLGC@?$AAs?$AAt?$AAd?$AA?3?$AA?3?$AA_?$AAV?$AAe?$AAc?$AAt?$AAo?$AAr?$AA_?$AAc?$AAo?$AAn?$AAs?$AAt?$AA_?$AAi?$AAt?$AAe?$AAr?$AAa?$AAt?$AAo?$AAr?$AA?$DM?$AAc?$AAl?$AAa?$AAs@ DB 's'
	DB	00H, 't', 00H, 'd', 00H, ':', 00H, ':', 00H, '_', 00H, 'V', 00H
	DB	'e', 00H, 'c', 00H, 't', 00H, 'o', 00H, 'r', 00H, '_', 00H, 'c'
	DB	00H, 'o', 00H, 'n', 00H, 's', 00H, 't', 00H, '_', 00H, 'i', 00H
	DB	't', 00H, 'e', 00H, 'r', 00H, 'a', 00H, 't', 00H, 'o', 00H, 'r'
	DB	00H, '<', 00H, 'c', 00H, 'l', 00H, 'a', 00H, 's', 00H, 's', 00H
	DB	' ', 00H, 's', 00H, 't', 00H, 'd', 00H, ':', 00H, ':', 00H, '_'
	DB	00H, 'V', 00H, 'e', 00H, 'c', 00H, 't', 00H, 'o', 00H, 'r', 00H
	DB	'_', 00H, 'v', 00H, 'a', 00H, 'l', 00H, '<', 00H, 's', 00H, 't'
	DB	00H, 'r', 00H, 'u', 00H, 'c', 00H, 't', 00H, ' ', 00H, 's', 00H
	DB	't', 00H, 'd', 00H, ':', 00H, ':', 00H, '_', 00H, 'S', 00H, 'i'
	DB	00H, 'm', 00H, 'p', 00H, 'l', 00H, 'e', 00H, '_', 00H, 't', 00H
	DB	'y', 00H, 'p', 00H, 'e', 00H, 's', 00H, '<', 00H, 'i', 00H, 'n'
	DB	00H, 't', 00H, '>', 00H, ' ', 00H, '>', 00H, ' ', 00H, '>', 00H
	DB	':', 00H, ':', 00H, 'o', 00H, 'p', 00H, 'e', 00H, 'r', 00H, 'a'
	DB	00H, 't', 00H, 'o', 00H, 'r', 00H, ' ', 00H, '+', 00H, '=', 00H
	DB	00H, 00H					; `string'
CONST	ENDS
;	COMDAT ??_C@_1EM@FKAOCOMF@?$AAv?$AAe?$AAc?$AAt?$AAo?$AAr?$AA?5?$AAi?$AAt?$AAe?$AAr?$AAa?$AAt?$AAo?$AAr?$AA?5?$AA?$CL?$AA?5?$AAo?$AAf?$AAf?$AAs?$AAe?$AAt?$AA?5?$AAo?$AAu?$AAt?$AA?5?$AAo?$AAf?$AA?5@
CONST	SEGMENT
??_C@_1EM@FKAOCOMF@?$AAv?$AAe?$AAc?$AAt?$AAo?$AAr?$AA?5?$AAi?$AAt?$AAe?$AAr?$AAa?$AAt?$AAo?$AAr?$AA?5?$AA?$CL?$AA?5?$AAo?$AAf?$AAf?$AAs?$AAe?$AAt?$AA?5?$AAo?$AAu?$AAt?$AA?5?$AAo?$AAf?$AA?5@ DB 'v'
	DB	00H, 'e', 00H, 'c', 00H, 't', 00H, 'o', 00H, 'r', 00H, ' ', 00H
	DB	'i', 00H, 't', 00H, 'e', 00H, 'r', 00H, 'a', 00H, 't', 00H, 'o'
	DB	00H, 'r', 00H, ' ', 00H, '+', 00H, ' ', 00H, 'o', 00H, 'f', 00H
	DB	'f', 00H, 's', 00H, 'e', 00H, 't', 00H, ' ', 00H, 'o', 00H, 'u'
	DB	00H, 't', 00H, ' ', 00H, 'o', 00H, 'f', 00H, ' ', 00H, 'r', 00H
	DB	'a', 00H, 'n', 00H, 'g', 00H, 'e', 00H, 00H, 00H ; `string'
CONST	ENDS
;	COMDAT ??_C@_1EK@EEHFMKDC@?$AAv?$AAe?$AAc?$AAt?$AAo?$AAr?$AA?5?$AAi?$AAn?$AAs?$AAe?$AAr?$AAt?$AA?5?$AAi?$AAt?$AAe?$AAr?$AAa?$AAt?$AAo?$AAr?$AA?5?$AAo?$AAu?$AAt?$AAs?$AAi?$AAd?$AAe?$AA?5?$AAr@
CONST	SEGMENT
??_C@_1EK@EEHFMKDC@?$AAv?$AAe?$AAc?$AAt?$AAo?$AAr?$AA?5?$AAi?$AAn?$AAs?$AAe?$AAr?$AAt?$AA?5?$AAi?$AAt?$AAe?$AAr?$AAa?$AAt?$AAo?$AAr?$AA?5?$AAo?$AAu?$AAt?$AAs?$AAi?$AAd?$AAe?$AA?5?$AAr@ DB 'v'
	DB	00H, 'e', 00H, 'c', 00H, 't', 00H, 'o', 00H, 'r', 00H, ' ', 00H
	DB	'i', 00H, 'n', 00H, 's', 00H, 'e', 00H, 'r', 00H, 't', 00H, ' '
	DB	00H, 'i', 00H, 't', 00H, 'e', 00H, 'r', 00H, 'a', 00H, 't', 00H
	DB	'o', 00H, 'r', 00H, ' ', 00H, 'o', 00H, 'u', 00H, 't', 00H, 's'
	DB	00H, 'i', 00H, 'd', 00H, 'e', 00H, ' ', 00H, 'r', 00H, 'a', 00H
	DB	'n', 00H, 'g', 00H, 'e', 00H, 00H, 00H	; `string'
CONST	ENDS
;	COMDAT ??_C@_1MI@DMDPBFHG@?$AAs?$AAt?$AAd?$AA?3?$AA?3?$AA_?$AAL?$AAi?$AAs?$AAt?$AA_?$AAc?$AAo?$AAn?$AAs?$AAt?$AA_?$AAi?$AAt?$AAe?$AAr?$AAa?$AAt?$AAo?$AAr?$AA?$DM?$AAc?$AAl?$AAa?$AAs?$AAs?$AA?5@
CONST	SEGMENT
??_C@_1MI@DMDPBFHG@?$AAs?$AAt?$AAd?$AA?3?$AA?3?$AA_?$AAL?$AAi?$AAs?$AAt?$AA_?$AAc?$AAo?$AAn?$AAs?$AAt?$AA_?$AAi?$AAt?$AAe?$AAr?$AAa?$AAt?$AAo?$AAr?$AA?$DM?$AAc?$AAl?$AAa?$AAs?$AAs?$AA?5@ DB 's'
	DB	00H, 't', 00H, 'd', 00H, ':', 00H, ':', 00H, '_', 00H, 'L', 00H
	DB	'i', 00H, 's', 00H, 't', 00H, '_', 00H, 'c', 00H, 'o', 00H, 'n'
	DB	00H, 's', 00H, 't', 00H, '_', 00H, 'i', 00H, 't', 00H, 'e', 00H
	DB	'r', 00H, 'a', 00H, 't', 00H, 'o', 00H, 'r', 00H, '<', 00H, 'c'
	DB	00H, 'l', 00H, 'a', 00H, 's', 00H, 's', 00H, ' ', 00H, 's', 00H
	DB	't', 00H, 'd', 00H, ':', 00H, ':', 00H, '_', 00H, 'L', 00H, 'i'
	DB	00H, 's', 00H, 't', 00H, '_', 00H, 'v', 00H, 'a', 00H, 'l', 00H
	DB	'<', 00H, 's', 00H, 't', 00H, 'r', 00H, 'u', 00H, 'c', 00H, 't'
	DB	00H, ' ', 00H, 's', 00H, 't', 00H, 'd', 00H, ':', 00H, ':', 00H
	DB	'_', 00H, 'L', 00H, 'i', 00H, 's', 00H, 't', 00H, '_', 00H, 's'
	DB	00H, 'i', 00H, 'm', 00H, 'p', 00H, 'l', 00H, 'e', 00H, '_', 00H
	DB	't', 00H, 'y', 00H, 'p', 00H, 'e', 00H, 's', 00H, '<', 00H, 'i'
	DB	00H, 'n', 00H, 't', 00H, '>', 00H, ' ', 00H, '>', 00H, ' ', 00H
	DB	'>', 00H, ':', 00H, ':', 00H, 'o', 00H, 'p', 00H, 'e', 00H, 'r'
	DB	00H, 'a', 00H, 't', 00H, 'o', 00H, 'r', 00H, ' ', 00H, '-', 00H
	DB	'-', 00H, 00H, 00H				; `string'
CONST	ENDS
;	COMDAT ??_C@_1MG@EPLOJHHC@?$AAs?$AAt?$AAd?$AA?3?$AA?3?$AA_?$AAL?$AAi?$AAs?$AAt?$AA_?$AAc?$AAo?$AAn?$AAs?$AAt?$AA_?$AAi?$AAt?$AAe?$AAr?$AAa?$AAt?$AAo?$AAr?$AA?$DM?$AAc?$AAl?$AAa?$AAs?$AAs?$AA?5@
CONST	SEGMENT
??_C@_1MG@EPLOJHHC@?$AAs?$AAt?$AAd?$AA?3?$AA?3?$AA_?$AAL?$AAi?$AAs?$AAt?$AA_?$AAc?$AAo?$AAn?$AAs?$AAt?$AA_?$AAi?$AAt?$AAe?$AAr?$AAa?$AAt?$AAo?$AAr?$AA?$DM?$AAc?$AAl?$AAa?$AAs?$AAs?$AA?5@ DB 's'
	DB	00H, 't', 00H, 'd', 00H, ':', 00H, ':', 00H, '_', 00H, 'L', 00H
	DB	'i', 00H, 's', 00H, 't', 00H, '_', 00H, 'c', 00H, 'o', 00H, 'n'
	DB	00H, 's', 00H, 't', 00H, '_', 00H, 'i', 00H, 't', 00H, 'e', 00H
	DB	'r', 00H, 'a', 00H, 't', 00H, 'o', 00H, 'r', 00H, '<', 00H, 'c'
	DB	00H, 'l', 00H, 'a', 00H, 's', 00H, 's', 00H, ' ', 00H, 's', 00H
	DB	't', 00H, 'd', 00H, ':', 00H, ':', 00H, '_', 00H, 'L', 00H, 'i'
	DB	00H, 's', 00H, 't', 00H, '_', 00H, 'v', 00H, 'a', 00H, 'l', 00H
	DB	'<', 00H, 's', 00H, 't', 00H, 'r', 00H, 'u', 00H, 'c', 00H, 't'
	DB	00H, ' ', 00H, 's', 00H, 't', 00H, 'd', 00H, ':', 00H, ':', 00H
	DB	'_', 00H, 'L', 00H, 'i', 00H, 's', 00H, 't', 00H, '_', 00H, 's'
	DB	00H, 'i', 00H, 'm', 00H, 'p', 00H, 'l', 00H, 'e', 00H, '_', 00H
	DB	't', 00H, 'y', 00H, 'p', 00H, 'e', 00H, 's', 00H, '<', 00H, 'i'
	DB	00H, 'n', 00H, 't', 00H, '>', 00H, ' ', 00H, '>', 00H, ' ', 00H
	DB	'>', 00H, ':', 00H, ':', 00H, 'o', 00H, 'p', 00H, 'e', 00H, 'r'
	DB	00H, 'a', 00H, 't', 00H, 'o', 00H, 'r', 00H, ' ', 00H, '*', 00H
	DB	00H, 00H					; `string'
CONST	ENDS
;	COMDAT ??_C@_1BCE@OCGHGJBH@?$AAs?$AAt?$AAd?$AA?3?$AA?3?$AA_?$AAV?$AAe?$AAc?$AAt?$AAo?$AAr?$AA_?$AAc?$AAo?$AAn?$AAs?$AAt?$AA_?$AAi?$AAt?$AAe?$AAr?$AAa?$AAt?$AAo?$AAr?$AA?$DM?$AAc?$AAl?$AAa?$AAs@
CONST	SEGMENT
??_C@_1BCE@OCGHGJBH@?$AAs?$AAt?$AAd?$AA?3?$AA?3?$AA_?$AAV?$AAe?$AAc?$AAt?$AAo?$AAr?$AA_?$AAc?$AAo?$AAn?$AAs?$AAt?$AA_?$AAi?$AAt?$AAe?$AAr?$AAa?$AAt?$AAo?$AAr?$AA?$DM?$AAc?$AAl?$AAa?$AAs@ DB 's'
	DB	00H, 't', 00H, 'd', 00H, ':', 00H, ':', 00H, '_', 00H, 'V', 00H
	DB	'e', 00H, 'c', 00H, 't', 00H, 'o', 00H, 'r', 00H, '_', 00H, 'c'
	DB	00H, 'o', 00H, 'n', 00H, 's', 00H, 't', 00H, '_', 00H, 'i', 00H
	DB	't', 00H, 'e', 00H, 'r', 00H, 'a', 00H, 't', 00H, 'o', 00H, 'r'
	DB	00H, '<', 00H, 'c', 00H, 'l', 00H, 'a', 00H, 's', 00H, 's', 00H
	DB	' ', 00H, 's', 00H, 't', 00H, 'd', 00H, ':', 00H, ':', 00H, '_'
	DB	00H, 'V', 00H, 'e', 00H, 'c', 00H, 't', 00H, 'o', 00H, 'r', 00H
	DB	'_', 00H, 'v', 00H, 'a', 00H, 'l', 00H, '<', 00H, 's', 00H, 't'
	DB	00H, 'r', 00H, 'u', 00H, 'c', 00H, 't', 00H, ' ', 00H, 's', 00H
	DB	't', 00H, 'd', 00H, ':', 00H, ':', 00H, '_', 00H, 'S', 00H, 'i'
	DB	00H, 'm', 00H, 'p', 00H, 'l', 00H, 'e', 00H, '_', 00H, 't', 00H
	DB	'y', 00H, 'p', 00H, 'e', 00H, 's', 00H, '<', 00H, 'c', 00H, 'l'
	DB	00H, 'a', 00H, 's', 00H, 's', 00H, ' ', 00H, 'N', 00H, 'a', 00H
	DB	'v', 00H, 'G', 00H, 'r', 00H, 'a', 00H, 'p', 00H, 'h', 00H, 'N'
	DB	00H, 'o', 00H, 'd', 00H, 'e', 00H, '<', 00H, 'c', 00H, 'l', 00H
	DB	'a', 00H, 's', 00H, 's', 00H, ' ', 00H, 'T', 00H, 'r', 00H, 'i'
	DB	00H, 'g', 00H, 'g', 00H, 'e', 00H, 'r', 00H, '<', 00H, 'c', 00H
	DB	'l', 00H, 'a', 00H, 's', 00H, 's', 00H, ' ', 00H, 'R', 00H, 'a'
	DB	00H, 'v', 00H, 'e', 00H, 'n', 00H, '_', 00H, 'B', 00H, 'o', 00H
	DB	't', 00H, '>', 00H, ' ', 00H, '*', 00H, '>', 00H, ' ', 00H, '*'
	DB	00H, '>', 00H, ' ', 00H, '>', 00H, ' ', 00H, '>', 00H, ':', 00H
	DB	':', 00H, '_', 00H, 'C', 00H, 'o', 00H, 'm', 00H, 'p', 00H, 'a'
	DB	00H, 't', 00H, 00H, 00H			; `string'
CONST	ENDS
;	COMDAT ??_C@_1DM@HINDPMBP@?$AAv?$AAe?$AAc?$AAt?$AAo?$AAr?$AA?5?$AAi?$AAt?$AAe?$AAr?$AAa?$AAt?$AAo?$AAr?$AAs?$AA?5?$AAi?$AAn?$AAc?$AAo?$AAm?$AAp?$AAa?$AAt?$AAi?$AAb?$AAl?$AAe?$AA?$AA@
CONST	SEGMENT
??_C@_1DM@HINDPMBP@?$AAv?$AAe?$AAc?$AAt?$AAo?$AAr?$AA?5?$AAi?$AAt?$AAe?$AAr?$AAa?$AAt?$AAo?$AAr?$AAs?$AA?5?$AAi?$AAn?$AAc?$AAo?$AAm?$AAp?$AAa?$AAt?$AAi?$AAb?$AAl?$AAe?$AA?$AA@ DB 'v'
	DB	00H, 'e', 00H, 'c', 00H, 't', 00H, 'o', 00H, 'r', 00H, ' ', 00H
	DB	'i', 00H, 't', 00H, 'e', 00H, 'r', 00H, 'a', 00H, 't', 00H, 'o'
	DB	00H, 'r', 00H, 's', 00H, ' ', 00H, 'i', 00H, 'n', 00H, 'c', 00H
	DB	'o', 00H, 'm', 00H, 'p', 00H, 'a', 00H, 't', 00H, 'i', 00H, 'b'
	DB	00H, 'l', 00H, 'e', 00H, 00H, 00H		; `string'
CONST	ENDS
;	COMDAT ??_C@_1BCM@PPJHGIFH@?$AAs?$AAt?$AAd?$AA?3?$AA?3?$AA_?$AAV?$AAe?$AAc?$AAt?$AAo?$AAr?$AA_?$AAc?$AAo?$AAn?$AAs?$AAt?$AA_?$AAi?$AAt?$AAe?$AAr?$AAa?$AAt?$AAo?$AAr?$AA?$DM?$AAc?$AAl?$AAa?$AAs@
CONST	SEGMENT
??_C@_1BCM@PPJHGIFH@?$AAs?$AAt?$AAd?$AA?3?$AA?3?$AA_?$AAV?$AAe?$AAc?$AAt?$AAo?$AAr?$AA_?$AAc?$AAo?$AAn?$AAs?$AAt?$AA_?$AAi?$AAt?$AAe?$AAr?$AAa?$AAt?$AAo?$AAr?$AA?$DM?$AAc?$AAl?$AAa?$AAs@ DB 's'
	DB	00H, 't', 00H, 'd', 00H, ':', 00H, ':', 00H, '_', 00H, 'V', 00H
	DB	'e', 00H, 'c', 00H, 't', 00H, 'o', 00H, 'r', 00H, '_', 00H, 'c'
	DB	00H, 'o', 00H, 'n', 00H, 's', 00H, 't', 00H, '_', 00H, 'i', 00H
	DB	't', 00H, 'e', 00H, 'r', 00H, 'a', 00H, 't', 00H, 'o', 00H, 'r'
	DB	00H, '<', 00H, 'c', 00H, 'l', 00H, 'a', 00H, 's', 00H, 's', 00H
	DB	' ', 00H, 's', 00H, 't', 00H, 'd', 00H, ':', 00H, ':', 00H, '_'
	DB	00H, 'V', 00H, 'e', 00H, 'c', 00H, 't', 00H, 'o', 00H, 'r', 00H
	DB	'_', 00H, 'v', 00H, 'a', 00H, 'l', 00H, '<', 00H, 's', 00H, 't'
	DB	00H, 'r', 00H, 'u', 00H, 'c', 00H, 't', 00H, ' ', 00H, 's', 00H
	DB	't', 00H, 'd', 00H, ':', 00H, ':', 00H, '_', 00H, 'S', 00H, 'i'
	DB	00H, 'm', 00H, 'p', 00H, 'l', 00H, 'e', 00H, '_', 00H, 't', 00H
	DB	'y', 00H, 'p', 00H, 'e', 00H, 's', 00H, '<', 00H, 'c', 00H, 'l'
	DB	00H, 'a', 00H, 's', 00H, 's', 00H, ' ', 00H, 'N', 00H, 'a', 00H
	DB	'v', 00H, 'G', 00H, 'r', 00H, 'a', 00H, 'p', 00H, 'h', 00H, 'N'
	DB	00H, 'o', 00H, 'd', 00H, 'e', 00H, '<', 00H, 'c', 00H, 'l', 00H
	DB	'a', 00H, 's', 00H, 's', 00H, ' ', 00H, 'T', 00H, 'r', 00H, 'i'
	DB	00H, 'g', 00H, 'g', 00H, 'e', 00H, 'r', 00H, '<', 00H, 'c', 00H
	DB	'l', 00H, 'a', 00H, 's', 00H, 's', 00H, ' ', 00H, 'R', 00H, 'a'
	DB	00H, 'v', 00H, 'e', 00H, 'n', 00H, '_', 00H, 'B', 00H, 'o', 00H
	DB	't', 00H, '>', 00H, ' ', 00H, '*', 00H, '>', 00H, ' ', 00H, '*'
	DB	00H, '>', 00H, ' ', 00H, '>', 00H, ' ', 00H, '>', 00H, ':', 00H
	DB	':', 00H, 'o', 00H, 'p', 00H, 'e', 00H, 'r', 00H, 'a', 00H, 't'
	DB	00H, 'o', 00H, 'r', 00H, ' ', 00H, '+', 00H, '+', 00H, 00H, 00H ; `string'
CONST	ENDS
;	COMDAT ??_C@_1EE@EJDKCLKB@?$AAv?$AAe?$AAc?$AAt?$AAo?$AAr?$AA?5?$AAi?$AAt?$AAe?$AAr?$AAa?$AAt?$AAo?$AAr?$AA?5?$AAn?$AAo?$AAt?$AA?5?$AAi?$AAn?$AAc?$AAr?$AAe?$AAm?$AAe?$AAn?$AAt?$AAa?$AAb?$AAl@
CONST	SEGMENT
??_C@_1EE@EJDKCLKB@?$AAv?$AAe?$AAc?$AAt?$AAo?$AAr?$AA?5?$AAi?$AAt?$AAe?$AAr?$AAa?$AAt?$AAo?$AAr?$AA?5?$AAn?$AAo?$AAt?$AA?5?$AAi?$AAn?$AAc?$AAr?$AAe?$AAm?$AAe?$AAn?$AAt?$AAa?$AAb?$AAl@ DB 'v'
	DB	00H, 'e', 00H, 'c', 00H, 't', 00H, 'o', 00H, 'r', 00H, ' ', 00H
	DB	'i', 00H, 't', 00H, 'e', 00H, 'r', 00H, 'a', 00H, 't', 00H, 'o'
	DB	00H, 'r', 00H, ' ', 00H, 'n', 00H, 'o', 00H, 't', 00H, ' ', 00H
	DB	'i', 00H, 'n', 00H, 'c', 00H, 'r', 00H, 'e', 00H, 'm', 00H, 'e'
	DB	00H, 'n', 00H, 't', 00H, 'a', 00H, 'b', 00H, 'l', 00H, 'e', 00H
	DB	00H, 00H					; `string'
CONST	ENDS
;	COMDAT ??_C@_1BCK@BOMLPPEO@?$AAs?$AAt?$AAd?$AA?3?$AA?3?$AA_?$AAV?$AAe?$AAc?$AAt?$AAo?$AAr?$AA_?$AAc?$AAo?$AAn?$AAs?$AAt?$AA_?$AAi?$AAt?$AAe?$AAr?$AAa?$AAt?$AAo?$AAr?$AA?$DM?$AAc?$AAl?$AAa?$AAs@
CONST	SEGMENT
??_C@_1BCK@BOMLPPEO@?$AAs?$AAt?$AAd?$AA?3?$AA?3?$AA_?$AAV?$AAe?$AAc?$AAt?$AAo?$AAr?$AA_?$AAc?$AAo?$AAn?$AAs?$AAt?$AA_?$AAi?$AAt?$AAe?$AAr?$AAa?$AAt?$AAo?$AAr?$AA?$DM?$AAc?$AAl?$AAa?$AAs@ DB 's'
	DB	00H, 't', 00H, 'd', 00H, ':', 00H, ':', 00H, '_', 00H, 'V', 00H
	DB	'e', 00H, 'c', 00H, 't', 00H, 'o', 00H, 'r', 00H, '_', 00H, 'c'
	DB	00H, 'o', 00H, 'n', 00H, 's', 00H, 't', 00H, '_', 00H, 'i', 00H
	DB	't', 00H, 'e', 00H, 'r', 00H, 'a', 00H, 't', 00H, 'o', 00H, 'r'
	DB	00H, '<', 00H, 'c', 00H, 'l', 00H, 'a', 00H, 's', 00H, 's', 00H
	DB	' ', 00H, 's', 00H, 't', 00H, 'd', 00H, ':', 00H, ':', 00H, '_'
	DB	00H, 'V', 00H, 'e', 00H, 'c', 00H, 't', 00H, 'o', 00H, 'r', 00H
	DB	'_', 00H, 'v', 00H, 'a', 00H, 'l', 00H, '<', 00H, 's', 00H, 't'
	DB	00H, 'r', 00H, 'u', 00H, 'c', 00H, 't', 00H, ' ', 00H, 's', 00H
	DB	't', 00H, 'd', 00H, ':', 00H, ':', 00H, '_', 00H, 'S', 00H, 'i'
	DB	00H, 'm', 00H, 'p', 00H, 'l', 00H, 'e', 00H, '_', 00H, 't', 00H
	DB	'y', 00H, 'p', 00H, 'e', 00H, 's', 00H, '<', 00H, 'c', 00H, 'l'
	DB	00H, 'a', 00H, 's', 00H, 's', 00H, ' ', 00H, 'N', 00H, 'a', 00H
	DB	'v', 00H, 'G', 00H, 'r', 00H, 'a', 00H, 'p', 00H, 'h', 00H, 'N'
	DB	00H, 'o', 00H, 'd', 00H, 'e', 00H, '<', 00H, 'c', 00H, 'l', 00H
	DB	'a', 00H, 's', 00H, 's', 00H, ' ', 00H, 'T', 00H, 'r', 00H, 'i'
	DB	00H, 'g', 00H, 'g', 00H, 'e', 00H, 'r', 00H, '<', 00H, 'c', 00H
	DB	'l', 00H, 'a', 00H, 's', 00H, 's', 00H, ' ', 00H, 'R', 00H, 'a'
	DB	00H, 'v', 00H, 'e', 00H, 'n', 00H, '_', 00H, 'B', 00H, 'o', 00H
	DB	't', 00H, '>', 00H, ' ', 00H, '*', 00H, '>', 00H, ' ', 00H, '*'
	DB	00H, '>', 00H, ' ', 00H, '>', 00H, ' ', 00H, '>', 00H, ':', 00H
	DB	':', 00H, 'o', 00H, 'p', 00H, 'e', 00H, 'r', 00H, 'a', 00H, 't'
	DB	00H, 'o', 00H, 'r', 00H, ' ', 00H, '*', 00H, 00H, 00H ; `string'
CONST	ENDS
;	COMDAT ??_C@_1EG@FOHJJHAC@?$AAv?$AAe?$AAc?$AAt?$AAo?$AAr?$AA?5?$AAi?$AAt?$AAe?$AAr?$AAa?$AAt?$AAo?$AAr?$AA?5?$AAn?$AAo?$AAt?$AA?5?$AAd?$AAe?$AAr?$AAe?$AAf?$AAe?$AAr?$AAe?$AAn?$AAc?$AAa?$AAb@
CONST	SEGMENT
